(dp1
S'output'
p2
S"<type 'exceptions.NameError'> name 'li' is not defined"
p3
sS'layer'
p4
S'/home/piyush/web2py/applications/FotoBuk/views/default/index.html'
p5
sS'code'
p6
S'response.write(\'<!DOCTYPE html>\\r\\n<!-- paulirish.com/2008/conditional-stylesheets-vs-css-hacks-answer-neither/ -->\\r\\n<!--[if lt IE 7]><html class="ie ie6 ie-lte9 ie-lte8 ie-lte7 no-js" lang="\', escape=False)\nresponse.write(T.accepted_language or \'en\')\nresponse.write(\'"> <![endif]-->\\r\\n<!--[if IE 7]><html class="ie ie7 ie-lte9 ie-lte8 ie-lte7 no-js" lang="\', escape=False)\nresponse.write(T.accepted_language or \'en\')\nresponse.write(\'"> <![endif]-->\\r\\n<!--[if IE 8]><html class="ie ie8 ie-lte9 ie-lte8 no-js" lang="\', escape=False)\nresponse.write(T.accepted_language or \'en\')\nresponse.write(\'"> <![endif]-->\\r\\n<!--[if IE 9]><html class="ie9 ie-lte9 no-js" lang="\', escape=False)\nresponse.write(T.accepted_language or \'en\')\nresponse.write(\'"> <![endif]-->\\r\\n<!--[if (gt IE 9)|!(IE)]><!--> <html class="no-js" lang="\', escape=False)\nresponse.write(T.accepted_language or \'en\')\nresponse.write(\'"> <!--<![endif]-->\\r\\n<head>\\r\\n  <meta charset="utf-8" />\\r\\n  <!-- www.phpied.com/conditional-comments-block-downloads/ -->\\r\\n  <!-- Always force latest IE rendering engine\\r\\n       (even in intranet) & Chrome Frame\\r\\n       Remove this if you use the .htaccess -->\\r\\n  <!--[if IE]>\\r\\n      <meta http-equiv="X-UA-Compatible" content="IE=edge\', escape=False)\nresponse.write(not request.is_local and \',chrome=1\' or \'\')\nresponse.write(\'">\\r\\n      <![endif]-->\\r\\n  \\r\\n  <title>\', escape=False)\nresponse.write(response.title or request.application)\nresponse.write(\'</title>\\r\\n  \\r\\n  <!-- http://dev.w3.org/html5/markup/meta.name.html -->\\r\\n  <meta name="application-name" content="\', escape=False)\nresponse.write(request.application)\nresponse.write(\'" />\\r\\n  \\r\\n  <!-- Speaking of Google, don\\\'t forget to set your site up:\\r\\n       http://google.com/webmasters -->\\r\\n  <meta name="google-site-verification" content="" />\\r\\n  \\r\\n  <!--  Mobile Viewport Fix\\r\\n\\tj.mp/mobileviewport & davidbcalhoun.com/2010/viewport-metatag\\r\\n\\tdevice-width: Occupy full width of the screen in its current orientation\\r\\n\\tinitial-scale = 1.0 retains dimensions instead of zooming out if page height > device height\\r\\n\\tuser-scalable = yes allows the user to zoom in -->\\r\\n  <meta name="viewport" content="width=device-width, initial-scale=1.0">\\r\\n  \\r\\n  <link rel="shortcut icon" href="\', escape=False)\nresponse.write(URL(\'static\',\'images/favicon.ico\'))\nresponse.write(\'" type="image/x-icon">\\r\\n  <link rel="apple-touch-icon" href="\', escape=False)\nresponse.write(URL(\'static\',\'images/favicon.png\'))\nresponse.write(\'">\\r\\n  \\r\\n  <!-- All JavaScript at the bottom, except for Modernizr which enables \\r\\n       HTML5 elements & feature detects -->\\r\\n  <script src="\', escape=False)\nresponse.write(URL(\'static\',\'js/modernizr.custom.js\'))\nresponse.write(\'"></script>   \\r\\n  \\r\\n  <!-- include stylesheets -->\\r\\n  \', escape=False)\nresponse.files.append(URL(\'static\',\'css/bootstrap.min.css\'))\nresponse.files.append(URL(\'static\',\'css/bootstrap-responsive.min.css\'))\nresponse.files.append(URL(\'static\',\'css/web2py.css\'))\nresponse.files.append(URL(\'static\',\'css/web2py_bootstrap.css\'))\nresponse.write(\'\\r\\n\\r\\n  \', escape=False)\nresponse.write(\'<script type="text/javascript"><!--\\n    // These variables are used by the web2py_ajax_init function in web2py_ajax.js (which is loaded below).\\n    var w2p_ajax_confirm_message = "\', escape=False)\nresponse.write(T(\'Are you sure you want to delete this object?\'))\nresponse.write(\'";\\n    var w2p_ajax_date_format = "\', escape=False)\nresponse.write(T(\'%Y-%m-%d\'))\nresponse.write(\'";\\n    var w2p_ajax_datetime_format = "\', escape=False)\nresponse.write(T(\'%Y-%m-%d %H:%M:%S\'))\nresponse.write(\'";\\n    //--></script>\\n\', escape=False)\nresponse.files.insert(0,URL(\'static\',\'js/jquery.js\'))\nresponse.files.insert(1,URL(\'static\',\'css/calendar.css\'))\nresponse.files.insert(2,URL(\'static\',\'js/calendar.js\'))\nresponse.files.insert(3,URL(\'static\',\'js/web2py.js\'))\nresponse.include_meta()\nresponse.include_files()\nresponse.write(\'\\n\', escape=False)\nresponse.write(\'\\r\\n  \\r\\n  \', escape=False)\n# using sidebars need to know what sidebar you want to use\nleft_sidebar_enabled = globals().get(\'left_sidebar_enabled\',False)\nright_sidebar_enabled = globals().get(\'right_sidebar_enabled\',False)\nmiddle_columns = {0:\'span12\',1:\'span9\',2:\'span6\'}[\n(left_sidebar_enabled and 1 or 0)+(right_sidebar_enabled and 1 or 0)]\nresponse.write(\'\\r\\n\\r\\n  <!-- uncomment here to load jquery-ui\\r\\n       <link rel="stylesheet" href="http://ajax.googleapis.com/ajax/libs/jqueryui/1.8.16/themes/base/jquery-ui.css" type="text/css" media="all" />\\r\\n       <script src="http://ajax.googleapis.com/ajax/libs/jqueryui/1.8.16/jquery-ui.min.js" type="text/javascript"></script>\\r\\n       uncomment to load jquery-ui //-->\\r\\n  <noscript><link href="\', escape=False)\nresponse.write(URL(\'static\', \'css/web2py_bootstrap_nojs.css\'))\nresponse.write(\'" rel="stylesheet" type="text/css" /></noscript>\\r\\n  \', escape=False)\nresponse.write(\'\\r\\n</head>\\r\\n\\r\\n<body>\\r\\n  <!-- Navbar ================================================== -->\\r\\n  <div class="navbar navbar-fixed-top">\\r\\n    <div class="navbar-inner">\\r\\n      <div class="container">\\r\\n\\t<!-- the next tag is necessary for bootstrap menus, do not remove -->\\r\\n\\t<a class="btn btn-navbar" data-toggle="collapse" data-target=".nav-collapse">\\r\\n          <span class="icon-bar"></span>\\r\\n          <span class="icon-bar"></span>\\r\\n          <span class="icon-bar"></span>\\r\\n        </a>\\r\\n\\t<a class="brand" href="#">web2py&trade;&nbsp;</a>\\r\\n\\t<div id="navbar">\', escape=False)\nresponse.write(\'auth\' in globals() and auth.navbar() or \'\')\nresponse.write(\'</div>\\r\\n\\t<div class="nav-collapse">\\r\\n\\t  \', escape=False)\nis_mobile=request.user_agent().is_mobile\nresponse.write(\'\\r\\n\\t  \', escape=False)\nif response.menu:\n    response.write(\'\\r\\n\\t  \', escape=False)\n    response.write(MENU(response.menu, _class=\'mobile-menu nav\' if is_mobile else \'nav\',mobile=is_mobile,li_class=\'dropdown\',ul_class=\'dropdown-menu\'))\n    response.write(\'\\r\\n\\t  \', escape=False)\n    pass\nresponse.write(\'\\r\\n\\t</div><!--/.nav-collapse -->\\r\\n      </div>\\r\\n    </div>\\r\\n  </div><!--/top navbar -->\\r\\n  \\r\\n  <div class="container">\\r\\n    <div class="flash">\', escape=False)\nresponse.write(response.flash or \'\')\nresponse.write(\'</div>\\r\\n\\r\\n    <!-- Masthead ================================================== -->\\r\\n    <header class="mastheader" id="header">\\r\\n      <div class="page-header">\\r\\n\\t<h1>\\r\\n\\t  \', escape=False)\nresponse.write(response.title or request.application)\nresponse.write(\'\\r\\n\\t  <small>\', escape=False)\nresponse.write(response.subtitle or \'\')\nresponse.write(\'</small>\\r\\n\\t</h1>\\r\\n      </div>\\r\\n    </header>\\r\\n    \\r\\n    <section id="main" class="main span12">\\r\\n      <div class="row">\\r\\n\\t\', escape=False)\nif left_sidebar_enabled:\n    response.write(\'\\r\\n\\t<div class="span3 left-sidebar">\\r\\n\\t  \', escape=False)\n    response.write(\'\\r\\n\\t  <h3>Left Sidebar</h3>\\r\\n\\t  <p></p>\\r\\n\\t  \', escape=False)\n    response.write(\'\\r\\n\\t</div>\\r\\n\\t\', escape=False)\n    pass\nresponse.write(\'\\r\\n\\t\\r\\n\\t<div class="\', escape=False)\nresponse.write(middle_columns)\nresponse.write(\'">\\r\\n\\t  \', escape=False)\nresponse.write(\'\\r\\n\\t  \', escape=False)\nresponse.write("\\n<a href=\'insert.html\'>text</a>\\n", escape=False)\nresponse.write(li)\nresponse.write(\'\\n\', escape=False)\nresponse.write(\'\\r\\n\\t  \', escape=False)\nresponse.write(\'\\r\\n\\t</div>\\r\\n\\t\\r\\n\\t\', escape=False)\nif right_sidebar_enabled:\n    response.write(\'\\r\\n\\t<div class="span3">\\r\\n\\t  \', escape=False)\n    response.write(\'\\r\\n\\t  <h3>Right Sidebar</h3>\\r\\n\\t  <p></p>\\r\\n\\t  \', escape=False)\n    response.write(\'\\r\\n\\t</div>    \\r\\n\\t\', escape=False)\n    pass\nresponse.write(\'\\r\\n      </div><!--/row-->\\r\\n    </section><!--/main-->\\r\\n    \\r\\n    <!-- Footer ================================================== -->\\r\\n    <footer class="footer">\\r\\n      \', escape=False)\nresponse.write(\' <!-- this is default footer -->\\r\\n      <div class="footer-content">\\r\\n\\t<div class="copyright pull-left">\', escape=False)\nresponse.write(T(\'Copyright\'))\nresponse.write(\' &#169; \', escape=False)\nresponse.write(request.now.year)\nresponse.write(\'</div>\\r\\n\\t<div id="poweredBy" class="pull-right">\\r\\n\\t  \', escape=False)\nresponse.write(T(\'Powered by\'))\nresponse.write(\'\\r\\n\\t  <a href="http://www.web2py.com/">web2py</a>\\r\\n\\t</div>\\r\\n      </div>\\r\\n      \', escape=False)\nresponse.write(\'\\r\\n    </footer>\\r\\n    \\r\\n  </div> <!-- /container -->\\r\\n  \\r\\n  <!-- The javascript =============================================\\r\\n       (Placed at the end of the document so the pages load faster) -->\\r\\n  <script>\\r\\n    // this code improves bootstrap menus and adds dropdown support\\r\\n    jQuery(function(){\\r\\n      jQuery(\\\'.nav>li>a\\\').each(function(){\\t        \\r\\n        if(jQuery(this).parent().find(\\\'ul\\\').length)\\r\\n          jQuery(this).attr({\\\'class\\\':\\\'dropdown-toggle\\\',\\\'data-toggle\\\':\\\'dropdown\\\'}).append(\\\'<b class="caret"></b>\\\');\\r\\n      });\\r\\n      jQuery(\\\'.nav li li\\\').each(function(){\\t        \\r\\n        if(jQuery(this).find(\\\'ul\\\').length)\\r\\n          jQuery(this).children(\\\'a\\\').contents().before(\\\'<i class="chevron-right"></i>\\\'); \\r\\n      });\\r\\n      if(jQuery(document).width()>=980) {\\r\\n        jQuery(\\\'ul.nav li.dropdown\\\').hover(function() {\\r\\n          jQuery(this).find(\\\'.dropdown-menu\\\').stop(true, true).delay(200).fadeIn(); \\r\\n        }, function() {\\r\\n          jQuery(this).find(\\\'.dropdown-menu\\\').stop(true, true).delay(200).fadeOut(); \\r\\n        });\\r\\n      }\\r\\n      jQuery(\\\'ul.nav li.dropdown a\\\').click(function(){window.location=jQuery(this).attr(\\\'href\\\');});\\r\\n    });\\r\\n  </script>  \\r\\n  <script src="\', escape=False)\nresponse.write(URL(\'static\',\'js/bootstrap.min.js\'))\nresponse.write(\'"></script>  \\r\\n  <!--[if lt IE 7 ]>\\r\\n      <script src="\', escape=False)\nresponse.write(URL(\'static\',\'js/dd_belatedpng.js\'))\nresponse.write(\'"></script>\\r\\n      <script> DD_belatedPNG.fix(\\\'img, .png_bg\\\'); //fix any <img> or .png_bg background-images </script>\\r\\n      <![endif]-->\\r\\n  \', escape=False)\nif response.google_analytics_id:\n    response.write(\'<script type="text/javascript"> var _gaq = _gaq || []; _gaq.push([\\\'_setAccount\\\', \\\'\', escape=False)\n    response.write(response.google_analytics_id)\n    response.write("\']); _gaq.push([\'_trackPageview\']); (function() { var ga = document.createElement(\'script\'); ga.type = \'text/javascript\'; ga.async = true; ga.src = (\'https:\' == document.location.protocol ? \'https://ssl\' : \'http://www\') + \'.google-analytics.com/ga.js\'; var s = document.getElementsByTagName(\'script\')[0]; s.parentNode.insertBefore(ga, s); })(); </script> ", escape=False)\n    pass\nresponse.write(\'\\r\\n  <script src="\', escape=False)\nresponse.write(URL(\'static\',\'js/share.js\',vars=dict(static=URL(\'static\',\'images\'))))\nresponse.write(\'"></script>  \\r\\n</body>\\r\\n</html>\\r\\n\', escape=False)'
p7
sS'snapshot'
p8
(dp9
S'exception'
p10
(dp11
S'__hash__'
p12
S"<method-wrapper '__hash__' of exceptions.NameError object>"
p13
sS'__setattr__'
p14
S"<method-wrapper '__setattr__' of exceptions.NameError object>"
p15
sS'__reduce_ex__'
p16
S'<built-in method __reduce_ex__ of exceptions.NameError object>'
p17
sS'__getslice__'
p18
S"<method-wrapper '__getslice__' of exceptions.NameError object>"
p19
sS'__getitem__'
p20
S"<method-wrapper '__getitem__' of exceptions.NameError object>"
p21
sS'__setstate__'
p22
S'<built-in method __setstate__ of exceptions.NameError object>'
p23
sS'__reduce__'
p24
S'<built-in method __reduce__ of exceptions.NameError object>'
p25
sS'__str__'
p26
S"<method-wrapper '__str__' of exceptions.NameError object>"
p27
sS'__format__'
p28
S'<built-in method __format__ of exceptions.NameError object>'
p29
sS'__getattribute__'
p30
S"<method-wrapper '__getattribute__' of exceptions.NameError object>"
p31
sS'__class__'
p32
S"<type 'exceptions.NameError'>"
p33
sS'__unicode__'
p34
S'<built-in method __unicode__ of exceptions.NameError object>'
p35
sS'__delattr__'
p36
S"<method-wrapper '__delattr__' of exceptions.NameError object>"
p37
sS'__subclasshook__'
p38
S'<built-in method __subclasshook__ of type object>'
p39
sS'__repr__'
p40
S"<method-wrapper '__repr__' of exceptions.NameError object>"
p41
sS'args'
p42
S'("name \'li\' is not defined",)'
p43
sS'__dict__'
p44
S'{}'
p45
sS'__sizeof__'
p46
S'<built-in method __sizeof__ of exceptions.NameError object>'
p47
sS'__doc__'
p48
S"'Name not found globally.'"
p49
sS'__init__'
p50
S"<method-wrapper '__init__' of exceptions.NameError object>"
p51
sS'__new__'
p52
S'<built-in method __new__ of type object>'
p53
ssS'evalue'
p54
S"name 'li' is not defined"
p55
sS'request'
p56
ccopy_reg
_reconstructor
p57
(cgluon.html
BEAUTIFY
p58
c__builtin__
object
p59
NtRp60
(dp61
S'attributes'
p62
(dp63
sS'components'
p64
(lp65
g57
(cgluon.html
TABLE
p66
g59
NtRp67
(dp68
g62
(dp69
S'level'
p70
I5
ssS'parent'
p71
Nsg64
(lp72
g57
(cgluon.html
TR
p73
g59
NtRp74
(dp75
g62
(dp76
sg71
g67
sg64
(lp77
g57
(cgluon.html
TD
p78
g59
NtRp79
(dp80
g62
(dp81
S'_style'
p82
S'font-weight:bold;vertical-align:top'
p83
ssg71
g74
sg64
(lp84
S'ajax'
p85
asbag57
(g78
g59
NtRp86
(dp87
g62
(dp88
S'_valign'
p89
S'top'
p90
ssg71
g74
sg64
(lp91
S':'
asbag57
(g78
g59
NtRp92
(dp93
g62
(dp94
sg71
g74
sg64
(lp95
g57
(g58
g59
NtRp96
(dp97
g62
(dp98
g70
I5
ssg71
g92
sg64
(lp99
S'False'
p100
asbasbasbag57
(g73
g59
NtRp101
(dp102
g62
(dp103
sg71
g67
sg64
(lp104
g57
(g78
g59
NtRp105
(dp106
g62
(dp107
g82
g83
ssg71
g101
sg64
(lp108
S'application'
p109
asbag57
(g78
g59
NtRp110
(dp111
g62
(dp112
g89
g90
ssg71
g101
sg64
(lp113
S':'
asbag57
(g78
g59
NtRp114
(dp115
g62
(dp116
sg71
g101
sg64
(lp117
g57
(g58
g59
NtRp118
(dp119
g62
(dp120
g70
I5
ssg71
g114
sg64
(lp121
S'FotoBuk'
p122
asbasbasbag57
(g73
g59
NtRp123
(dp124
g62
(dp125
sg71
g67
sg64
(lp126
g57
(g78
g59
NtRp127
(dp128
g62
(dp129
g82
g83
ssg71
g123
sg64
(lp130
g42
asbag57
(g78
g59
NtRp131
(dp132
g62
(dp133
g89
g90
ssg71
g123
sg64
(lp134
S':'
asbag57
(g78
g59
NtRp135
(dp136
g62
(dp137
sg71
g123
sg64
(lp138
g57
(g58
g59
NtRp139
(dp140
g62
(dp141
g70
I5
ssg71
g135
sg64
(lp142
g57
(g66
g59
NtRp143
(dp144
g62
(dp145
g70
I4
ssg71
Nsg64
(lp146
sbasbasbasbag57
(g73
g59
NtRp147
(dp148
g62
(dp149
sg71
g67
sg64
(lp150
g57
(g78
g59
NtRp151
(dp152
g62
(dp153
g82
g83
ssg71
g147
sg64
(lp154
S'body'
p155
asbag57
(g78
g59
NtRp156
(dp157
g62
(dp158
g89
g90
ssg71
g147
sg64
(lp159
S':'
asbag57
(g78
g59
NtRp160
(dp161
g62
(dp162
sg71
g147
sg64
(lp163
g57
(g58
g59
NtRp164
(dp165
g62
(dp166
g70
I5
ssg71
g160
sg64
(lp167
S'<cStringIO.StringO object at 0xae998ea0>'
p168
asbasbasbag57
(g73
g59
NtRp169
(dp170
g62
(dp171
sg71
g67
sg64
(lp172
g57
(g78
g59
NtRp173
(dp174
g62
(dp175
g82
g83
ssg71
g169
sg64
(lp176
S'cid'
p177
asbag57
(g78
g59
NtRp178
(dp179
g62
(dp180
g89
g90
ssg71
g169
sg64
(lp181
S':'
asbag57
(g78
g59
NtRp182
(dp183
g62
(dp184
sg71
g169
sg64
(lp185
g57
(g58
g59
NtRp186
(dp187
g62
(dp188
g70
I5
ssg71
g182
sg64
(lp189
S'None'
p190
asbasbasbag57
(g73
g59
NtRp191
(dp192
g62
(dp193
sg71
g67
sg64
(lp194
g57
(g78
g59
NtRp195
(dp196
g62
(dp197
g82
g83
ssg71
g191
sg64
(lp198
S'client'
p199
asbag57
(g78
g59
NtRp200
(dp201
g62
(dp202
g89
g90
ssg71
g191
sg64
(lp203
S':'
asbag57
(g78
g59
NtRp204
(dp205
g62
(dp206
sg71
g191
sg64
(lp207
g57
(g58
g59
NtRp208
(dp209
g62
(dp210
g70
I5
ssg71
g204
sg64
(lp211
S'127.0.0.1'
p212
asbasbasbag57
(g73
g59
NtRp213
(dp214
g62
(dp215
sg71
g67
sg64
(lp216
g57
(g78
g59
NtRp217
(dp218
g62
(dp219
g82
g83
ssg71
g213
sg64
(lp220
S'controller'
p221
asbag57
(g78
g59
NtRp222
(dp223
g62
(dp224
g89
g90
ssg71
g213
sg64
(lp225
S':'
asbag57
(g78
g59
NtRp226
(dp227
g62
(dp228
sg71
g213
sg64
(lp229
g57
(g58
g59
NtRp230
(dp231
g62
(dp232
g70
I5
ssg71
g226
sg64
(lp233
S'default'
p234
asbasbasbag57
(g73
g59
NtRp235
(dp236
g62
(dp237
sg71
g67
sg64
(lp238
g57
(g78
g59
NtRp239
(dp240
g62
(dp241
g82
g83
ssg71
g235
sg64
(lp242
S'cookies'
p243
asbag57
(g78
g59
NtRp244
(dp245
g62
(dp246
g89
g90
ssg71
g235
sg64
(lp247
S':'
asbag57
(g78
g59
NtRp248
(dp249
g62
(dp250
sg71
g235
sg64
(lp251
g57
(g58
g59
NtRp252
(dp253
g62
(dp254
g70
I5
ssg71
g248
sg64
(lp255
g57
(g66
g59
NtRp256
(dp257
g62
(dp258
g70
I4
ssg71
Nsg64
(lp259
g57
(g73
g59
NtRp260
(dp261
g62
(dp262
sg71
g256
sg64
(lp263
g57
(g78
g59
NtRp264
(dp265
g62
(dp266
g82
g83
ssg71
g260
sg64
(lp267
S'session_id_admin'
p268
asbag57
(g78
g59
NtRp269
(dp270
g62
(dp271
g89
g90
ssg71
g260
sg64
(lp272
S':'
asbag57
(g78
g59
NtRp273
(dp274
g62
(dp275
sg71
g260
sg64
(lp276
g57
(g58
g59
NtRp277
(dp278
g62
(dp279
g70
I4
ssg71
g273
sg64
(lp280
S'127.0.0.1-f31a16a6-2f0e-474e-b0b5-7ca781ebd64d'
p281
ag57
(g66
g59
NtRp282
(dp283
g62
(dp284
g70
I3
ssg71
Nsg64
(lp285
g57
(g73
g59
NtRp286
(dp287
g62
(dp288
sg71
g282
sg64
(lp289
g57
(g78
g59
NtRp290
(dp291
g62
(dp292
g82
g83
ssg71
g286
sg64
(lp293
S'comment'
p294
asbag57
(g78
g59
NtRp295
(dp296
g62
(dp297
g89
g90
ssg71
g286
sg64
(lp298
S':'
asbag57
(g78
g59
NtRp299
(dp300
g62
(dp301
sg71
g286
sg64
(lp302
g57
(g58
g59
NtRp303
(dp304
g62
(dp305
g70
I3
ssg71
g299
sg64
(lp306
S''
asbasbasbag57
(g73
g59
NtRp307
(dp308
g62
(dp309
sg71
g282
sg64
(lp310
g57
(g78
g59
NtRp311
(dp312
g62
(dp313
g82
g83
ssg71
g307
sg64
(lp314
S'domain'
p315
asbag57
(g78
g59
NtRp316
(dp317
g62
(dp318
g89
g90
ssg71
g307
sg64
(lp319
S':'
asbag57
(g78
g59
NtRp320
(dp321
g62
(dp322
sg71
g307
sg64
(lp323
g57
(g58
g59
NtRp324
(dp325
g62
(dp326
g70
I3
ssg71
g320
sg64
(lp327
S''
asbasbasbag57
(g73
g59
NtRp328
(dp329
g62
(dp330
sg71
g282
sg64
(lp331
g57
(g78
g59
NtRp332
(dp333
g62
(dp334
g82
g83
ssg71
g328
sg64
(lp335
S'expires'
p336
asbag57
(g78
g59
NtRp337
(dp338
g62
(dp339
g89
g90
ssg71
g328
sg64
(lp340
S':'
asbag57
(g78
g59
NtRp341
(dp342
g62
(dp343
sg71
g328
sg64
(lp344
g57
(g58
g59
NtRp345
(dp346
g62
(dp347
g70
I3
ssg71
g341
sg64
(lp348
S''
asbasbasbag57
(g73
g59
NtRp349
(dp350
g62
(dp351
sg71
g282
sg64
(lp352
g57
(g78
g59
NtRp353
(dp354
g62
(dp355
g82
g83
ssg71
g349
sg64
(lp356
S'httponly'
p357
asbag57
(g78
g59
NtRp358
(dp359
g62
(dp360
g89
g90
ssg71
g349
sg64
(lp361
S':'
asbag57
(g78
g59
NtRp362
(dp363
g62
(dp364
sg71
g349
sg64
(lp365
g57
(g58
g59
NtRp366
(dp367
g62
(dp368
g70
I3
ssg71
g362
sg64
(lp369
S''
asbasbasbag57
(g73
g59
NtRp370
(dp371
g62
(dp372
sg71
g282
sg64
(lp373
g57
(g78
g59
NtRp374
(dp375
g62
(dp376
g82
g83
ssg71
g370
sg64
(lp377
S'max-age'
p378
asbag57
(g78
g59
NtRp379
(dp380
g62
(dp381
g89
g90
ssg71
g370
sg64
(lp382
S':'
asbag57
(g78
g59
NtRp383
(dp384
g62
(dp385
sg71
g370
sg64
(lp386
g57
(g58
g59
NtRp387
(dp388
g62
(dp389
g70
I3
ssg71
g383
sg64
(lp390
S''
asbasbasbag57
(g73
g59
NtRp391
(dp392
g62
(dp393
sg71
g282
sg64
(lp394
g57
(g78
g59
NtRp395
(dp396
g62
(dp397
g82
g83
ssg71
g391
sg64
(lp398
S'path'
p399
asbag57
(g78
g59
NtRp400
(dp401
g62
(dp402
g89
g90
ssg71
g391
sg64
(lp403
S':'
asbag57
(g78
g59
NtRp404
(dp405
g62
(dp406
sg71
g391
sg64
(lp407
g57
(g58
g59
NtRp408
(dp409
g62
(dp410
g70
I3
ssg71
g404
sg64
(lp411
S''
asbasbasbag57
(g73
g59
NtRp412
(dp413
g62
(dp414
sg71
g282
sg64
(lp415
g57
(g78
g59
NtRp416
(dp417
g62
(dp418
g82
g83
ssg71
g412
sg64
(lp419
S'secure'
p420
asbag57
(g78
g59
NtRp421
(dp422
g62
(dp423
g89
g90
ssg71
g412
sg64
(lp424
S':'
asbag57
(g78
g59
NtRp425
(dp426
g62
(dp427
sg71
g412
sg64
(lp428
g57
(g58
g59
NtRp429
(dp430
g62
(dp431
g70
I3
ssg71
g425
sg64
(lp432
S''
asbasbasbag57
(g73
g59
NtRp433
(dp434
g62
(dp435
sg71
g282
sg64
(lp436
g57
(g78
g59
NtRp437
(dp438
g62
(dp439
g82
g83
ssg71
g433
sg64
(lp440
S'version'
p441
asbag57
(g78
g59
NtRp442
(dp443
g62
(dp444
g89
g90
ssg71
g433
sg64
(lp445
S':'
asbag57
(g78
g59
NtRp446
(dp447
g62
(dp448
sg71
g433
sg64
(lp449
g57
(g58
g59
NtRp450
(dp451
g62
(dp452
g70
I3
ssg71
g446
sg64
(lp453
S''
asbasbasbasbasbasbasbag57
(g73
g59
NtRp454
(dp455
g62
(dp456
sg71
g256
sg64
(lp457
g57
(g78
g59
NtRp458
(dp459
g62
(dp460
g82
g83
ssg71
g454
sg64
(lp461
S'session_id_fotobuk'
p462
asbag57
(g78
g59
NtRp463
(dp464
g62
(dp465
g89
g90
ssg71
g454
sg64
(lp466
S':'
asbag57
(g78
g59
NtRp467
(dp468
g62
(dp469
sg71
g454
sg64
(lp470
g57
(g58
g59
NtRp471
(dp472
g62
(dp473
g70
I4
ssg71
g467
sg64
(lp474
S'127.0.0.1-961e4bc4-dc07-4e6c-b9f7-52a46e56ffd5'
p475
ag57
(g66
g59
NtRp476
(dp477
g62
(dp478
g70
I3
ssg71
Nsg64
(lp479
g57
(g73
g59
NtRp480
(dp481
g62
(dp482
sg71
g476
sg64
(lp483
g57
(g78
g59
NtRp484
(dp485
g62
(dp486
g82
g83
ssg71
g480
sg64
(lp487
g294
asbag57
(g78
g59
NtRp488
(dp489
g62
(dp490
g89
g90
ssg71
g480
sg64
(lp491
S':'
asbag57
(g78
g59
NtRp492
(dp493
g62
(dp494
sg71
g480
sg64
(lp495
g57
(g58
g59
NtRp496
(dp497
g62
(dp498
g70
I3
ssg71
g492
sg64
(lp499
S''
asbasbasbag57
(g73
g59
NtRp500
(dp501
g62
(dp502
sg71
g476
sg64
(lp503
g57
(g78
g59
NtRp504
(dp505
g62
(dp506
g82
g83
ssg71
g500
sg64
(lp507
g315
asbag57
(g78
g59
NtRp508
(dp509
g62
(dp510
g89
g90
ssg71
g500
sg64
(lp511
S':'
asbag57
(g78
g59
NtRp512
(dp513
g62
(dp514
sg71
g500
sg64
(lp515
g57
(g58
g59
NtRp516
(dp517
g62
(dp518
g70
I3
ssg71
g512
sg64
(lp519
S''
asbasbasbag57
(g73
g59
NtRp520
(dp521
g62
(dp522
sg71
g476
sg64
(lp523
g57
(g78
g59
NtRp524
(dp525
g62
(dp526
g82
g83
ssg71
g520
sg64
(lp527
g336
asbag57
(g78
g59
NtRp528
(dp529
g62
(dp530
g89
g90
ssg71
g520
sg64
(lp531
S':'
asbag57
(g78
g59
NtRp532
(dp533
g62
(dp534
sg71
g520
sg64
(lp535
g57
(g58
g59
NtRp536
(dp537
g62
(dp538
g70
I3
ssg71
g532
sg64
(lp539
S''
asbasbasbag57
(g73
g59
NtRp540
(dp541
g62
(dp542
sg71
g476
sg64
(lp543
g57
(g78
g59
NtRp544
(dp545
g62
(dp546
g82
g83
ssg71
g540
sg64
(lp547
g357
asbag57
(g78
g59
NtRp548
(dp549
g62
(dp550
g89
g90
ssg71
g540
sg64
(lp551
S':'
asbag57
(g78
g59
NtRp552
(dp553
g62
(dp554
sg71
g540
sg64
(lp555
g57
(g58
g59
NtRp556
(dp557
g62
(dp558
g70
I3
ssg71
g552
sg64
(lp559
S''
asbasbasbag57
(g73
g59
NtRp560
(dp561
g62
(dp562
sg71
g476
sg64
(lp563
g57
(g78
g59
NtRp564
(dp565
g62
(dp566
g82
g83
ssg71
g560
sg64
(lp567
g378
asbag57
(g78
g59
NtRp568
(dp569
g62
(dp570
g89
g90
ssg71
g560
sg64
(lp571
S':'
asbag57
(g78
g59
NtRp572
(dp573
g62
(dp574
sg71
g560
sg64
(lp575
g57
(g58
g59
NtRp576
(dp577
g62
(dp578
g70
I3
ssg71
g572
sg64
(lp579
S''
asbasbasbag57
(g73
g59
NtRp580
(dp581
g62
(dp582
sg71
g476
sg64
(lp583
g57
(g78
g59
NtRp584
(dp585
g62
(dp586
g82
g83
ssg71
g580
sg64
(lp587
g399
asbag57
(g78
g59
NtRp588
(dp589
g62
(dp590
g89
g90
ssg71
g580
sg64
(lp591
S':'
asbag57
(g78
g59
NtRp592
(dp593
g62
(dp594
sg71
g580
sg64
(lp595
g57
(g58
g59
NtRp596
(dp597
g62
(dp598
g70
I3
ssg71
g592
sg64
(lp599
S''
asbasbasbag57
(g73
g59
NtRp600
(dp601
g62
(dp602
sg71
g476
sg64
(lp603
g57
(g78
g59
NtRp604
(dp605
g62
(dp606
g82
g83
ssg71
g600
sg64
(lp607
g420
asbag57
(g78
g59
NtRp608
(dp609
g62
(dp610
g89
g90
ssg71
g600
sg64
(lp611
S':'
asbag57
(g78
g59
NtRp612
(dp613
g62
(dp614
sg71
g600
sg64
(lp615
g57
(g58
g59
NtRp616
(dp617
g62
(dp618
g70
I3
ssg71
g612
sg64
(lp619
S''
asbasbasbag57
(g73
g59
NtRp620
(dp621
g62
(dp622
sg71
g476
sg64
(lp623
g57
(g78
g59
NtRp624
(dp625
g62
(dp626
g82
g83
ssg71
g620
sg64
(lp627
g441
asbag57
(g78
g59
NtRp628
(dp629
g62
(dp630
g89
g90
ssg71
g620
sg64
(lp631
S':'
asbag57
(g78
g59
NtRp632
(dp633
g62
(dp634
sg71
g620
sg64
(lp635
g57
(g58
g59
NtRp636
(dp637
g62
(dp638
g70
I3
ssg71
g632
sg64
(lp639
S''
asbasbasbasbasbasbasbag57
(g73
g59
NtRp640
(dp641
g62
(dp642
sg71
g256
sg64
(lp643
g57
(g78
g59
NtRp644
(dp645
g62
(dp646
g82
g83
ssg71
g640
sg64
(lp647
S'session_id_ialbum'
p648
asbag57
(g78
g59
NtRp649
(dp650
g62
(dp651
g89
g90
ssg71
g640
sg64
(lp652
S':'
asbag57
(g78
g59
NtRp653
(dp654
g62
(dp655
sg71
g640
sg64
(lp656
g57
(g58
g59
NtRp657
(dp658
g62
(dp659
g70
I4
ssg71
g653
sg64
(lp660
S'127.0.0.1-8bab57f4-8655-4ca4-8b5d-11fde04576c5'
p661
ag57
(g66
g59
NtRp662
(dp663
g62
(dp664
g70
I3
ssg71
Nsg64
(lp665
g57
(g73
g59
NtRp666
(dp667
g62
(dp668
sg71
g662
sg64
(lp669
g57
(g78
g59
NtRp670
(dp671
g62
(dp672
g82
g83
ssg71
g666
sg64
(lp673
g294
asbag57
(g78
g59
NtRp674
(dp675
g62
(dp676
g89
g90
ssg71
g666
sg64
(lp677
S':'
asbag57
(g78
g59
NtRp678
(dp679
g62
(dp680
sg71
g666
sg64
(lp681
g57
(g58
g59
NtRp682
(dp683
g62
(dp684
g70
I3
ssg71
g678
sg64
(lp685
S''
asbasbasbag57
(g73
g59
NtRp686
(dp687
g62
(dp688
sg71
g662
sg64
(lp689
g57
(g78
g59
NtRp690
(dp691
g62
(dp692
g82
g83
ssg71
g686
sg64
(lp693
g315
asbag57
(g78
g59
NtRp694
(dp695
g62
(dp696
g89
g90
ssg71
g686
sg64
(lp697
S':'
asbag57
(g78
g59
NtRp698
(dp699
g62
(dp700
sg71
g686
sg64
(lp701
g57
(g58
g59
NtRp702
(dp703
g62
(dp704
g70
I3
ssg71
g698
sg64
(lp705
S''
asbasbasbag57
(g73
g59
NtRp706
(dp707
g62
(dp708
sg71
g662
sg64
(lp709
g57
(g78
g59
NtRp710
(dp711
g62
(dp712
g82
g83
ssg71
g706
sg64
(lp713
g336
asbag57
(g78
g59
NtRp714
(dp715
g62
(dp716
g89
g90
ssg71
g706
sg64
(lp717
S':'
asbag57
(g78
g59
NtRp718
(dp719
g62
(dp720
sg71
g706
sg64
(lp721
g57
(g58
g59
NtRp722
(dp723
g62
(dp724
g70
I3
ssg71
g718
sg64
(lp725
S''
asbasbasbag57
(g73
g59
NtRp726
(dp727
g62
(dp728
sg71
g662
sg64
(lp729
g57
(g78
g59
NtRp730
(dp731
g62
(dp732
g82
g83
ssg71
g726
sg64
(lp733
g357
asbag57
(g78
g59
NtRp734
(dp735
g62
(dp736
g89
g90
ssg71
g726
sg64
(lp737
S':'
asbag57
(g78
g59
NtRp738
(dp739
g62
(dp740
sg71
g726
sg64
(lp741
g57
(g58
g59
NtRp742
(dp743
g62
(dp744
g70
I3
ssg71
g738
sg64
(lp745
S''
asbasbasbag57
(g73
g59
NtRp746
(dp747
g62
(dp748
sg71
g662
sg64
(lp749
g57
(g78
g59
NtRp750
(dp751
g62
(dp752
g82
g83
ssg71
g746
sg64
(lp753
g378
asbag57
(g78
g59
NtRp754
(dp755
g62
(dp756
g89
g90
ssg71
g746
sg64
(lp757
S':'
asbag57
(g78
g59
NtRp758
(dp759
g62
(dp760
sg71
g746
sg64
(lp761
g57
(g58
g59
NtRp762
(dp763
g62
(dp764
g70
I3
ssg71
g758
sg64
(lp765
S''
asbasbasbag57
(g73
g59
NtRp766
(dp767
g62
(dp768
sg71
g662
sg64
(lp769
g57
(g78
g59
NtRp770
(dp771
g62
(dp772
g82
g83
ssg71
g766
sg64
(lp773
g399
asbag57
(g78
g59
NtRp774
(dp775
g62
(dp776
g89
g90
ssg71
g766
sg64
(lp777
S':'
asbag57
(g78
g59
NtRp778
(dp779
g62
(dp780
sg71
g766
sg64
(lp781
g57
(g58
g59
NtRp782
(dp783
g62
(dp784
g70
I3
ssg71
g778
sg64
(lp785
S''
asbasbasbag57
(g73
g59
NtRp786
(dp787
g62
(dp788
sg71
g662
sg64
(lp789
g57
(g78
g59
NtRp790
(dp791
g62
(dp792
g82
g83
ssg71
g786
sg64
(lp793
g420
asbag57
(g78
g59
NtRp794
(dp795
g62
(dp796
g89
g90
ssg71
g786
sg64
(lp797
S':'
asbag57
(g78
g59
NtRp798
(dp799
g62
(dp800
sg71
g786
sg64
(lp801
g57
(g58
g59
NtRp802
(dp803
g62
(dp804
g70
I3
ssg71
g798
sg64
(lp805
S''
asbasbasbag57
(g73
g59
NtRp806
(dp807
g62
(dp808
sg71
g662
sg64
(lp809
g57
(g78
g59
NtRp810
(dp811
g62
(dp812
g82
g83
ssg71
g806
sg64
(lp813
g441
asbag57
(g78
g59
NtRp814
(dp815
g62
(dp816
g89
g90
ssg71
g806
sg64
(lp817
S':'
asbag57
(g78
g59
NtRp818
(dp819
g62
(dp820
sg71
g806
sg64
(lp821
g57
(g58
g59
NtRp822
(dp823
g62
(dp824
g70
I3
ssg71
g818
sg64
(lp825
S''
asbasbasbasbasbasbasbag57
(g73
g59
NtRp826
(dp827
g62
(dp828
sg71
g256
sg64
(lp829
g57
(g78
g59
NtRp830
(dp831
g62
(dp832
g82
g83
ssg71
g826
sg64
(lp833
S'session_id_welcome'
p834
asbag57
(g78
g59
NtRp835
(dp836
g62
(dp837
g89
g90
ssg71
g826
sg64
(lp838
S':'
asbag57
(g78
g59
NtRp839
(dp840
g62
(dp841
sg71
g826
sg64
(lp842
g57
(g58
g59
NtRp843
(dp844
g62
(dp845
g70
I4
ssg71
g839
sg64
(lp846
S'127.0.0.1-3299e4b7-9181-4336-a2b6-d67ebc8bfe8e'
p847
ag57
(g66
g59
NtRp848
(dp849
g62
(dp850
g70
I3
ssg71
Nsg64
(lp851
g57
(g73
g59
NtRp852
(dp853
g62
(dp854
sg71
g848
sg64
(lp855
g57
(g78
g59
NtRp856
(dp857
g62
(dp858
g82
g83
ssg71
g852
sg64
(lp859
g294
asbag57
(g78
g59
NtRp860
(dp861
g62
(dp862
g89
g90
ssg71
g852
sg64
(lp863
S':'
asbag57
(g78
g59
NtRp864
(dp865
g62
(dp866
sg71
g852
sg64
(lp867
g57
(g58
g59
NtRp868
(dp869
g62
(dp870
g70
I3
ssg71
g864
sg64
(lp871
S''
asbasbasbag57
(g73
g59
NtRp872
(dp873
g62
(dp874
sg71
g848
sg64
(lp875
g57
(g78
g59
NtRp876
(dp877
g62
(dp878
g82
g83
ssg71
g872
sg64
(lp879
g315
asbag57
(g78
g59
NtRp880
(dp881
g62
(dp882
g89
g90
ssg71
g872
sg64
(lp883
S':'
asbag57
(g78
g59
NtRp884
(dp885
g62
(dp886
sg71
g872
sg64
(lp887
g57
(g58
g59
NtRp888
(dp889
g62
(dp890
g70
I3
ssg71
g884
sg64
(lp891
S''
asbasbasbag57
(g73
g59
NtRp892
(dp893
g62
(dp894
sg71
g848
sg64
(lp895
g57
(g78
g59
NtRp896
(dp897
g62
(dp898
g82
g83
ssg71
g892
sg64
(lp899
g336
asbag57
(g78
g59
NtRp900
(dp901
g62
(dp902
g89
g90
ssg71
g892
sg64
(lp903
S':'
asbag57
(g78
g59
NtRp904
(dp905
g62
(dp906
sg71
g892
sg64
(lp907
g57
(g58
g59
NtRp908
(dp909
g62
(dp910
g70
I3
ssg71
g904
sg64
(lp911
S''
asbasbasbag57
(g73
g59
NtRp912
(dp913
g62
(dp914
sg71
g848
sg64
(lp915
g57
(g78
g59
NtRp916
(dp917
g62
(dp918
g82
g83
ssg71
g912
sg64
(lp919
g357
asbag57
(g78
g59
NtRp920
(dp921
g62
(dp922
g89
g90
ssg71
g912
sg64
(lp923
S':'
asbag57
(g78
g59
NtRp924
(dp925
g62
(dp926
sg71
g912
sg64
(lp927
g57
(g58
g59
NtRp928
(dp929
g62
(dp930
g70
I3
ssg71
g924
sg64
(lp931
S''
asbasbasbag57
(g73
g59
NtRp932
(dp933
g62
(dp934
sg71
g848
sg64
(lp935
g57
(g78
g59
NtRp936
(dp937
g62
(dp938
g82
g83
ssg71
g932
sg64
(lp939
g378
asbag57
(g78
g59
NtRp940
(dp941
g62
(dp942
g89
g90
ssg71
g932
sg64
(lp943
S':'
asbag57
(g78
g59
NtRp944
(dp945
g62
(dp946
sg71
g932
sg64
(lp947
g57
(g58
g59
NtRp948
(dp949
g62
(dp950
g70
I3
ssg71
g944
sg64
(lp951
S''
asbasbasbag57
(g73
g59
NtRp952
(dp953
g62
(dp954
sg71
g848
sg64
(lp955
g57
(g78
g59
NtRp956
(dp957
g62
(dp958
g82
g83
ssg71
g952
sg64
(lp959
g399
asbag57
(g78
g59
NtRp960
(dp961
g62
(dp962
g89
g90
ssg71
g952
sg64
(lp963
S':'
asbag57
(g78
g59
NtRp964
(dp965
g62
(dp966
sg71
g952
sg64
(lp967
g57
(g58
g59
NtRp968
(dp969
g62
(dp970
g70
I3
ssg71
g964
sg64
(lp971
S''
asbasbasbag57
(g73
g59
NtRp972
(dp973
g62
(dp974
sg71
g848
sg64
(lp975
g57
(g78
g59
NtRp976
(dp977
g62
(dp978
g82
g83
ssg71
g972
sg64
(lp979
g420
asbag57
(g78
g59
NtRp980
(dp981
g62
(dp982
g89
g90
ssg71
g972
sg64
(lp983
S':'
asbag57
(g78
g59
NtRp984
(dp985
g62
(dp986
sg71
g972
sg64
(lp987
g57
(g58
g59
NtRp988
(dp989
g62
(dp990
g70
I3
ssg71
g984
sg64
(lp991
S''
asbasbasbag57
(g73
g59
NtRp992
(dp993
g62
(dp994
sg71
g848
sg64
(lp995
g57
(g78
g59
NtRp996
(dp997
g62
(dp998
g82
g83
ssg71
g992
sg64
(lp999
g441
asbag57
(g78
g59
NtRp1000
(dp1001
g62
(dp1002
g89
g90
ssg71
g992
sg64
(lp1003
S':'
asbag57
(g78
g59
NtRp1004
(dp1005
g62
(dp1006
sg71
g992
sg64
(lp1007
g57
(g58
g59
NtRp1008
(dp1009
g62
(dp1010
g70
I3
ssg71
g1004
sg64
(lp1011
S''
asbasbasbasbasbasbasbasbasbasbasbag57
(g73
g59
NtRp1012
(dp1013
g62
(dp1014
sg71
g67
sg64
(lp1015
g57
(g78
g59
NtRp1016
(dp1017
g62
(dp1018
g82
g83
ssg71
g1012
sg64
(lp1019
S'env'
p1020
asbag57
(g78
g59
NtRp1021
(dp1022
g62
(dp1023
g89
g90
ssg71
g1012
sg64
(lp1024
S':'
asbag57
(g78
g59
NtRp1025
(dp1026
g62
(dp1027
sg71
g1012
sg64
(lp1028
g57
(g58
g59
NtRp1029
(dp1030
g62
(dp1031
g70
I5
ssg71
g1025
sg64
(lp1032
g57
(g66
g59
NtRp1033
(dp1034
g62
(dp1035
g70
I4
ssg71
Nsg64
(lp1036
g57
(g73
g59
NtRp1037
(dp1038
g62
(dp1039
sg71
g1033
sg64
(lp1040
g57
(g78
g59
NtRp1041
(dp1042
g62
(dp1043
g82
g83
ssg71
g1037
sg64
(lp1044
S'app_folders'
p1045
asbag57
(g78
g59
NtRp1046
(dp1047
g62
(dp1048
g89
g90
ssg71
g1037
sg64
(lp1049
S':'
asbag57
(g78
g59
NtRp1050
(dp1051
g62
(dp1052
sg71
g1037
sg64
(lp1053
g57
(g58
g59
NtRp1054
(dp1055
g62
(dp1056
g70
I4
ssg71
g1050
sg64
(lp1057
S"set(['/home/piyush/web2py/applications/FotoBuk/', '/home/piyush/web2py/applications/welcome/', '/home/piyush/web2py/applications/admin/'])"
p1058
asbasbasbag57
(g73
g59
NtRp1059
(dp1060
g62
(dp1061
sg71
g1033
sg64
(lp1062
g57
(g78
g59
NtRp1063
(dp1064
g62
(dp1065
g82
g83
ssg71
g1059
sg64
(lp1066
S'applications_parent'
p1067
asbag57
(g78
g59
NtRp1068
(dp1069
g62
(dp1070
g89
g90
ssg71
g1059
sg64
(lp1071
S':'
asbag57
(g78
g59
NtRp1072
(dp1073
g62
(dp1074
sg71
g1059
sg64
(lp1075
g57
(g58
g59
NtRp1076
(dp1077
g62
(dp1078
g70
I4
ssg71
g1072
sg64
(lp1079
S'/home/piyush/web2py'
p1080
asbasbasbag57
(g73
g59
NtRp1081
(dp1082
g62
(dp1083
sg71
g1033
sg64
(lp1084
g57
(g78
g59
NtRp1085
(dp1086
g62
(dp1087
g82
g83
ssg71
g1081
sg64
(lp1088
S'cmd_args'
p1089
asbag57
(g78
g59
NtRp1090
(dp1091
g62
(dp1092
g89
g90
ssg71
g1081
sg64
(lp1093
S':'
asbag57
(g78
g59
NtRp1094
(dp1095
g62
(dp1096
sg71
g1081
sg64
(lp1097
g57
(g58
g59
NtRp1098
(dp1099
g62
(dp1100
g70
I4
ssg71
g1094
sg64
(lp1101
g57
(g66
g59
NtRp1102
(dp1103
g62
(dp1104
g70
I3
ssg71
Nsg64
(lp1105
sbasbasbasbag57
(g73
g59
NtRp1106
(dp1107
g62
(dp1108
sg71
g1033
sg64
(lp1109
g57
(g78
g59
NtRp1110
(dp1111
g62
(dp1112
g82
g83
ssg71
g1106
sg64
(lp1113
S'cmd_options'
p1114
asbag57
(g78
g59
NtRp1115
(dp1116
g62
(dp1117
g89
g90
ssg71
g1106
sg64
(lp1118
S':'
asbag57
(g78
g59
NtRp1119
(dp1120
g62
(dp1121
sg71
g1106
sg64
(lp1122
g57
(g58
g59
NtRp1123
(dp1124
g62
(dp1125
g70
I4
ssg71
g1119
sg64
(lp1126
S"<Values at 0x8d4130c: {'verbose': False, 'ip': '127.0.0.1', 'with_scheduler': False, 'ips': ['10.1.39.167', '10.42.0.1'], 'shutdown_timeout': 5, 'taskbar': False, 'port': 8000, 'maxthreads': None, 'softcron': False, 'server_name': 'Solo', 'bpython': False, 'nogui': False, 'nocron': False, 'extcron': False, 'run_system_tests': False, 'test': None, 'folder': '/home/piyush/web2py', 'config': '', 'import_models': False, 'winservice': '', 'shell': None, 'run': '', 'log_filename': 'httpserver.log', 'debuglevel': 30, 'args': [''], 'socket_timeout': 5, 'ssl_ca_certificate': None, 'scheduler': None, 'profiler_filename': None, 'ssl_private_key': '', 'scheduler_groups': None, 'password': '<ask>', 'request_queue_size': 5, 'ssl_certificate': '', 'cronjob': False, 'numthreads': None, 'quiet': False, 'interfaces': None, 'minthreads': None, 'timeout': 10, 'plain': False, 'nobanner': False, 'pid_filename': 'httpserver.pid'}>"
p1127
asbasbasbag57
(g73
g59
NtRp1128
(dp1129
g62
(dp1130
sg71
g1033
sg64
(lp1131
g57
(g78
g59
NtRp1132
(dp1133
g62
(dp1134
g82
g83
ssg71
g1128
sg64
(lp1135
S'db_sessions'
p1136
asbag57
(g78
g59
NtRp1137
(dp1138
g62
(dp1139
g89
g90
ssg71
g1128
sg64
(lp1140
S':'
asbag57
(g78
g59
NtRp1141
(dp1142
g62
(dp1143
sg71
g1128
sg64
(lp1144
g57
(g58
g59
NtRp1145
(dp1146
g62
(dp1147
g70
I4
ssg71
g1141
sg64
(lp1148
S'set([])'
p1149
asbasbasbag57
(g73
g59
NtRp1150
(dp1151
g62
(dp1152
sg71
g1033
sg64
(lp1153
g57
(g78
g59
NtRp1154
(dp1155
g62
(dp1156
g82
g83
ssg71
g1150
sg64
(lp1157
S'debugging'
p1158
asbag57
(g78
g59
NtRp1159
(dp1160
g62
(dp1161
g89
g90
ssg71
g1150
sg64
(lp1162
S':'
asbag57
(g78
g59
NtRp1163
(dp1164
g62
(dp1165
sg71
g1150
sg64
(lp1166
g57
(g58
g59
NtRp1167
(dp1168
g62
(dp1169
g70
I4
ssg71
g1163
sg64
(lp1170
g100
asbasbasbag57
(g73
g59
NtRp1171
(dp1172
g62
(dp1173
sg71
g1033
sg64
(lp1174
g57
(g78
g59
NtRp1175
(dp1176
g62
(dp1177
g82
g83
ssg71
g1171
sg64
(lp1178
S'gluon_parent'
p1179
asbag57
(g78
g59
NtRp1180
(dp1181
g62
(dp1182
g89
g90
ssg71
g1171
sg64
(lp1183
S':'
asbag57
(g78
g59
NtRp1184
(dp1185
g62
(dp1186
sg71
g1171
sg64
(lp1187
g57
(g58
g59
NtRp1188
(dp1189
g62
(dp1190
g70
I4
ssg71
g1184
sg64
(lp1191
S'/home/piyush/web2py'
p1192
asbasbasbag57
(g73
g59
NtRp1193
(dp1194
g62
(dp1195
sg71
g1033
sg64
(lp1196
g57
(g78
g59
NtRp1197
(dp1198
g62
(dp1199
g82
g83
ssg71
g1193
sg64
(lp1200
S'http_accept'
p1201
asbag57
(g78
g59
NtRp1202
(dp1203
g62
(dp1204
g89
g90
ssg71
g1193
sg64
(lp1205
S':'
asbag57
(g78
g59
NtRp1206
(dp1207
g62
(dp1208
sg71
g1193
sg64
(lp1209
g57
(g58
g59
NtRp1210
(dp1211
g62
(dp1212
g70
I4
ssg71
g1206
sg64
(lp1213
S'text/html,application/xhtml+xml,application/xml;q=0.9,*/*;q=0.8'
p1214
asbasbasbag57
(g73
g59
NtRp1215
(dp1216
g62
(dp1217
sg71
g1033
sg64
(lp1218
g57
(g78
g59
NtRp1219
(dp1220
g62
(dp1221
g82
g83
ssg71
g1215
sg64
(lp1222
S'http_accept_encoding'
p1223
asbag57
(g78
g59
NtRp1224
(dp1225
g62
(dp1226
g89
g90
ssg71
g1215
sg64
(lp1227
S':'
asbag57
(g78
g59
NtRp1228
(dp1229
g62
(dp1230
sg71
g1215
sg64
(lp1231
g57
(g58
g59
NtRp1232
(dp1233
g62
(dp1234
g70
I4
ssg71
g1228
sg64
(lp1235
S'gzip, deflate'
p1236
asbasbasbag57
(g73
g59
NtRp1237
(dp1238
g62
(dp1239
sg71
g1033
sg64
(lp1240
g57
(g78
g59
NtRp1241
(dp1242
g62
(dp1243
g82
g83
ssg71
g1237
sg64
(lp1244
S'http_accept_language'
p1245
asbag57
(g78
g59
NtRp1246
(dp1247
g62
(dp1248
g89
g90
ssg71
g1237
sg64
(lp1249
S':'
asbag57
(g78
g59
NtRp1250
(dp1251
g62
(dp1252
sg71
g1237
sg64
(lp1253
g57
(g58
g59
NtRp1254
(dp1255
g62
(dp1256
g70
I4
ssg71
g1250
sg64
(lp1257
S'en-us,en;q=0.5'
p1258
asbasbasbag57
(g73
g59
NtRp1259
(dp1260
g62
(dp1261
sg71
g1033
sg64
(lp1262
g57
(g78
g59
NtRp1263
(dp1264
g62
(dp1265
g82
g83
ssg71
g1259
sg64
(lp1266
S'http_connection'
p1267
asbag57
(g78
g59
NtRp1268
(dp1269
g62
(dp1270
g89
g90
ssg71
g1259
sg64
(lp1271
S':'
asbag57
(g78
g59
NtRp1272
(dp1273
g62
(dp1274
sg71
g1259
sg64
(lp1275
g57
(g58
g59
NtRp1276
(dp1277
g62
(dp1278
g70
I4
ssg71
g1272
sg64
(lp1279
S'keep-alive'
p1280
asbasbasbag57
(g73
g59
NtRp1281
(dp1282
g62
(dp1283
sg71
g1033
sg64
(lp1284
g57
(g78
g59
NtRp1285
(dp1286
g62
(dp1287
g82
g83
ssg71
g1281
sg64
(lp1288
S'http_cookie'
p1289
asbag57
(g78
g59
NtRp1290
(dp1291
g62
(dp1292
g89
g90
ssg71
g1281
sg64
(lp1293
S':'
asbag57
(g78
g59
NtRp1294
(dp1295
g62
(dp1296
sg71
g1281
sg64
(lp1297
g57
(g58
g59
NtRp1298
(dp1299
g62
(dp1300
g70
I4
ssg71
g1294
sg64
(lp1301
S'session_id_welcome=127.0.0.1-3299e4b7-9181-4336-a2b6-d67ebc8bfe8e; session_id_admin=127.0.0.1-f31a16a6-2f0e-474e-b0b5-7ca781ebd64d; session_id_ialbum=127.0.0.1-8bab57f4-8655-4ca4-8b5d-11fde04576c5; session_id_fotobuk=127.0.0.1-961e4bc4-dc07-4e6c-b9f7-52a46e56ffd5'
p1302
asbasbasbag57
(g73
g59
NtRp1303
(dp1304
g62
(dp1305
sg71
g1033
sg64
(lp1306
g57
(g78
g59
NtRp1307
(dp1308
g62
(dp1309
g82
g83
ssg71
g1303
sg64
(lp1310
S'http_host'
p1311
asbag57
(g78
g59
NtRp1312
(dp1313
g62
(dp1314
g89
g90
ssg71
g1303
sg64
(lp1315
S':'
asbag57
(g78
g59
NtRp1316
(dp1317
g62
(dp1318
sg71
g1303
sg64
(lp1319
g57
(g58
g59
NtRp1320
(dp1321
g62
(dp1322
g70
I4
ssg71
g1316
sg64
(lp1323
S'localhost:8000'
p1324
asbasbasbag57
(g73
g59
NtRp1325
(dp1326
g62
(dp1327
sg71
g1033
sg64
(lp1328
g57
(g78
g59
NtRp1329
(dp1330
g62
(dp1331
g82
g83
ssg71
g1325
sg64
(lp1332
S'http_referer'
p1333
asbag57
(g78
g59
NtRp1334
(dp1335
g62
(dp1336
g89
g90
ssg71
g1325
sg64
(lp1337
S':'
asbag57
(g78
g59
NtRp1338
(dp1339
g62
(dp1340
sg71
g1325
sg64
(lp1341
g57
(g58
g59
NtRp1342
(dp1343
g62
(dp1344
g70
I4
ssg71
g1338
sg64
(lp1345
S'http://localhost:8000/FotoBuk/default/user/register'
p1346
asbasbasbag57
(g73
g59
NtRp1347
(dp1348
g62
(dp1349
sg71
g1033
sg64
(lp1350
g57
(g78
g59
NtRp1351
(dp1352
g62
(dp1353
g82
g83
ssg71
g1347
sg64
(lp1354
S'http_user_agent'
p1355
asbag57
(g78
g59
NtRp1356
(dp1357
g62
(dp1358
g89
g90
ssg71
g1347
sg64
(lp1359
S':'
asbag57
(g78
g59
NtRp1360
(dp1361
g62
(dp1362
sg71
g1347
sg64
(lp1363
g57
(g58
g59
NtRp1364
(dp1365
g62
(dp1366
g70
I4
ssg71
g1360
sg64
(lp1367
S'Mozilla/5.0 (X11; Linux i686; rv:11.0) Gecko/20100101 Firefox/11.0'
p1368
asbasbasbag57
(g73
g59
NtRp1369
(dp1370
g62
(dp1371
sg71
g1033
sg64
(lp1372
g57
(g78
g59
NtRp1373
(dp1374
g62
(dp1375
g82
g83
ssg71
g1369
sg64
(lp1376
S'is_jython'
p1377
asbag57
(g78
g59
NtRp1378
(dp1379
g62
(dp1380
g89
g90
ssg71
g1369
sg64
(lp1381
S':'
asbag57
(g78
g59
NtRp1382
(dp1383
g62
(dp1384
sg71
g1369
sg64
(lp1385
g57
(g58
g59
NtRp1386
(dp1387
g62
(dp1388
g70
I4
ssg71
g1382
sg64
(lp1389
g100
asbasbasbag57
(g73
g59
NtRp1390
(dp1391
g62
(dp1392
sg71
g1033
sg64
(lp1393
g57
(g78
g59
NtRp1394
(dp1395
g62
(dp1396
g82
g83
ssg71
g1390
sg64
(lp1397
S'is_pypy'
p1398
asbag57
(g78
g59
NtRp1399
(dp1400
g62
(dp1401
g89
g90
ssg71
g1390
sg64
(lp1402
S':'
asbag57
(g78
g59
NtRp1403
(dp1404
g62
(dp1405
sg71
g1390
sg64
(lp1406
g57
(g58
g59
NtRp1407
(dp1408
g62
(dp1409
g70
I4
ssg71
g1403
sg64
(lp1410
g100
asbasbasbag57
(g73
g59
NtRp1411
(dp1412
g62
(dp1413
sg71
g1033
sg64
(lp1414
g57
(g78
g59
NtRp1415
(dp1416
g62
(dp1417
g82
g83
ssg71
g1411
sg64
(lp1418
S'path_info'
p1419
asbag57
(g78
g59
NtRp1420
(dp1421
g62
(dp1422
g89
g90
ssg71
g1411
sg64
(lp1423
S':'
asbag57
(g78
g59
NtRp1424
(dp1425
g62
(dp1426
sg71
g1411
sg64
(lp1427
g57
(g58
g59
NtRp1428
(dp1429
g62
(dp1430
g70
I4
ssg71
g1424
sg64
(lp1431
S'/FotoBuk/default/index'
p1432
asbasbasbag57
(g73
g59
NtRp1433
(dp1434
g62
(dp1435
sg71
g1033
sg64
(lp1436
g57
(g78
g59
NtRp1437
(dp1438
g62
(dp1439
g82
g83
ssg71
g1433
sg64
(lp1440
S'query_string'
p1441
asbag57
(g78
g59
NtRp1442
(dp1443
g62
(dp1444
g89
g90
ssg71
g1433
sg64
(lp1445
S':'
asbag57
(g78
g59
NtRp1446
(dp1447
g62
(dp1448
sg71
g1433
sg64
(lp1449
g57
(g58
g59
NtRp1450
(dp1451
g62
(dp1452
g70
I4
ssg71
g1446
sg64
(lp1453
S''
asbasbasbag57
(g73
g59
NtRp1454
(dp1455
g62
(dp1456
sg71
g1033
sg64
(lp1457
g57
(g78
g59
NtRp1458
(dp1459
g62
(dp1460
g82
g83
ssg71
g1454
sg64
(lp1461
S'remote_addr'
p1462
asbag57
(g78
g59
NtRp1463
(dp1464
g62
(dp1465
g89
g90
ssg71
g1454
sg64
(lp1466
S':'
asbag57
(g78
g59
NtRp1467
(dp1468
g62
(dp1469
sg71
g1454
sg64
(lp1470
g57
(g58
g59
NtRp1471
(dp1472
g62
(dp1473
g70
I4
ssg71
g1467
sg64
(lp1474
g212
asbasbasbag57
(g73
g59
NtRp1475
(dp1476
g62
(dp1477
sg71
g1033
sg64
(lp1478
g57
(g78
g59
NtRp1479
(dp1480
g62
(dp1481
g82
g83
ssg71
g1475
sg64
(lp1482
S'remote_port'
p1483
asbag57
(g78
g59
NtRp1484
(dp1485
g62
(dp1486
g89
g90
ssg71
g1475
sg64
(lp1487
S':'
asbag57
(g78
g59
NtRp1488
(dp1489
g62
(dp1490
sg71
g1475
sg64
(lp1491
g57
(g58
g59
NtRp1492
(dp1493
g62
(dp1494
g70
I4
ssg71
g1488
sg64
(lp1495
S'52781'
p1496
asbasbasbag57
(g73
g59
NtRp1497
(dp1498
g62
(dp1499
sg71
g1033
sg64
(lp1500
g57
(g78
g59
NtRp1501
(dp1502
g62
(dp1503
g82
g83
ssg71
g1497
sg64
(lp1504
S'request_method'
p1505
asbag57
(g78
g59
NtRp1506
(dp1507
g62
(dp1508
g89
g90
ssg71
g1497
sg64
(lp1509
S':'
asbag57
(g78
g59
NtRp1510
(dp1511
g62
(dp1512
sg71
g1497
sg64
(lp1513
g57
(g58
g59
NtRp1514
(dp1515
g62
(dp1516
g70
I4
ssg71
g1510
sg64
(lp1517
S'GET'
p1518
asbasbasbag57
(g73
g59
NtRp1519
(dp1520
g62
(dp1521
sg71
g1033
sg64
(lp1522
g57
(g78
g59
NtRp1523
(dp1524
g62
(dp1525
g82
g83
ssg71
g1519
sg64
(lp1526
S'script_name'
p1527
asbag57
(g78
g59
NtRp1528
(dp1529
g62
(dp1530
g89
g90
ssg71
g1519
sg64
(lp1531
S':'
asbag57
(g78
g59
NtRp1532
(dp1533
g62
(dp1534
sg71
g1519
sg64
(lp1535
g57
(g58
g59
NtRp1536
(dp1537
g62
(dp1538
g70
I4
ssg71
g1532
sg64
(lp1539
S''
asbasbasbag57
(g73
g59
NtRp1540
(dp1541
g62
(dp1542
sg71
g1033
sg64
(lp1543
g57
(g78
g59
NtRp1544
(dp1545
g62
(dp1546
g82
g83
ssg71
g1540
sg64
(lp1547
S'server_name'
p1548
asbag57
(g78
g59
NtRp1549
(dp1550
g62
(dp1551
g89
g90
ssg71
g1540
sg64
(lp1552
S':'
asbag57
(g78
g59
NtRp1553
(dp1554
g62
(dp1555
sg71
g1540
sg64
(lp1556
g57
(g58
g59
NtRp1557
(dp1558
g62
(dp1559
g70
I4
ssg71
g1553
sg64
(lp1560
S'Solo'
p1561
asbasbasbag57
(g73
g59
NtRp1562
(dp1563
g62
(dp1564
sg71
g1033
sg64
(lp1565
g57
(g78
g59
NtRp1566
(dp1567
g62
(dp1568
g82
g83
ssg71
g1562
sg64
(lp1569
S'server_port'
p1570
asbag57
(g78
g59
NtRp1571
(dp1572
g62
(dp1573
g89
g90
ssg71
g1562
sg64
(lp1574
S':'
asbag57
(g78
g59
NtRp1575
(dp1576
g62
(dp1577
sg71
g1562
sg64
(lp1578
g57
(g58
g59
NtRp1579
(dp1580
g62
(dp1581
g70
I4
ssg71
g1575
sg64
(lp1582
S'8000'
p1583
asbasbasbag57
(g73
g59
NtRp1584
(dp1585
g62
(dp1586
sg71
g1033
sg64
(lp1587
g57
(g78
g59
NtRp1588
(dp1589
g62
(dp1590
g82
g83
ssg71
g1584
sg64
(lp1591
S'server_protocol'
p1592
asbag57
(g78
g59
NtRp1593
(dp1594
g62
(dp1595
g89
g90
ssg71
g1584
sg64
(lp1596
S':'
asbag57
(g78
g59
NtRp1597
(dp1598
g62
(dp1599
sg71
g1584
sg64
(lp1600
g57
(g58
g59
NtRp1601
(dp1602
g62
(dp1603
g70
I4
ssg71
g1597
sg64
(lp1604
S'HTTP/1.1'
p1605
asbasbasbag57
(g73
g59
NtRp1606
(dp1607
g62
(dp1608
sg71
g1033
sg64
(lp1609
g57
(g78
g59
NtRp1610
(dp1611
g62
(dp1612
g82
g83
ssg71
g1606
sg64
(lp1613
S'server_software'
p1614
asbag57
(g78
g59
NtRp1615
(dp1616
g62
(dp1617
g89
g90
ssg71
g1606
sg64
(lp1618
S':'
asbag57
(g78
g59
NtRp1619
(dp1620
g62
(dp1621
sg71
g1606
sg64
(lp1622
g57
(g58
g59
NtRp1623
(dp1624
g62
(dp1625
g70
I4
ssg71
g1619
sg64
(lp1626
S'Rocket 1.2.4'
p1627
asbasbasbag57
(g73
g59
NtRp1628
(dp1629
g62
(dp1630
sg71
g1033
sg64
(lp1631
g57
(g78
g59
NtRp1632
(dp1633
g62
(dp1634
g82
g83
ssg71
g1628
sg64
(lp1635
S'web2py_crontype'
p1636
asbag57
(g78
g59
NtRp1637
(dp1638
g62
(dp1639
g89
g90
ssg71
g1628
sg64
(lp1640
S':'
asbag57
(g78
g59
NtRp1641
(dp1642
g62
(dp1643
sg71
g1628
sg64
(lp1644
g57
(g58
g59
NtRp1645
(dp1646
g62
(dp1647
g70
I4
ssg71
g1641
sg64
(lp1648
S'hard'
p1649
asbasbasbag57
(g73
g59
NtRp1650
(dp1651
g62
(dp1652
sg71
g1033
sg64
(lp1653
g57
(g78
g59
NtRp1654
(dp1655
g62
(dp1656
g82
g83
ssg71
g1650
sg64
(lp1657
S'web2py_path'
p1658
asbag57
(g78
g59
NtRp1659
(dp1660
g62
(dp1661
g89
g90
ssg71
g1650
sg64
(lp1662
S':'
asbag57
(g78
g59
NtRp1663
(dp1664
g62
(dp1665
sg71
g1650
sg64
(lp1666
g57
(g58
g59
NtRp1667
(dp1668
g62
(dp1669
g70
I4
ssg71
g1663
sg64
(lp1670
g1080
asbasbasbag57
(g73
g59
NtRp1671
(dp1672
g62
(dp1673
sg71
g1033
sg64
(lp1674
g57
(g78
g59
NtRp1675
(dp1676
g62
(dp1677
g82
g83
ssg71
g1671
sg64
(lp1678
S'web2py_version'
p1679
asbag57
(g78
g59
NtRp1680
(dp1681
g62
(dp1682
g89
g90
ssg71
g1671
sg64
(lp1683
S':'
asbag57
(g78
g59
NtRp1684
(dp1685
g62
(dp1686
sg71
g1671
sg64
(lp1687
g57
(g58
g59
NtRp1688
(dp1689
g62
(dp1690
g70
I4
ssg71
g1684
sg64
(lp1691
g57
(g66
g59
NtRp1692
(dp1693
g62
(dp1694
g70
I3
ssg71
Nsg64
(lp1695
g57
(g73
g59
NtRp1696
(dp1697
g62
(dp1698
sg71
g1692
sg64
(lp1699
g57
(g78
g59
NtRp1700
(dp1701
g62
(dp1702
sg71
g1696
sg64
(lp1703
g57
(g58
g59
NtRp1704
(dp1705
g62
(dp1706
g70
I3
ssg71
g1700
sg64
(lp1707
S'2'
asbasbasbag57
(g73
g59
NtRp1708
(dp1709
g62
(dp1710
sg71
g1692
sg64
(lp1711
g57
(g78
g59
NtRp1712
(dp1713
g62
(dp1714
sg71
g1708
sg64
(lp1715
g57
(g58
g59
NtRp1716
(dp1717
g62
(dp1718
g70
I3
ssg71
g1712
sg64
(lp1719
S'0'
asbasbasbag57
(g73
g59
NtRp1720
(dp1721
g62
(dp1722
sg71
g1692
sg64
(lp1723
g57
(g78
g59
NtRp1724
(dp1725
g62
(dp1726
sg71
g1720
sg64
(lp1727
g57
(g58
g59
NtRp1728
(dp1729
g62
(dp1730
g70
I3
ssg71
g1724
sg64
(lp1731
S'2'
asbasbasbag57
(g73
g59
NtRp1732
(dp1733
g62
(dp1734
sg71
g1692
sg64
(lp1735
g57
(g78
g59
NtRp1736
(dp1737
g62
(dp1738
sg71
g1732
sg64
(lp1739
g57
(g58
g59
NtRp1740
(dp1741
g62
(dp1742
g70
I3
ssg71
g1736
sg64
(lp1743
S'datetime.datetime(2012, 8, 30, 4, 8, 18)'
p1744
asbasbasbag57
(g73
g59
NtRp1745
(dp1746
g62
(dp1747
sg71
g1692
sg64
(lp1748
g57
(g78
g59
NtRp1749
(dp1750
g62
(dp1751
sg71
g1745
sg64
(lp1752
g57
(g58
g59
NtRp1753
(dp1754
g62
(dp1755
g70
I3
ssg71
g1749
sg64
(lp1756
S'stable'
p1757
asbasbasbasbasbasbasbag57
(g73
g59
NtRp1758
(dp1759
g62
(dp1760
sg71
g1033
sg64
(lp1761
g57
(g78
g59
NtRp1762
(dp1763
g62
(dp1764
g82
g83
ssg71
g1758
sg64
(lp1765
S'wsgi_errors'
p1766
asbag57
(g78
g59
NtRp1767
(dp1768
g62
(dp1769
g89
g90
ssg71
g1758
sg64
(lp1770
S':'
asbag57
(g78
g59
NtRp1771
(dp1772
g62
(dp1773
sg71
g1758
sg64
(lp1774
g57
(g58
g59
NtRp1775
(dp1776
g62
(dp1777
g70
I4
ssg71
g1771
sg64
(lp1778
S"<open file '<stderr>', mode 'w' at 0xb772d0d0>"
p1779
asbasbasbag57
(g73
g59
NtRp1780
(dp1781
g62
(dp1782
sg71
g1033
sg64
(lp1783
g57
(g78
g59
NtRp1784
(dp1785
g62
(dp1786
g82
g83
ssg71
g1780
sg64
(lp1787
S'wsgi_file_wrapper'
p1788
asbag57
(g78
g59
NtRp1789
(dp1790
g62
(dp1791
g89
g90
ssg71
g1780
sg64
(lp1792
S':'
asbag57
(g78
g59
NtRp1793
(dp1794
g62
(dp1795
sg71
g1780
sg64
(lp1796
g57
(g58
g59
NtRp1797
(dp1798
g62
(dp1799
g70
I4
ssg71
g1793
sg64
(lp1800
S'<class wsgiref.util.FileWrapper at 0x8d0326c>'
p1801
asbasbasbag57
(g73
g59
NtRp1802
(dp1803
g62
(dp1804
sg71
g1033
sg64
(lp1805
g57
(g78
g59
NtRp1806
(dp1807
g62
(dp1808
g82
g83
ssg71
g1802
sg64
(lp1809
S'wsgi_input'
p1810
asbag57
(g78
g59
NtRp1811
(dp1812
g62
(dp1813
g89
g90
ssg71
g1802
sg64
(lp1814
S':'
asbag57
(g78
g59
NtRp1815
(dp1816
g62
(dp1817
sg71
g1802
sg64
(lp1818
g57
(g58
g59
NtRp1819
(dp1820
g62
(dp1821
g70
I4
ssg71
g1815
sg64
(lp1822
S'<socket._fileobject object at 0xada481ec>'
p1823
asbasbasbag57
(g73
g59
NtRp1824
(dp1825
g62
(dp1826
sg71
g1033
sg64
(lp1827
g57
(g78
g59
NtRp1828
(dp1829
g62
(dp1830
g82
g83
ssg71
g1824
sg64
(lp1831
S'wsgi_multiprocess'
p1832
asbag57
(g78
g59
NtRp1833
(dp1834
g62
(dp1835
g89
g90
ssg71
g1824
sg64
(lp1836
S':'
asbag57
(g78
g59
NtRp1837
(dp1838
g62
(dp1839
sg71
g1824
sg64
(lp1840
g57
(g58
g59
NtRp1841
(dp1842
g62
(dp1843
g70
I4
ssg71
g1837
sg64
(lp1844
g100
asbasbasbag57
(g73
g59
NtRp1845
(dp1846
g62
(dp1847
sg71
g1033
sg64
(lp1848
g57
(g78
g59
NtRp1849
(dp1850
g62
(dp1851
g82
g83
ssg71
g1845
sg64
(lp1852
S'wsgi_multithread'
p1853
asbag57
(g78
g59
NtRp1854
(dp1855
g62
(dp1856
g89
g90
ssg71
g1845
sg64
(lp1857
S':'
asbag57
(g78
g59
NtRp1858
(dp1859
g62
(dp1860
sg71
g1845
sg64
(lp1861
g57
(g58
g59
NtRp1862
(dp1863
g62
(dp1864
g70
I4
ssg71
g1858
sg64
(lp1865
S'True'
p1866
asbasbasbag57
(g73
g59
NtRp1867
(dp1868
g62
(dp1869
sg71
g1033
sg64
(lp1870
g57
(g78
g59
NtRp1871
(dp1872
g62
(dp1873
g82
g83
ssg71
g1867
sg64
(lp1874
S'wsgi_run_once'
p1875
asbag57
(g78
g59
NtRp1876
(dp1877
g62
(dp1878
g89
g90
ssg71
g1867
sg64
(lp1879
S':'
asbag57
(g78
g59
NtRp1880
(dp1881
g62
(dp1882
sg71
g1867
sg64
(lp1883
g57
(g58
g59
NtRp1884
(dp1885
g62
(dp1886
g70
I4
ssg71
g1880
sg64
(lp1887
g100
asbasbasbag57
(g73
g59
NtRp1888
(dp1889
g62
(dp1890
sg71
g1033
sg64
(lp1891
g57
(g78
g59
NtRp1892
(dp1893
g62
(dp1894
g82
g83
ssg71
g1888
sg64
(lp1895
S'wsgi_url_scheme'
p1896
asbag57
(g78
g59
NtRp1897
(dp1898
g62
(dp1899
g89
g90
ssg71
g1888
sg64
(lp1900
S':'
asbag57
(g78
g59
NtRp1901
(dp1902
g62
(dp1903
sg71
g1888
sg64
(lp1904
g57
(g58
g59
NtRp1905
(dp1906
g62
(dp1907
g70
I4
ssg71
g1901
sg64
(lp1908
S'http'
p1909
asbasbasbag57
(g73
g59
NtRp1910
(dp1911
g62
(dp1912
sg71
g1033
sg64
(lp1913
g57
(g78
g59
NtRp1914
(dp1915
g62
(dp1916
g82
g83
ssg71
g1910
sg64
(lp1917
S'wsgi_version'
p1918
asbag57
(g78
g59
NtRp1919
(dp1920
g62
(dp1921
g89
g90
ssg71
g1910
sg64
(lp1922
S':'
asbag57
(g78
g59
NtRp1923
(dp1924
g62
(dp1925
sg71
g1910
sg64
(lp1926
g57
(g58
g59
NtRp1927
(dp1928
g62
(dp1929
g70
I4
ssg71
g1923
sg64
(lp1930
g57
(g66
g59
NtRp1931
(dp1932
g62
(dp1933
g70
I3
ssg71
Nsg64
(lp1934
g57
(g73
g59
NtRp1935
(dp1936
g62
(dp1937
sg71
g1931
sg64
(lp1938
g57
(g78
g59
NtRp1939
(dp1940
g62
(dp1941
sg71
g1935
sg64
(lp1942
g57
(g58
g59
NtRp1943
(dp1944
g62
(dp1945
g70
I3
ssg71
g1939
sg64
(lp1946
S'1'
asbasbasbag57
(g73
g59
NtRp1947
(dp1948
g62
(dp1949
sg71
g1931
sg64
(lp1950
g57
(g78
g59
NtRp1951
(dp1952
g62
(dp1953
sg71
g1947
sg64
(lp1954
g57
(g58
g59
NtRp1955
(dp1956
g62
(dp1957
g70
I3
ssg71
g1951
sg64
(lp1958
S'0'
asbasbasbasbasbasbasbasbasbasbasbag57
(g73
g59
NtRp1959
(dp1960
g62
(dp1961
sg71
g67
sg64
(lp1962
g57
(g78
g59
NtRp1963
(dp1964
g62
(dp1965
g82
g83
ssg71
g1959
sg64
(lp1966
S'extension'
p1967
asbag57
(g78
g59
NtRp1968
(dp1969
g62
(dp1970
g89
g90
ssg71
g1959
sg64
(lp1971
S':'
asbag57
(g78
g59
NtRp1972
(dp1973
g62
(dp1974
sg71
g1959
sg64
(lp1975
g57
(g58
g59
NtRp1976
(dp1977
g62
(dp1978
g70
I5
ssg71
g1972
sg64
(lp1979
S'html'
p1980
asbasbasbag57
(g73
g59
NtRp1981
(dp1982
g62
(dp1983
sg71
g67
sg64
(lp1984
g57
(g78
g59
NtRp1985
(dp1986
g62
(dp1987
g82
g83
ssg71
g1981
sg64
(lp1988
S'folder'
p1989
asbag57
(g78
g59
NtRp1990
(dp1991
g62
(dp1992
g89
g90
ssg71
g1981
sg64
(lp1993
S':'
asbag57
(g78
g59
NtRp1994
(dp1995
g62
(dp1996
sg71
g1981
sg64
(lp1997
g57
(g58
g59
NtRp1998
(dp1999
g62
(dp2000
g70
I5
ssg71
g1994
sg64
(lp2001
S'/home/piyush/web2py/applications/FotoBuk/'
p2002
asbasbasbag57
(g73
g59
NtRp2003
(dp2004
g62
(dp2005
sg71
g67
sg64
(lp2006
g57
(g78
g59
NtRp2007
(dp2008
g62
(dp2009
g82
g83
ssg71
g2003
sg64
(lp2010
S'function'
p2011
asbag57
(g78
g59
NtRp2012
(dp2013
g62
(dp2014
g89
g90
ssg71
g2003
sg64
(lp2015
S':'
asbag57
(g78
g59
NtRp2016
(dp2017
g62
(dp2018
sg71
g2003
sg64
(lp2019
g57
(g58
g59
NtRp2020
(dp2021
g62
(dp2022
g70
I5
ssg71
g2016
sg64
(lp2023
S'index'
p2024
asbasbasbag57
(g73
g59
NtRp2025
(dp2026
g62
(dp2027
sg71
g67
sg64
(lp2028
g57
(g78
g59
NtRp2029
(dp2030
g62
(dp2031
g82
g83
ssg71
g2025
sg64
(lp2032
S'get_vars'
p2033
asbag57
(g78
g59
NtRp2034
(dp2035
g62
(dp2036
g89
g90
ssg71
g2025
sg64
(lp2037
S':'
asbag57
(g78
g59
NtRp2038
(dp2039
g62
(dp2040
sg71
g2025
sg64
(lp2041
g57
(g58
g59
NtRp2042
(dp2043
g62
(dp2044
g70
I5
ssg71
g2038
sg64
(lp2045
g57
(g66
g59
NtRp2046
(dp2047
g62
(dp2048
g70
I4
ssg71
Nsg64
(lp2049
sbasbasbasbag57
(g73
g59
NtRp2050
(dp2051
g62
(dp2052
sg71
g67
sg64
(lp2053
g57
(g78
g59
NtRp2054
(dp2055
g62
(dp2056
g82
g83
ssg71
g2050
sg64
(lp2057
S'global_settings'
p2058
asbag57
(g78
g59
NtRp2059
(dp2060
g62
(dp2061
g89
g90
ssg71
g2050
sg64
(lp2062
S':'
asbag57
(g78
g59
NtRp2063
(dp2064
g62
(dp2065
sg71
g2050
sg64
(lp2066
g57
(g58
g59
NtRp2067
(dp2068
g62
(dp2069
g70
I5
ssg71
g2063
sg64
(lp2070
g57
(g66
g59
NtRp2071
(dp2072
g62
(dp2073
g70
I4
ssg71
Nsg64
(lp2074
g57
(g73
g59
NtRp2075
(dp2076
g62
(dp2077
sg71
g2071
sg64
(lp2078
g57
(g78
g59
NtRp2079
(dp2080
g62
(dp2081
g82
g83
ssg71
g2075
sg64
(lp2082
g1045
asbag57
(g78
g59
NtRp2083
(dp2084
g62
(dp2085
g89
g90
ssg71
g2075
sg64
(lp2086
S':'
asbag57
(g78
g59
NtRp2087
(dp2088
g62
(dp2089
sg71
g2075
sg64
(lp2090
g57
(g58
g59
NtRp2091
(dp2092
g62
(dp2093
g70
I4
ssg71
g2087
sg64
(lp2094
S"set(['/home/piyush/web2py/applications/FotoBuk/', '/home/piyush/web2py/applications/welcome/', '/home/piyush/web2py/applications/admin/'])"
p2095
asbasbasbag57
(g73
g59
NtRp2096
(dp2097
g62
(dp2098
sg71
g2071
sg64
(lp2099
g57
(g78
g59
NtRp2100
(dp2101
g62
(dp2102
g82
g83
ssg71
g2096
sg64
(lp2103
g1067
asbag57
(g78
g59
NtRp2104
(dp2105
g62
(dp2106
g89
g90
ssg71
g2096
sg64
(lp2107
S':'
asbag57
(g78
g59
NtRp2108
(dp2109
g62
(dp2110
sg71
g2096
sg64
(lp2111
g57
(g58
g59
NtRp2112
(dp2113
g62
(dp2114
g70
I4
ssg71
g2108
sg64
(lp2115
g1080
asbasbasbag57
(g73
g59
NtRp2116
(dp2117
g62
(dp2118
sg71
g2071
sg64
(lp2119
g57
(g78
g59
NtRp2120
(dp2121
g62
(dp2122
g82
g83
ssg71
g2116
sg64
(lp2123
g1089
asbag57
(g78
g59
NtRp2124
(dp2125
g62
(dp2126
g89
g90
ssg71
g2116
sg64
(lp2127
S':'
asbag57
(g78
g59
NtRp2128
(dp2129
g62
(dp2130
sg71
g2116
sg64
(lp2131
g57
(g58
g59
NtRp2132
(dp2133
g62
(dp2134
g70
I4
ssg71
g2128
sg64
(lp2135
g57
(g66
g59
NtRp2136
(dp2137
g62
(dp2138
g70
I3
ssg71
Nsg64
(lp2139
sbasbasbasbag57
(g73
g59
NtRp2140
(dp2141
g62
(dp2142
sg71
g2071
sg64
(lp2143
g57
(g78
g59
NtRp2144
(dp2145
g62
(dp2146
g82
g83
ssg71
g2140
sg64
(lp2147
g1114
asbag57
(g78
g59
NtRp2148
(dp2149
g62
(dp2150
g89
g90
ssg71
g2140
sg64
(lp2151
S':'
asbag57
(g78
g59
NtRp2152
(dp2153
g62
(dp2154
sg71
g2140
sg64
(lp2155
g57
(g58
g59
NtRp2156
(dp2157
g62
(dp2158
g70
I4
ssg71
g2152
sg64
(lp2159
S"<Values at 0x8d4130c: {'verbose': False, 'ip': '127.0.0.1', 'with_scheduler': False, 'ips': ['10.1.39.167', '10.42.0.1'], 'shutdown_timeout': 5, 'taskbar': False, 'port': 8000, 'maxthreads': None, 'softcron': False, 'server_name': 'Solo', 'bpython': False, 'nogui': False, 'nocron': False, 'extcron': False, 'run_system_tests': False, 'test': None, 'folder': '/home/piyush/web2py', 'config': '', 'import_models': False, 'winservice': '', 'shell': None, 'run': '', 'log_filename': 'httpserver.log', 'debuglevel': 30, 'args': [''], 'socket_timeout': 5, 'ssl_ca_certificate': None, 'scheduler': None, 'profiler_filename': None, 'ssl_private_key': '', 'scheduler_groups': None, 'password': '<ask>', 'request_queue_size': 5, 'ssl_certificate': '', 'cronjob': False, 'numthreads': None, 'quiet': False, 'interfaces': None, 'minthreads': None, 'timeout': 10, 'plain': False, 'nobanner': False, 'pid_filename': 'httpserver.pid'}>"
p2160
asbasbasbag57
(g73
g59
NtRp2161
(dp2162
g62
(dp2163
sg71
g2071
sg64
(lp2164
g57
(g78
g59
NtRp2165
(dp2166
g62
(dp2167
g82
g83
ssg71
g2161
sg64
(lp2168
g1136
asbag57
(g78
g59
NtRp2169
(dp2170
g62
(dp2171
g89
g90
ssg71
g2161
sg64
(lp2172
S':'
asbag57
(g78
g59
NtRp2173
(dp2174
g62
(dp2175
sg71
g2161
sg64
(lp2176
g57
(g58
g59
NtRp2177
(dp2178
g62
(dp2179
g70
I4
ssg71
g2173
sg64
(lp2180
S'set([])'
p2181
asbasbasbag57
(g73
g59
NtRp2182
(dp2183
g62
(dp2184
sg71
g2071
sg64
(lp2185
g57
(g78
g59
NtRp2186
(dp2187
g62
(dp2188
g82
g83
ssg71
g2182
sg64
(lp2189
g1158
asbag57
(g78
g59
NtRp2190
(dp2191
g62
(dp2192
g89
g90
ssg71
g2182
sg64
(lp2193
S':'
asbag57
(g78
g59
NtRp2194
(dp2195
g62
(dp2196
sg71
g2182
sg64
(lp2197
g57
(g58
g59
NtRp2198
(dp2199
g62
(dp2200
g70
I4
ssg71
g2194
sg64
(lp2201
g100
asbasbasbag57
(g73
g59
NtRp2202
(dp2203
g62
(dp2204
sg71
g2071
sg64
(lp2205
g57
(g78
g59
NtRp2206
(dp2207
g62
(dp2208
g82
g83
ssg71
g2202
sg64
(lp2209
g1179
asbag57
(g78
g59
NtRp2210
(dp2211
g62
(dp2212
g89
g90
ssg71
g2202
sg64
(lp2213
S':'
asbag57
(g78
g59
NtRp2214
(dp2215
g62
(dp2216
sg71
g2202
sg64
(lp2217
g57
(g58
g59
NtRp2218
(dp2219
g62
(dp2220
g70
I4
ssg71
g2214
sg64
(lp2221
g1192
asbasbasbag57
(g73
g59
NtRp2222
(dp2223
g62
(dp2224
sg71
g2071
sg64
(lp2225
g57
(g78
g59
NtRp2226
(dp2227
g62
(dp2228
g82
g83
ssg71
g2222
sg64
(lp2229
g1377
asbag57
(g78
g59
NtRp2230
(dp2231
g62
(dp2232
g89
g90
ssg71
g2222
sg64
(lp2233
S':'
asbag57
(g78
g59
NtRp2234
(dp2235
g62
(dp2236
sg71
g2222
sg64
(lp2237
g57
(g58
g59
NtRp2238
(dp2239
g62
(dp2240
g70
I4
ssg71
g2234
sg64
(lp2241
g100
asbasbasbag57
(g73
g59
NtRp2242
(dp2243
g62
(dp2244
sg71
g2071
sg64
(lp2245
g57
(g78
g59
NtRp2246
(dp2247
g62
(dp2248
g82
g83
ssg71
g2242
sg64
(lp2249
g1398
asbag57
(g78
g59
NtRp2250
(dp2251
g62
(dp2252
g89
g90
ssg71
g2242
sg64
(lp2253
S':'
asbag57
(g78
g59
NtRp2254
(dp2255
g62
(dp2256
sg71
g2242
sg64
(lp2257
g57
(g58
g59
NtRp2258
(dp2259
g62
(dp2260
g70
I4
ssg71
g2254
sg64
(lp2261
g100
asbasbasbag57
(g73
g59
NtRp2262
(dp2263
g62
(dp2264
sg71
g2071
sg64
(lp2265
g57
(g78
g59
NtRp2266
(dp2267
g62
(dp2268
g82
g83
ssg71
g2262
sg64
(lp2269
g1636
asbag57
(g78
g59
NtRp2270
(dp2271
g62
(dp2272
g89
g90
ssg71
g2262
sg64
(lp2273
S':'
asbag57
(g78
g59
NtRp2274
(dp2275
g62
(dp2276
sg71
g2262
sg64
(lp2277
g57
(g58
g59
NtRp2278
(dp2279
g62
(dp2280
g70
I4
ssg71
g2274
sg64
(lp2281
g1649
asbasbasbag57
(g73
g59
NtRp2282
(dp2283
g62
(dp2284
sg71
g2071
sg64
(lp2285
g57
(g78
g59
NtRp2286
(dp2287
g62
(dp2288
g82
g83
ssg71
g2282
sg64
(lp2289
g1679
asbag57
(g78
g59
NtRp2290
(dp2291
g62
(dp2292
g89
g90
ssg71
g2282
sg64
(lp2293
S':'
asbag57
(g78
g59
NtRp2294
(dp2295
g62
(dp2296
sg71
g2282
sg64
(lp2297
g57
(g58
g59
NtRp2298
(dp2299
g62
(dp2300
g70
I4
ssg71
g2294
sg64
(lp2301
g57
(g66
g59
NtRp2302
(dp2303
g62
(dp2304
g70
I3
ssg71
Nsg64
(lp2305
g57
(g73
g59
NtRp2306
(dp2307
g62
(dp2308
sg71
g2302
sg64
(lp2309
g57
(g78
g59
NtRp2310
(dp2311
g62
(dp2312
sg71
g2306
sg64
(lp2313
g57
(g58
g59
NtRp2314
(dp2315
g62
(dp2316
g70
I3
ssg71
g2310
sg64
(lp2317
S'2'
asbasbasbag57
(g73
g59
NtRp2318
(dp2319
g62
(dp2320
sg71
g2302
sg64
(lp2321
g57
(g78
g59
NtRp2322
(dp2323
g62
(dp2324
sg71
g2318
sg64
(lp2325
g57
(g58
g59
NtRp2326
(dp2327
g62
(dp2328
g70
I3
ssg71
g2322
sg64
(lp2329
S'0'
asbasbasbag57
(g73
g59
NtRp2330
(dp2331
g62
(dp2332
sg71
g2302
sg64
(lp2333
g57
(g78
g59
NtRp2334
(dp2335
g62
(dp2336
sg71
g2330
sg64
(lp2337
g57
(g58
g59
NtRp2338
(dp2339
g62
(dp2340
g70
I3
ssg71
g2334
sg64
(lp2341
S'2'
asbasbasbag57
(g73
g59
NtRp2342
(dp2343
g62
(dp2344
sg71
g2302
sg64
(lp2345
g57
(g78
g59
NtRp2346
(dp2347
g62
(dp2348
sg71
g2342
sg64
(lp2349
g57
(g58
g59
NtRp2350
(dp2351
g62
(dp2352
g70
I3
ssg71
g2346
sg64
(lp2353
S'datetime.datetime(2012, 8, 30, 4, 8, 18)'
p2354
asbasbasbag57
(g73
g59
NtRp2355
(dp2356
g62
(dp2357
sg71
g2302
sg64
(lp2358
g57
(g78
g59
NtRp2359
(dp2360
g62
(dp2361
sg71
g2355
sg64
(lp2362
g57
(g58
g59
NtRp2363
(dp2364
g62
(dp2365
g70
I3
ssg71
g2359
sg64
(lp2366
g1757
asbasbasbasbasbasbasbasbasbasbasbag57
(g73
g59
NtRp2367
(dp2368
g62
(dp2369
sg71
g67
sg64
(lp2370
g57
(g78
g59
NtRp2371
(dp2372
g62
(dp2373
g82
g83
ssg71
g2367
sg64
(lp2374
S'is_https'
p2375
asbag57
(g78
g59
NtRp2376
(dp2377
g62
(dp2378
g89
g90
ssg71
g2367
sg64
(lp2379
S':'
asbag57
(g78
g59
NtRp2380
(dp2381
g62
(dp2382
sg71
g2367
sg64
(lp2383
g57
(g58
g59
NtRp2384
(dp2385
g62
(dp2386
g70
I5
ssg71
g2380
sg64
(lp2387
g100
asbasbasbag57
(g73
g59
NtRp2388
(dp2389
g62
(dp2390
sg71
g67
sg64
(lp2391
g57
(g78
g59
NtRp2392
(dp2393
g62
(dp2394
g82
g83
ssg71
g2388
sg64
(lp2395
S'is_local'
p2396
asbag57
(g78
g59
NtRp2397
(dp2398
g62
(dp2399
g89
g90
ssg71
g2388
sg64
(lp2400
S':'
asbag57
(g78
g59
NtRp2401
(dp2402
g62
(dp2403
sg71
g2388
sg64
(lp2404
g57
(g58
g59
NtRp2405
(dp2406
g62
(dp2407
g70
I5
ssg71
g2401
sg64
(lp2408
g1866
asbasbasbag57
(g73
g59
NtRp2409
(dp2410
g62
(dp2411
sg71
g67
sg64
(lp2412
g57
(g78
g59
NtRp2413
(dp2414
g62
(dp2415
g82
g83
ssg71
g2409
sg64
(lp2416
S'is_restful'
p2417
asbag57
(g78
g59
NtRp2418
(dp2419
g62
(dp2420
g89
g90
ssg71
g2409
sg64
(lp2421
S':'
asbag57
(g78
g59
NtRp2422
(dp2423
g62
(dp2424
sg71
g2409
sg64
(lp2425
g57
(g58
g59
NtRp2426
(dp2427
g62
(dp2428
g70
I5
ssg71
g2422
sg64
(lp2429
g100
asbasbasbag57
(g73
g59
NtRp2430
(dp2431
g62
(dp2432
sg71
g67
sg64
(lp2433
g57
(g78
g59
NtRp2434
(dp2435
g62
(dp2436
g82
g83
ssg71
g2430
sg64
(lp2437
S'now'
p2438
asbag57
(g78
g59
NtRp2439
(dp2440
g62
(dp2441
g89
g90
ssg71
g2430
sg64
(lp2442
S':'
asbag57
(g78
g59
NtRp2443
(dp2444
g62
(dp2445
sg71
g2430
sg64
(lp2446
g57
(g58
g59
NtRp2447
(dp2448
g62
(dp2449
g70
I5
ssg71
g2443
sg64
(lp2450
S'datetime.datetime(2012, 8, 31, 8, 25, 56, 5846)'
p2451
asbasbasbag57
(g73
g59
NtRp2452
(dp2453
g62
(dp2454
sg71
g67
sg64
(lp2455
g57
(g78
g59
NtRp2456
(dp2457
g62
(dp2458
g82
g83
ssg71
g2452
sg64
(lp2459
S'post_vars'
p2460
asbag57
(g78
g59
NtRp2461
(dp2462
g62
(dp2463
g89
g90
ssg71
g2452
sg64
(lp2464
S':'
asbag57
(g78
g59
NtRp2465
(dp2466
g62
(dp2467
sg71
g2452
sg64
(lp2468
g57
(g58
g59
NtRp2469
(dp2470
g62
(dp2471
g70
I5
ssg71
g2465
sg64
(lp2472
g57
(g66
g59
NtRp2473
(dp2474
g62
(dp2475
g70
I4
ssg71
Nsg64
(lp2476
sbasbasbasbag57
(g73
g59
NtRp2477
(dp2478
g62
(dp2479
sg71
g67
sg64
(lp2480
g57
(g78
g59
NtRp2481
(dp2482
g62
(dp2483
g82
g83
ssg71
g2477
sg64
(lp2484
S'raw_args'
p2485
asbag57
(g78
g59
NtRp2486
(dp2487
g62
(dp2488
g89
g90
ssg71
g2477
sg64
(lp2489
S':'
asbag57
(g78
g59
NtRp2490
(dp2491
g62
(dp2492
sg71
g2477
sg64
(lp2493
g57
(g58
g59
NtRp2494
(dp2495
g62
(dp2496
g70
I5
ssg71
g2490
sg64
(lp2497
S'None'
p2498
asbasbasbag57
(g73
g59
NtRp2499
(dp2500
g62
(dp2501
sg71
g67
sg64
(lp2502
g57
(g78
g59
NtRp2503
(dp2504
g62
(dp2505
g82
g83
ssg71
g2499
sg64
(lp2506
S'raw_extension'
p2507
asbag57
(g78
g59
NtRp2508
(dp2509
g62
(dp2510
g89
g90
ssg71
g2499
sg64
(lp2511
S':'
asbag57
(g78
g59
NtRp2512
(dp2513
g62
(dp2514
sg71
g2499
sg64
(lp2515
g57
(g58
g59
NtRp2516
(dp2517
g62
(dp2518
g70
I5
ssg71
g2512
sg64
(lp2519
S'None'
p2520
asbasbasbag57
(g73
g59
NtRp2521
(dp2522
g62
(dp2523
sg71
g67
sg64
(lp2524
g57
(g78
g59
NtRp2525
(dp2526
g62
(dp2527
g82
g83
ssg71
g2521
sg64
(lp2528
S'url'
p2529
asbag57
(g78
g59
NtRp2530
(dp2531
g62
(dp2532
g89
g90
ssg71
g2521
sg64
(lp2533
S':'
asbag57
(g78
g59
NtRp2534
(dp2535
g62
(dp2536
sg71
g2521
sg64
(lp2537
g57
(g58
g59
NtRp2538
(dp2539
g62
(dp2540
g70
I5
ssg71
g2534
sg64
(lp2541
S'/FotoBuk/default/index'
p2542
asbasbasbag57
(g73
g59
NtRp2543
(dp2544
g62
(dp2545
sg71
g67
sg64
(lp2546
g57
(g78
g59
NtRp2547
(dp2548
g62
(dp2549
g82
g83
ssg71
g2543
sg64
(lp2550
S'utcnow'
p2551
asbag57
(g78
g59
NtRp2552
(dp2553
g62
(dp2554
g89
g90
ssg71
g2543
sg64
(lp2555
S':'
asbag57
(g78
g59
NtRp2556
(dp2557
g62
(dp2558
sg71
g2543
sg64
(lp2559
g57
(g58
g59
NtRp2560
(dp2561
g62
(dp2562
g70
I5
ssg71
g2556
sg64
(lp2563
S'datetime.datetime(2012, 8, 31, 2, 55, 56, 5870)'
p2564
asbasbasbag57
(g73
g59
NtRp2565
(dp2566
g62
(dp2567
sg71
g67
sg64
(lp2568
g57
(g78
g59
NtRp2569
(dp2570
g62
(dp2571
g82
g83
ssg71
g2565
sg64
(lp2572
S'uuid'
p2573
asbag57
(g78
g59
NtRp2574
(dp2575
g62
(dp2576
g89
g90
ssg71
g2565
sg64
(lp2577
S':'
asbag57
(g78
g59
NtRp2578
(dp2579
g62
(dp2580
sg71
g2565
sg64
(lp2581
g57
(g58
g59
NtRp2582
(dp2583
g62
(dp2584
g70
I5
ssg71
g2578
sg64
(lp2585
S'FotoBuk/127.0.0.1.2012-08-31.08-25-56.587ade6f-8c46-462a-b347-2e33983531a6'
p2586
asbasbasbag57
(g73
g59
NtRp2587
(dp2588
g62
(dp2589
sg71
g67
sg64
(lp2590
g57
(g78
g59
NtRp2591
(dp2592
g62
(dp2593
g82
g83
ssg71
g2587
sg64
(lp2594
S'vars'
p2595
asbag57
(g78
g59
NtRp2596
(dp2597
g62
(dp2598
g89
g90
ssg71
g2587
sg64
(lp2599
S':'
asbag57
(g78
g59
NtRp2600
(dp2601
g62
(dp2602
sg71
g2587
sg64
(lp2603
g57
(g58
g59
NtRp2604
(dp2605
g62
(dp2606
g70
I5
ssg71
g2600
sg64
(lp2607
g57
(g66
g59
NtRp2608
(dp2609
g62
(dp2610
g70
I4
ssg71
Nsg64
(lp2611
sbasbasbasbag57
(g73
g59
NtRp2612
(dp2613
g62
(dp2614
sg71
g67
sg64
(lp2615
g57
(g78
g59
NtRp2616
(dp2617
g62
(dp2618
g82
g83
ssg71
g2612
sg64
(lp2619
S'wsgi'
p2620
asbag57
(g78
g59
NtRp2621
(dp2622
g62
(dp2623
g89
g90
ssg71
g2612
sg64
(lp2624
S':'
asbag57
(g78
g59
NtRp2625
(dp2626
g62
(dp2627
sg71
g2612
sg64
(lp2628
g57
(g58
g59
NtRp2629
(dp2630
g62
(dp2631
g70
I5
ssg71
g2625
sg64
(lp2632
g57
(g66
g59
NtRp2633
(dp2634
g62
(dp2635
g70
I4
ssg71
Nsg64
(lp2636
g57
(g73
g59
NtRp2637
(dp2638
g62
(dp2639
sg71
g2633
sg64
(lp2640
g57
(g78
g59
NtRp2641
(dp2642
g62
(dp2643
g82
g83
ssg71
g2637
sg64
(lp2644
S'environ'
p2645
asbag57
(g78
g59
NtRp2646
(dp2647
g62
(dp2648
g89
g90
ssg71
g2637
sg64
(lp2649
S':'
asbag57
(g78
g59
NtRp2650
(dp2651
g62
(dp2652
sg71
g2637
sg64
(lp2653
g57
(g58
g59
NtRp2654
(dp2655
g62
(dp2656
g70
I4
ssg71
g2650
sg64
(lp2657
g57
(g66
g59
NtRp2658
(dp2659
g62
(dp2660
g70
I3
ssg71
Nsg64
(lp2661
g57
(g73
g59
NtRp2662
(dp2663
g62
(dp2664
sg71
g2658
sg64
(lp2665
g57
(g78
g59
NtRp2666
(dp2667
g62
(dp2668
g82
g83
ssg71
g2662
sg64
(lp2669
S'HTTP_ACCEPT'
p2670
asbag57
(g78
g59
NtRp2671
(dp2672
g62
(dp2673
g89
g90
ssg71
g2662
sg64
(lp2674
S':'
asbag57
(g78
g59
NtRp2675
(dp2676
g62
(dp2677
sg71
g2662
sg64
(lp2678
g57
(g58
g59
NtRp2679
(dp2680
g62
(dp2681
g70
I3
ssg71
g2675
sg64
(lp2682
g1214
asbasbasbag57
(g73
g59
NtRp2683
(dp2684
g62
(dp2685
sg71
g2658
sg64
(lp2686
g57
(g78
g59
NtRp2687
(dp2688
g62
(dp2689
g82
g83
ssg71
g2683
sg64
(lp2690
S'HTTP_ACCEPT_ENCODING'
p2691
asbag57
(g78
g59
NtRp2692
(dp2693
g62
(dp2694
g89
g90
ssg71
g2683
sg64
(lp2695
S':'
asbag57
(g78
g59
NtRp2696
(dp2697
g62
(dp2698
sg71
g2683
sg64
(lp2699
g57
(g58
g59
NtRp2700
(dp2701
g62
(dp2702
g70
I3
ssg71
g2696
sg64
(lp2703
g1236
asbasbasbag57
(g73
g59
NtRp2704
(dp2705
g62
(dp2706
sg71
g2658
sg64
(lp2707
g57
(g78
g59
NtRp2708
(dp2709
g62
(dp2710
g82
g83
ssg71
g2704
sg64
(lp2711
S'HTTP_ACCEPT_LANGUAGE'
p2712
asbag57
(g78
g59
NtRp2713
(dp2714
g62
(dp2715
g89
g90
ssg71
g2704
sg64
(lp2716
S':'
asbag57
(g78
g59
NtRp2717
(dp2718
g62
(dp2719
sg71
g2704
sg64
(lp2720
g57
(g58
g59
NtRp2721
(dp2722
g62
(dp2723
g70
I3
ssg71
g2717
sg64
(lp2724
g1258
asbasbasbag57
(g73
g59
NtRp2725
(dp2726
g62
(dp2727
sg71
g2658
sg64
(lp2728
g57
(g78
g59
NtRp2729
(dp2730
g62
(dp2731
g82
g83
ssg71
g2725
sg64
(lp2732
S'HTTP_CONNECTION'
p2733
asbag57
(g78
g59
NtRp2734
(dp2735
g62
(dp2736
g89
g90
ssg71
g2725
sg64
(lp2737
S':'
asbag57
(g78
g59
NtRp2738
(dp2739
g62
(dp2740
sg71
g2725
sg64
(lp2741
g57
(g58
g59
NtRp2742
(dp2743
g62
(dp2744
g70
I3
ssg71
g2738
sg64
(lp2745
g1280
asbasbasbag57
(g73
g59
NtRp2746
(dp2747
g62
(dp2748
sg71
g2658
sg64
(lp2749
g57
(g78
g59
NtRp2750
(dp2751
g62
(dp2752
g82
g83
ssg71
g2746
sg64
(lp2753
S'HTTP_COOKIE'
p2754
asbag57
(g78
g59
NtRp2755
(dp2756
g62
(dp2757
g89
g90
ssg71
g2746
sg64
(lp2758
S':'
asbag57
(g78
g59
NtRp2759
(dp2760
g62
(dp2761
sg71
g2746
sg64
(lp2762
g57
(g58
g59
NtRp2763
(dp2764
g62
(dp2765
g70
I3
ssg71
g2759
sg64
(lp2766
g1302
asbasbasbag57
(g73
g59
NtRp2767
(dp2768
g62
(dp2769
sg71
g2658
sg64
(lp2770
g57
(g78
g59
NtRp2771
(dp2772
g62
(dp2773
g82
g83
ssg71
g2767
sg64
(lp2774
S'HTTP_HOST'
p2775
asbag57
(g78
g59
NtRp2776
(dp2777
g62
(dp2778
g89
g90
ssg71
g2767
sg64
(lp2779
S':'
asbag57
(g78
g59
NtRp2780
(dp2781
g62
(dp2782
sg71
g2767
sg64
(lp2783
g57
(g58
g59
NtRp2784
(dp2785
g62
(dp2786
g70
I3
ssg71
g2780
sg64
(lp2787
g1324
asbasbasbag57
(g73
g59
NtRp2788
(dp2789
g62
(dp2790
sg71
g2658
sg64
(lp2791
g57
(g78
g59
NtRp2792
(dp2793
g62
(dp2794
g82
g83
ssg71
g2788
sg64
(lp2795
S'HTTP_REFERER'
p2796
asbag57
(g78
g59
NtRp2797
(dp2798
g62
(dp2799
g89
g90
ssg71
g2788
sg64
(lp2800
S':'
asbag57
(g78
g59
NtRp2801
(dp2802
g62
(dp2803
sg71
g2788
sg64
(lp2804
g57
(g58
g59
NtRp2805
(dp2806
g62
(dp2807
g70
I3
ssg71
g2801
sg64
(lp2808
g1346
asbasbasbag57
(g73
g59
NtRp2809
(dp2810
g62
(dp2811
sg71
g2658
sg64
(lp2812
g57
(g78
g59
NtRp2813
(dp2814
g62
(dp2815
g82
g83
ssg71
g2809
sg64
(lp2816
S'HTTP_USER_AGENT'
p2817
asbag57
(g78
g59
NtRp2818
(dp2819
g62
(dp2820
g89
g90
ssg71
g2809
sg64
(lp2821
S':'
asbag57
(g78
g59
NtRp2822
(dp2823
g62
(dp2824
sg71
g2809
sg64
(lp2825
g57
(g58
g59
NtRp2826
(dp2827
g62
(dp2828
g70
I3
ssg71
g2822
sg64
(lp2829
g1368
asbasbasbag57
(g73
g59
NtRp2830
(dp2831
g62
(dp2832
sg71
g2658
sg64
(lp2833
g57
(g78
g59
NtRp2834
(dp2835
g62
(dp2836
g82
g83
ssg71
g2830
sg64
(lp2837
S'PATH_INFO'
p2838
asbag57
(g78
g59
NtRp2839
(dp2840
g62
(dp2841
g89
g90
ssg71
g2830
sg64
(lp2842
S':'
asbag57
(g78
g59
NtRp2843
(dp2844
g62
(dp2845
sg71
g2830
sg64
(lp2846
g57
(g58
g59
NtRp2847
(dp2848
g62
(dp2849
g70
I3
ssg71
g2843
sg64
(lp2850
g1432
asbasbasbag57
(g73
g59
NtRp2851
(dp2852
g62
(dp2853
sg71
g2658
sg64
(lp2854
g57
(g78
g59
NtRp2855
(dp2856
g62
(dp2857
g82
g83
ssg71
g2851
sg64
(lp2858
S'QUERY_STRING'
p2859
asbag57
(g78
g59
NtRp2860
(dp2861
g62
(dp2862
g89
g90
ssg71
g2851
sg64
(lp2863
S':'
asbag57
(g78
g59
NtRp2864
(dp2865
g62
(dp2866
sg71
g2851
sg64
(lp2867
g57
(g58
g59
NtRp2868
(dp2869
g62
(dp2870
g70
I3
ssg71
g2864
sg64
(lp2871
S''
asbasbasbag57
(g73
g59
NtRp2872
(dp2873
g62
(dp2874
sg71
g2658
sg64
(lp2875
g57
(g78
g59
NtRp2876
(dp2877
g62
(dp2878
g82
g83
ssg71
g2872
sg64
(lp2879
S'REMOTE_ADDR'
p2880
asbag57
(g78
g59
NtRp2881
(dp2882
g62
(dp2883
g89
g90
ssg71
g2872
sg64
(lp2884
S':'
asbag57
(g78
g59
NtRp2885
(dp2886
g62
(dp2887
sg71
g2872
sg64
(lp2888
g57
(g58
g59
NtRp2889
(dp2890
g62
(dp2891
g70
I3
ssg71
g2885
sg64
(lp2892
g212
asbasbasbag57
(g73
g59
NtRp2893
(dp2894
g62
(dp2895
sg71
g2658
sg64
(lp2896
g57
(g78
g59
NtRp2897
(dp2898
g62
(dp2899
g82
g83
ssg71
g2893
sg64
(lp2900
S'REMOTE_PORT'
p2901
asbag57
(g78
g59
NtRp2902
(dp2903
g62
(dp2904
g89
g90
ssg71
g2893
sg64
(lp2905
S':'
asbag57
(g78
g59
NtRp2906
(dp2907
g62
(dp2908
sg71
g2893
sg64
(lp2909
g57
(g58
g59
NtRp2910
(dp2911
g62
(dp2912
g70
I3
ssg71
g2906
sg64
(lp2913
g1496
asbasbasbag57
(g73
g59
NtRp2914
(dp2915
g62
(dp2916
sg71
g2658
sg64
(lp2917
g57
(g78
g59
NtRp2918
(dp2919
g62
(dp2920
g82
g83
ssg71
g2914
sg64
(lp2921
S'REQUEST_METHOD'
p2922
asbag57
(g78
g59
NtRp2923
(dp2924
g62
(dp2925
g89
g90
ssg71
g2914
sg64
(lp2926
S':'
asbag57
(g78
g59
NtRp2927
(dp2928
g62
(dp2929
sg71
g2914
sg64
(lp2930
g57
(g58
g59
NtRp2931
(dp2932
g62
(dp2933
g70
I3
ssg71
g2927
sg64
(lp2934
g1518
asbasbasbag57
(g73
g59
NtRp2935
(dp2936
g62
(dp2937
sg71
g2658
sg64
(lp2938
g57
(g78
g59
NtRp2939
(dp2940
g62
(dp2941
g82
g83
ssg71
g2935
sg64
(lp2942
S'SCRIPT_NAME'
p2943
asbag57
(g78
g59
NtRp2944
(dp2945
g62
(dp2946
g89
g90
ssg71
g2935
sg64
(lp2947
S':'
asbag57
(g78
g59
NtRp2948
(dp2949
g62
(dp2950
sg71
g2935
sg64
(lp2951
g57
(g58
g59
NtRp2952
(dp2953
g62
(dp2954
g70
I3
ssg71
g2948
sg64
(lp2955
S''
asbasbasbag57
(g73
g59
NtRp2956
(dp2957
g62
(dp2958
sg71
g2658
sg64
(lp2959
g57
(g78
g59
NtRp2960
(dp2961
g62
(dp2962
g82
g83
ssg71
g2956
sg64
(lp2963
S'SERVER_NAME'
p2964
asbag57
(g78
g59
NtRp2965
(dp2966
g62
(dp2967
g89
g90
ssg71
g2956
sg64
(lp2968
S':'
asbag57
(g78
g59
NtRp2969
(dp2970
g62
(dp2971
sg71
g2956
sg64
(lp2972
g57
(g58
g59
NtRp2973
(dp2974
g62
(dp2975
g70
I3
ssg71
g2969
sg64
(lp2976
g1561
asbasbasbag57
(g73
g59
NtRp2977
(dp2978
g62
(dp2979
sg71
g2658
sg64
(lp2980
g57
(g78
g59
NtRp2981
(dp2982
g62
(dp2983
g82
g83
ssg71
g2977
sg64
(lp2984
S'SERVER_PORT'
p2985
asbag57
(g78
g59
NtRp2986
(dp2987
g62
(dp2988
g89
g90
ssg71
g2977
sg64
(lp2989
S':'
asbag57
(g78
g59
NtRp2990
(dp2991
g62
(dp2992
sg71
g2977
sg64
(lp2993
g57
(g58
g59
NtRp2994
(dp2995
g62
(dp2996
g70
I3
ssg71
g2990
sg64
(lp2997
g1583
asbasbasbag57
(g73
g59
NtRp2998
(dp2999
g62
(dp3000
sg71
g2658
sg64
(lp3001
g57
(g78
g59
NtRp3002
(dp3003
g62
(dp3004
g82
g83
ssg71
g2998
sg64
(lp3005
S'SERVER_PROTOCOL'
p3006
asbag57
(g78
g59
NtRp3007
(dp3008
g62
(dp3009
g89
g90
ssg71
g2998
sg64
(lp3010
S':'
asbag57
(g78
g59
NtRp3011
(dp3012
g62
(dp3013
sg71
g2998
sg64
(lp3014
g57
(g58
g59
NtRp3015
(dp3016
g62
(dp3017
g70
I3
ssg71
g3011
sg64
(lp3018
g1605
asbasbasbag57
(g73
g59
NtRp3019
(dp3020
g62
(dp3021
sg71
g2658
sg64
(lp3022
g57
(g78
g59
NtRp3023
(dp3024
g62
(dp3025
g82
g83
ssg71
g3019
sg64
(lp3026
S'SERVER_SOFTWARE'
p3027
asbag57
(g78
g59
NtRp3028
(dp3029
g62
(dp3030
g89
g90
ssg71
g3019
sg64
(lp3031
S':'
asbag57
(g78
g59
NtRp3032
(dp3033
g62
(dp3034
sg71
g3019
sg64
(lp3035
g57
(g58
g59
NtRp3036
(dp3037
g62
(dp3038
g70
I3
ssg71
g3032
sg64
(lp3039
g1627
asbasbasbag57
(g73
g59
NtRp3040
(dp3041
g62
(dp3042
sg71
g2658
sg64
(lp3043
g57
(g78
g59
NtRp3044
(dp3045
g62
(dp3046
g82
g83
ssg71
g3040
sg64
(lp3047
S'wsgi.errors'
p3048
asbag57
(g78
g59
NtRp3049
(dp3050
g62
(dp3051
g89
g90
ssg71
g3040
sg64
(lp3052
S':'
asbag57
(g78
g59
NtRp3053
(dp3054
g62
(dp3055
sg71
g3040
sg64
(lp3056
g57
(g58
g59
NtRp3057
(dp3058
g62
(dp3059
g70
I3
ssg71
g3053
sg64
(lp3060
S"<open file '<stderr>', mode 'w' at 0xb772d0d0>"
p3061
asbasbasbag57
(g73
g59
NtRp3062
(dp3063
g62
(dp3064
sg71
g2658
sg64
(lp3065
g57
(g78
g59
NtRp3066
(dp3067
g62
(dp3068
g82
g83
ssg71
g3062
sg64
(lp3069
S'wsgi.file_wrapper'
p3070
asbag57
(g78
g59
NtRp3071
(dp3072
g62
(dp3073
g89
g90
ssg71
g3062
sg64
(lp3074
S':'
asbag57
(g78
g59
NtRp3075
(dp3076
g62
(dp3077
sg71
g3062
sg64
(lp3078
g57
(g58
g59
NtRp3079
(dp3080
g62
(dp3081
g70
I3
ssg71
g3075
sg64
(lp3082
S'<class wsgiref.util.FileWrapper at 0x8d0326c>'
p3083
asbasbasbag57
(g73
g59
NtRp3084
(dp3085
g62
(dp3086
sg71
g2658
sg64
(lp3087
g57
(g78
g59
NtRp3088
(dp3089
g62
(dp3090
g82
g83
ssg71
g3084
sg64
(lp3091
S'wsgi.input'
p3092
asbag57
(g78
g59
NtRp3093
(dp3094
g62
(dp3095
g89
g90
ssg71
g3084
sg64
(lp3096
S':'
asbag57
(g78
g59
NtRp3097
(dp3098
g62
(dp3099
sg71
g3084
sg64
(lp3100
g57
(g58
g59
NtRp3101
(dp3102
g62
(dp3103
g70
I3
ssg71
g3097
sg64
(lp3104
S'<cStringIO.StringO object at 0xae998ea0>'
p3105
asbasbasbag57
(g73
g59
NtRp3106
(dp3107
g62
(dp3108
sg71
g2658
sg64
(lp3109
g57
(g78
g59
NtRp3110
(dp3111
g62
(dp3112
g82
g83
ssg71
g3106
sg64
(lp3113
S'wsgi.multiprocess'
p3114
asbag57
(g78
g59
NtRp3115
(dp3116
g62
(dp3117
g89
g90
ssg71
g3106
sg64
(lp3118
S':'
asbag57
(g78
g59
NtRp3119
(dp3120
g62
(dp3121
sg71
g3106
sg64
(lp3122
g57
(g58
g59
NtRp3123
(dp3124
g62
(dp3125
g70
I3
ssg71
g3119
sg64
(lp3126
g100
asbasbasbag57
(g73
g59
NtRp3127
(dp3128
g62
(dp3129
sg71
g2658
sg64
(lp3130
g57
(g78
g59
NtRp3131
(dp3132
g62
(dp3133
g82
g83
ssg71
g3127
sg64
(lp3134
S'wsgi.multithread'
p3135
asbag57
(g78
g59
NtRp3136
(dp3137
g62
(dp3138
g89
g90
ssg71
g3127
sg64
(lp3139
S':'
asbag57
(g78
g59
NtRp3140
(dp3141
g62
(dp3142
sg71
g3127
sg64
(lp3143
g57
(g58
g59
NtRp3144
(dp3145
g62
(dp3146
g70
I3
ssg71
g3140
sg64
(lp3147
g1866
asbasbasbag57
(g73
g59
NtRp3148
(dp3149
g62
(dp3150
sg71
g2658
sg64
(lp3151
g57
(g78
g59
NtRp3152
(dp3153
g62
(dp3154
g82
g83
ssg71
g3148
sg64
(lp3155
S'wsgi.run_once'
p3156
asbag57
(g78
g59
NtRp3157
(dp3158
g62
(dp3159
g89
g90
ssg71
g3148
sg64
(lp3160
S':'
asbag57
(g78
g59
NtRp3161
(dp3162
g62
(dp3163
sg71
g3148
sg64
(lp3164
g57
(g58
g59
NtRp3165
(dp3166
g62
(dp3167
g70
I3
ssg71
g3161
sg64
(lp3168
g100
asbasbasbag57
(g73
g59
NtRp3169
(dp3170
g62
(dp3171
sg71
g2658
sg64
(lp3172
g57
(g78
g59
NtRp3173
(dp3174
g62
(dp3175
g82
g83
ssg71
g3169
sg64
(lp3176
S'wsgi.url_scheme'
p3177
asbag57
(g78
g59
NtRp3178
(dp3179
g62
(dp3180
g89
g90
ssg71
g3169
sg64
(lp3181
S':'
asbag57
(g78
g59
NtRp3182
(dp3183
g62
(dp3184
sg71
g3169
sg64
(lp3185
g57
(g58
g59
NtRp3186
(dp3187
g62
(dp3188
g70
I3
ssg71
g3182
sg64
(lp3189
g1909
asbasbasbag57
(g73
g59
NtRp3190
(dp3191
g62
(dp3192
sg71
g2658
sg64
(lp3193
g57
(g78
g59
NtRp3194
(dp3195
g62
(dp3196
g82
g83
ssg71
g3190
sg64
(lp3197
S'wsgi.version'
p3198
asbag57
(g78
g59
NtRp3199
(dp3200
g62
(dp3201
g89
g90
ssg71
g3190
sg64
(lp3202
S':'
asbag57
(g78
g59
NtRp3203
(dp3204
g62
(dp3205
sg71
g3190
sg64
(lp3206
g57
(g58
g59
NtRp3207
(dp3208
g62
(dp3209
g70
I3
ssg71
g3203
sg64
(lp3210
S'1'
asbasbasbasbasbasbasbasbasbasbasbasbasbsS'frames'
p3211
(lp3212
(dp3213
S'file'
p3214
S'/home/piyush/web2py/gluon/restricted.py'
p3215
sS'dump'
p3216
(dp3217
S'environment'
p3218
S"{'A': <class 'gluon.html.A'>, 'Auth': <class 'gluon.tools.Auth'>, 'B': <class 'gluon.html.B'>, 'BEAUTIFY': <class 'gluon.html.BEAUTIFY'>, 'BODY': <class 'gluon.html.BODY'>, 'BR': <class 'gluon.html.BR'>, 'BUTTON': <class 'gluon.html.BUTTON'>, 'CAT': <class 'gluon.html.CAT'>, 'CENTER': <class 'gluon.html.CENTER'>, 'CLEANUP': <class 'gluon.validators.CLEANUP'>, ...}"
p3219
sS'ccode'
p3220
S'<code object <module> at 0xae9b70b0, file "/home...ations/FotoBuk/views/default/index.html", line 1>'
p3221
ssS'lnum'
p3222
I209
sS'lines'
p3223
(dp3224
I204
S'    try:'
p3225
sI205
S'        if type(code) == types.CodeType:'
p3226
sI206
S'            ccode = code'
p3227
sI207
S'        else:'
p3228
sI208
S'            ccode = compile2(code,layer)'
p3229
sI209
S'        exec ccode in environment'
p3230
sI210
S'    except HTTP:'
p3231
sI211
S'        raise'
p3232
sI212
S'    except RestrictedError:'
p3233
sI213
S'        # do not encapsulate (obfuscate) the original RestrictedError'
p3234
ssS'call'
p3235
S'(code=r"response.write(\'<!DOCTYPE html>\\r\\n<!-- pauliris...ript>  \\r\\n</body>\\r\\n</html>\\r\\n\', escape=False)", environment={\'A\': <class \'gluon.html.A\'>, \'Auth\': <class \'gluon.tools.Auth\'>, \'B\': <class \'gluon.html.B\'>, \'BEAUTIFY\': <class \'gluon.html.BEAUTIFY\'>, \'BODY\': <class \'gluon.html.BODY\'>, \'BR\': <class \'gluon.html.BR\'>, \'BUTTON\': <class \'gluon.html.BUTTON\'>, \'CAT\': <class \'gluon.html.CAT\'>, \'CENTER\': <class \'gluon.html.CENTER\'>, \'CLEANUP\': <class \'gluon.validators.CLEANUP\'>, ...}, layer=\'/home/piyush/web2py/applications/FotoBuk/views/default/index.html\')'
p3236
sS'func'
p3237
S'restricted'
p3238
sa(dp3239
g3214
S'/home/piyush/web2py/applications/FotoBuk/views/default/index.html'
p3240
sg3216
(dp3241
sg3222
I79
sg3223
(dp3242
I70
S'    response.write(\'\\r\\n\\t<div class="span3 left-sidebar">\\r\\n\\t  \', escape=False)'
p3243
sI71
S"    response.write('\\r\\n\\t  <h3>Left Sidebar</h3>\\r\\n\\t  <p></p>\\r\\n\\t  ', escape=False)"
p3244
sI72
S"    response.write('\\r\\n\\t</div>\\r\\n\\t', escape=False)"
p3245
sI73
S'    pass'
p3246
sI74
S'response.write(\'\\r\\n\\t\\r\\n\\t<div class="\', escape=False)'
p3247
sI75
S'response.write(middle_columns)'
p3248
sI76
S'response.write(\'">\\r\\n\\t  \', escape=False)'
p3249
sI77
S"response.write('\\r\\n\\t  ', escape=False)"
p3250
sI78
S'response.write("\\n<a href=\'insert.html\'>text</a>\\n", escape=False)'
p3251
sI79
S'response.write(li)'
p3252
sI80
S"response.write('\\n', escape=False)"
p3253
sI81
S"response.write('\\r\\n\\t  ', escape=False)"
p3254
sI82
S"response.write('\\r\\n\\t</div>\\r\\n\\t\\r\\n\\t', escape=False)"
p3255
sI83
S'if right_sidebar_enabled:'
p3256
sI84
S'    response.write(\'\\r\\n\\t<div class="span3">\\r\\n\\t  \', escape=False)'
p3257
sI85
S"    response.write('\\r\\n\\t  <h3>Right Sidebar</h3>\\r\\n\\t  <p></p>\\r\\n\\t  ', escape=False)"
p3258
sI86
S"    response.write('\\r\\n\\t</div>    \\r\\n\\t', escape=False)"
p3259
sI87
S'    pass'
p3260
sI88
S'response.write(\'\\r\\n      </div><!--/row-->\\r\\n    </section><!--/main-->\\r\\n    \\r\\n    <!-- Footer ================================================== -->\\r\\n    <footer class="footer">\\r\\n      \', escape=False)'
p3261
sI89
S'response.write(\' <!-- this is default footer -->\\r\\n      <div class="footer-content">\\r\\n\\t<div class="copyright pull-left">\', escape=False)'
p3262
ssg3235
S'()'
p3263
sg3237
S'<module>'
p3264
sasS'pyver'
p3265
S'Python 2.7.2: /usr/bin/python'
p3266
sS'session'
p3267
g57
(g58
g59
NtRp3268
(dp3269
g62
(dp3270
sg64
(lp3271
g57
(g66
g59
NtRp3272
(dp3273
g62
(dp3274
g70
I5
ssg71
Nsg64
(lp3275
g57
(g73
g59
NtRp3276
(dp3277
g62
(dp3278
sg71
g3272
sg64
(lp3279
g57
(g78
g59
NtRp3280
(dp3281
g62
(dp3282
g82
g83
ssg71
g3276
sg64
(lp3283
S'auth'
p3284
asbag57
(g78
g59
NtRp3285
(dp3286
g62
(dp3287
g89
g90
ssg71
g3276
sg64
(lp3288
S':'
asbag57
(g78
g59
NtRp3289
(dp3290
g62
(dp3291
sg71
g3276
sg64
(lp3292
g57
(g58
g59
NtRp3293
(dp3294
g62
(dp3295
g70
I5
ssg71
g3289
sg64
(lp3296
g57
(g66
g59
NtRp3297
(dp3298
g62
(dp3299
g70
I4
ssg71
Nsg64
(lp3300
g57
(g73
g59
NtRp3301
(dp3302
g62
(dp3303
sg71
g3297
sg64
(lp3304
g57
(g78
g59
NtRp3305
(dp3306
g62
(dp3307
g82
g83
ssg71
g3301
sg64
(lp3308
S'expiration'
p3309
asbag57
(g78
g59
NtRp3310
(dp3311
g62
(dp3312
g89
g90
ssg71
g3301
sg64
(lp3313
S':'
asbag57
(g78
g59
NtRp3314
(dp3315
g62
(dp3316
sg71
g3301
sg64
(lp3317
g57
(g58
g59
NtRp3318
(dp3319
g62
(dp3320
g70
I4
ssg71
g3314
sg64
(lp3321
S'3600'
p3322
asbasbasbag57
(g73
g59
NtRp3323
(dp3324
g62
(dp3325
sg71
g3297
sg64
(lp3326
g57
(g78
g59
NtRp3327
(dp3328
g62
(dp3329
g82
g83
ssg71
g3323
sg64
(lp3330
S'hmac_key'
p3331
asbag57
(g78
g59
NtRp3332
(dp3333
g62
(dp3334
g89
g90
ssg71
g3323
sg64
(lp3335
S':'
asbag57
(g78
g59
NtRp3336
(dp3337
g62
(dp3338
sg71
g3323
sg64
(lp3339
g57
(g58
g59
NtRp3340
(dp3341
g62
(dp3342
g70
I4
ssg71
g3336
sg64
(lp3343
S'b651b504-02b8-43bc-bebc-1e7ada2c3fd8'
p3344
asbasbasbag57
(g73
g59
NtRp3345
(dp3346
g62
(dp3347
sg71
g3297
sg64
(lp3348
g57
(g78
g59
NtRp3349
(dp3350
g62
(dp3351
g82
g83
ssg71
g3345
sg64
(lp3352
S'last_visit'
p3353
asbag57
(g78
g59
NtRp3354
(dp3355
g62
(dp3356
g89
g90
ssg71
g3345
sg64
(lp3357
S':'
asbag57
(g78
g59
NtRp3358
(dp3359
g62
(dp3360
sg71
g3345
sg64
(lp3361
g57
(g58
g59
NtRp3362
(dp3363
g62
(dp3364
g70
I4
ssg71
g3358
sg64
(lp3365
S'datetime.datetime(2012, 8, 31, 8, 25, 55, 848241)'
p3366
asbasbasbag57
(g73
g59
NtRp3367
(dp3368
g62
(dp3369
sg71
g3297
sg64
(lp3370
g57
(g78
g59
NtRp3371
(dp3372
g62
(dp3373
g82
g83
ssg71
g3367
sg64
(lp3374
S'user'
p3375
asbag57
(g78
g59
NtRp3376
(dp3377
g62
(dp3378
g89
g90
ssg71
g3367
sg64
(lp3379
S':'
asbag57
(g78
g59
NtRp3380
(dp3381
g62
(dp3382
sg71
g3367
sg64
(lp3383
g57
(g58
g59
NtRp3384
(dp3385
g62
(dp3386
g70
I4
ssg71
g3380
sg64
(lp3387
g57
(g66
g59
NtRp3388
(dp3389
g62
(dp3390
g70
I3
ssg71
Nsg64
(lp3391
g57
(g73
g59
NtRp3392
(dp3393
g62
(dp3394
sg71
g3388
sg64
(lp3395
g57
(g78
g59
NtRp3396
(dp3397
g62
(dp3398
g82
g83
ssg71
g3392
sg64
(lp3399
S'email'
p3400
asbag57
(g78
g59
NtRp3401
(dp3402
g62
(dp3403
g89
g90
ssg71
g3392
sg64
(lp3404
S':'
asbag57
(g78
g59
NtRp3405
(dp3406
g62
(dp3407
sg71
g3392
sg64
(lp3408
g57
(g58
g59
NtRp3409
(dp3410
g62
(dp3411
g70
I3
ssg71
g3405
sg64
(lp3412
S'test@test.com'
p3413
asbasbasbag57
(g73
g59
NtRp3414
(dp3415
g62
(dp3416
sg71
g3388
sg64
(lp3417
g57
(g78
g59
NtRp3418
(dp3419
g62
(dp3420
g82
g83
ssg71
g3414
sg64
(lp3421
S'first_name'
p3422
asbag57
(g78
g59
NtRp3423
(dp3424
g62
(dp3425
g89
g90
ssg71
g3414
sg64
(lp3426
S':'
asbag57
(g78
g59
NtRp3427
(dp3428
g62
(dp3429
sg71
g3414
sg64
(lp3430
g57
(g58
g59
NtRp3431
(dp3432
g62
(dp3433
g70
I3
ssg71
g3427
sg64
(lp3434
S'test1'
p3435
asbasbasbag57
(g73
g59
NtRp3436
(dp3437
g62
(dp3438
sg71
g3388
sg64
(lp3439
g57
(g78
g59
NtRp3440
(dp3441
g62
(dp3442
g82
g83
ssg71
g3436
sg64
(lp3443
S'id'
p3444
asbag57
(g78
g59
NtRp3445
(dp3446
g62
(dp3447
g89
g90
ssg71
g3436
sg64
(lp3448
S':'
asbag57
(g78
g59
NtRp3449
(dp3450
g62
(dp3451
sg71
g3436
sg64
(lp3452
g57
(g58
g59
NtRp3453
(dp3454
g62
(dp3455
g70
I3
ssg71
g3449
sg64
(lp3456
S'2'
asbasbasbag57
(g73
g59
NtRp3457
(dp3458
g62
(dp3459
sg71
g3388
sg64
(lp3460
g57
(g78
g59
NtRp3461
(dp3462
g62
(dp3463
g82
g83
ssg71
g3457
sg64
(lp3464
S'last_name'
p3465
asbag57
(g78
g59
NtRp3466
(dp3467
g62
(dp3468
g89
g90
ssg71
g3457
sg64
(lp3469
S':'
asbag57
(g78
g59
NtRp3470
(dp3471
g62
(dp3472
sg71
g3457
sg64
(lp3473
g57
(g58
g59
NtRp3474
(dp3475
g62
(dp3476
g70
I3
ssg71
g3470
sg64
(lp3477
S'test2'
p3478
asbasbasbag57
(g73
g59
NtRp3479
(dp3480
g62
(dp3481
sg71
g3388
sg64
(lp3482
g57
(g78
g59
NtRp3483
(dp3484
g62
(dp3485
g82
g83
ssg71
g3479
sg64
(lp3486
S'password'
p3487
asbag57
(g78
g59
NtRp3488
(dp3489
g62
(dp3490
g89
g90
ssg71
g3479
sg64
(lp3491
S':'
asbag57
(g78
g59
NtRp3492
(dp3493
g62
(dp3494
sg71
g3479
sg64
(lp3495
g57
(g58
g59
NtRp3496
(dp3497
g62
(dp3498
g70
I3
ssg71
g3492
sg64
(lp3499
S'pbkdf2(1000,20,sha512)$bf1b0cd5effc57ad$cd5a5dc22ea4c46296a9202ea5ffd2563ba2f85c'
p3500
asbasbasbag57
(g73
g59
NtRp3501
(dp3502
g62
(dp3503
sg71
g3388
sg64
(lp3504
g57
(g78
g59
NtRp3505
(dp3506
g62
(dp3507
g82
g83
ssg71
g3501
sg64
(lp3508
S'registration_id'
p3509
asbag57
(g78
g59
NtRp3510
(dp3511
g62
(dp3512
g89
g90
ssg71
g3501
sg64
(lp3513
S':'
asbag57
(g78
g59
NtRp3514
(dp3515
g62
(dp3516
sg71
g3501
sg64
(lp3517
g57
(g58
g59
NtRp3518
(dp3519
g62
(dp3520
g70
I3
ssg71
g3514
sg64
(lp3521
S''
asbasbasbag57
(g73
g59
NtRp3522
(dp3523
g62
(dp3524
sg71
g3388
sg64
(lp3525
g57
(g78
g59
NtRp3526
(dp3527
g62
(dp3528
g82
g83
ssg71
g3522
sg64
(lp3529
S'registration_key'
p3530
asbag57
(g78
g59
NtRp3531
(dp3532
g62
(dp3533
g89
g90
ssg71
g3522
sg64
(lp3534
S':'
asbag57
(g78
g59
NtRp3535
(dp3536
g62
(dp3537
sg71
g3522
sg64
(lp3538
g57
(g58
g59
NtRp3539
(dp3540
g62
(dp3541
g70
I3
ssg71
g3535
sg64
(lp3542
S''
asbasbasbag57
(g73
g59
NtRp3543
(dp3544
g62
(dp3545
sg71
g3388
sg64
(lp3546
g57
(g78
g59
NtRp3547
(dp3548
g62
(dp3549
g82
g83
ssg71
g3543
sg64
(lp3550
S'reset_password_key'
p3551
asbag57
(g78
g59
NtRp3552
(dp3553
g62
(dp3554
g89
g90
ssg71
g3543
sg64
(lp3555
S':'
asbag57
(g78
g59
NtRp3556
(dp3557
g62
(dp3558
sg71
g3543
sg64
(lp3559
g57
(g58
g59
NtRp3560
(dp3561
g62
(dp3562
g70
I3
ssg71
g3556
sg64
(lp3563
S''
asbasbasbasbasbasbasbag57
(g73
g59
NtRp3564
(dp3565
g62
(dp3566
sg71
g3297
sg64
(lp3567
g57
(g78
g59
NtRp3568
(dp3569
g62
(dp3570
g82
g83
ssg71
g3564
sg64
(lp3571
S'user_groups'
p3572
asbag57
(g78
g59
NtRp3573
(dp3574
g62
(dp3575
g89
g90
ssg71
g3564
sg64
(lp3576
S':'
asbag57
(g78
g59
NtRp3577
(dp3578
g62
(dp3579
sg71
g3564
sg64
(lp3580
g57
(g58
g59
NtRp3581
(dp3582
g62
(dp3583
g70
I4
ssg71
g3577
sg64
(lp3584
g57
(g66
g59
NtRp3585
(dp3586
g62
(dp3587
g70
I3
ssg71
Nsg64
(lp3588
g57
(g73
g59
NtRp3589
(dp3590
g62
(dp3591
sg71
g3585
sg64
(lp3592
g57
(g78
g59
NtRp3593
(dp3594
g62
(dp3595
g82
g83
ssg71
g3589
sg64
(lp3596
S'2'
asbag57
(g78
g59
NtRp3597
(dp3598
g62
(dp3599
g89
g90
ssg71
g3589
sg64
(lp3600
S':'
asbag57
(g78
g59
NtRp3601
(dp3602
g62
(dp3603
sg71
g3589
sg64
(lp3604
g57
(g58
g59
NtRp3605
(dp3606
g62
(dp3607
g70
I3
ssg71
g3601
sg64
(lp3608
S'user_2'
p3609
asbasbasbasbasbasbasbasbasbasbasbag57
(g73
g59
NtRp3610
(dp3611
g62
(dp3612
sg71
g3272
sg64
(lp3613
g57
(g78
g59
NtRp3614
(dp3615
g62
(dp3616
g82
g83
ssg71
g3610
sg64
(lp3617
S'flash'
p3618
asbag57
(g78
g59
NtRp3619
(dp3620
g62
(dp3621
g89
g90
ssg71
g3610
sg64
(lp3622
S':'
asbag57
(g78
g59
NtRp3623
(dp3624
g62
(dp3625
sg71
g3610
sg64
(lp3626
g57
(g58
g59
NtRp3627
(dp3628
g62
(dp3629
g70
I5
ssg71
g3623
sg64
(lp3630
S'None'
p3631
asbasbasbag57
(g73
g59
NtRp3632
(dp3633
g62
(dp3634
sg71
g3272
sg64
(lp3635
g57
(g78
g59
NtRp3636
(dp3637
g62
(dp3638
g82
g83
ssg71
g3632
sg64
(lp3639
S'last_orderby'
p3640
asbag57
(g78
g59
NtRp3641
(dp3642
g62
(dp3643
g89
g90
ssg71
g3632
sg64
(lp3644
S':'
asbag57
(g78
g59
NtRp3645
(dp3646
g62
(dp3647
sg71
g3632
sg64
(lp3648
g57
(g58
g59
NtRp3649
(dp3650
g62
(dp3651
g70
I5
ssg71
g3645
sg64
(lp3652
S'None'
p3653
asbasbasbag57
(g73
g59
NtRp3654
(dp3655
g62
(dp3656
sg71
g3272
sg64
(lp3657
g57
(g78
g59
NtRp3658
(dp3659
g62
(dp3660
g82
g83
ssg71
g3654
sg64
(lp3661
S'last_query'
p3662
asbag57
(g78
g59
NtRp3663
(dp3664
g62
(dp3665
g89
g90
ssg71
g3654
sg64
(lp3666
S':'
asbag57
(g78
g59
NtRp3667
(dp3668
g62
(dp3669
sg71
g3654
sg64
(lp3670
g57
(g58
g59
NtRp3671
(dp3672
g62
(dp3673
g70
I5
ssg71
g3667
sg64
(lp3674
S'db.image.id>0'
p3675
asbasbasbasbasbsS'etype'
p3676
S"<type 'exceptions.NameError'>"
p3677
sS'date'
p3678
S'Fri Aug 31 08:25:56 2012'
p3679
sS'response'
p3680
g57
(g58
g59
NtRp3681
(dp3682
g62
(dp3683
sg64
(lp3684
g57
(g66
g59
NtRp3685
(dp3686
g62
(dp3687
g70
I5
ssg71
Nsg64
(lp3688
g57
(g73
g59
NtRp3689
(dp3690
g62
(dp3691
sg71
g3685
sg64
(lp3692
g57
(g78
g59
NtRp3693
(dp3694
g62
(dp3695
g82
g83
ssg71
g3689
sg64
(lp3696
g155
asbag57
(g78
g59
NtRp3697
(dp3698
g62
(dp3699
g89
g90
ssg71
g3689
sg64
(lp3700
S':'
asbag57
(g78
g59
NtRp3701
(dp3702
g62
(dp3703
sg71
g3689
sg64
(lp3704
g57
(g58
g59
NtRp3705
(dp3706
g62
(dp3707
g70
I5
ssg71
g3701
sg64
(lp3708
S'<cStringIO.StringO object at 0xae9944a0>'
p3709
asbasbasbag57
(g73
g59
NtRp3710
(dp3711
g62
(dp3712
sg71
g3685
sg64
(lp3713
g57
(g78
g59
NtRp3714
(dp3715
g62
(dp3716
g82
g83
ssg71
g3710
sg64
(lp3717
g243
asbag57
(g78
g59
NtRp3718
(dp3719
g62
(dp3720
g89
g90
ssg71
g3710
sg64
(lp3721
S':'
asbag57
(g78
g59
NtRp3722
(dp3723
g62
(dp3724
sg71
g3710
sg64
(lp3725
g57
(g58
g59
NtRp3726
(dp3727
g62
(dp3728
g70
I5
ssg71
g3722
sg64
(lp3729
g57
(g66
g59
NtRp3730
(dp3731
g62
(dp3732
g70
I4
ssg71
Nsg64
(lp3733
g57
(g73
g59
NtRp3734
(dp3735
g62
(dp3736
sg71
g3730
sg64
(lp3737
g57
(g78
g59
NtRp3738
(dp3739
g62
(dp3740
g82
g83
ssg71
g3734
sg64
(lp3741
S'session_id_fotobuk'
p3742
asbag57
(g78
g59
NtRp3743
(dp3744
g62
(dp3745
g89
g90
ssg71
g3734
sg64
(lp3746
S':'
asbag57
(g78
g59
NtRp3747
(dp3748
g62
(dp3749
sg71
g3734
sg64
(lp3750
g57
(g58
g59
NtRp3751
(dp3752
g62
(dp3753
g70
I4
ssg71
g3747
sg64
(lp3754
g475
ag57
(g66
g59
NtRp3755
(dp3756
g62
(dp3757
g70
I3
ssg71
Nsg64
(lp3758
g57
(g73
g59
NtRp3759
(dp3760
g62
(dp3761
sg71
g3755
sg64
(lp3762
g57
(g78
g59
NtRp3763
(dp3764
g62
(dp3765
g82
g83
ssg71
g3759
sg64
(lp3766
g294
asbag57
(g78
g59
NtRp3767
(dp3768
g62
(dp3769
g89
g90
ssg71
g3759
sg64
(lp3770
S':'
asbag57
(g78
g59
NtRp3771
(dp3772
g62
(dp3773
sg71
g3759
sg64
(lp3774
g57
(g58
g59
NtRp3775
(dp3776
g62
(dp3777
g70
I3
ssg71
g3771
sg64
(lp3778
S''
asbasbasbag57
(g73
g59
NtRp3779
(dp3780
g62
(dp3781
sg71
g3755
sg64
(lp3782
g57
(g78
g59
NtRp3783
(dp3784
g62
(dp3785
g82
g83
ssg71
g3779
sg64
(lp3786
g315
asbag57
(g78
g59
NtRp3787
(dp3788
g62
(dp3789
g89
g90
ssg71
g3779
sg64
(lp3790
S':'
asbag57
(g78
g59
NtRp3791
(dp3792
g62
(dp3793
sg71
g3779
sg64
(lp3794
g57
(g58
g59
NtRp3795
(dp3796
g62
(dp3797
g70
I3
ssg71
g3791
sg64
(lp3798
S''
asbasbasbag57
(g73
g59
NtRp3799
(dp3800
g62
(dp3801
sg71
g3755
sg64
(lp3802
g57
(g78
g59
NtRp3803
(dp3804
g62
(dp3805
g82
g83
ssg71
g3799
sg64
(lp3806
g336
asbag57
(g78
g59
NtRp3807
(dp3808
g62
(dp3809
g89
g90
ssg71
g3799
sg64
(lp3810
S':'
asbag57
(g78
g59
NtRp3811
(dp3812
g62
(dp3813
sg71
g3799
sg64
(lp3814
g57
(g58
g59
NtRp3815
(dp3816
g62
(dp3817
g70
I3
ssg71
g3811
sg64
(lp3818
S''
asbasbasbag57
(g73
g59
NtRp3819
(dp3820
g62
(dp3821
sg71
g3755
sg64
(lp3822
g57
(g78
g59
NtRp3823
(dp3824
g62
(dp3825
g82
g83
ssg71
g3819
sg64
(lp3826
g357
asbag57
(g78
g59
NtRp3827
(dp3828
g62
(dp3829
g89
g90
ssg71
g3819
sg64
(lp3830
S':'
asbag57
(g78
g59
NtRp3831
(dp3832
g62
(dp3833
sg71
g3819
sg64
(lp3834
g57
(g58
g59
NtRp3835
(dp3836
g62
(dp3837
g70
I3
ssg71
g3831
sg64
(lp3838
S''
asbasbasbag57
(g73
g59
NtRp3839
(dp3840
g62
(dp3841
sg71
g3755
sg64
(lp3842
g57
(g78
g59
NtRp3843
(dp3844
g62
(dp3845
g82
g83
ssg71
g3839
sg64
(lp3846
g378
asbag57
(g78
g59
NtRp3847
(dp3848
g62
(dp3849
g89
g90
ssg71
g3839
sg64
(lp3850
S':'
asbag57
(g78
g59
NtRp3851
(dp3852
g62
(dp3853
sg71
g3839
sg64
(lp3854
g57
(g58
g59
NtRp3855
(dp3856
g62
(dp3857
g70
I3
ssg71
g3851
sg64
(lp3858
S''
asbasbasbag57
(g73
g59
NtRp3859
(dp3860
g62
(dp3861
sg71
g3755
sg64
(lp3862
g57
(g78
g59
NtRp3863
(dp3864
g62
(dp3865
g82
g83
ssg71
g3859
sg64
(lp3866
g399
asbag57
(g78
g59
NtRp3867
(dp3868
g62
(dp3869
g89
g90
ssg71
g3859
sg64
(lp3870
S':'
asbag57
(g78
g59
NtRp3871
(dp3872
g62
(dp3873
sg71
g3859
sg64
(lp3874
g57
(g58
g59
NtRp3875
(dp3876
g62
(dp3877
g70
I3
ssg71
g3871
sg64
(lp3878
S'/'
asbasbasbag57
(g73
g59
NtRp3879
(dp3880
g62
(dp3881
sg71
g3755
sg64
(lp3882
g57
(g78
g59
NtRp3883
(dp3884
g62
(dp3885
g82
g83
ssg71
g3879
sg64
(lp3886
g420
asbag57
(g78
g59
NtRp3887
(dp3888
g62
(dp3889
g89
g90
ssg71
g3879
sg64
(lp3890
S':'
asbag57
(g78
g59
NtRp3891
(dp3892
g62
(dp3893
sg71
g3879
sg64
(lp3894
g57
(g58
g59
NtRp3895
(dp3896
g62
(dp3897
g70
I3
ssg71
g3891
sg64
(lp3898
S''
asbasbasbag57
(g73
g59
NtRp3899
(dp3900
g62
(dp3901
sg71
g3755
sg64
(lp3902
g57
(g78
g59
NtRp3903
(dp3904
g62
(dp3905
g82
g83
ssg71
g3899
sg64
(lp3906
g441
asbag57
(g78
g59
NtRp3907
(dp3908
g62
(dp3909
g89
g90
ssg71
g3899
sg64
(lp3910
S':'
asbag57
(g78
g59
NtRp3911
(dp3912
g62
(dp3913
sg71
g3899
sg64
(lp3914
g57
(g58
g59
NtRp3915
(dp3916
g62
(dp3917
g70
I3
ssg71
g3911
sg64
(lp3918
S''
asbasbasbasbasbasbasbasbasbasbasbag57
(g73
g59
NtRp3919
(dp3920
g62
(dp3921
sg71
g3685
sg64
(lp3922
g57
(g78
g59
NtRp3923
(dp3924
g62
(dp3925
g82
g83
ssg71
g3919
sg64
(lp3926
S'delimiters'
p3927
asbag57
(g78
g59
NtRp3928
(dp3929
g62
(dp3930
g89
g90
ssg71
g3919
sg64
(lp3931
S':'
asbag57
(g78
g59
NtRp3932
(dp3933
g62
(dp3934
sg71
g3919
sg64
(lp3935
g57
(g58
g59
NtRp3936
(dp3937
g62
(dp3938
g70
I5
ssg71
g3932
sg64
(lp3939
g57
(g66
g59
NtRp3940
(dp3941
g62
(dp3942
g70
I4
ssg71
Nsg64
(lp3943
g57
(g73
g59
NtRp3944
(dp3945
g62
(dp3946
sg71
g3940
sg64
(lp3947
g57
(g78
g59
NtRp3948
(dp3949
g62
(dp3950
sg71
g3944
sg64
(lp3951
g57
(g58
g59
NtRp3952
(dp3953
g62
(dp3954
g70
I4
ssg71
g3948
sg64
(lp3955
S'{{'
p3956
asbasbasbag57
(g73
g59
NtRp3957
(dp3958
g62
(dp3959
sg71
g3940
sg64
(lp3960
g57
(g78
g59
NtRp3961
(dp3962
g62
(dp3963
sg71
g3957
sg64
(lp3964
g57
(g58
g59
NtRp3965
(dp3966
g62
(dp3967
g70
I4
ssg71
g3961
sg64
(lp3968
S'}}'
p3969
asbasbasbasbasbasbasbag57
(g73
g59
NtRp3970
(dp3971
g62
(dp3972
sg71
g3685
sg64
(lp3973
g57
(g78
g59
NtRp3974
(dp3975
g62
(dp3976
g82
g83
ssg71
g3970
sg64
(lp3977
S'files'
p3978
asbag57
(g78
g59
NtRp3979
(dp3980
g62
(dp3981
g89
g90
ssg71
g3970
sg64
(lp3982
S':'
asbag57
(g78
g59
NtRp3983
(dp3984
g62
(dp3985
sg71
g3970
sg64
(lp3986
g57
(g58
g59
NtRp3987
(dp3988
g62
(dp3989
g70
I5
ssg71
g3983
sg64
(lp3990
g57
(g66
g59
NtRp3991
(dp3992
g62
(dp3993
g70
I4
ssg71
Nsg64
(lp3994
g57
(g73
g59
NtRp3995
(dp3996
g62
(dp3997
sg71
g3991
sg64
(lp3998
g57
(g78
g59
NtRp3999
(dp4000
g62
(dp4001
sg71
g3995
sg64
(lp4002
g57
(g58
g59
NtRp4003
(dp4004
g62
(dp4005
g70
I4
ssg71
g3999
sg64
(lp4006
S'/FotoBuk/static/js/jquery.js'
p4007
asbasbasbag57
(g73
g59
NtRp4008
(dp4009
g62
(dp4010
sg71
g3991
sg64
(lp4011
g57
(g78
g59
NtRp4012
(dp4013
g62
(dp4014
sg71
g4008
sg64
(lp4015
g57
(g58
g59
NtRp4016
(dp4017
g62
(dp4018
g70
I4
ssg71
g4012
sg64
(lp4019
S'/FotoBuk/static/css/calendar.css'
p4020
asbasbasbag57
(g73
g59
NtRp4021
(dp4022
g62
(dp4023
sg71
g3991
sg64
(lp4024
g57
(g78
g59
NtRp4025
(dp4026
g62
(dp4027
sg71
g4021
sg64
(lp4028
g57
(g58
g59
NtRp4029
(dp4030
g62
(dp4031
g70
I4
ssg71
g4025
sg64
(lp4032
S'/FotoBuk/static/js/calendar.js'
p4033
asbasbasbag57
(g73
g59
NtRp4034
(dp4035
g62
(dp4036
sg71
g3991
sg64
(lp4037
g57
(g78
g59
NtRp4038
(dp4039
g62
(dp4040
sg71
g4034
sg64
(lp4041
g57
(g58
g59
NtRp4042
(dp4043
g62
(dp4044
g70
I4
ssg71
g4038
sg64
(lp4045
S'/FotoBuk/static/js/web2py.js'
p4046
asbasbasbag57
(g73
g59
NtRp4047
(dp4048
g62
(dp4049
sg71
g3991
sg64
(lp4050
g57
(g78
g59
NtRp4051
(dp4052
g62
(dp4053
sg71
g4047
sg64
(lp4054
g57
(g58
g59
NtRp4055
(dp4056
g62
(dp4057
g70
I4
ssg71
g4051
sg64
(lp4058
S'/FotoBuk/static/css/bootstrap.min.css'
p4059
asbasbasbag57
(g73
g59
NtRp4060
(dp4061
g62
(dp4062
sg71
g3991
sg64
(lp4063
g57
(g78
g59
NtRp4064
(dp4065
g62
(dp4066
sg71
g4060
sg64
(lp4067
g57
(g58
g59
NtRp4068
(dp4069
g62
(dp4070
g70
I4
ssg71
g4064
sg64
(lp4071
S'/FotoBuk/static/css/bootstrap-responsive.min.css'
p4072
asbasbasbag57
(g73
g59
NtRp4073
(dp4074
g62
(dp4075
sg71
g3991
sg64
(lp4076
g57
(g78
g59
NtRp4077
(dp4078
g62
(dp4079
sg71
g4073
sg64
(lp4080
g57
(g58
g59
NtRp4081
(dp4082
g62
(dp4083
g70
I4
ssg71
g4077
sg64
(lp4084
S'/FotoBuk/static/css/web2py.css'
p4085
asbasbasbag57
(g73
g59
NtRp4086
(dp4087
g62
(dp4088
sg71
g3991
sg64
(lp4089
g57
(g78
g59
NtRp4090
(dp4091
g62
(dp4092
sg71
g4086
sg64
(lp4093
g57
(g58
g59
NtRp4094
(dp4095
g62
(dp4096
g70
I4
ssg71
g4090
sg64
(lp4097
S'/FotoBuk/static/css/web2py_bootstrap.css'
p4098
asbasbasbasbasbasbasbag57
(g73
g59
NtRp4099
(dp4100
g62
(dp4101
sg71
g3685
sg64
(lp4102
g57
(g78
g59
NtRp4103
(dp4104
g62
(dp4105
g82
g83
ssg71
g4099
sg64
(lp4106
S'flash'
p4107
asbag57
(g78
g59
NtRp4108
(dp4109
g62
(dp4110
g89
g90
ssg71
g4099
sg64
(lp4111
S':'
asbag57
(g78
g59
NtRp4112
(dp4113
g62
(dp4114
sg71
g4099
sg64
(lp4115
g57
(g58
g59
NtRp4116
(dp4117
g62
(dp4118
g70
I5
ssg71
g4112
sg64
(lp4119
S'Logged in'
p4120
asbasbasbag57
(g73
g59
NtRp4121
(dp4122
g62
(dp4123
sg71
g3685
sg64
(lp4124
g57
(g78
g59
NtRp4125
(dp4126
g62
(dp4127
g82
g83
ssg71
g4121
sg64
(lp4128
S'generic_patterns'
p4129
asbag57
(g78
g59
NtRp4130
(dp4131
g62
(dp4132
g89
g90
ssg71
g4121
sg64
(lp4133
S':'
asbag57
(g78
g59
NtRp4134
(dp4135
g62
(dp4136
sg71
g4121
sg64
(lp4137
g57
(g58
g59
NtRp4138
(dp4139
g62
(dp4140
g70
I5
ssg71
g4134
sg64
(lp4141
g57
(g66
g59
NtRp4142
(dp4143
g62
(dp4144
g70
I4
ssg71
Nsg64
(lp4145
sbasbasbasbag57
(g73
g59
NtRp4146
(dp4147
g62
(dp4148
sg71
g3685
sg64
(lp4149
g57
(g78
g59
NtRp4150
(dp4151
g62
(dp4152
g82
g83
ssg71
g4146
sg64
(lp4153
S'google_analytics_id'
p4154
asbag57
(g78
g59
NtRp4155
(dp4156
g62
(dp4157
g89
g90
ssg71
g4146
sg64
(lp4158
S':'
asbag57
(g78
g59
NtRp4159
(dp4160
g62
(dp4161
sg71
g4146
sg64
(lp4162
g57
(g58
g59
NtRp4163
(dp4164
g62
(dp4165
g70
I5
ssg71
g4159
sg64
(lp4166
S'None'
p4167
asbasbasbag57
(g73
g59
NtRp4168
(dp4169
g62
(dp4170
sg71
g3685
sg64
(lp4171
g57
(g78
g59
NtRp4172
(dp4173
g62
(dp4174
g82
g83
ssg71
g4168
sg64
(lp4175
S'headers'
p4176
asbag57
(g78
g59
NtRp4177
(dp4178
g62
(dp4179
g89
g90
ssg71
g4168
sg64
(lp4180
S':'
asbag57
(g78
g59
NtRp4181
(dp4182
g62
(dp4183
sg71
g4168
sg64
(lp4184
g57
(g58
g59
NtRp4185
(dp4186
g62
(dp4187
g70
I5
ssg71
g4181
sg64
(lp4188
g57
(g66
g59
NtRp4189
(dp4190
g62
(dp4191
g70
I4
ssg71
Nsg64
(lp4192
g57
(g73
g59
NtRp4193
(dp4194
g62
(dp4195
sg71
g4189
sg64
(lp4196
g57
(g78
g59
NtRp4197
(dp4198
g62
(dp4199
g82
g83
ssg71
g4193
sg64
(lp4200
S'Cache-Control'
p4201
asbag57
(g78
g59
NtRp4202
(dp4203
g62
(dp4204
g89
g90
ssg71
g4193
sg64
(lp4205
S':'
asbag57
(g78
g59
NtRp4206
(dp4207
g62
(dp4208
sg71
g4193
sg64
(lp4209
g57
(g58
g59
NtRp4210
(dp4211
g62
(dp4212
g70
I4
ssg71
g4206
sg64
(lp4213
S'no-store, no-cache, must-revalidate, post-check=0, pre-check=0'
p4214
asbasbasbag57
(g73
g59
NtRp4215
(dp4216
g62
(dp4217
sg71
g4189
sg64
(lp4218
g57
(g78
g59
NtRp4219
(dp4220
g62
(dp4221
g82
g83
ssg71
g4215
sg64
(lp4222
S'Content-Type'
p4223
asbag57
(g78
g59
NtRp4224
(dp4225
g62
(dp4226
g89
g90
ssg71
g4215
sg64
(lp4227
S':'
asbag57
(g78
g59
NtRp4228
(dp4229
g62
(dp4230
sg71
g4215
sg64
(lp4231
g57
(g58
g59
NtRp4232
(dp4233
g62
(dp4234
g70
I4
ssg71
g4228
sg64
(lp4235
S'text/html; charset=utf-8'
p4236
asbasbasbag57
(g73
g59
NtRp4237
(dp4238
g62
(dp4239
sg71
g4189
sg64
(lp4240
g57
(g78
g59
NtRp4241
(dp4242
g62
(dp4243
g82
g83
ssg71
g4237
sg64
(lp4244
S'Expires'
p4245
asbag57
(g78
g59
NtRp4246
(dp4247
g62
(dp4248
g89
g90
ssg71
g4237
sg64
(lp4249
S':'
asbag57
(g78
g59
NtRp4250
(dp4251
g62
(dp4252
sg71
g4237
sg64
(lp4253
g57
(g58
g59
NtRp4254
(dp4255
g62
(dp4256
g70
I4
ssg71
g4250
sg64
(lp4257
S'Fri, 31 Aug 2012 02:55:56 GMT'
p4258
asbasbasbag57
(g73
g59
NtRp4259
(dp4260
g62
(dp4261
sg71
g4189
sg64
(lp4262
g57
(g78
g59
NtRp4263
(dp4264
g62
(dp4265
g82
g83
ssg71
g4259
sg64
(lp4266
S'Pragma'
p4267
asbag57
(g78
g59
NtRp4268
(dp4269
g62
(dp4270
g89
g90
ssg71
g4259
sg64
(lp4271
S':'
asbag57
(g78
g59
NtRp4272
(dp4273
g62
(dp4274
sg71
g4259
sg64
(lp4275
g57
(g58
g59
NtRp4276
(dp4277
g62
(dp4278
g70
I4
ssg71
g4272
sg64
(lp4279
S'no-cache'
p4280
asbasbasbag57
(g73
g59
NtRp4281
(dp4282
g62
(dp4283
sg71
g4189
sg64
(lp4284
g57
(g78
g59
NtRp4285
(dp4286
g62
(dp4287
g82
g83
ssg71
g4281
sg64
(lp4288
S'X-Powered-By'
p4289
asbag57
(g78
g59
NtRp4290
(dp4291
g62
(dp4292
g89
g90
ssg71
g4281
sg64
(lp4293
S':'
asbag57
(g78
g59
NtRp4294
(dp4295
g62
(dp4296
sg71
g4281
sg64
(lp4297
g57
(g58
g59
NtRp4298
(dp4299
g62
(dp4300
g70
I4
ssg71
g4294
sg64
(lp4301
S'web2py'
p4302
asbasbasbasbasbasbasbag57
(g73
g59
NtRp4303
(dp4304
g62
(dp4305
sg71
g3685
sg64
(lp4306
g57
(g78
g59
NtRp4307
(dp4308
g62
(dp4309
g82
g83
ssg71
g4303
sg64
(lp4310
S'menu'
p4311
asbag57
(g78
g59
NtRp4312
(dp4313
g62
(dp4314
g89
g90
ssg71
g4303
sg64
(lp4315
S':'
asbag57
(g78
g59
NtRp4316
(dp4317
g62
(dp4318
sg71
g4303
sg64
(lp4319
g57
(g58
g59
NtRp4320
(dp4321
g62
(dp4322
g70
I5
ssg71
g4316
sg64
(lp4323
g57
(g66
g59
NtRp4324
(dp4325
g62
(dp4326
g70
I4
ssg71
Nsg64
(lp4327
g57
(g73
g59
NtRp4328
(dp4329
g62
(dp4330
sg71
g4324
sg64
(lp4331
g57
(g78
g59
NtRp4332
(dp4333
g62
(dp4334
sg71
g4328
sg64
(lp4335
g57
(g58
g59
NtRp4336
(dp4337
g62
(dp4338
g70
I4
ssg71
g4332
sg64
(lp4339
g57
(g66
g59
NtRp4340
(dp4341
g62
(dp4342
g70
I3
ssg71
Nsg64
(lp4343
g57
(g73
g59
NtRp4344
(dp4345
g62
(dp4346
sg71
g4340
sg64
(lp4347
g57
(g78
g59
NtRp4348
(dp4349
g62
(dp4350
sg71
g4344
sg64
(lp4351
g57
(g58
g59
NtRp4352
(dp4353
g62
(dp4354
g70
I3
ssg71
g4348
sg64
(lp4355
cgluon.languages
lazyT_unpickle
p4356
(S's\x04\x00\x00\x00Home'
tRp4357
asbasbasbag57
(g73
g59
NtRp4358
(dp4359
g62
(dp4360
sg71
g4340
sg64
(lp4361
g57
(g78
g59
NtRp4362
(dp4363
g62
(dp4364
sg71
g4358
sg64
(lp4365
g57
(g58
g59
NtRp4366
(dp4367
g62
(dp4368
g70
I3
ssg71
g4362
sg64
(lp4369
g100
asbasbasbag57
(g73
g59
NtRp4370
(dp4371
g62
(dp4372
sg71
g4340
sg64
(lp4373
g57
(g78
g59
NtRp4374
(dp4375
g62
(dp4376
sg71
g4370
sg64
(lp4377
g57
(g58
g59
NtRp4378
(dp4379
g62
(dp4380
g70
I3
ssg71
g4374
sg64
(lp4381
S'/FotoBuk/default/index'
p4382
asbasbasbag57
(g73
g59
NtRp4383
(dp4384
g62
(dp4385
sg71
g4340
sg64
(lp4386
g57
(g78
g59
NtRp4387
(dp4388
g62
(dp4389
sg71
g4383
sg64
(lp4390
g57
(g58
g59
NtRp4391
(dp4392
g62
(dp4393
g70
I3
ssg71
g4387
sg64
(lp4394
g57
(g66
g59
NtRp4395
(dp4396
g62
(dp4397
g70
I2
ssg71
Nsg64
(lp4398
sbasbasbasbasbasbasbasbag57
(g73
g59
NtRp4399
(dp4400
g62
(dp4401
sg71
g4324
sg64
(lp4402
g57
(g78
g59
NtRp4403
(dp4404
g62
(dp4405
sg71
g4399
sg64
(lp4406
g57
(g58
g59
NtRp4407
(dp4408
g62
(dp4409
g70
I4
ssg71
g4403
sg64
(lp4410
g57
(g66
g59
NtRp4411
(dp4412
g62
(dp4413
g70
I3
ssg71
Nsg64
(lp4414
g57
(g73
g59
NtRp4415
(dp4416
g62
(dp4417
sg71
g4411
sg64
(lp4418
g57
(g78
g59
NtRp4419
(dp4420
g62
(dp4421
sg71
g4415
sg64
(lp4422
g57
(g58
g59
NtRp4423
(dp4424
g62
(dp4425
g70
I3
ssg71
g4419
sg64
(lp4426
g57
(cgluon.html
SPAN
p4427
g59
NtRp4428
(dp4429
g62
(dp4430
g82
S'color:yellow'
p4431
ssg71
g57
(cgluon.html
A
p4432
g59
NtRp4433
(dp4434
g62
(dp4435
S'_href'
p4436
S'http://web2py.com'
p4437
ssg71
g57
(cgluon.html
LI
p4438
g59
NtRp4439
(dp4440
g62
(dp4441
S'_class'
p4442
S'dropdown'
p4443
ssg71
g57
(cgluon.html
UL
p4444
g59
NtRp4445
(dp4446
g62
(dp4447
S'li_class'
p4448
g4443
sS'mobile'
p4449
I00
sg4442
S'nav'
p4450
sS'ul_class'
p4451
S'dropdown-menu'
p4452
sS'li_active'
p4453
S'web2py-menu-active'
p4454
ssg71
Nsg64
(lp4455
g57
(g4438
g59
NtRp4456
(dp4457
g62
(dp4458
sg71
g4445
sg64
(lp4459
g57
(g4432
g59
NtRp4460
(dp4461
g62
(dp4462
g4436
g4382
ssg71
g4456
sg64
(lp4463
g4357
asbasbag4439
asbsg64
(lp4464
g4433
ag57
(g4444
g59
NtRp4465
(dp4466
g62
(dp4467
g4442
g4452
ssg71
g4439
sg64
(lp4468
g57
(g4438
g59
NtRp4469
(dp4470
g62
(dp4471
sg71
g4465
sg64
(lp4472
g57
(g4432
g59
NtRp4473
(dp4474
g62
(dp4475
g4436
S'/admin/default/site'
p4476
ssg71
g4469
sg64
(lp4477
g4356
(S's\x08\x00\x00\x00My Sites'
tRp4478
asbasbag57
(g4438
g59
NtRp4479
(dp4480
g62
(dp4481
g4442
g4443
ssg71
g4465
sg64
(lp4482
g57
(g4432
g59
NtRp4483
(dp4484
g62
(dp4485
g4436
S'/admin/default/design/FotoBuk'
p4486
ssg71
g4479
sg64
(lp4487
g4356
(S's\x08\x00\x00\x00This App'
tRp4488
asbag57
(g4444
g59
NtRp4489
(dp4490
g62
(dp4491
g4442
g4452
ssg71
g4479
sg64
(lp4492
g57
(g4438
g59
NtRp4493
(dp4494
g62
(dp4495
sg71
g4489
sg64
(lp4496
g57
(g4432
g59
NtRp4497
(dp4498
g62
(dp4499
g4436
S'/admin/default/edit/FotoBuk/controllers/default.py'
p4500
ssg71
g4493
sg64
(lp4501
g4356
(S's\n\x00\x00\x00Controller'
tRp4502
asbasbag57
(g4438
g59
NtRp4503
(dp4504
g62
(dp4505
sg71
g4489
sg64
(lp4506
g57
(g4432
g59
NtRp4507
(dp4508
g62
(dp4509
g4436
S'/admin/default/edit/FotoBuk/views/default/index.html'
p4510
ssg71
g4503
sg64
(lp4511
g4356
(S's\x04\x00\x00\x00View'
tRp4512
asbasbag57
(g4438
g59
NtRp4513
(dp4514
g62
(dp4515
sg71
g4489
sg64
(lp4516
g57
(g4432
g59
NtRp4517
(dp4518
g62
(dp4519
g4436
S'/admin/default/edit/FotoBuk/views/layout.html'
p4520
ssg71
g4513
sg64
(lp4521
g4356
(S's\x06\x00\x00\x00Layout'
tRp4522
asbasbag57
(g4438
g59
NtRp4523
(dp4524
g62
(dp4525
sg71
g4489
sg64
(lp4526
g57
(g4432
g59
NtRp4527
(dp4528
g62
(dp4529
g4436
S'/admin/default/edit/FotoBuk/static/css/web2py.css'
p4530
ssg71
g4523
sg64
(lp4531
g4356
(S's\n\x00\x00\x00Stylesheet'
tRp4532
asbasbag57
(g4438
g59
NtRp4533
(dp4534
g62
(dp4535
sg71
g4489
sg64
(lp4536
g57
(g4432
g59
NtRp4537
(dp4538
g62
(dp4539
g4436
S'/admin/default/edit/FotoBuk/models/db.py'
p4540
ssg71
g4533
sg64
(lp4541
g4356
(S's\x08\x00\x00\x00DB Model'
tRp4542
asbasbag57
(g4438
g59
NtRp4543
(dp4544
g62
(dp4545
sg71
g4489
sg64
(lp4546
g57
(g4432
g59
NtRp4547
(dp4548
g62
(dp4549
g4436
S'/admin/default/edit/FotoBuk/models/menu.py'
p4550
ssg71
g4543
sg64
(lp4551
g4356
(S's\n\x00\x00\x00Menu Model'
tRp4552
asbasbag57
(g4438
g59
NtRp4553
(dp4554
g62
(dp4555
sg71
g4489
sg64
(lp4556
g57
(g4432
g59
NtRp4557
(dp4558
g62
(dp4559
g4436
S'/FotoBuk/appadmin/index'
p4560
ssg71
g4553
sg64
(lp4561
g4356
(S's\x08\x00\x00\x00Database'
tRp4562
asbasbag57
(g4438
g59
NtRp4563
(dp4564
g62
(dp4565
sg71
g4489
sg64
(lp4566
g57
(g4432
g59
NtRp4567
(dp4568
g62
(dp4569
g4436
S'/admin/default/errors/FotoBuk'
p4570
ssg71
g4563
sg64
(lp4571
g4356
(S's\x06\x00\x00\x00Errors'
tRp4572
asbasbag57
(g4438
g59
NtRp4573
(dp4574
g62
(dp4575
sg71
g4489
sg64
(lp4576
g57
(g4432
g59
NtRp4577
(dp4578
g62
(dp4579
g4436
S'/admin/default/about/FotoBuk'
p4580
ssg71
g4573
sg64
(lp4581
g4356
(S's\x05\x00\x00\x00About'
tRp4582
asbasbasbasbag57
(g4438
g59
NtRp4583
(dp4584
g62
(dp4585
g4442
g4443
ssg71
g4465
sg64
(lp4586
g57
(g4432
g59
NtRp4587
(dp4588
g62
(dp4589
g4436
S'http://www.web2py.com'
p4590
ssg71
g4583
sg64
(lp4591
S'web2py.com'
p4592
asbag57
(g4444
g59
NtRp4593
(dp4594
g62
(dp4595
g4442
g4452
ssg71
g4583
sg64
(lp4596
g57
(g4438
g59
NtRp4597
(dp4598
g62
(dp4599
sg71
g4593
sg64
(lp4600
g57
(g4432
g59
NtRp4601
(dp4602
g62
(dp4603
g4436
S'http://www.web2py.com/examples/default/download'
p4604
ssg71
g4597
sg64
(lp4605
g4356
(S's\x08\x00\x00\x00Download'
tRp4606
asbasbag57
(g4438
g59
NtRp4607
(dp4608
g62
(dp4609
sg71
g4593
sg64
(lp4610
g57
(g4432
g59
NtRp4611
(dp4612
g62
(dp4613
g4436
S'http://www.web2py.com/examples/default/support'
p4614
ssg71
g4607
sg64
(lp4615
g4356
(S's\x07\x00\x00\x00Support'
tRp4616
asbasbag57
(g4438
g59
NtRp4617
(dp4618
g62
(dp4619
sg71
g4593
sg64
(lp4620
g57
(g4432
g59
NtRp4621
(dp4622
g62
(dp4623
g4436
S'http://web2py.com/demo_admin'
p4624
ssg71
g4617
sg64
(lp4625
g4356
(S's\x04\x00\x00\x00Demo'
tRp4626
asbasbag57
(g4438
g59
NtRp4627
(dp4628
g62
(dp4629
sg71
g4593
sg64
(lp4630
g57
(g4432
g59
NtRp4631
(dp4632
g62
(dp4633
g4436
S'http://web2py.com/examples/default/examples'
p4634
ssg71
g4627
sg64
(lp4635
g4356
(S's\x0e\x00\x00\x00Quick Examples'
tRp4636
asbasbag57
(g4438
g59
NtRp4637
(dp4638
g62
(dp4639
sg71
g4593
sg64
(lp4640
g57
(g4432
g59
NtRp4641
(dp4642
g62
(dp4643
g4436
S'http://web2py.com/AlterEgo'
p4644
ssg71
g4637
sg64
(lp4645
g4356
(S's\x03\x00\x00\x00FAQ'
tRp4646
asbasbag57
(g4438
g59
NtRp4647
(dp4648
g62
(dp4649
sg71
g4593
sg64
(lp4650
g57
(g4432
g59
NtRp4651
(dp4652
g62
(dp4653
g4436
S'http://www.web2py.com/examples/default/videos/'
p4654
ssg71
g4647
sg64
(lp4655
g4356
(S's\x06\x00\x00\x00Videos'
tRp4656
asbasbag57
(g4438
g59
NtRp4657
(dp4658
g62
(dp4659
sg71
g4593
sg64
(lp4660
g57
(g4432
g59
NtRp4661
(dp4662
g62
(dp4663
g4436
S'http://web2py.com/appliances'
p4664
ssg71
g4657
sg64
(lp4665
g4356
(S's\x11\x00\x00\x00Free Applications'
tRp4666
asbasbag57
(g4438
g59
NtRp4667
(dp4668
g62
(dp4669
sg71
g4593
sg64
(lp4670
g57
(g4432
g59
NtRp4671
(dp4672
g62
(dp4673
g4436
S'http://web2py.com/plugins'
p4674
ssg71
g4667
sg64
(lp4675
g4356
(S's\x07\x00\x00\x00Plugins'
tRp4676
asbasbag57
(g4438
g59
NtRp4677
(dp4678
g62
(dp4679
sg71
g4593
sg64
(lp4680
g57
(g4432
g59
NtRp4681
(dp4682
g62
(dp4683
g4436
S'http://web2py.com/layouts'
p4684
ssg71
g4677
sg64
(lp4685
g4356
(S's\x07\x00\x00\x00Layouts'
tRp4686
asbasbag57
(g4438
g59
NtRp4687
(dp4688
g62
(dp4689
sg71
g4593
sg64
(lp4690
g57
(g4432
g59
NtRp4691
(dp4692
g62
(dp4693
g4436
S'http://web2pyslices.com/'
p4694
ssg71
g4687
sg64
(lp4695
g4356
(S's\x07\x00\x00\x00Recipes'
tRp4696
asbasbag57
(g4438
g59
NtRp4697
(dp4698
g62
(dp4699
sg71
g4593
sg64
(lp4700
g57
(g4432
g59
NtRp4701
(dp4702
g62
(dp4703
g4436
S'http://web2py.com/semantic'
p4704
ssg71
g4697
sg64
(lp4705
g4356
(S's\x08\x00\x00\x00Semantic'
tRp4706
asbasbasbasbag57
(g4438
g59
NtRp4707
(dp4708
g62
(dp4709
g4442
g4443
ssg71
g4465
sg64
(lp4710
g57
(g4432
g59
NtRp4711
(dp4712
g62
(dp4713
g4436
S'http://www.web2py.com/book'
p4714
ssg71
g4707
sg64
(lp4715
g4356
(S's\r\x00\x00\x00Documentation'
tRp4716
asbag57
(g4444
g59
NtRp4717
(dp4718
g62
(dp4719
g4442
g4452
ssg71
g4707
sg64
(lp4720
g57
(g4438
g59
NtRp4721
(dp4722
g62
(dp4723
sg71
g4717
sg64
(lp4724
g57
(g4432
g59
NtRp4725
(dp4726
g62
(dp4727
g4436
S'http://www.web2py.com/book/default/chapter/00'
p4728
ssg71
g4721
sg64
(lp4729
g4356
(S's\x07\x00\x00\x00Preface'
tRp4730
asbasbag57
(g4438
g59
NtRp4731
(dp4732
g62
(dp4733
sg71
g4717
sg64
(lp4734
g57
(g4432
g59
NtRp4735
(dp4736
g62
(dp4737
g4436
S'http://www.web2py.com/book/default/chapter/01'
p4738
ssg71
g4731
sg64
(lp4739
g4356
(S's\x0c\x00\x00\x00Introduction'
tRp4740
asbasbag57
(g4438
g59
NtRp4741
(dp4742
g62
(dp4743
sg71
g4717
sg64
(lp4744
g57
(g4432
g59
NtRp4745
(dp4746
g62
(dp4747
g4436
S'http://www.web2py.com/book/default/chapter/02'
p4748
ssg71
g4741
sg64
(lp4749
g4356
(S's\x06\x00\x00\x00Python'
tRp4750
asbasbag57
(g4438
g59
NtRp4751
(dp4752
g62
(dp4753
sg71
g4717
sg64
(lp4754
g57
(g4432
g59
NtRp4755
(dp4756
g62
(dp4757
g4436
S'http://www.web2py.com/book/default/chapter/03'
p4758
ssg71
g4751
sg64
(lp4759
g4356
(S's\x08\x00\x00\x00Overview'
tRp4760
asbasbag57
(g4438
g59
NtRp4761
(dp4762
g62
(dp4763
sg71
g4717
sg64
(lp4764
g57
(g4432
g59
NtRp4765
(dp4766
g62
(dp4767
g4436
S'http://www.web2py.com/book/default/chapter/04'
p4768
ssg71
g4761
sg64
(lp4769
g4356
(S's\x08\x00\x00\x00The Core'
tRp4770
asbasbag57
(g4438
g59
NtRp4771
(dp4772
g62
(dp4773
sg71
g4717
sg64
(lp4774
g57
(g4432
g59
NtRp4775
(dp4776
g62
(dp4777
g4436
S'http://www.web2py.com/book/default/chapter/05'
p4778
ssg71
g4771
sg64
(lp4779
g4356
(S's\t\x00\x00\x00The Views'
tRp4780
asbasbag57
(g4438
g59
NtRp4781
(dp4782
g62
(dp4783
sg71
g4717
sg64
(lp4784
g57
(g4432
g59
NtRp4785
(dp4786
g62
(dp4787
g4436
S'http://www.web2py.com/book/default/chapter/06'
p4788
ssg71
g4781
sg64
(lp4789
g4356
(S's\x08\x00\x00\x00Database'
tRp4790
asbasbag57
(g4438
g59
NtRp4791
(dp4792
g62
(dp4793
sg71
g4717
sg64
(lp4794
g57
(g4432
g59
NtRp4795
(dp4796
g62
(dp4797
g4436
S'http://www.web2py.com/book/default/chapter/07'
p4798
ssg71
g4791
sg64
(lp4799
g4356
(S's\x14\x00\x00\x00Forms and Validators'
tRp4800
asbasbag57
(g4438
g59
NtRp4801
(dp4802
g62
(dp4803
sg71
g4717
sg64
(lp4804
g57
(g4432
g59
NtRp4805
(dp4806
g62
(dp4807
g4436
S'http://www.web2py.com/book/default/chapter/08'
p4808
ssg71
g4801
sg64
(lp4809
g4356
(S's\r\x00\x00\x00Email and SMS'
tRp4810
asbasbag57
(g4438
g59
NtRp4811
(dp4812
g62
(dp4813
sg71
g4717
sg64
(lp4814
g57
(g4432
g59
NtRp4815
(dp4816
g62
(dp4817
g4436
S'http://www.web2py.com/book/default/chapter/09'
p4818
ssg71
g4811
sg64
(lp4819
g4356
(S's\x0e\x00\x00\x00Access Control'
tRp4820
asbasbag57
(g4438
g59
NtRp4821
(dp4822
g62
(dp4823
sg71
g4717
sg64
(lp4824
g57
(g4432
g59
NtRp4825
(dp4826
g62
(dp4827
g4436
S'http://www.web2py.com/book/default/chapter/10'
p4828
ssg71
g4821
sg64
(lp4829
g4356
(S's\x08\x00\x00\x00Services'
tRp4830
asbasbag57
(g4438
g59
NtRp4831
(dp4832
g62
(dp4833
sg71
g4717
sg64
(lp4834
g57
(g4432
g59
NtRp4835
(dp4836
g62
(dp4837
g4436
S'http://www.web2py.com/book/default/chapter/11'
p4838
ssg71
g4831
sg64
(lp4839
g4356
(S's\x0c\x00\x00\x00Ajax Recipes'
tRp4840
asbasbag57
(g4438
g59
NtRp4841
(dp4842
g62
(dp4843
sg71
g4717
sg64
(lp4844
g57
(g4432
g59
NtRp4845
(dp4846
g62
(dp4847
g4436
S'http://www.web2py.com/book/default/chapter/12'
p4848
ssg71
g4841
sg64
(lp4849
g4356
(S's\x16\x00\x00\x00Components and Plugins'
tRp4850
asbasbag57
(g4438
g59
NtRp4851
(dp4852
g62
(dp4853
sg71
g4717
sg64
(lp4854
g57
(g4432
g59
NtRp4855
(dp4856
g62
(dp4857
g4436
S'http://www.web2py.com/book/default/chapter/13'
p4858
ssg71
g4851
sg64
(lp4859
g4356
(S's\x12\x00\x00\x00Deployment Recipes'
tRp4860
asbasbag57
(g4438
g59
NtRp4861
(dp4862
g62
(dp4863
sg71
g4717
sg64
(lp4864
g57
(g4432
g59
NtRp4865
(dp4866
g62
(dp4867
g4436
S'http://www.web2py.com/book/default/chapter/14'
p4868
ssg71
g4861
sg64
(lp4869
g4356
(S's\r\x00\x00\x00Other Recipes'
tRp4870
asbasbag57
(g4438
g59
NtRp4871
(dp4872
g62
(dp4873
sg71
g4717
sg64
(lp4874
g57
(g4432
g59
NtRp4875
(dp4876
g62
(dp4877
g4436
S'http://stores.lulu.com/web2py'
p4878
ssg71
g4871
sg64
(lp4879
g4356
(S's\r\x00\x00\x00Buy this book'
tRp4880
asbasbasbasbag57
(g4438
g59
NtRp4881
(dp4882
g62
(dp4883
g4442
g4443
ssg71
g4465
sg64
(lp4884
g57
(g4432
g59
NtRp4885
(dp4886
g62
(dp4887
S'_onclick'
p4888
S'javascript:void(0);return false;'
p4889
sg4436
S'#'
ssg71
g4881
sg64
(lp4890
g4356
(S's\t\x00\x00\x00Community'
tRp4891
asbag57
(g4444
g59
NtRp4892
(dp4893
g62
(dp4894
g4442
g4452
ssg71
g4881
sg64
(lp4895
g57
(g4438
g59
NtRp4896
(dp4897
g62
(dp4898
sg71
g4892
sg64
(lp4899
g57
(g4432
g59
NtRp4900
(dp4901
g62
(dp4902
g4436
S'http://www.web2py.com/examples/default/usergroups'
p4903
ssg71
g4896
sg64
(lp4904
g4356
(S's\x06\x00\x00\x00Groups'
tRp4905
asbasbag57
(g4438
g59
NtRp4906
(dp4907
g62
(dp4908
sg71
g4892
sg64
(lp4909
g57
(g4432
g59
NtRp4910
(dp4911
g62
(dp4912
g4436
S'http://twitter.com/web2py'
p4913
ssg71
g4906
sg64
(lp4914
g4356
(S's\x07\x00\x00\x00Twitter'
tRp4915
asbasbag57
(g4438
g59
NtRp4916
(dp4917
g62
(dp4918
sg71
g4892
sg64
(lp4919
g57
(g4432
g59
NtRp4920
(dp4921
g62
(dp4922
g4436
S'http://webchat.freenode.net/?channels=web2py'
p4923
ssg71
g4916
sg64
(lp4924
g4356
(S's\t\x00\x00\x00Live Chat'
tRp4925
asbasbasbasbag57
(g4438
g59
NtRp4926
(dp4927
g62
(dp4928
g4442
g4443
ssg71
g4465
sg64
(lp4929
g57
(g4432
g59
NtRp4930
(dp4931
g62
(dp4932
g4888
g4889
sg4436
S'#'
ssg71
g4926
sg64
(lp4933
g4356
(S's\x07\x00\x00\x00Plugins'
tRp4934
asbag57
(g4444
g59
NtRp4935
(dp4936
g62
(dp4937
g4442
g4452
ssg71
g4926
sg64
(lp4938
g57
(g4438
g59
NtRp4939
(dp4940
g62
(dp4941
sg71
g4935
sg64
(lp4942
g57
(g4432
g59
NtRp4943
(dp4944
g62
(dp4945
g4436
S'http://web2py.com/examples/default/download'
p4946
ssg71
g4939
sg64
(lp4947
S'plugin_wiki'
p4948
asbasbag57
(g4438
g59
NtRp4949
(dp4950
g62
(dp4951
sg71
g4935
sg64
(lp4952
g57
(g4432
g59
NtRp4953
(dp4954
g62
(dp4955
g4436
g4674
ssg71
g4949
sg64
(lp4956
g4356
(S's\r\x00\x00\x00Other Plugins'
tRp4957
asbasbag57
(g4438
g59
NtRp4958
(dp4959
g62
(dp4960
sg71
g4935
sg64
(lp4961
g57
(g4432
g59
NtRp4962
(dp4963
g62
(dp4964
g4436
g4684
ssg71
g4958
sg64
(lp4965
g4356
(S's\x0e\x00\x00\x00Layout Plugins'
tRp4966
asbasbasbasbasbasbsg64
(lp4967
g4428
asbsg64
(lp4968
g4302
asbasbasbasbag57
(g73
g59
NtRp4969
(dp4970
g62
(dp4971
sg71
g4411
sg64
(lp4972
g57
(g78
g59
NtRp4973
(dp4974
g62
(dp4975
sg71
g4969
sg64
(lp4976
g57
(g58
g59
NtRp4977
(dp4978
g62
(dp4979
g70
I3
ssg71
g4973
sg64
(lp4980
g100
asbasbasbag57
(g73
g59
NtRp4981
(dp4982
g62
(dp4983
sg71
g4411
sg64
(lp4984
g57
(g78
g59
NtRp4985
(dp4986
g62
(dp4987
sg71
g4981
sg64
(lp4988
g57
(g58
g59
NtRp4989
(dp4990
g62
(dp4991
g70
I3
ssg71
g4985
sg64
(lp4992
g4437
asbasbasbag57
(g73
g59
NtRp4993
(dp4994
g62
(dp4995
sg71
g4411
sg64
(lp4996
g57
(g78
g59
NtRp4997
(dp4998
g62
(dp4999
sg71
g4993
sg64
(lp5000
g57
(g58
g59
NtRp5001
(dp5002
g62
(dp5003
g70
I3
ssg71
g4997
sg64
(lp5004
g57
(g66
g59
NtRp5005
(dp5006
g62
(dp5007
g70
I2
ssg71
Nsg64
(lp5008
g57
(g73
g59
NtRp5009
(dp5010
g62
(dp5011
sg71
g5005
sg64
(lp5012
g57
(g78
g59
NtRp5013
(dp5014
g62
(dp5015
sg71
g5009
sg64
(lp5016
g57
(g58
g59
NtRp5017
(dp5018
g62
(dp5019
g70
I2
ssg71
g5013
sg64
(lp5020
g57
(g66
g59
NtRp5021
(dp5022
g62
(dp5023
g70
I1
ssg71
Nsg64
(lp5024
g57
(g73
g59
NtRp5025
(dp5026
g62
(dp5027
sg71
g5021
sg64
(lp5028
g57
(g78
g59
NtRp5029
(dp5030
g62
(dp5031
sg71
g5025
sg64
(lp5032
g57
(g58
g59
NtRp5033
(dp5034
g62
(dp5035
g70
I1
ssg71
g5029
sg64
(lp5036
g4478
asbasbasbag57
(g73
g59
NtRp5037
(dp5038
g62
(dp5039
sg71
g5021
sg64
(lp5040
g57
(g78
g59
NtRp5041
(dp5042
g62
(dp5043
sg71
g5037
sg64
(lp5044
g57
(g58
g59
NtRp5045
(dp5046
g62
(dp5047
g70
I1
ssg71
g5041
sg64
(lp5048
I00
asbasbasbag57
(g73
g59
NtRp5049
(dp5050
g62
(dp5051
sg71
g5021
sg64
(lp5052
g57
(g78
g59
NtRp5053
(dp5054
g62
(dp5055
sg71
g5049
sg64
(lp5056
g57
(g58
g59
NtRp5057
(dp5058
g62
(dp5059
g70
I1
ssg71
g5053
sg64
(lp5060
g4476
asbasbasbasbasbasbasbag57
(g73
g59
NtRp5061
(dp5062
g62
(dp5063
sg71
g5005
sg64
(lp5064
g57
(g78
g59
NtRp5065
(dp5066
g62
(dp5067
sg71
g5061
sg64
(lp5068
g57
(g58
g59
NtRp5069
(dp5070
g62
(dp5071
g70
I2
ssg71
g5065
sg64
(lp5072
g57
(g66
g59
NtRp5073
(dp5074
g62
(dp5075
g70
I1
ssg71
Nsg64
(lp5076
g57
(g73
g59
NtRp5077
(dp5078
g62
(dp5079
sg71
g5073
sg64
(lp5080
g57
(g78
g59
NtRp5081
(dp5082
g62
(dp5083
sg71
g5077
sg64
(lp5084
g57
(g58
g59
NtRp5085
(dp5086
g62
(dp5087
g70
I1
ssg71
g5081
sg64
(lp5088
g4488
asbasbasbag57
(g73
g59
NtRp5089
(dp5090
g62
(dp5091
sg71
g5073
sg64
(lp5092
g57
(g78
g59
NtRp5093
(dp5094
g62
(dp5095
sg71
g5089
sg64
(lp5096
g57
(g58
g59
NtRp5097
(dp5098
g62
(dp5099
g70
I1
ssg71
g5093
sg64
(lp5100
I00
asbasbasbag57
(g73
g59
NtRp5101
(dp5102
g62
(dp5103
sg71
g5073
sg64
(lp5104
g57
(g78
g59
NtRp5105
(dp5106
g62
(dp5107
sg71
g5101
sg64
(lp5108
g57
(g58
g59
NtRp5109
(dp5110
g62
(dp5111
g70
I1
ssg71
g5105
sg64
(lp5112
g4486
asbasbasbag57
(g73
g59
NtRp5113
(dp5114
g62
(dp5115
sg71
g5073
sg64
(lp5116
g57
(g78
g59
NtRp5117
(dp5118
g62
(dp5119
sg71
g5113
sg64
(lp5120
g57
(g58
g59
NtRp5121
(dp5122
g62
(dp5123
g70
I1
ssg71
g5117
sg64
(lp5124
(lp5125
(g4502
I00
g4500
tp5126
a(g4512
I00
g4510
tp5127
a(g4522
I00
g4520
tp5128
a(g4532
I00
g4530
tp5129
a(g4542
I00
g4540
tp5130
a(g4552
I00
g4550
tp5131
a(g4562
I00
g4560
tp5132
a(g4572
I00
g4570
tp5133
a(g4582
I00
g4580
tp5134
aasbasbasbasbasbasbasbag57
(g73
g59
NtRp5135
(dp5136
g62
(dp5137
sg71
g5005
sg64
(lp5138
g57
(g78
g59
NtRp5139
(dp5140
g62
(dp5141
sg71
g5135
sg64
(lp5142
g57
(g58
g59
NtRp5143
(dp5144
g62
(dp5145
g70
I2
ssg71
g5139
sg64
(lp5146
g57
(g66
g59
NtRp5147
(dp5148
g62
(dp5149
g70
I1
ssg71
Nsg64
(lp5150
g57
(g73
g59
NtRp5151
(dp5152
g62
(dp5153
sg71
g5147
sg64
(lp5154
g57
(g78
g59
NtRp5155
(dp5156
g62
(dp5157
sg71
g5151
sg64
(lp5158
g57
(g58
g59
NtRp5159
(dp5160
g62
(dp5161
g70
I1
ssg71
g5155
sg64
(lp5162
g4592
asbasbasbag57
(g73
g59
NtRp5163
(dp5164
g62
(dp5165
sg71
g5147
sg64
(lp5166
g57
(g78
g59
NtRp5167
(dp5168
g62
(dp5169
sg71
g5163
sg64
(lp5170
g57
(g58
g59
NtRp5171
(dp5172
g62
(dp5173
g70
I1
ssg71
g5167
sg64
(lp5174
I00
asbasbasbag57
(g73
g59
NtRp5175
(dp5176
g62
(dp5177
sg71
g5147
sg64
(lp5178
g57
(g78
g59
NtRp5179
(dp5180
g62
(dp5181
sg71
g5175
sg64
(lp5182
g57
(g58
g59
NtRp5183
(dp5184
g62
(dp5185
g70
I1
ssg71
g5179
sg64
(lp5186
g4590
asbasbasbag57
(g73
g59
NtRp5187
(dp5188
g62
(dp5189
sg71
g5147
sg64
(lp5190
g57
(g78
g59
NtRp5191
(dp5192
g62
(dp5193
sg71
g5187
sg64
(lp5194
g57
(g58
g59
NtRp5195
(dp5196
g62
(dp5197
g70
I1
ssg71
g5191
sg64
(lp5198
(lp5199
(g4606
I00
g4604
tp5200
a(g4616
I00
g4614
tp5201
a(g4626
I00
g4624
tp5202
a(g4636
I00
g4634
tp5203
a(g4646
I00
g4644
tp5204
a(g4656
I00
g4654
tp5205
a(g4666
I00
g4664
tp5206
a(g4676
I00
g4674
tp5207
a(g4686
I00
g4684
tp5208
a(g4696
I00
g4694
tp5209
a(g4706
I00
g4704
tp5210
aasbasbasbasbasbasbasbag57
(g73
g59
NtRp5211
(dp5212
g62
(dp5213
sg71
g5005
sg64
(lp5214
g57
(g78
g59
NtRp5215
(dp5216
g62
(dp5217
sg71
g5211
sg64
(lp5218
g57
(g58
g59
NtRp5219
(dp5220
g62
(dp5221
g70
I2
ssg71
g5215
sg64
(lp5222
g57
(g66
g59
NtRp5223
(dp5224
g62
(dp5225
g70
I1
ssg71
Nsg64
(lp5226
g57
(g73
g59
NtRp5227
(dp5228
g62
(dp5229
sg71
g5223
sg64
(lp5230
g57
(g78
g59
NtRp5231
(dp5232
g62
(dp5233
sg71
g5227
sg64
(lp5234
g57
(g58
g59
NtRp5235
(dp5236
g62
(dp5237
g70
I1
ssg71
g5231
sg64
(lp5238
g4716
asbasbasbag57
(g73
g59
NtRp5239
(dp5240
g62
(dp5241
sg71
g5223
sg64
(lp5242
g57
(g78
g59
NtRp5243
(dp5244
g62
(dp5245
sg71
g5239
sg64
(lp5246
g57
(g58
g59
NtRp5247
(dp5248
g62
(dp5249
g70
I1
ssg71
g5243
sg64
(lp5250
I00
asbasbasbag57
(g73
g59
NtRp5251
(dp5252
g62
(dp5253
sg71
g5223
sg64
(lp5254
g57
(g78
g59
NtRp5255
(dp5256
g62
(dp5257
sg71
g5251
sg64
(lp5258
g57
(g58
g59
NtRp5259
(dp5260
g62
(dp5261
g70
I1
ssg71
g5255
sg64
(lp5262
g4714
asbasbasbag57
(g73
g59
NtRp5263
(dp5264
g62
(dp5265
sg71
g5223
sg64
(lp5266
g57
(g78
g59
NtRp5267
(dp5268
g62
(dp5269
sg71
g5263
sg64
(lp5270
g57
(g58
g59
NtRp5271
(dp5272
g62
(dp5273
g70
I1
ssg71
g5267
sg64
(lp5274
(lp5275
(g4730
I00
g4728
tp5276
a(g4740
I00
g4738
tp5277
a(g4750
I00
g4748
tp5278
a(g4760
I00
g4758
tp5279
a(g4770
I00
g4768
tp5280
a(g4780
I00
g4778
tp5281
a(g4790
I00
g4788
tp5282
a(g4800
I00
g4798
tp5283
a(g4810
I00
g4808
tp5284
a(g4820
I00
g4818
tp5285
a(g4830
I00
g4828
tp5286
a(g4840
I00
g4838
tp5287
a(g4850
I00
g4848
tp5288
a(g4860
I00
g4858
tp5289
a(g4870
I00
g4868
tp5290
a(g4880
I00
g4878
tp5291
aasbasbasbasbasbasbasbag57
(g73
g59
NtRp5292
(dp5293
g62
(dp5294
sg71
g5005
sg64
(lp5295
g57
(g78
g59
NtRp5296
(dp5297
g62
(dp5298
sg71
g5292
sg64
(lp5299
g57
(g58
g59
NtRp5300
(dp5301
g62
(dp5302
g70
I2
ssg71
g5296
sg64
(lp5303
g57
(g66
g59
NtRp5304
(dp5305
g62
(dp5306
g70
I1
ssg71
Nsg64
(lp5307
g57
(g73
g59
NtRp5308
(dp5309
g62
(dp5310
sg71
g5304
sg64
(lp5311
g57
(g78
g59
NtRp5312
(dp5313
g62
(dp5314
sg71
g5308
sg64
(lp5315
g57
(g58
g59
NtRp5316
(dp5317
g62
(dp5318
g70
I1
ssg71
g5312
sg64
(lp5319
g4891
asbasbasbag57
(g73
g59
NtRp5320
(dp5321
g62
(dp5322
sg71
g5304
sg64
(lp5323
g57
(g78
g59
NtRp5324
(dp5325
g62
(dp5326
sg71
g5320
sg64
(lp5327
g57
(g58
g59
NtRp5328
(dp5329
g62
(dp5330
g70
I1
ssg71
g5324
sg64
(lp5331
I00
asbasbasbag57
(g73
g59
NtRp5332
(dp5333
g62
(dp5334
sg71
g5304
sg64
(lp5335
g57
(g78
g59
NtRp5336
(dp5337
g62
(dp5338
sg71
g5332
sg64
(lp5339
g57
(g58
g59
NtRp5340
(dp5341
g62
(dp5342
g70
I1
ssg71
g5336
sg64
(lp5343
Nasbasbasbag57
(g73
g59
NtRp5344
(dp5345
g62
(dp5346
sg71
g5304
sg64
(lp5347
g57
(g78
g59
NtRp5348
(dp5349
g62
(dp5350
sg71
g5344
sg64
(lp5351
g57
(g58
g59
NtRp5352
(dp5353
g62
(dp5354
g70
I1
ssg71
g5348
sg64
(lp5355
(lp5356
(g4905
I00
g4903
tp5357
a(g4915
I00
g4913
tp5358
a(g4925
I00
g4923
tp5359
aasbasbasbasbasbasbasbag57
(g73
g59
NtRp5360
(dp5361
g62
(dp5362
sg71
g5005
sg64
(lp5363
g57
(g78
g59
NtRp5364
(dp5365
g62
(dp5366
sg71
g5360
sg64
(lp5367
g57
(g58
g59
NtRp5368
(dp5369
g62
(dp5370
g70
I2
ssg71
g5364
sg64
(lp5371
g57
(g66
g59
NtRp5372
(dp5373
g62
(dp5374
g70
I1
ssg71
Nsg64
(lp5375
g57
(g73
g59
NtRp5376
(dp5377
g62
(dp5378
sg71
g5372
sg64
(lp5379
g57
(g78
g59
NtRp5380
(dp5381
g62
(dp5382
sg71
g5376
sg64
(lp5383
g57
(g58
g59
NtRp5384
(dp5385
g62
(dp5386
g70
I1
ssg71
g5380
sg64
(lp5387
g4934
asbasbasbag57
(g73
g59
NtRp5388
(dp5389
g62
(dp5390
sg71
g5372
sg64
(lp5391
g57
(g78
g59
NtRp5392
(dp5393
g62
(dp5394
sg71
g5388
sg64
(lp5395
g57
(g58
g59
NtRp5396
(dp5397
g62
(dp5398
g70
I1
ssg71
g5392
sg64
(lp5399
I00
asbasbasbag57
(g73
g59
NtRp5400
(dp5401
g62
(dp5402
sg71
g5372
sg64
(lp5403
g57
(g78
g59
NtRp5404
(dp5405
g62
(dp5406
sg71
g5400
sg64
(lp5407
g57
(g58
g59
NtRp5408
(dp5409
g62
(dp5410
g70
I1
ssg71
g5404
sg64
(lp5411
Nasbasbasbag57
(g73
g59
NtRp5412
(dp5413
g62
(dp5414
sg71
g5372
sg64
(lp5415
g57
(g78
g59
NtRp5416
(dp5417
g62
(dp5418
sg71
g5412
sg64
(lp5419
g57
(g58
g59
NtRp5420
(dp5421
g62
(dp5422
g70
I1
ssg71
g5416
sg64
(lp5423
(lp5424
(g4948
I00
g4946
tp5425
a(g4957
I00
g4674
tp5426
a(g4966
I00
g4684
tp5427
aasbasbasbasbasbasbasbasbasbasbasbasbasbasbasbasbasbasbasbag57
(g73
g59
NtRp5428
(dp5429
g62
(dp5430
sg71
g3685
sg64
(lp5431
g57
(g78
g59
NtRp5432
(dp5433
g62
(dp5434
g82
g83
ssg71
g5428
sg64
(lp5435
S'meta'
p5436
asbag57
(g78
g59
NtRp5437
(dp5438
g62
(dp5439
g89
g90
ssg71
g5428
sg64
(lp5440
S':'
asbag57
(g78
g59
NtRp5441
(dp5442
g62
(dp5443
sg71
g5428
sg64
(lp5444
g57
(g58
g59
NtRp5445
(dp5446
g62
(dp5447
g70
I5
ssg71
g5441
sg64
(lp5448
g57
(g66
g59
NtRp5449
(dp5450
g62
(dp5451
g70
I4
ssg71
Nsg64
(lp5452
g57
(g73
g59
NtRp5453
(dp5454
g62
(dp5455
sg71
g5449
sg64
(lp5456
g57
(g78
g59
NtRp5457
(dp5458
g62
(dp5459
g82
g83
ssg71
g5453
sg64
(lp5460
S'author'
p5461
asbag57
(g78
g59
NtRp5462
(dp5463
g62
(dp5464
g89
g90
ssg71
g5453
sg64
(lp5465
S':'
asbag57
(g78
g59
NtRp5466
(dp5467
g62
(dp5468
sg71
g5453
sg64
(lp5469
g57
(g58
g59
NtRp5470
(dp5471
g62
(dp5472
g70
I4
ssg71
g5466
sg64
(lp5473
S'Your Name <you@example.com>'
p5474
asbasbasbag57
(g73
g59
NtRp5475
(dp5476
g62
(dp5477
sg71
g5449
sg64
(lp5478
g57
(g78
g59
NtRp5479
(dp5480
g62
(dp5481
g82
g83
ssg71
g5475
sg64
(lp5482
S'description'
p5483
asbag57
(g78
g59
NtRp5484
(dp5485
g62
(dp5486
g89
g90
ssg71
g5475
sg64
(lp5487
S':'
asbag57
(g78
g59
NtRp5488
(dp5489
g62
(dp5490
sg71
g5475
sg64
(lp5491
g57
(g58
g59
NtRp5492
(dp5493
g62
(dp5494
g70
I4
ssg71
g5488
sg64
(lp5495
S'a cool new app'
p5496
asbasbasbag57
(g73
g59
NtRp5497
(dp5498
g62
(dp5499
sg71
g5449
sg64
(lp5500
g57
(g78
g59
NtRp5501
(dp5502
g62
(dp5503
g82
g83
ssg71
g5497
sg64
(lp5504
S'generator'
p5505
asbag57
(g78
g59
NtRp5506
(dp5507
g62
(dp5508
g89
g90
ssg71
g5497
sg64
(lp5509
S':'
asbag57
(g78
g59
NtRp5510
(dp5511
g62
(dp5512
sg71
g5497
sg64
(lp5513
g57
(g58
g59
NtRp5514
(dp5515
g62
(dp5516
g70
I4
ssg71
g5510
sg64
(lp5517
S'Web2py Web Framework'
p5518
asbasbasbag57
(g73
g59
NtRp5519
(dp5520
g62
(dp5521
sg71
g5449
sg64
(lp5522
g57
(g78
g59
NtRp5523
(dp5524
g62
(dp5525
g82
g83
ssg71
g5519
sg64
(lp5526
S'keywords'
p5527
asbag57
(g78
g59
NtRp5528
(dp5529
g62
(dp5530
g89
g90
ssg71
g5519
sg64
(lp5531
S':'
asbag57
(g78
g59
NtRp5532
(dp5533
g62
(dp5534
sg71
g5519
sg64
(lp5535
g57
(g58
g59
NtRp5536
(dp5537
g62
(dp5538
g70
I4
ssg71
g5532
sg64
(lp5539
S'web2py, python, framework'
p5540
asbasbasbasbasbasbasbag57
(g73
g59
NtRp5541
(dp5542
g62
(dp5543
sg71
g3685
sg64
(lp5544
g57
(g78
g59
NtRp5545
(dp5546
g62
(dp5547
g82
g83
ssg71
g5541
sg64
(lp5548
S'postprocessing'
p5549
asbag57
(g78
g59
NtRp5550
(dp5551
g62
(dp5552
g89
g90
ssg71
g5541
sg64
(lp5553
S':'
asbag57
(g78
g59
NtRp5554
(dp5555
g62
(dp5556
sg71
g5541
sg64
(lp5557
g57
(g58
g59
NtRp5558
(dp5559
g62
(dp5560
g70
I5
ssg71
g5554
sg64
(lp5561
g57
(g66
g59
NtRp5562
(dp5563
g62
(dp5564
g70
I4
ssg71
Nsg64
(lp5565
sbasbasbasbag57
(g73
g59
NtRp5566
(dp5567
g62
(dp5568
sg71
g3685
sg64
(lp5569
g57
(g78
g59
NtRp5570
(dp5571
g62
(dp5572
g82
g83
ssg71
g5566
sg64
(lp5573
S'session_file'
p5574
asbag57
(g78
g59
NtRp5575
(dp5576
g62
(dp5577
g89
g90
ssg71
g5566
sg64
(lp5578
S':'
asbag57
(g78
g59
NtRp5579
(dp5580
g62
(dp5581
sg71
g5566
sg64
(lp5582
g57
(g58
g59
NtRp5583
(dp5584
g62
(dp5585
g70
I5
ssg71
g5579
sg64
(lp5586
S"<open file '/home/piyush/web2py/applications/FotoBuk/sessions/127.0.0.1-961e4bc4-dc07-4e6c-b9f7-52a46e56ffd5', mode 'rb+' at 0x90e3a18>"
p5587
asbasbasbag57
(g73
g59
NtRp5588
(dp5589
g62
(dp5590
sg71
g3685
sg64
(lp5591
g57
(g78
g59
NtRp5592
(dp5593
g62
(dp5594
g82
g83
ssg71
g5588
sg64
(lp5595
S'session_filename'
p5596
asbag57
(g78
g59
NtRp5597
(dp5598
g62
(dp5599
g89
g90
ssg71
g5588
sg64
(lp5600
S':'
asbag57
(g78
g59
NtRp5601
(dp5602
g62
(dp5603
sg71
g5588
sg64
(lp5604
g57
(g58
g59
NtRp5605
(dp5606
g62
(dp5607
g70
I5
ssg71
g5601
sg64
(lp5608
S'/home/piyush/web2py/applications/FotoBuk/sessions/127.0.0.1-961e4bc4-dc07-4e6c-b9f7-52a46e56ffd5'
p5609
asbasbasbag57
(g73
g59
NtRp5610
(dp5611
g62
(dp5612
sg71
g3685
sg64
(lp5613
g57
(g78
g59
NtRp5614
(dp5615
g62
(dp5616
g82
g83
ssg71
g5610
sg64
(lp5617
S'session_id'
p5618
asbag57
(g78
g59
NtRp5619
(dp5620
g62
(dp5621
g89
g90
ssg71
g5610
sg64
(lp5622
S':'
asbag57
(g78
g59
NtRp5623
(dp5624
g62
(dp5625
sg71
g5610
sg64
(lp5626
g57
(g58
g59
NtRp5627
(dp5628
g62
(dp5629
g70
I5
ssg71
g5623
sg64
(lp5630
g475
asbasbasbag57
(g73
g59
NtRp5631
(dp5632
g62
(dp5633
sg71
g3685
sg64
(lp5634
g57
(g78
g59
NtRp5635
(dp5636
g62
(dp5637
g82
g83
ssg71
g5631
sg64
(lp5638
S'session_id_name'
p5639
asbag57
(g78
g59
NtRp5640
(dp5641
g62
(dp5642
g89
g90
ssg71
g5631
sg64
(lp5643
S':'
asbag57
(g78
g59
NtRp5644
(dp5645
g62
(dp5646
sg71
g5631
sg64
(lp5647
g57
(g58
g59
NtRp5648
(dp5649
g62
(dp5650
g70
I5
ssg71
g5644
sg64
(lp5651
g3742
asbasbasbag57
(g73
g59
NtRp5652
(dp5653
g62
(dp5654
sg71
g3685
sg64
(lp5655
g57
(g78
g59
NtRp5656
(dp5657
g62
(dp5658
g82
g83
ssg71
g5652
sg64
(lp5659
S'session_locked'
p5660
asbag57
(g78
g59
NtRp5661
(dp5662
g62
(dp5663
g89
g90
ssg71
g5652
sg64
(lp5664
S':'
asbag57
(g78
g59
NtRp5665
(dp5666
g62
(dp5667
sg71
g5652
sg64
(lp5668
g57
(g58
g59
NtRp5669
(dp5670
g62
(dp5671
g70
I5
ssg71
g5665
sg64
(lp5672
g1866
asbasbasbag57
(g73
g59
NtRp5673
(dp5674
g62
(dp5675
sg71
g3685
sg64
(lp5676
g57
(g78
g59
NtRp5677
(dp5678
g62
(dp5679
g82
g83
ssg71
g5673
sg64
(lp5680
S'session_new'
p5681
asbag57
(g78
g59
NtRp5682
(dp5683
g62
(dp5684
g89
g90
ssg71
g5673
sg64
(lp5685
S':'
asbag57
(g78
g59
NtRp5686
(dp5687
g62
(dp5688
sg71
g5673
sg64
(lp5689
g57
(g58
g59
NtRp5690
(dp5691
g62
(dp5692
g70
I5
ssg71
g5686
sg64
(lp5693
g100
asbasbasbag57
(g73
g59
NtRp5694
(dp5695
g62
(dp5696
sg71
g3685
sg64
(lp5697
g57
(g78
g59
NtRp5698
(dp5699
g62
(dp5700
g82
g83
ssg71
g5694
sg64
(lp5701
S'status'
p5702
asbag57
(g78
g59
NtRp5703
(dp5704
g62
(dp5705
g89
g90
ssg71
g5694
sg64
(lp5706
S':'
asbag57
(g78
g59
NtRp5707
(dp5708
g62
(dp5709
sg71
g5694
sg64
(lp5710
g57
(g58
g59
NtRp5711
(dp5712
g62
(dp5713
g70
I5
ssg71
g5707
sg64
(lp5714
S'200'
p5715
asbasbasbag57
(g73
g59
NtRp5716
(dp5717
g62
(dp5718
sg71
g3685
sg64
(lp5719
g57
(g78
g59
NtRp5720
(dp5721
g62
(dp5722
g82
g83
ssg71
g5716
sg64
(lp5723
S'subtitle'
p5724
asbag57
(g78
g59
NtRp5725
(dp5726
g62
(dp5727
g89
g90
ssg71
g5716
sg64
(lp5728
S':'
asbag57
(g78
g59
NtRp5729
(dp5730
g62
(dp5731
sg71
g5716
sg64
(lp5732
g57
(g58
g59
NtRp5733
(dp5734
g62
(dp5735
g70
I5
ssg71
g5729
sg64
(lp5736
g4356
(S's\r\x00\x00\x00customize me!'
tRp5737
asbasbasbag57
(g73
g59
NtRp5738
(dp5739
g62
(dp5740
sg71
g3685
sg64
(lp5741
g57
(g78
g59
NtRp5742
(dp5743
g62
(dp5744
g82
g83
ssg71
g5738
sg64
(lp5745
S'title'
p5746
asbag57
(g78
g59
NtRp5747
(dp5748
g62
(dp5749
g89
g90
ssg71
g5738
sg64
(lp5750
S':'
asbag57
(g78
g59
NtRp5751
(dp5752
g62
(dp5753
sg71
g5738
sg64
(lp5754
g57
(g58
g59
NtRp5755
(dp5756
g62
(dp5757
g70
I5
ssg71
g5751
sg64
(lp5758
S'Fotobuk'
p5759
asbasbasbag57
(g73
g59
NtRp5760
(dp5761
g62
(dp5762
sg71
g3685
sg64
(lp5763
g57
(g78
g59
NtRp5764
(dp5765
g62
(dp5766
g82
g83
ssg71
g5760
sg64
(lp5767
S'view'
p5768
asbag57
(g78
g59
NtRp5769
(dp5770
g62
(dp5771
g89
g90
ssg71
g5760
sg64
(lp5772
S':'
asbag57
(g78
g59
NtRp5773
(dp5774
g62
(dp5775
sg71
g5760
sg64
(lp5776
g57
(g58
g59
NtRp5777
(dp5778
g62
(dp5779
g70
I5
ssg71
g5773
sg64
(lp5780
S'default/index.html'
p5781
asbasbasbasbasbsS'locals'
p5782
(dp5783
S'OBJECT'
p5784
S"<class 'gluon.html.OBJECT'>"
p5785
sS'SQLDB'
p5786
S"<class 'gluon.dal.DAL'>"
p5787
sg3267
S"<Storage {'_formkey[comment/create]': '800a1172-...login]': '9e8228a6-3689-4272-bc5c-59d40c4fc0e0'}>"
p5788
sS'LINK'
p5789
S"<class 'gluon.html.LINK'>"
p5790
sS'BR'
p5791
S"<class 'gluon.html.BR'>"
p5792
sS'local_import'
p5793
S'<function <lambda>>'
p5794
sS'OPTGROUP'
p5795
S"<class 'gluon.html.OPTGROUP'>"
p5796
sS'__package__'
p5797
S'None'
p5798
sS'PRE'
p5799
S"<class 'gluon.html.PRE'>"
p5800
sS'IS_INT_IN_RANGE'
p5801
S"<class 'gluon.validators.IS_INT_IN_RANGE'>"
p5802
sS'left_sidebar_enabled'
p5803
g100
sS'IS_LOWER'
p5804
S"<class 'gluon.validators.IS_LOWER'>"
p5805
sS'IS_STRONG'
p5806
S"<class 'gluon.validators.IS_STRONG'>"
p5807
sS'cache'
p5808
S'<gluon.cache.Cache object>'
p5809
sS'IS_IN_DB'
p5810
S"<class 'gluon.validators.IS_IN_DB'>"
p5811
sS'TAG'
p5812
S'<gluon.html.__TAG__ object>'
p5813
sS'SQLField'
p5814
S"<class 'gluon.dal.Field'>"
p5815
sS'BODY'
p5816
S"<class 'gluon.html.BODY'>"
p5817
sS'IS_DATE_IN_RANGE'
p5818
S"<class 'gluon.validators.IS_DATE_IN_RANGE'>"
p5819
sS'TH'
p5820
S"<class 'gluon.html.TH'>"
p5821
sS'URL'
p5822
S'<function URL>'
p5823
sS'__file__'
p5824
S"'/home/piyush/web2py/applications/FotoBuk/views/default/index.html'"
p5825
sS'db'
p5826
S'<DAL sqlite://storage.sqlite>'
p5827
sS'auth'
p5828
S'<gluon.tools.Auth object>'
p5829
sS'P'
S"<class 'gluon.html.P'>"
p5830
sS'TFOOT'
p5831
S"<class 'gluon.html.TFOOT'>"
p5832
sS'XHTML'
p5833
S"<class 'gluon.html.XHTML'>"
p5834
sS'ON'
p5835
g1866
sS'OL'
p5836
S"<class 'gluon.html.OL'>"
p5837
sS'TEXTAREA'
p5838
S"<class 'gluon.html.TEXTAREA'>"
p5839
sS'MENU'
p5840
S"<class 'gluon.html.MENU'>"
p5841
sS'LOAD'
p5842
S'<function LOAD>'
p5843
sS'CODE'
p5844
S"<class 'gluon.html.CODE'>"
p5845
sS'HTTP'
p5846
S"<class 'gluon.http.HTTP'>"
p5847
sS'HR'
p5848
S"<class 'gluon.html.HR'>"
p5849
sS'IS_DATETIME'
p5850
S"<class 'gluon.validators.IS_DATETIME'>"
p5851
sS'HEAD'
p5852
S"<class 'gluon.html.HEAD'>"
p5853
sS'LABEL'
p5854
S"<class 'gluon.html.LABEL'>"
p5855
sS'CLEANUP'
p5856
S"<class 'gluon.validators.CLEANUP'>"
p5857
sS'SELECT'
p5858
S"<class 'gluon.html.SELECT'>"
p5859
sS'CENTER'
p5860
S"<class 'gluon.html.CENTER'>"
p5861
sS'Crud'
p5862
S"<class 'gluon.tools.Crud'>"
p5863
sS'Auth'
p5864
S"<class 'gluon.tools.Auth'>"
p5865
sS'__builtins__'
p5866
S"{'ArithmeticError': <type 'exceptions.ArithmeticError'>, 'AssertionError': <type 'exceptions.AssertionError'>, 'AttributeError': <type 'exceptions.AttributeError'>, 'BaseException': <type 'exceptions.BaseException'>, 'BufferError': <type 'exceptions.BufferError'>, 'BytesWarning': <type 'exceptions.BytesWarning'>, 'DeprecationWarning': <type 'exceptions.DeprecationWarning'>, 'EOFError': <type 'exceptions.EOFError'>, 'Ellipsis': Ellipsis, 'EnvironmentError': <type 'exceptions.EnvironmentError'>, ...}"
p5867
sS'HTML'
p5868
S"<class 'gluon.html.HTML'>"
p5869
sS'SQLFORM'
p5870
S"<class 'gluon.sqlhtml.SQLFORM'>"
p5871
sS'EM'
p5872
S"<class 'gluon.html.EM'>"
p5873
sS'redirect'
p5874
S'<function redirect>'
p5875
sS'FIELDSET'
p5876
S"<class 'gluon.html.FIELDSET'>"
p5877
sS'IS_EQUAL_TO'
p5878
S"<class 'gluon.validators.IS_EQUAL_TO'>"
p5879
sS'embed64'
p5880
S'<function embed64>'
p5881
sS'IS_LIST_OF'
p5882
S"<class 'gluon.validators.IS_LIST_OF'>"
p5883
sS'__name__'
p5884
S"'__restricted__'"
p5885
sS'EMBED'
p5886
S"<class 'gluon.html.EMBED'>"
p5887
sS'_'
S'<function _>'
p5888
sS'FORM'
p5889
S"<class 'gluon.html.FORM'>"
p5890
sS'H2'
p5891
S"<class 'gluon.html.H2'>"
p5892
sS'H3'
p5893
S"<class 'gluon.html.H3'>"
p5894
sS'BUTTON'
p5895
S"<class 'gluon.html.BUTTON'>"
p5896
sS'H1'
p5897
S"<class 'gluon.html.H1'>"
p5898
sS'H6'
p5899
S"<class 'gluon.html.H6'>"
p5900
sS'H4'
p5901
S"<class 'gluon.html.H4'>"
p5902
sS'H5'
p5903
S"<class 'gluon.html.H5'>"
p5904
sS'UL'
p5905
S"<class 'gluon.html.UL'>"
p5906
sS'IS_UPPER'
p5907
S"<class 'gluon.validators.IS_UPPER'>"
p5908
sS'xmlescape'
p5909
S'<function xmlescape>'
p5910
sS'IS_TIME'
p5911
S"<class 'gluon.validators.IS_TIME'>"
p5912
sS'OPTION'
p5913
S"<class 'gluon.html.OPTION'>"
p5914
sS'TITLE'
p5915
S"<class 'gluon.html.TITLE'>"
p5916
sS'CRYPT'
p5917
S"<class 'gluon.validators.CRYPT'>"
p5918
sS'IS_EMPTY_OR'
p5919
S"<class 'gluon.validators.IS_EMPTY_OR'>"
p5920
sS'MARKMIN'
p5921
S"<class 'gluon.html.MARKMIN'>"
p5922
sS'INPUT'
p5923
S"<class 'gluon.html.INPUT'>"
p5924
sS'STRONG'
p5925
S"<class 'gluon.html.STRONG'>"
p5926
sS'COL'
p5927
S"<class 'gluon.html.COL'>"
p5928
sS'SCRIPT'
p5929
S"<class 'gluon.html.SCRIPT'>"
p5930
sS'is_mobile'
p5931
g100
sS'TABLE'
p5932
S"<class 'gluon.html.TABLE'>"
p5933
sS'IS_IPV4'
p5934
S"<class 'gluon.validators.IS_IPV4'>"
p5935
sS'IS_LENGTH'
p5936
S"<class 'gluon.validators.IS_LENGTH'>"
p5937
sS'XML'
p5938
S"<class 'gluon.html.XML'>"
p5939
sS'B'
S"<class 'gluon.html.B'>"
p5940
sS'IMG'
p5941
S"<class 'gluon.html.IMG'>"
p5942
sS'SQLTABLE'
p5943
S"<class 'gluon.sqlhtml.SQLTABLE'>"
p5944
sS'IS_MATCH'
p5945
S"<class 'gluon.validators.IS_MATCH'>"
p5946
sS'IS_ALPHANUMERIC'
p5947
S"<class 'gluon.validators.IS_ALPHANUMERIC'>"
p5948
sS'SPAN'
p5949
S"<class 'gluon.html.SPAN'>"
p5950
sS'IS_SLUG'
p5951
S"<class 'gluon.validators.IS_SLUG'>"
p5952
sS'BEAUTIFY'
p5953
S"<class 'gluon.html.BEAUTIFY'>"
p5954
sS'META'
p5955
S"<class 'gluon.html.META'>"
p5956
sS'IS_DATE'
p5957
S"<class 'gluon.validators.IS_DATE'>"
p5958
sS'IS_EMAIL'
p5959
S"<class 'gluon.validators.IS_EMAIL'>"
p5960
sS'IS_NOT_EMPTY'
p5961
S"<class 'gluon.validators.IS_NOT_EMPTY'>"
p5962
sg56
S"<Storage {'function': 'index', 'body': <cStringI...plications/FotoBuk/', 'post_vars': <Storage {}>}>"
p5963
sS'TBODY'
p5964
S"<class 'gluon.html.TBODY'>"
p5965
sS'CAT'
p5966
S"<class 'gluon.html.CAT'>"
p5967
sS'Field'
p5968
S"<class 'gluon.dal.Field'>"
p5969
sS'middle_columns'
p5970
S"'span12'"
p5971
sS'DIV'
p5972
S"<class 'gluon.html.DIV'>"
p5973
sS'LEGEND'
p5974
S"<class 'gluon.html.LEGEND'>"
p5975
sS'COLGROUP'
p5976
S"<class 'gluon.html.COLGROUP'>"
p5977
sS'DAL'
p5978
S"<class 'gluon.dal.DAL'>"
p5979
sS'TT'
p5980
S"<class 'gluon.html.TT'>"
p5981
sS'TR'
p5982
S"<class 'gluon.html.TR'>"
p5983
sS'LI'
p5984
S"<class 'gluon.html.LI'>"
p5985
sS'right_sidebar_enabled'
p5986
g100
sS'IFRAME'
p5987
S"<class 'gluon.html.IFRAME'>"
p5988
sS'TD'
p5989
S"<class 'gluon.html.TD'>"
p5990
sS'IS_URL'
p5991
S"<class 'gluon.validators.IS_URL'>"
p5992
sS'A'
S"<class 'gluon.html.A'>"
p5993
sS'STYLE'
p5994
S"<class 'gluon.html.STYLE'>"
p5995
sS'IS_DATETIME_IN_RANGE'
p5996
S"<class 'gluon.validators.IS_DATETIME_IN_RANGE'>"
p5997
sS'IS_IMAGE'
p5998
S"<class 'gluon.validators.IS_IMAGE'>"
p5999
sS'I'
S"<class 'gluon.html.I'>"
p6000
sS'crud'
p6001
S'<gluon.tools.Crud object>'
p6002
sS'IS_NOT_IN_DB'
p6003
S"<class 'gluon.validators.IS_NOT_IN_DB'>"
p6004
sg3680
S"<Storage {'body': <cStringIO.StringO object at 0...a> at 0xadc902cc>, 'view': 'default/index.html'}>"
p6005
sS'THEAD'
p6006
S"<class 'gluon.html.THEAD'>"
p6007
sS'IS_NULL_OR'
p6008
S"<class 'gluon.validators.IS_EMPTY_OR'>"
p6009
sS'IS_FLOAT_IN_RANGE'
p6010
S"<class 'gluon.validators.IS_FLOAT_IN_RANGE'>"
p6011
sS'IS_EXPR'
p6012
S"<class 'gluon.validators.IS_EXPR'>"
p6013
sS'T'
S'<gluon.languages.translator object>'
p6014
sS'IS_IN_SET'
p6015
S"<class 'gluon.validators.IS_IN_SET'>"
p6016
sS'IS_UPLOAD_FILENAME'
p6017
S"<class 'gluon.validators.IS_UPLOAD_FILENAME'>"
p6018
sS'IS_DECIMAL_IN_RANGE'
p6019
S"<class 'gluon.validators.IS_DECIMAL_IN_RANGE'>"
p6020
sssS'traceback'
p6021
S'Traceback (most recent call last):\n  File "/home/piyush/web2py/gluon/restricted.py", line 209, in restricted\n    exec ccode in environment\n  File "/home/piyush/web2py/applications/FotoBuk/views/default/index.html", line 79, in <module>\nNameError: name \'li\' is not defined\n'
p6022
s.