(dp1
S'output'
p2
S"<type 'exceptions.NameError'> name 'auth' is not defined"
p3
sS'layer'
p4
S'/home/piyush/web2py/applications/FotoBuk/controllers/default.py'
p5
sS'code'
p6
S'# -*- coding: utf-8 -*-\n# this file is released under public domain and you can use without limitations\n\n#########################################################################\n## This is a samples controller\n## - index is the default action of any application\n## - user is required for authentication and authorization\n## - download is for downloading files uploaded in the db (does streaming)\n## - call exposes all registered services (none by default)\n#########################################################################\n\ndef index():\n    """\n    example action using the internationalization operator T and flash\n    rendered by views/default/index.html or views/generic.html\n\n    if you need a simple wiki simple replace the two lines below with:\n    return auth.wiki()\n    """\n    images = db().select(db.image.ALL, orderby=db.image.title)\n    return dict(images=images)\n    #response.flash = T("Welcome to web2py!")\n    #return dict(message=T(\'Hello World\'))\n\ndef user():\n    """\n    exposes:\n    http://..../[app]/default/user/login\n    http://..../[app]/default/user/logout\n    http://..../[app]/default/user/register\n    http://..../[app]/default/user/profile\n    http://..../[app]/default/user/retrieve_password\n    http://..../[app]/default/user/change_password\n    use @auth.requires_login()\n        @auth.requires_membership(\'group name\')\n        @auth.requires_permission(\'read\',\'table name\',record_id)\n    to decorate functions that need access control\n    """\n    return dict(form=auth())\n\n\ndef download():\n    """\n    allows downloading of uploaded files\n    http://..../[app]/default/download/[filename]\n    """\n    return response.download(request,db)\n\n\ndef call():\n    """\n    exposes services. for example:\n    http://..../[app]/default/call/jsonrpc\n    decorate with @services.jsonrpc the functions to expose\n    supports xml, json, xmlrpc, jsonrpc, amfrpc, rss, csv\n    """\n    return service()\n\n\n@auth.requires_signature()\ndef data():\n    """\n    http://..../[app]/default/data/tables\n    http://..../[app]/default/data/create/[table]\n    http://..../[app]/default/data/read/[table]/[id]\n    http://..../[app]/default/data/update/[table]/[id]\n    http://..../[app]/default/data/delete/[table]/[id]\n    http://..../[app]/default/data/select/[table]\n    http://..../[app]/default/data/search/[table]\n    but URLs must be signed, i.e. linked with\n      A(\'table\',_href=URL(\'data/tables\',user_signature=True))\n    or with the signed load operator\n      LOAD(\'default\',\'data.load\',args=\'tables\',ajax=True,user_signature=True)\n    """\n    return dict(form=crud())\n\nresponse._vars=response._caller(index)\n'
p7
sS'snapshot'
p8
(dp9
S'exception'
p10
(dp11
S'__hash__'
p12
S"<method-wrapper '__hash__' of exceptions.NameError object>"
p13
sS'__setattr__'
p14
S"<method-wrapper '__setattr__' of exceptions.NameError object>"
p15
sS'__reduce_ex__'
p16
S'<built-in method __reduce_ex__ of exceptions.NameError object>'
p17
sS'__getslice__'
p18
S"<method-wrapper '__getslice__' of exceptions.NameError object>"
p19
sS'__getitem__'
p20
S"<method-wrapper '__getitem__' of exceptions.NameError object>"
p21
sS'__setstate__'
p22
S'<built-in method __setstate__ of exceptions.NameError object>'
p23
sS'__reduce__'
p24
S'<built-in method __reduce__ of exceptions.NameError object>'
p25
sS'__str__'
p26
S"<method-wrapper '__str__' of exceptions.NameError object>"
p27
sS'__format__'
p28
S'<built-in method __format__ of exceptions.NameError object>'
p29
sS'__getattribute__'
p30
S"<method-wrapper '__getattribute__' of exceptions.NameError object>"
p31
sS'__class__'
p32
S"<type 'exceptions.NameError'>"
p33
sS'__unicode__'
p34
S'<built-in method __unicode__ of exceptions.NameError object>'
p35
sS'__delattr__'
p36
S"<method-wrapper '__delattr__' of exceptions.NameError object>"
p37
sS'__subclasshook__'
p38
S'<built-in method __subclasshook__ of type object>'
p39
sS'__repr__'
p40
S"<method-wrapper '__repr__' of exceptions.NameError object>"
p41
sS'args'
p42
S'("name \'auth\' is not defined",)'
p43
sS'__dict__'
p44
S'{}'
p45
sS'__sizeof__'
p46
S'<built-in method __sizeof__ of exceptions.NameError object>'
p47
sS'__doc__'
p48
S"'Name not found globally.'"
p49
sS'__init__'
p50
S"<method-wrapper '__init__' of exceptions.NameError object>"
p51
sS'__new__'
p52
S'<built-in method __new__ of type object>'
p53
ssS'evalue'
p54
S"name 'auth' is not defined"
p55
sS'request'
p56
ccopy_reg
_reconstructor
p57
(cgluon.html
BEAUTIFY
p58
c__builtin__
object
p59
NtRp60
(dp61
S'attributes'
p62
(dp63
sS'components'
p64
(lp65
g57
(cgluon.html
TABLE
p66
g59
NtRp67
(dp68
g62
(dp69
S'level'
p70
I5
ssS'parent'
p71
Nsg64
(lp72
g57
(cgluon.html
TR
p73
g59
NtRp74
(dp75
g62
(dp76
sg71
g67
sg64
(lp77
g57
(cgluon.html
TD
p78
g59
NtRp79
(dp80
g62
(dp81
S'_style'
p82
S'font-weight:bold;vertical-align:top'
p83
ssg71
g74
sg64
(lp84
S'ajax'
p85
asbag57
(g78
g59
NtRp86
(dp87
g62
(dp88
S'_valign'
p89
S'top'
p90
ssg71
g74
sg64
(lp91
S':'
asbag57
(g78
g59
NtRp92
(dp93
g62
(dp94
sg71
g74
sg64
(lp95
g57
(g58
g59
NtRp96
(dp97
g62
(dp98
g70
I5
ssg71
g92
sg64
(lp99
S'False'
p100
asbasbasbag57
(g73
g59
NtRp101
(dp102
g62
(dp103
sg71
g67
sg64
(lp104
g57
(g78
g59
NtRp105
(dp106
g62
(dp107
g82
g83
ssg71
g101
sg64
(lp108
S'application'
p109
asbag57
(g78
g59
NtRp110
(dp111
g62
(dp112
g89
g90
ssg71
g101
sg64
(lp113
S':'
asbag57
(g78
g59
NtRp114
(dp115
g62
(dp116
sg71
g101
sg64
(lp117
g57
(g58
g59
NtRp118
(dp119
g62
(dp120
g70
I5
ssg71
g114
sg64
(lp121
S'FotoBuk'
p122
asbasbasbag57
(g73
g59
NtRp123
(dp124
g62
(dp125
sg71
g67
sg64
(lp126
g57
(g78
g59
NtRp127
(dp128
g62
(dp129
g82
g83
ssg71
g123
sg64
(lp130
g42
asbag57
(g78
g59
NtRp131
(dp132
g62
(dp133
g89
g90
ssg71
g123
sg64
(lp134
S':'
asbag57
(g78
g59
NtRp135
(dp136
g62
(dp137
sg71
g123
sg64
(lp138
g57
(g58
g59
NtRp139
(dp140
g62
(dp141
g70
I5
ssg71
g135
sg64
(lp142
g57
(g66
g59
NtRp143
(dp144
g62
(dp145
g70
I4
ssg71
Nsg64
(lp146
sbasbasbasbag57
(g73
g59
NtRp147
(dp148
g62
(dp149
sg71
g67
sg64
(lp150
g57
(g78
g59
NtRp151
(dp152
g62
(dp153
g82
g83
ssg71
g147
sg64
(lp154
S'body'
p155
asbag57
(g78
g59
NtRp156
(dp157
g62
(dp158
g89
g90
ssg71
g147
sg64
(lp159
S':'
asbag57
(g78
g59
NtRp160
(dp161
g62
(dp162
sg71
g147
sg64
(lp163
g57
(g58
g59
NtRp164
(dp165
g62
(dp166
g70
I5
ssg71
g160
sg64
(lp167
S'<cStringIO.StringO object at 0xaea55ba0>'
p168
asbasbasbag57
(g73
g59
NtRp169
(dp170
g62
(dp171
sg71
g67
sg64
(lp172
g57
(g78
g59
NtRp173
(dp174
g62
(dp175
g82
g83
ssg71
g169
sg64
(lp176
S'cid'
p177
asbag57
(g78
g59
NtRp178
(dp179
g62
(dp180
g89
g90
ssg71
g169
sg64
(lp181
S':'
asbag57
(g78
g59
NtRp182
(dp183
g62
(dp184
sg71
g169
sg64
(lp185
g57
(g58
g59
NtRp186
(dp187
g62
(dp188
g70
I5
ssg71
g182
sg64
(lp189
S'None'
p190
asbasbasbag57
(g73
g59
NtRp191
(dp192
g62
(dp193
sg71
g67
sg64
(lp194
g57
(g78
g59
NtRp195
(dp196
g62
(dp197
g82
g83
ssg71
g191
sg64
(lp198
S'client'
p199
asbag57
(g78
g59
NtRp200
(dp201
g62
(dp202
g89
g90
ssg71
g191
sg64
(lp203
S':'
asbag57
(g78
g59
NtRp204
(dp205
g62
(dp206
sg71
g191
sg64
(lp207
g57
(g58
g59
NtRp208
(dp209
g62
(dp210
g70
I5
ssg71
g204
sg64
(lp211
S'127.0.0.1'
p212
asbasbasbag57
(g73
g59
NtRp213
(dp214
g62
(dp215
sg71
g67
sg64
(lp216
g57
(g78
g59
NtRp217
(dp218
g62
(dp219
g82
g83
ssg71
g213
sg64
(lp220
S'controller'
p221
asbag57
(g78
g59
NtRp222
(dp223
g62
(dp224
g89
g90
ssg71
g213
sg64
(lp225
S':'
asbag57
(g78
g59
NtRp226
(dp227
g62
(dp228
sg71
g213
sg64
(lp229
g57
(g58
g59
NtRp230
(dp231
g62
(dp232
g70
I5
ssg71
g226
sg64
(lp233
S'default'
p234
asbasbasbag57
(g73
g59
NtRp235
(dp236
g62
(dp237
sg71
g67
sg64
(lp238
g57
(g78
g59
NtRp239
(dp240
g62
(dp241
g82
g83
ssg71
g235
sg64
(lp242
S'cookies'
p243
asbag57
(g78
g59
NtRp244
(dp245
g62
(dp246
g89
g90
ssg71
g235
sg64
(lp247
S':'
asbag57
(g78
g59
NtRp248
(dp249
g62
(dp250
sg71
g235
sg64
(lp251
g57
(g58
g59
NtRp252
(dp253
g62
(dp254
g70
I5
ssg71
g248
sg64
(lp255
g57
(g66
g59
NtRp256
(dp257
g62
(dp258
g70
I4
ssg71
Nsg64
(lp259
g57
(g73
g59
NtRp260
(dp261
g62
(dp262
sg71
g256
sg64
(lp263
g57
(g78
g59
NtRp264
(dp265
g62
(dp266
g82
g83
ssg71
g260
sg64
(lp267
S'session_id_admin'
p268
asbag57
(g78
g59
NtRp269
(dp270
g62
(dp271
g89
g90
ssg71
g260
sg64
(lp272
S':'
asbag57
(g78
g59
NtRp273
(dp274
g62
(dp275
sg71
g260
sg64
(lp276
g57
(g58
g59
NtRp277
(dp278
g62
(dp279
g70
I4
ssg71
g273
sg64
(lp280
S'127.0.0.1-f31a16a6-2f0e-474e-b0b5-7ca781ebd64d'
p281
ag57
(g66
g59
NtRp282
(dp283
g62
(dp284
g70
I3
ssg71
Nsg64
(lp285
g57
(g73
g59
NtRp286
(dp287
g62
(dp288
sg71
g282
sg64
(lp289
g57
(g78
g59
NtRp290
(dp291
g62
(dp292
g82
g83
ssg71
g286
sg64
(lp293
S'comment'
p294
asbag57
(g78
g59
NtRp295
(dp296
g62
(dp297
g89
g90
ssg71
g286
sg64
(lp298
S':'
asbag57
(g78
g59
NtRp299
(dp300
g62
(dp301
sg71
g286
sg64
(lp302
g57
(g58
g59
NtRp303
(dp304
g62
(dp305
g70
I3
ssg71
g299
sg64
(lp306
S''
asbasbasbag57
(g73
g59
NtRp307
(dp308
g62
(dp309
sg71
g282
sg64
(lp310
g57
(g78
g59
NtRp311
(dp312
g62
(dp313
g82
g83
ssg71
g307
sg64
(lp314
S'domain'
p315
asbag57
(g78
g59
NtRp316
(dp317
g62
(dp318
g89
g90
ssg71
g307
sg64
(lp319
S':'
asbag57
(g78
g59
NtRp320
(dp321
g62
(dp322
sg71
g307
sg64
(lp323
g57
(g58
g59
NtRp324
(dp325
g62
(dp326
g70
I3
ssg71
g320
sg64
(lp327
S''
asbasbasbag57
(g73
g59
NtRp328
(dp329
g62
(dp330
sg71
g282
sg64
(lp331
g57
(g78
g59
NtRp332
(dp333
g62
(dp334
g82
g83
ssg71
g328
sg64
(lp335
S'expires'
p336
asbag57
(g78
g59
NtRp337
(dp338
g62
(dp339
g89
g90
ssg71
g328
sg64
(lp340
S':'
asbag57
(g78
g59
NtRp341
(dp342
g62
(dp343
sg71
g328
sg64
(lp344
g57
(g58
g59
NtRp345
(dp346
g62
(dp347
g70
I3
ssg71
g341
sg64
(lp348
S''
asbasbasbag57
(g73
g59
NtRp349
(dp350
g62
(dp351
sg71
g282
sg64
(lp352
g57
(g78
g59
NtRp353
(dp354
g62
(dp355
g82
g83
ssg71
g349
sg64
(lp356
S'httponly'
p357
asbag57
(g78
g59
NtRp358
(dp359
g62
(dp360
g89
g90
ssg71
g349
sg64
(lp361
S':'
asbag57
(g78
g59
NtRp362
(dp363
g62
(dp364
sg71
g349
sg64
(lp365
g57
(g58
g59
NtRp366
(dp367
g62
(dp368
g70
I3
ssg71
g362
sg64
(lp369
S''
asbasbasbag57
(g73
g59
NtRp370
(dp371
g62
(dp372
sg71
g282
sg64
(lp373
g57
(g78
g59
NtRp374
(dp375
g62
(dp376
g82
g83
ssg71
g370
sg64
(lp377
S'max-age'
p378
asbag57
(g78
g59
NtRp379
(dp380
g62
(dp381
g89
g90
ssg71
g370
sg64
(lp382
S':'
asbag57
(g78
g59
NtRp383
(dp384
g62
(dp385
sg71
g370
sg64
(lp386
g57
(g58
g59
NtRp387
(dp388
g62
(dp389
g70
I3
ssg71
g383
sg64
(lp390
S''
asbasbasbag57
(g73
g59
NtRp391
(dp392
g62
(dp393
sg71
g282
sg64
(lp394
g57
(g78
g59
NtRp395
(dp396
g62
(dp397
g82
g83
ssg71
g391
sg64
(lp398
S'path'
p399
asbag57
(g78
g59
NtRp400
(dp401
g62
(dp402
g89
g90
ssg71
g391
sg64
(lp403
S':'
asbag57
(g78
g59
NtRp404
(dp405
g62
(dp406
sg71
g391
sg64
(lp407
g57
(g58
g59
NtRp408
(dp409
g62
(dp410
g70
I3
ssg71
g404
sg64
(lp411
S''
asbasbasbag57
(g73
g59
NtRp412
(dp413
g62
(dp414
sg71
g282
sg64
(lp415
g57
(g78
g59
NtRp416
(dp417
g62
(dp418
g82
g83
ssg71
g412
sg64
(lp419
S'secure'
p420
asbag57
(g78
g59
NtRp421
(dp422
g62
(dp423
g89
g90
ssg71
g412
sg64
(lp424
S':'
asbag57
(g78
g59
NtRp425
(dp426
g62
(dp427
sg71
g412
sg64
(lp428
g57
(g58
g59
NtRp429
(dp430
g62
(dp431
g70
I3
ssg71
g425
sg64
(lp432
S''
asbasbasbag57
(g73
g59
NtRp433
(dp434
g62
(dp435
sg71
g282
sg64
(lp436
g57
(g78
g59
NtRp437
(dp438
g62
(dp439
g82
g83
ssg71
g433
sg64
(lp440
S'version'
p441
asbag57
(g78
g59
NtRp442
(dp443
g62
(dp444
g89
g90
ssg71
g433
sg64
(lp445
S':'
asbag57
(g78
g59
NtRp446
(dp447
g62
(dp448
sg71
g433
sg64
(lp449
g57
(g58
g59
NtRp450
(dp451
g62
(dp452
g70
I3
ssg71
g446
sg64
(lp453
S''
asbasbasbasbasbasbasbag57
(g73
g59
NtRp454
(dp455
g62
(dp456
sg71
g256
sg64
(lp457
g57
(g78
g59
NtRp458
(dp459
g62
(dp460
g82
g83
ssg71
g454
sg64
(lp461
S'session_id_fotobuk'
p462
asbag57
(g78
g59
NtRp463
(dp464
g62
(dp465
g89
g90
ssg71
g454
sg64
(lp466
S':'
asbag57
(g78
g59
NtRp467
(dp468
g62
(dp469
sg71
g454
sg64
(lp470
g57
(g58
g59
NtRp471
(dp472
g62
(dp473
g70
I4
ssg71
g467
sg64
(lp474
S'127.0.0.1-961e4bc4-dc07-4e6c-b9f7-52a46e56ffd5'
p475
ag57
(g66
g59
NtRp476
(dp477
g62
(dp478
g70
I3
ssg71
Nsg64
(lp479
g57
(g73
g59
NtRp480
(dp481
g62
(dp482
sg71
g476
sg64
(lp483
g57
(g78
g59
NtRp484
(dp485
g62
(dp486
g82
g83
ssg71
g480
sg64
(lp487
g294
asbag57
(g78
g59
NtRp488
(dp489
g62
(dp490
g89
g90
ssg71
g480
sg64
(lp491
S':'
asbag57
(g78
g59
NtRp492
(dp493
g62
(dp494
sg71
g480
sg64
(lp495
g57
(g58
g59
NtRp496
(dp497
g62
(dp498
g70
I3
ssg71
g492
sg64
(lp499
S''
asbasbasbag57
(g73
g59
NtRp500
(dp501
g62
(dp502
sg71
g476
sg64
(lp503
g57
(g78
g59
NtRp504
(dp505
g62
(dp506
g82
g83
ssg71
g500
sg64
(lp507
g315
asbag57
(g78
g59
NtRp508
(dp509
g62
(dp510
g89
g90
ssg71
g500
sg64
(lp511
S':'
asbag57
(g78
g59
NtRp512
(dp513
g62
(dp514
sg71
g500
sg64
(lp515
g57
(g58
g59
NtRp516
(dp517
g62
(dp518
g70
I3
ssg71
g512
sg64
(lp519
S''
asbasbasbag57
(g73
g59
NtRp520
(dp521
g62
(dp522
sg71
g476
sg64
(lp523
g57
(g78
g59
NtRp524
(dp525
g62
(dp526
g82
g83
ssg71
g520
sg64
(lp527
g336
asbag57
(g78
g59
NtRp528
(dp529
g62
(dp530
g89
g90
ssg71
g520
sg64
(lp531
S':'
asbag57
(g78
g59
NtRp532
(dp533
g62
(dp534
sg71
g520
sg64
(lp535
g57
(g58
g59
NtRp536
(dp537
g62
(dp538
g70
I3
ssg71
g532
sg64
(lp539
S''
asbasbasbag57
(g73
g59
NtRp540
(dp541
g62
(dp542
sg71
g476
sg64
(lp543
g57
(g78
g59
NtRp544
(dp545
g62
(dp546
g82
g83
ssg71
g540
sg64
(lp547
g357
asbag57
(g78
g59
NtRp548
(dp549
g62
(dp550
g89
g90
ssg71
g540
sg64
(lp551
S':'
asbag57
(g78
g59
NtRp552
(dp553
g62
(dp554
sg71
g540
sg64
(lp555
g57
(g58
g59
NtRp556
(dp557
g62
(dp558
g70
I3
ssg71
g552
sg64
(lp559
S''
asbasbasbag57
(g73
g59
NtRp560
(dp561
g62
(dp562
sg71
g476
sg64
(lp563
g57
(g78
g59
NtRp564
(dp565
g62
(dp566
g82
g83
ssg71
g560
sg64
(lp567
g378
asbag57
(g78
g59
NtRp568
(dp569
g62
(dp570
g89
g90
ssg71
g560
sg64
(lp571
S':'
asbag57
(g78
g59
NtRp572
(dp573
g62
(dp574
sg71
g560
sg64
(lp575
g57
(g58
g59
NtRp576
(dp577
g62
(dp578
g70
I3
ssg71
g572
sg64
(lp579
S''
asbasbasbag57
(g73
g59
NtRp580
(dp581
g62
(dp582
sg71
g476
sg64
(lp583
g57
(g78
g59
NtRp584
(dp585
g62
(dp586
g82
g83
ssg71
g580
sg64
(lp587
g399
asbag57
(g78
g59
NtRp588
(dp589
g62
(dp590
g89
g90
ssg71
g580
sg64
(lp591
S':'
asbag57
(g78
g59
NtRp592
(dp593
g62
(dp594
sg71
g580
sg64
(lp595
g57
(g58
g59
NtRp596
(dp597
g62
(dp598
g70
I3
ssg71
g592
sg64
(lp599
S''
asbasbasbag57
(g73
g59
NtRp600
(dp601
g62
(dp602
sg71
g476
sg64
(lp603
g57
(g78
g59
NtRp604
(dp605
g62
(dp606
g82
g83
ssg71
g600
sg64
(lp607
g420
asbag57
(g78
g59
NtRp608
(dp609
g62
(dp610
g89
g90
ssg71
g600
sg64
(lp611
S':'
asbag57
(g78
g59
NtRp612
(dp613
g62
(dp614
sg71
g600
sg64
(lp615
g57
(g58
g59
NtRp616
(dp617
g62
(dp618
g70
I3
ssg71
g612
sg64
(lp619
S''
asbasbasbag57
(g73
g59
NtRp620
(dp621
g62
(dp622
sg71
g476
sg64
(lp623
g57
(g78
g59
NtRp624
(dp625
g62
(dp626
g82
g83
ssg71
g620
sg64
(lp627
g441
asbag57
(g78
g59
NtRp628
(dp629
g62
(dp630
g89
g90
ssg71
g620
sg64
(lp631
S':'
asbag57
(g78
g59
NtRp632
(dp633
g62
(dp634
sg71
g620
sg64
(lp635
g57
(g58
g59
NtRp636
(dp637
g62
(dp638
g70
I3
ssg71
g632
sg64
(lp639
S''
asbasbasbasbasbasbasbag57
(g73
g59
NtRp640
(dp641
g62
(dp642
sg71
g256
sg64
(lp643
g57
(g78
g59
NtRp644
(dp645
g62
(dp646
g82
g83
ssg71
g640
sg64
(lp647
S'session_id_ialbum'
p648
asbag57
(g78
g59
NtRp649
(dp650
g62
(dp651
g89
g90
ssg71
g640
sg64
(lp652
S':'
asbag57
(g78
g59
NtRp653
(dp654
g62
(dp655
sg71
g640
sg64
(lp656
g57
(g58
g59
NtRp657
(dp658
g62
(dp659
g70
I4
ssg71
g653
sg64
(lp660
S'127.0.0.1-8bab57f4-8655-4ca4-8b5d-11fde04576c5'
p661
ag57
(g66
g59
NtRp662
(dp663
g62
(dp664
g70
I3
ssg71
Nsg64
(lp665
g57
(g73
g59
NtRp666
(dp667
g62
(dp668
sg71
g662
sg64
(lp669
g57
(g78
g59
NtRp670
(dp671
g62
(dp672
g82
g83
ssg71
g666
sg64
(lp673
g294
asbag57
(g78
g59
NtRp674
(dp675
g62
(dp676
g89
g90
ssg71
g666
sg64
(lp677
S':'
asbag57
(g78
g59
NtRp678
(dp679
g62
(dp680
sg71
g666
sg64
(lp681
g57
(g58
g59
NtRp682
(dp683
g62
(dp684
g70
I3
ssg71
g678
sg64
(lp685
S''
asbasbasbag57
(g73
g59
NtRp686
(dp687
g62
(dp688
sg71
g662
sg64
(lp689
g57
(g78
g59
NtRp690
(dp691
g62
(dp692
g82
g83
ssg71
g686
sg64
(lp693
g315
asbag57
(g78
g59
NtRp694
(dp695
g62
(dp696
g89
g90
ssg71
g686
sg64
(lp697
S':'
asbag57
(g78
g59
NtRp698
(dp699
g62
(dp700
sg71
g686
sg64
(lp701
g57
(g58
g59
NtRp702
(dp703
g62
(dp704
g70
I3
ssg71
g698
sg64
(lp705
S''
asbasbasbag57
(g73
g59
NtRp706
(dp707
g62
(dp708
sg71
g662
sg64
(lp709
g57
(g78
g59
NtRp710
(dp711
g62
(dp712
g82
g83
ssg71
g706
sg64
(lp713
g336
asbag57
(g78
g59
NtRp714
(dp715
g62
(dp716
g89
g90
ssg71
g706
sg64
(lp717
S':'
asbag57
(g78
g59
NtRp718
(dp719
g62
(dp720
sg71
g706
sg64
(lp721
g57
(g58
g59
NtRp722
(dp723
g62
(dp724
g70
I3
ssg71
g718
sg64
(lp725
S''
asbasbasbag57
(g73
g59
NtRp726
(dp727
g62
(dp728
sg71
g662
sg64
(lp729
g57
(g78
g59
NtRp730
(dp731
g62
(dp732
g82
g83
ssg71
g726
sg64
(lp733
g357
asbag57
(g78
g59
NtRp734
(dp735
g62
(dp736
g89
g90
ssg71
g726
sg64
(lp737
S':'
asbag57
(g78
g59
NtRp738
(dp739
g62
(dp740
sg71
g726
sg64
(lp741
g57
(g58
g59
NtRp742
(dp743
g62
(dp744
g70
I3
ssg71
g738
sg64
(lp745
S''
asbasbasbag57
(g73
g59
NtRp746
(dp747
g62
(dp748
sg71
g662
sg64
(lp749
g57
(g78
g59
NtRp750
(dp751
g62
(dp752
g82
g83
ssg71
g746
sg64
(lp753
g378
asbag57
(g78
g59
NtRp754
(dp755
g62
(dp756
g89
g90
ssg71
g746
sg64
(lp757
S':'
asbag57
(g78
g59
NtRp758
(dp759
g62
(dp760
sg71
g746
sg64
(lp761
g57
(g58
g59
NtRp762
(dp763
g62
(dp764
g70
I3
ssg71
g758
sg64
(lp765
S''
asbasbasbag57
(g73
g59
NtRp766
(dp767
g62
(dp768
sg71
g662
sg64
(lp769
g57
(g78
g59
NtRp770
(dp771
g62
(dp772
g82
g83
ssg71
g766
sg64
(lp773
g399
asbag57
(g78
g59
NtRp774
(dp775
g62
(dp776
g89
g90
ssg71
g766
sg64
(lp777
S':'
asbag57
(g78
g59
NtRp778
(dp779
g62
(dp780
sg71
g766
sg64
(lp781
g57
(g58
g59
NtRp782
(dp783
g62
(dp784
g70
I3
ssg71
g778
sg64
(lp785
S''
asbasbasbag57
(g73
g59
NtRp786
(dp787
g62
(dp788
sg71
g662
sg64
(lp789
g57
(g78
g59
NtRp790
(dp791
g62
(dp792
g82
g83
ssg71
g786
sg64
(lp793
g420
asbag57
(g78
g59
NtRp794
(dp795
g62
(dp796
g89
g90
ssg71
g786
sg64
(lp797
S':'
asbag57
(g78
g59
NtRp798
(dp799
g62
(dp800
sg71
g786
sg64
(lp801
g57
(g58
g59
NtRp802
(dp803
g62
(dp804
g70
I3
ssg71
g798
sg64
(lp805
S''
asbasbasbag57
(g73
g59
NtRp806
(dp807
g62
(dp808
sg71
g662
sg64
(lp809
g57
(g78
g59
NtRp810
(dp811
g62
(dp812
g82
g83
ssg71
g806
sg64
(lp813
g441
asbag57
(g78
g59
NtRp814
(dp815
g62
(dp816
g89
g90
ssg71
g806
sg64
(lp817
S':'
asbag57
(g78
g59
NtRp818
(dp819
g62
(dp820
sg71
g806
sg64
(lp821
g57
(g58
g59
NtRp822
(dp823
g62
(dp824
g70
I3
ssg71
g818
sg64
(lp825
S''
asbasbasbasbasbasbasbag57
(g73
g59
NtRp826
(dp827
g62
(dp828
sg71
g256
sg64
(lp829
g57
(g78
g59
NtRp830
(dp831
g62
(dp832
g82
g83
ssg71
g826
sg64
(lp833
S'session_id_welcome'
p834
asbag57
(g78
g59
NtRp835
(dp836
g62
(dp837
g89
g90
ssg71
g826
sg64
(lp838
S':'
asbag57
(g78
g59
NtRp839
(dp840
g62
(dp841
sg71
g826
sg64
(lp842
g57
(g58
g59
NtRp843
(dp844
g62
(dp845
g70
I4
ssg71
g839
sg64
(lp846
S'127.0.0.1-3299e4b7-9181-4336-a2b6-d67ebc8bfe8e'
p847
ag57
(g66
g59
NtRp848
(dp849
g62
(dp850
g70
I3
ssg71
Nsg64
(lp851
g57
(g73
g59
NtRp852
(dp853
g62
(dp854
sg71
g848
sg64
(lp855
g57
(g78
g59
NtRp856
(dp857
g62
(dp858
g82
g83
ssg71
g852
sg64
(lp859
g294
asbag57
(g78
g59
NtRp860
(dp861
g62
(dp862
g89
g90
ssg71
g852
sg64
(lp863
S':'
asbag57
(g78
g59
NtRp864
(dp865
g62
(dp866
sg71
g852
sg64
(lp867
g57
(g58
g59
NtRp868
(dp869
g62
(dp870
g70
I3
ssg71
g864
sg64
(lp871
S''
asbasbasbag57
(g73
g59
NtRp872
(dp873
g62
(dp874
sg71
g848
sg64
(lp875
g57
(g78
g59
NtRp876
(dp877
g62
(dp878
g82
g83
ssg71
g872
sg64
(lp879
g315
asbag57
(g78
g59
NtRp880
(dp881
g62
(dp882
g89
g90
ssg71
g872
sg64
(lp883
S':'
asbag57
(g78
g59
NtRp884
(dp885
g62
(dp886
sg71
g872
sg64
(lp887
g57
(g58
g59
NtRp888
(dp889
g62
(dp890
g70
I3
ssg71
g884
sg64
(lp891
S''
asbasbasbag57
(g73
g59
NtRp892
(dp893
g62
(dp894
sg71
g848
sg64
(lp895
g57
(g78
g59
NtRp896
(dp897
g62
(dp898
g82
g83
ssg71
g892
sg64
(lp899
g336
asbag57
(g78
g59
NtRp900
(dp901
g62
(dp902
g89
g90
ssg71
g892
sg64
(lp903
S':'
asbag57
(g78
g59
NtRp904
(dp905
g62
(dp906
sg71
g892
sg64
(lp907
g57
(g58
g59
NtRp908
(dp909
g62
(dp910
g70
I3
ssg71
g904
sg64
(lp911
S''
asbasbasbag57
(g73
g59
NtRp912
(dp913
g62
(dp914
sg71
g848
sg64
(lp915
g57
(g78
g59
NtRp916
(dp917
g62
(dp918
g82
g83
ssg71
g912
sg64
(lp919
g357
asbag57
(g78
g59
NtRp920
(dp921
g62
(dp922
g89
g90
ssg71
g912
sg64
(lp923
S':'
asbag57
(g78
g59
NtRp924
(dp925
g62
(dp926
sg71
g912
sg64
(lp927
g57
(g58
g59
NtRp928
(dp929
g62
(dp930
g70
I3
ssg71
g924
sg64
(lp931
S''
asbasbasbag57
(g73
g59
NtRp932
(dp933
g62
(dp934
sg71
g848
sg64
(lp935
g57
(g78
g59
NtRp936
(dp937
g62
(dp938
g82
g83
ssg71
g932
sg64
(lp939
g378
asbag57
(g78
g59
NtRp940
(dp941
g62
(dp942
g89
g90
ssg71
g932
sg64
(lp943
S':'
asbag57
(g78
g59
NtRp944
(dp945
g62
(dp946
sg71
g932
sg64
(lp947
g57
(g58
g59
NtRp948
(dp949
g62
(dp950
g70
I3
ssg71
g944
sg64
(lp951
S''
asbasbasbag57
(g73
g59
NtRp952
(dp953
g62
(dp954
sg71
g848
sg64
(lp955
g57
(g78
g59
NtRp956
(dp957
g62
(dp958
g82
g83
ssg71
g952
sg64
(lp959
g399
asbag57
(g78
g59
NtRp960
(dp961
g62
(dp962
g89
g90
ssg71
g952
sg64
(lp963
S':'
asbag57
(g78
g59
NtRp964
(dp965
g62
(dp966
sg71
g952
sg64
(lp967
g57
(g58
g59
NtRp968
(dp969
g62
(dp970
g70
I3
ssg71
g964
sg64
(lp971
S''
asbasbasbag57
(g73
g59
NtRp972
(dp973
g62
(dp974
sg71
g848
sg64
(lp975
g57
(g78
g59
NtRp976
(dp977
g62
(dp978
g82
g83
ssg71
g972
sg64
(lp979
g420
asbag57
(g78
g59
NtRp980
(dp981
g62
(dp982
g89
g90
ssg71
g972
sg64
(lp983
S':'
asbag57
(g78
g59
NtRp984
(dp985
g62
(dp986
sg71
g972
sg64
(lp987
g57
(g58
g59
NtRp988
(dp989
g62
(dp990
g70
I3
ssg71
g984
sg64
(lp991
S''
asbasbasbag57
(g73
g59
NtRp992
(dp993
g62
(dp994
sg71
g848
sg64
(lp995
g57
(g78
g59
NtRp996
(dp997
g62
(dp998
g82
g83
ssg71
g992
sg64
(lp999
g441
asbag57
(g78
g59
NtRp1000
(dp1001
g62
(dp1002
g89
g90
ssg71
g992
sg64
(lp1003
S':'
asbag57
(g78
g59
NtRp1004
(dp1005
g62
(dp1006
sg71
g992
sg64
(lp1007
g57
(g58
g59
NtRp1008
(dp1009
g62
(dp1010
g70
I3
ssg71
g1004
sg64
(lp1011
S''
asbasbasbasbasbasbasbasbasbasbasbag57
(g73
g59
NtRp1012
(dp1013
g62
(dp1014
sg71
g67
sg64
(lp1015
g57
(g78
g59
NtRp1016
(dp1017
g62
(dp1018
g82
g83
ssg71
g1012
sg64
(lp1019
S'env'
p1020
asbag57
(g78
g59
NtRp1021
(dp1022
g62
(dp1023
g89
g90
ssg71
g1012
sg64
(lp1024
S':'
asbag57
(g78
g59
NtRp1025
(dp1026
g62
(dp1027
sg71
g1012
sg64
(lp1028
g57
(g58
g59
NtRp1029
(dp1030
g62
(dp1031
g70
I5
ssg71
g1025
sg64
(lp1032
g57
(g66
g59
NtRp1033
(dp1034
g62
(dp1035
g70
I4
ssg71
Nsg64
(lp1036
g57
(g73
g59
NtRp1037
(dp1038
g62
(dp1039
sg71
g1033
sg64
(lp1040
g57
(g78
g59
NtRp1041
(dp1042
g62
(dp1043
g82
g83
ssg71
g1037
sg64
(lp1044
S'app_folders'
p1045
asbag57
(g78
g59
NtRp1046
(dp1047
g62
(dp1048
g89
g90
ssg71
g1037
sg64
(lp1049
S':'
asbag57
(g78
g59
NtRp1050
(dp1051
g62
(dp1052
sg71
g1037
sg64
(lp1053
g57
(g58
g59
NtRp1054
(dp1055
g62
(dp1056
g70
I4
ssg71
g1050
sg64
(lp1057
S"set(['/home/piyush/web2py/applications/FotoBuk/', '/home/piyush/web2py/applications/welcome/', '/home/piyush/web2py/applications/admin/'])"
p1058
asbasbasbag57
(g73
g59
NtRp1059
(dp1060
g62
(dp1061
sg71
g1033
sg64
(lp1062
g57
(g78
g59
NtRp1063
(dp1064
g62
(dp1065
g82
g83
ssg71
g1059
sg64
(lp1066
S'applications_parent'
p1067
asbag57
(g78
g59
NtRp1068
(dp1069
g62
(dp1070
g89
g90
ssg71
g1059
sg64
(lp1071
S':'
asbag57
(g78
g59
NtRp1072
(dp1073
g62
(dp1074
sg71
g1059
sg64
(lp1075
g57
(g58
g59
NtRp1076
(dp1077
g62
(dp1078
g70
I4
ssg71
g1072
sg64
(lp1079
S'/home/piyush/web2py'
p1080
asbasbasbag57
(g73
g59
NtRp1081
(dp1082
g62
(dp1083
sg71
g1033
sg64
(lp1084
g57
(g78
g59
NtRp1085
(dp1086
g62
(dp1087
g82
g83
ssg71
g1081
sg64
(lp1088
S'cmd_args'
p1089
asbag57
(g78
g59
NtRp1090
(dp1091
g62
(dp1092
g89
g90
ssg71
g1081
sg64
(lp1093
S':'
asbag57
(g78
g59
NtRp1094
(dp1095
g62
(dp1096
sg71
g1081
sg64
(lp1097
g57
(g58
g59
NtRp1098
(dp1099
g62
(dp1100
g70
I4
ssg71
g1094
sg64
(lp1101
g57
(g66
g59
NtRp1102
(dp1103
g62
(dp1104
g70
I3
ssg71
Nsg64
(lp1105
sbasbasbasbag57
(g73
g59
NtRp1106
(dp1107
g62
(dp1108
sg71
g1033
sg64
(lp1109
g57
(g78
g59
NtRp1110
(dp1111
g62
(dp1112
g82
g83
ssg71
g1106
sg64
(lp1113
S'cmd_options'
p1114
asbag57
(g78
g59
NtRp1115
(dp1116
g62
(dp1117
g89
g90
ssg71
g1106
sg64
(lp1118
S':'
asbag57
(g78
g59
NtRp1119
(dp1120
g62
(dp1121
sg71
g1106
sg64
(lp1122
g57
(g58
g59
NtRp1123
(dp1124
g62
(dp1125
g70
I4
ssg71
g1119
sg64
(lp1126
S"<Values at 0x9fc030c: {'verbose': False, 'ip': '127.0.0.1', 'with_scheduler': False, 'ips': ['10.1.39.167', '10.42.0.1'], 'shutdown_timeout': 5, 'taskbar': False, 'port': 8000, 'maxthreads': None, 'softcron': False, 'server_name': 'Solo', 'bpython': False, 'nogui': False, 'nocron': False, 'extcron': False, 'run_system_tests': False, 'test': None, 'folder': '/home/piyush/web2py', 'config': '', 'import_models': False, 'winservice': '', 'shell': None, 'run': '', 'log_filename': 'httpserver.log', 'debuglevel': 30, 'args': [''], 'socket_timeout': 5, 'ssl_ca_certificate': None, 'scheduler': None, 'profiler_filename': None, 'ssl_private_key': '', 'scheduler_groups': None, 'password': '<ask>', 'request_queue_size': 5, 'ssl_certificate': '', 'cronjob': False, 'numthreads': None, 'quiet': False, 'interfaces': None, 'minthreads': None, 'timeout': 10, 'plain': False, 'nobanner': False, 'pid_filename': 'httpserver.pid'}>"
p1127
asbasbasbag57
(g73
g59
NtRp1128
(dp1129
g62
(dp1130
sg71
g1033
sg64
(lp1131
g57
(g78
g59
NtRp1132
(dp1133
g62
(dp1134
g82
g83
ssg71
g1128
sg64
(lp1135
S'db_sessions'
p1136
asbag57
(g78
g59
NtRp1137
(dp1138
g62
(dp1139
g89
g90
ssg71
g1128
sg64
(lp1140
S':'
asbag57
(g78
g59
NtRp1141
(dp1142
g62
(dp1143
sg71
g1128
sg64
(lp1144
g57
(g58
g59
NtRp1145
(dp1146
g62
(dp1147
g70
I4
ssg71
g1141
sg64
(lp1148
S'set([])'
p1149
asbasbasbag57
(g73
g59
NtRp1150
(dp1151
g62
(dp1152
sg71
g1033
sg64
(lp1153
g57
(g78
g59
NtRp1154
(dp1155
g62
(dp1156
g82
g83
ssg71
g1150
sg64
(lp1157
S'debugging'
p1158
asbag57
(g78
g59
NtRp1159
(dp1160
g62
(dp1161
g89
g90
ssg71
g1150
sg64
(lp1162
S':'
asbag57
(g78
g59
NtRp1163
(dp1164
g62
(dp1165
sg71
g1150
sg64
(lp1166
g57
(g58
g59
NtRp1167
(dp1168
g62
(dp1169
g70
I4
ssg71
g1163
sg64
(lp1170
g100
asbasbasbag57
(g73
g59
NtRp1171
(dp1172
g62
(dp1173
sg71
g1033
sg64
(lp1174
g57
(g78
g59
NtRp1175
(dp1176
g62
(dp1177
g82
g83
ssg71
g1171
sg64
(lp1178
S'gluon_parent'
p1179
asbag57
(g78
g59
NtRp1180
(dp1181
g62
(dp1182
g89
g90
ssg71
g1171
sg64
(lp1183
S':'
asbag57
(g78
g59
NtRp1184
(dp1185
g62
(dp1186
sg71
g1171
sg64
(lp1187
g57
(g58
g59
NtRp1188
(dp1189
g62
(dp1190
g70
I4
ssg71
g1184
sg64
(lp1191
S'/home/piyush/web2py'
p1192
asbasbasbag57
(g73
g59
NtRp1193
(dp1194
g62
(dp1195
sg71
g1033
sg64
(lp1196
g57
(g78
g59
NtRp1197
(dp1198
g62
(dp1199
g82
g83
ssg71
g1193
sg64
(lp1200
S'http_accept'
p1201
asbag57
(g78
g59
NtRp1202
(dp1203
g62
(dp1204
g89
g90
ssg71
g1193
sg64
(lp1205
S':'
asbag57
(g78
g59
NtRp1206
(dp1207
g62
(dp1208
sg71
g1193
sg64
(lp1209
g57
(g58
g59
NtRp1210
(dp1211
g62
(dp1212
g70
I4
ssg71
g1206
sg64
(lp1213
S'text/html,application/xhtml+xml,application/xml;q=0.9,*/*;q=0.8'
p1214
asbasbasbag57
(g73
g59
NtRp1215
(dp1216
g62
(dp1217
sg71
g1033
sg64
(lp1218
g57
(g78
g59
NtRp1219
(dp1220
g62
(dp1221
g82
g83
ssg71
g1215
sg64
(lp1222
S'http_accept_encoding'
p1223
asbag57
(g78
g59
NtRp1224
(dp1225
g62
(dp1226
g89
g90
ssg71
g1215
sg64
(lp1227
S':'
asbag57
(g78
g59
NtRp1228
(dp1229
g62
(dp1230
sg71
g1215
sg64
(lp1231
g57
(g58
g59
NtRp1232
(dp1233
g62
(dp1234
g70
I4
ssg71
g1228
sg64
(lp1235
S'gzip, deflate'
p1236
asbasbasbag57
(g73
g59
NtRp1237
(dp1238
g62
(dp1239
sg71
g1033
sg64
(lp1240
g57
(g78
g59
NtRp1241
(dp1242
g62
(dp1243
g82
g83
ssg71
g1237
sg64
(lp1244
S'http_accept_language'
p1245
asbag57
(g78
g59
NtRp1246
(dp1247
g62
(dp1248
g89
g90
ssg71
g1237
sg64
(lp1249
S':'
asbag57
(g78
g59
NtRp1250
(dp1251
g62
(dp1252
sg71
g1237
sg64
(lp1253
g57
(g58
g59
NtRp1254
(dp1255
g62
(dp1256
g70
I4
ssg71
g1250
sg64
(lp1257
S'en-us,en;q=0.5'
p1258
asbasbasbag57
(g73
g59
NtRp1259
(dp1260
g62
(dp1261
sg71
g1033
sg64
(lp1262
g57
(g78
g59
NtRp1263
(dp1264
g62
(dp1265
g82
g83
ssg71
g1259
sg64
(lp1266
S'http_connection'
p1267
asbag57
(g78
g59
NtRp1268
(dp1269
g62
(dp1270
g89
g90
ssg71
g1259
sg64
(lp1271
S':'
asbag57
(g78
g59
NtRp1272
(dp1273
g62
(dp1274
sg71
g1259
sg64
(lp1275
g57
(g58
g59
NtRp1276
(dp1277
g62
(dp1278
g70
I4
ssg71
g1272
sg64
(lp1279
S'keep-alive'
p1280
asbasbasbag57
(g73
g59
NtRp1281
(dp1282
g62
(dp1283
sg71
g1033
sg64
(lp1284
g57
(g78
g59
NtRp1285
(dp1286
g62
(dp1287
g82
g83
ssg71
g1281
sg64
(lp1288
S'http_cookie'
p1289
asbag57
(g78
g59
NtRp1290
(dp1291
g62
(dp1292
g89
g90
ssg71
g1281
sg64
(lp1293
S':'
asbag57
(g78
g59
NtRp1294
(dp1295
g62
(dp1296
sg71
g1281
sg64
(lp1297
g57
(g58
g59
NtRp1298
(dp1299
g62
(dp1300
g70
I4
ssg71
g1294
sg64
(lp1301
S'session_id_welcome=127.0.0.1-3299e4b7-9181-4336-a2b6-d67ebc8bfe8e; session_id_admin=127.0.0.1-f31a16a6-2f0e-474e-b0b5-7ca781ebd64d; session_id_ialbum=127.0.0.1-8bab57f4-8655-4ca4-8b5d-11fde04576c5; session_id_fotobuk=127.0.0.1-961e4bc4-dc07-4e6c-b9f7-52a46e56ffd5'
p1302
asbasbasbag57
(g73
g59
NtRp1303
(dp1304
g62
(dp1305
sg71
g1033
sg64
(lp1306
g57
(g78
g59
NtRp1307
(dp1308
g62
(dp1309
g82
g83
ssg71
g1303
sg64
(lp1310
S'http_host'
p1311
asbag57
(g78
g59
NtRp1312
(dp1313
g62
(dp1314
g89
g90
ssg71
g1303
sg64
(lp1315
S':'
asbag57
(g78
g59
NtRp1316
(dp1317
g62
(dp1318
sg71
g1303
sg64
(lp1319
g57
(g58
g59
NtRp1320
(dp1321
g62
(dp1322
g70
I4
ssg71
g1316
sg64
(lp1323
S'localhost:8080'
p1324
asbasbasbag57
(g73
g59
NtRp1325
(dp1326
g62
(dp1327
sg71
g1033
sg64
(lp1328
g57
(g78
g59
NtRp1329
(dp1330
g62
(dp1331
g82
g83
ssg71
g1325
sg64
(lp1332
S'http_user_agent'
p1333
asbag57
(g78
g59
NtRp1334
(dp1335
g62
(dp1336
g89
g90
ssg71
g1325
sg64
(lp1337
S':'
asbag57
(g78
g59
NtRp1338
(dp1339
g62
(dp1340
sg71
g1325
sg64
(lp1341
g57
(g58
g59
NtRp1342
(dp1343
g62
(dp1344
g70
I4
ssg71
g1338
sg64
(lp1345
S'Mozilla/5.0 (X11; Linux i686; rv:11.0) Gecko/20100101 Firefox/11.0'
p1346
asbasbasbag57
(g73
g59
NtRp1347
(dp1348
g62
(dp1349
sg71
g1033
sg64
(lp1350
g57
(g78
g59
NtRp1351
(dp1352
g62
(dp1353
g82
g83
ssg71
g1347
sg64
(lp1354
S'is_jython'
p1355
asbag57
(g78
g59
NtRp1356
(dp1357
g62
(dp1358
g89
g90
ssg71
g1347
sg64
(lp1359
S':'
asbag57
(g78
g59
NtRp1360
(dp1361
g62
(dp1362
sg71
g1347
sg64
(lp1363
g57
(g58
g59
NtRp1364
(dp1365
g62
(dp1366
g70
I4
ssg71
g1360
sg64
(lp1367
g100
asbasbasbag57
(g73
g59
NtRp1368
(dp1369
g62
(dp1370
sg71
g1033
sg64
(lp1371
g57
(g78
g59
NtRp1372
(dp1373
g62
(dp1374
g82
g83
ssg71
g1368
sg64
(lp1375
S'is_pypy'
p1376
asbag57
(g78
g59
NtRp1377
(dp1378
g62
(dp1379
g89
g90
ssg71
g1368
sg64
(lp1380
S':'
asbag57
(g78
g59
NtRp1381
(dp1382
g62
(dp1383
sg71
g1368
sg64
(lp1384
g57
(g58
g59
NtRp1385
(dp1386
g62
(dp1387
g70
I4
ssg71
g1381
sg64
(lp1388
g100
asbasbasbag57
(g73
g59
NtRp1389
(dp1390
g62
(dp1391
sg71
g1033
sg64
(lp1392
g57
(g78
g59
NtRp1393
(dp1394
g62
(dp1395
g82
g83
ssg71
g1389
sg64
(lp1396
S'path_info'
p1397
asbag57
(g78
g59
NtRp1398
(dp1399
g62
(dp1400
g89
g90
ssg71
g1389
sg64
(lp1401
S':'
asbag57
(g78
g59
NtRp1402
(dp1403
g62
(dp1404
sg71
g1389
sg64
(lp1405
g57
(g58
g59
NtRp1406
(dp1407
g62
(dp1408
g70
I4
ssg71
g1402
sg64
(lp1409
S'/FotoBuk/default/index'
p1410
asbasbasbag57
(g73
g59
NtRp1411
(dp1412
g62
(dp1413
sg71
g1033
sg64
(lp1414
g57
(g78
g59
NtRp1415
(dp1416
g62
(dp1417
g82
g83
ssg71
g1411
sg64
(lp1418
S'query_string'
p1419
asbag57
(g78
g59
NtRp1420
(dp1421
g62
(dp1422
g89
g90
ssg71
g1411
sg64
(lp1423
S':'
asbag57
(g78
g59
NtRp1424
(dp1425
g62
(dp1426
sg71
g1411
sg64
(lp1427
g57
(g58
g59
NtRp1428
(dp1429
g62
(dp1430
g70
I4
ssg71
g1424
sg64
(lp1431
S''
asbasbasbag57
(g73
g59
NtRp1432
(dp1433
g62
(dp1434
sg71
g1033
sg64
(lp1435
g57
(g78
g59
NtRp1436
(dp1437
g62
(dp1438
g82
g83
ssg71
g1432
sg64
(lp1439
S'remote_addr'
p1440
asbag57
(g78
g59
NtRp1441
(dp1442
g62
(dp1443
g89
g90
ssg71
g1432
sg64
(lp1444
S':'
asbag57
(g78
g59
NtRp1445
(dp1446
g62
(dp1447
sg71
g1432
sg64
(lp1448
g57
(g58
g59
NtRp1449
(dp1450
g62
(dp1451
g70
I4
ssg71
g1445
sg64
(lp1452
g212
asbasbasbag57
(g73
g59
NtRp1453
(dp1454
g62
(dp1455
sg71
g1033
sg64
(lp1456
g57
(g78
g59
NtRp1457
(dp1458
g62
(dp1459
g82
g83
ssg71
g1453
sg64
(lp1460
S'remote_port'
p1461
asbag57
(g78
g59
NtRp1462
(dp1463
g62
(dp1464
g89
g90
ssg71
g1453
sg64
(lp1465
S':'
asbag57
(g78
g59
NtRp1466
(dp1467
g62
(dp1468
sg71
g1453
sg64
(lp1469
g57
(g58
g59
NtRp1470
(dp1471
g62
(dp1472
g70
I4
ssg71
g1466
sg64
(lp1473
S'39788'
p1474
asbasbasbag57
(g73
g59
NtRp1475
(dp1476
g62
(dp1477
sg71
g1033
sg64
(lp1478
g57
(g78
g59
NtRp1479
(dp1480
g62
(dp1481
g82
g83
ssg71
g1475
sg64
(lp1482
S'request_method'
p1483
asbag57
(g78
g59
NtRp1484
(dp1485
g62
(dp1486
g89
g90
ssg71
g1475
sg64
(lp1487
S':'
asbag57
(g78
g59
NtRp1488
(dp1489
g62
(dp1490
sg71
g1475
sg64
(lp1491
g57
(g58
g59
NtRp1492
(dp1493
g62
(dp1494
g70
I4
ssg71
g1488
sg64
(lp1495
S'GET'
p1496
asbasbasbag57
(g73
g59
NtRp1497
(dp1498
g62
(dp1499
sg71
g1033
sg64
(lp1500
g57
(g78
g59
NtRp1501
(dp1502
g62
(dp1503
g82
g83
ssg71
g1497
sg64
(lp1504
S'script_name'
p1505
asbag57
(g78
g59
NtRp1506
(dp1507
g62
(dp1508
g89
g90
ssg71
g1497
sg64
(lp1509
S':'
asbag57
(g78
g59
NtRp1510
(dp1511
g62
(dp1512
sg71
g1497
sg64
(lp1513
g57
(g58
g59
NtRp1514
(dp1515
g62
(dp1516
g70
I4
ssg71
g1510
sg64
(lp1517
S''
asbasbasbag57
(g73
g59
NtRp1518
(dp1519
g62
(dp1520
sg71
g1033
sg64
(lp1521
g57
(g78
g59
NtRp1522
(dp1523
g62
(dp1524
g82
g83
ssg71
g1518
sg64
(lp1525
S'server_name'
p1526
asbag57
(g78
g59
NtRp1527
(dp1528
g62
(dp1529
g89
g90
ssg71
g1518
sg64
(lp1530
S':'
asbag57
(g78
g59
NtRp1531
(dp1532
g62
(dp1533
sg71
g1518
sg64
(lp1534
g57
(g58
g59
NtRp1535
(dp1536
g62
(dp1537
g70
I4
ssg71
g1531
sg64
(lp1538
S'Solo'
p1539
asbasbasbag57
(g73
g59
NtRp1540
(dp1541
g62
(dp1542
sg71
g1033
sg64
(lp1543
g57
(g78
g59
NtRp1544
(dp1545
g62
(dp1546
g82
g83
ssg71
g1540
sg64
(lp1547
S'server_port'
p1548
asbag57
(g78
g59
NtRp1549
(dp1550
g62
(dp1551
g89
g90
ssg71
g1540
sg64
(lp1552
S':'
asbag57
(g78
g59
NtRp1553
(dp1554
g62
(dp1555
sg71
g1540
sg64
(lp1556
g57
(g58
g59
NtRp1557
(dp1558
g62
(dp1559
g70
I4
ssg71
g1553
sg64
(lp1560
S'8080'
p1561
asbasbasbag57
(g73
g59
NtRp1562
(dp1563
g62
(dp1564
sg71
g1033
sg64
(lp1565
g57
(g78
g59
NtRp1566
(dp1567
g62
(dp1568
g82
g83
ssg71
g1562
sg64
(lp1569
S'server_protocol'
p1570
asbag57
(g78
g59
NtRp1571
(dp1572
g62
(dp1573
g89
g90
ssg71
g1562
sg64
(lp1574
S':'
asbag57
(g78
g59
NtRp1575
(dp1576
g62
(dp1577
sg71
g1562
sg64
(lp1578
g57
(g58
g59
NtRp1579
(dp1580
g62
(dp1581
g70
I4
ssg71
g1575
sg64
(lp1582
S'HTTP/1.1'
p1583
asbasbasbag57
(g73
g59
NtRp1584
(dp1585
g62
(dp1586
sg71
g1033
sg64
(lp1587
g57
(g78
g59
NtRp1588
(dp1589
g62
(dp1590
g82
g83
ssg71
g1584
sg64
(lp1591
S'server_software'
p1592
asbag57
(g78
g59
NtRp1593
(dp1594
g62
(dp1595
g89
g90
ssg71
g1584
sg64
(lp1596
S':'
asbag57
(g78
g59
NtRp1597
(dp1598
g62
(dp1599
sg71
g1584
sg64
(lp1600
g57
(g58
g59
NtRp1601
(dp1602
g62
(dp1603
g70
I4
ssg71
g1597
sg64
(lp1604
S'Rocket 1.2.4'
p1605
asbasbasbag57
(g73
g59
NtRp1606
(dp1607
g62
(dp1608
sg71
g1033
sg64
(lp1609
g57
(g78
g59
NtRp1610
(dp1611
g62
(dp1612
g82
g83
ssg71
g1606
sg64
(lp1613
S'web2py_crontype'
p1614
asbag57
(g78
g59
NtRp1615
(dp1616
g62
(dp1617
g89
g90
ssg71
g1606
sg64
(lp1618
S':'
asbag57
(g78
g59
NtRp1619
(dp1620
g62
(dp1621
sg71
g1606
sg64
(lp1622
g57
(g58
g59
NtRp1623
(dp1624
g62
(dp1625
g70
I4
ssg71
g1619
sg64
(lp1626
S'hard'
p1627
asbasbasbag57
(g73
g59
NtRp1628
(dp1629
g62
(dp1630
sg71
g1033
sg64
(lp1631
g57
(g78
g59
NtRp1632
(dp1633
g62
(dp1634
g82
g83
ssg71
g1628
sg64
(lp1635
S'web2py_path'
p1636
asbag57
(g78
g59
NtRp1637
(dp1638
g62
(dp1639
g89
g90
ssg71
g1628
sg64
(lp1640
S':'
asbag57
(g78
g59
NtRp1641
(dp1642
g62
(dp1643
sg71
g1628
sg64
(lp1644
g57
(g58
g59
NtRp1645
(dp1646
g62
(dp1647
g70
I4
ssg71
g1641
sg64
(lp1648
g1080
asbasbasbag57
(g73
g59
NtRp1649
(dp1650
g62
(dp1651
sg71
g1033
sg64
(lp1652
g57
(g78
g59
NtRp1653
(dp1654
g62
(dp1655
g82
g83
ssg71
g1649
sg64
(lp1656
S'web2py_version'
p1657
asbag57
(g78
g59
NtRp1658
(dp1659
g62
(dp1660
g89
g90
ssg71
g1649
sg64
(lp1661
S':'
asbag57
(g78
g59
NtRp1662
(dp1663
g62
(dp1664
sg71
g1649
sg64
(lp1665
g57
(g58
g59
NtRp1666
(dp1667
g62
(dp1668
g70
I4
ssg71
g1662
sg64
(lp1669
g57
(g66
g59
NtRp1670
(dp1671
g62
(dp1672
g70
I3
ssg71
Nsg64
(lp1673
g57
(g73
g59
NtRp1674
(dp1675
g62
(dp1676
sg71
g1670
sg64
(lp1677
g57
(g78
g59
NtRp1678
(dp1679
g62
(dp1680
sg71
g1674
sg64
(lp1681
g57
(g58
g59
NtRp1682
(dp1683
g62
(dp1684
g70
I3
ssg71
g1678
sg64
(lp1685
S'2'
asbasbasbag57
(g73
g59
NtRp1686
(dp1687
g62
(dp1688
sg71
g1670
sg64
(lp1689
g57
(g78
g59
NtRp1690
(dp1691
g62
(dp1692
sg71
g1686
sg64
(lp1693
g57
(g58
g59
NtRp1694
(dp1695
g62
(dp1696
g70
I3
ssg71
g1690
sg64
(lp1697
S'0'
asbasbasbag57
(g73
g59
NtRp1698
(dp1699
g62
(dp1700
sg71
g1670
sg64
(lp1701
g57
(g78
g59
NtRp1702
(dp1703
g62
(dp1704
sg71
g1698
sg64
(lp1705
g57
(g58
g59
NtRp1706
(dp1707
g62
(dp1708
g70
I3
ssg71
g1702
sg64
(lp1709
S'2'
asbasbasbag57
(g73
g59
NtRp1710
(dp1711
g62
(dp1712
sg71
g1670
sg64
(lp1713
g57
(g78
g59
NtRp1714
(dp1715
g62
(dp1716
sg71
g1710
sg64
(lp1717
g57
(g58
g59
NtRp1718
(dp1719
g62
(dp1720
g70
I3
ssg71
g1714
sg64
(lp1721
S'datetime.datetime(2012, 8, 30, 4, 8, 18)'
p1722
asbasbasbag57
(g73
g59
NtRp1723
(dp1724
g62
(dp1725
sg71
g1670
sg64
(lp1726
g57
(g78
g59
NtRp1727
(dp1728
g62
(dp1729
sg71
g1723
sg64
(lp1730
g57
(g58
g59
NtRp1731
(dp1732
g62
(dp1733
g70
I3
ssg71
g1727
sg64
(lp1734
S'stable'
p1735
asbasbasbasbasbasbasbag57
(g73
g59
NtRp1736
(dp1737
g62
(dp1738
sg71
g1033
sg64
(lp1739
g57
(g78
g59
NtRp1740
(dp1741
g62
(dp1742
g82
g83
ssg71
g1736
sg64
(lp1743
S'wsgi_errors'
p1744
asbag57
(g78
g59
NtRp1745
(dp1746
g62
(dp1747
g89
g90
ssg71
g1736
sg64
(lp1748
S':'
asbag57
(g78
g59
NtRp1749
(dp1750
g62
(dp1751
sg71
g1736
sg64
(lp1752
g57
(g58
g59
NtRp1753
(dp1754
g62
(dp1755
g70
I4
ssg71
g1749
sg64
(lp1756
S"<open file '<stderr>', mode 'w' at 0xb77a40d0>"
p1757
asbasbasbag57
(g73
g59
NtRp1758
(dp1759
g62
(dp1760
sg71
g1033
sg64
(lp1761
g57
(g78
g59
NtRp1762
(dp1763
g62
(dp1764
g82
g83
ssg71
g1758
sg64
(lp1765
S'wsgi_file_wrapper'
p1766
asbag57
(g78
g59
NtRp1767
(dp1768
g62
(dp1769
g89
g90
ssg71
g1758
sg64
(lp1770
S':'
asbag57
(g78
g59
NtRp1771
(dp1772
g62
(dp1773
sg71
g1758
sg64
(lp1774
g57
(g58
g59
NtRp1775
(dp1776
g62
(dp1777
g70
I4
ssg71
g1771
sg64
(lp1778
S'<class wsgiref.util.FileWrapper at 0x9f8226c>'
p1779
asbasbasbag57
(g73
g59
NtRp1780
(dp1781
g62
(dp1782
sg71
g1033
sg64
(lp1783
g57
(g78
g59
NtRp1784
(dp1785
g62
(dp1786
g82
g83
ssg71
g1780
sg64
(lp1787
S'wsgi_input'
p1788
asbag57
(g78
g59
NtRp1789
(dp1790
g62
(dp1791
g89
g90
ssg71
g1780
sg64
(lp1792
S':'
asbag57
(g78
g59
NtRp1793
(dp1794
g62
(dp1795
sg71
g1780
sg64
(lp1796
g57
(g58
g59
NtRp1797
(dp1798
g62
(dp1799
g70
I4
ssg71
g1793
sg64
(lp1800
S'<socket._fileobject object at 0xae9b4eac>'
p1801
asbasbasbag57
(g73
g59
NtRp1802
(dp1803
g62
(dp1804
sg71
g1033
sg64
(lp1805
g57
(g78
g59
NtRp1806
(dp1807
g62
(dp1808
g82
g83
ssg71
g1802
sg64
(lp1809
S'wsgi_multiprocess'
p1810
asbag57
(g78
g59
NtRp1811
(dp1812
g62
(dp1813
g89
g90
ssg71
g1802
sg64
(lp1814
S':'
asbag57
(g78
g59
NtRp1815
(dp1816
g62
(dp1817
sg71
g1802
sg64
(lp1818
g57
(g58
g59
NtRp1819
(dp1820
g62
(dp1821
g70
I4
ssg71
g1815
sg64
(lp1822
g100
asbasbasbag57
(g73
g59
NtRp1823
(dp1824
g62
(dp1825
sg71
g1033
sg64
(lp1826
g57
(g78
g59
NtRp1827
(dp1828
g62
(dp1829
g82
g83
ssg71
g1823
sg64
(lp1830
S'wsgi_multithread'
p1831
asbag57
(g78
g59
NtRp1832
(dp1833
g62
(dp1834
g89
g90
ssg71
g1823
sg64
(lp1835
S':'
asbag57
(g78
g59
NtRp1836
(dp1837
g62
(dp1838
sg71
g1823
sg64
(lp1839
g57
(g58
g59
NtRp1840
(dp1841
g62
(dp1842
g70
I4
ssg71
g1836
sg64
(lp1843
S'True'
p1844
asbasbasbag57
(g73
g59
NtRp1845
(dp1846
g62
(dp1847
sg71
g1033
sg64
(lp1848
g57
(g78
g59
NtRp1849
(dp1850
g62
(dp1851
g82
g83
ssg71
g1845
sg64
(lp1852
S'wsgi_run_once'
p1853
asbag57
(g78
g59
NtRp1854
(dp1855
g62
(dp1856
g89
g90
ssg71
g1845
sg64
(lp1857
S':'
asbag57
(g78
g59
NtRp1858
(dp1859
g62
(dp1860
sg71
g1845
sg64
(lp1861
g57
(g58
g59
NtRp1862
(dp1863
g62
(dp1864
g70
I4
ssg71
g1858
sg64
(lp1865
g100
asbasbasbag57
(g73
g59
NtRp1866
(dp1867
g62
(dp1868
sg71
g1033
sg64
(lp1869
g57
(g78
g59
NtRp1870
(dp1871
g62
(dp1872
g82
g83
ssg71
g1866
sg64
(lp1873
S'wsgi_url_scheme'
p1874
asbag57
(g78
g59
NtRp1875
(dp1876
g62
(dp1877
g89
g90
ssg71
g1866
sg64
(lp1878
S':'
asbag57
(g78
g59
NtRp1879
(dp1880
g62
(dp1881
sg71
g1866
sg64
(lp1882
g57
(g58
g59
NtRp1883
(dp1884
g62
(dp1885
g70
I4
ssg71
g1879
sg64
(lp1886
S'http'
p1887
asbasbasbag57
(g73
g59
NtRp1888
(dp1889
g62
(dp1890
sg71
g1033
sg64
(lp1891
g57
(g78
g59
NtRp1892
(dp1893
g62
(dp1894
g82
g83
ssg71
g1888
sg64
(lp1895
S'wsgi_version'
p1896
asbag57
(g78
g59
NtRp1897
(dp1898
g62
(dp1899
g89
g90
ssg71
g1888
sg64
(lp1900
S':'
asbag57
(g78
g59
NtRp1901
(dp1902
g62
(dp1903
sg71
g1888
sg64
(lp1904
g57
(g58
g59
NtRp1905
(dp1906
g62
(dp1907
g70
I4
ssg71
g1901
sg64
(lp1908
g57
(g66
g59
NtRp1909
(dp1910
g62
(dp1911
g70
I3
ssg71
Nsg64
(lp1912
g57
(g73
g59
NtRp1913
(dp1914
g62
(dp1915
sg71
g1909
sg64
(lp1916
g57
(g78
g59
NtRp1917
(dp1918
g62
(dp1919
sg71
g1913
sg64
(lp1920
g57
(g58
g59
NtRp1921
(dp1922
g62
(dp1923
g70
I3
ssg71
g1917
sg64
(lp1924
S'1'
asbasbasbag57
(g73
g59
NtRp1925
(dp1926
g62
(dp1927
sg71
g1909
sg64
(lp1928
g57
(g78
g59
NtRp1929
(dp1930
g62
(dp1931
sg71
g1925
sg64
(lp1932
g57
(g58
g59
NtRp1933
(dp1934
g62
(dp1935
g70
I3
ssg71
g1929
sg64
(lp1936
S'0'
asbasbasbasbasbasbasbasbasbasbasbag57
(g73
g59
NtRp1937
(dp1938
g62
(dp1939
sg71
g67
sg64
(lp1940
g57
(g78
g59
NtRp1941
(dp1942
g62
(dp1943
g82
g83
ssg71
g1937
sg64
(lp1944
S'extension'
p1945
asbag57
(g78
g59
NtRp1946
(dp1947
g62
(dp1948
g89
g90
ssg71
g1937
sg64
(lp1949
S':'
asbag57
(g78
g59
NtRp1950
(dp1951
g62
(dp1952
sg71
g1937
sg64
(lp1953
g57
(g58
g59
NtRp1954
(dp1955
g62
(dp1956
g70
I5
ssg71
g1950
sg64
(lp1957
S'html'
p1958
asbasbasbag57
(g73
g59
NtRp1959
(dp1960
g62
(dp1961
sg71
g67
sg64
(lp1962
g57
(g78
g59
NtRp1963
(dp1964
g62
(dp1965
g82
g83
ssg71
g1959
sg64
(lp1966
S'folder'
p1967
asbag57
(g78
g59
NtRp1968
(dp1969
g62
(dp1970
g89
g90
ssg71
g1959
sg64
(lp1971
S':'
asbag57
(g78
g59
NtRp1972
(dp1973
g62
(dp1974
sg71
g1959
sg64
(lp1975
g57
(g58
g59
NtRp1976
(dp1977
g62
(dp1978
g70
I5
ssg71
g1972
sg64
(lp1979
S'/home/piyush/web2py/applications/FotoBuk/'
p1980
asbasbasbag57
(g73
g59
NtRp1981
(dp1982
g62
(dp1983
sg71
g67
sg64
(lp1984
g57
(g78
g59
NtRp1985
(dp1986
g62
(dp1987
g82
g83
ssg71
g1981
sg64
(lp1988
S'function'
p1989
asbag57
(g78
g59
NtRp1990
(dp1991
g62
(dp1992
g89
g90
ssg71
g1981
sg64
(lp1993
S':'
asbag57
(g78
g59
NtRp1994
(dp1995
g62
(dp1996
sg71
g1981
sg64
(lp1997
g57
(g58
g59
NtRp1998
(dp1999
g62
(dp2000
g70
I5
ssg71
g1994
sg64
(lp2001
S'index'
p2002
asbasbasbag57
(g73
g59
NtRp2003
(dp2004
g62
(dp2005
sg71
g67
sg64
(lp2006
g57
(g78
g59
NtRp2007
(dp2008
g62
(dp2009
g82
g83
ssg71
g2003
sg64
(lp2010
S'get_vars'
p2011
asbag57
(g78
g59
NtRp2012
(dp2013
g62
(dp2014
g89
g90
ssg71
g2003
sg64
(lp2015
S':'
asbag57
(g78
g59
NtRp2016
(dp2017
g62
(dp2018
sg71
g2003
sg64
(lp2019
g57
(g58
g59
NtRp2020
(dp2021
g62
(dp2022
g70
I5
ssg71
g2016
sg64
(lp2023
g57
(g66
g59
NtRp2024
(dp2025
g62
(dp2026
g70
I4
ssg71
Nsg64
(lp2027
sbasbasbasbag57
(g73
g59
NtRp2028
(dp2029
g62
(dp2030
sg71
g67
sg64
(lp2031
g57
(g78
g59
NtRp2032
(dp2033
g62
(dp2034
g82
g83
ssg71
g2028
sg64
(lp2035
S'global_settings'
p2036
asbag57
(g78
g59
NtRp2037
(dp2038
g62
(dp2039
g89
g90
ssg71
g2028
sg64
(lp2040
S':'
asbag57
(g78
g59
NtRp2041
(dp2042
g62
(dp2043
sg71
g2028
sg64
(lp2044
g57
(g58
g59
NtRp2045
(dp2046
g62
(dp2047
g70
I5
ssg71
g2041
sg64
(lp2048
g57
(g66
g59
NtRp2049
(dp2050
g62
(dp2051
g70
I4
ssg71
Nsg64
(lp2052
g57
(g73
g59
NtRp2053
(dp2054
g62
(dp2055
sg71
g2049
sg64
(lp2056
g57
(g78
g59
NtRp2057
(dp2058
g62
(dp2059
g82
g83
ssg71
g2053
sg64
(lp2060
g1045
asbag57
(g78
g59
NtRp2061
(dp2062
g62
(dp2063
g89
g90
ssg71
g2053
sg64
(lp2064
S':'
asbag57
(g78
g59
NtRp2065
(dp2066
g62
(dp2067
sg71
g2053
sg64
(lp2068
g57
(g58
g59
NtRp2069
(dp2070
g62
(dp2071
g70
I4
ssg71
g2065
sg64
(lp2072
S"set(['/home/piyush/web2py/applications/FotoBuk/', '/home/piyush/web2py/applications/welcome/', '/home/piyush/web2py/applications/admin/'])"
p2073
asbasbasbag57
(g73
g59
NtRp2074
(dp2075
g62
(dp2076
sg71
g2049
sg64
(lp2077
g57
(g78
g59
NtRp2078
(dp2079
g62
(dp2080
g82
g83
ssg71
g2074
sg64
(lp2081
g1067
asbag57
(g78
g59
NtRp2082
(dp2083
g62
(dp2084
g89
g90
ssg71
g2074
sg64
(lp2085
S':'
asbag57
(g78
g59
NtRp2086
(dp2087
g62
(dp2088
sg71
g2074
sg64
(lp2089
g57
(g58
g59
NtRp2090
(dp2091
g62
(dp2092
g70
I4
ssg71
g2086
sg64
(lp2093
g1080
asbasbasbag57
(g73
g59
NtRp2094
(dp2095
g62
(dp2096
sg71
g2049
sg64
(lp2097
g57
(g78
g59
NtRp2098
(dp2099
g62
(dp2100
g82
g83
ssg71
g2094
sg64
(lp2101
g1089
asbag57
(g78
g59
NtRp2102
(dp2103
g62
(dp2104
g89
g90
ssg71
g2094
sg64
(lp2105
S':'
asbag57
(g78
g59
NtRp2106
(dp2107
g62
(dp2108
sg71
g2094
sg64
(lp2109
g57
(g58
g59
NtRp2110
(dp2111
g62
(dp2112
g70
I4
ssg71
g2106
sg64
(lp2113
g57
(g66
g59
NtRp2114
(dp2115
g62
(dp2116
g70
I3
ssg71
Nsg64
(lp2117
sbasbasbasbag57
(g73
g59
NtRp2118
(dp2119
g62
(dp2120
sg71
g2049
sg64
(lp2121
g57
(g78
g59
NtRp2122
(dp2123
g62
(dp2124
g82
g83
ssg71
g2118
sg64
(lp2125
g1114
asbag57
(g78
g59
NtRp2126
(dp2127
g62
(dp2128
g89
g90
ssg71
g2118
sg64
(lp2129
S':'
asbag57
(g78
g59
NtRp2130
(dp2131
g62
(dp2132
sg71
g2118
sg64
(lp2133
g57
(g58
g59
NtRp2134
(dp2135
g62
(dp2136
g70
I4
ssg71
g2130
sg64
(lp2137
S"<Values at 0x9fc030c: {'verbose': False, 'ip': '127.0.0.1', 'with_scheduler': False, 'ips': ['10.1.39.167', '10.42.0.1'], 'shutdown_timeout': 5, 'taskbar': False, 'port': 8000, 'maxthreads': None, 'softcron': False, 'server_name': 'Solo', 'bpython': False, 'nogui': False, 'nocron': False, 'extcron': False, 'run_system_tests': False, 'test': None, 'folder': '/home/piyush/web2py', 'config': '', 'import_models': False, 'winservice': '', 'shell': None, 'run': '', 'log_filename': 'httpserver.log', 'debuglevel': 30, 'args': [''], 'socket_timeout': 5, 'ssl_ca_certificate': None, 'scheduler': None, 'profiler_filename': None, 'ssl_private_key': '', 'scheduler_groups': None, 'password': '<ask>', 'request_queue_size': 5, 'ssl_certificate': '', 'cronjob': False, 'numthreads': None, 'quiet': False, 'interfaces': None, 'minthreads': None, 'timeout': 10, 'plain': False, 'nobanner': False, 'pid_filename': 'httpserver.pid'}>"
p2138
asbasbasbag57
(g73
g59
NtRp2139
(dp2140
g62
(dp2141
sg71
g2049
sg64
(lp2142
g57
(g78
g59
NtRp2143
(dp2144
g62
(dp2145
g82
g83
ssg71
g2139
sg64
(lp2146
g1136
asbag57
(g78
g59
NtRp2147
(dp2148
g62
(dp2149
g89
g90
ssg71
g2139
sg64
(lp2150
S':'
asbag57
(g78
g59
NtRp2151
(dp2152
g62
(dp2153
sg71
g2139
sg64
(lp2154
g57
(g58
g59
NtRp2155
(dp2156
g62
(dp2157
g70
I4
ssg71
g2151
sg64
(lp2158
S'set([])'
p2159
asbasbasbag57
(g73
g59
NtRp2160
(dp2161
g62
(dp2162
sg71
g2049
sg64
(lp2163
g57
(g78
g59
NtRp2164
(dp2165
g62
(dp2166
g82
g83
ssg71
g2160
sg64
(lp2167
g1158
asbag57
(g78
g59
NtRp2168
(dp2169
g62
(dp2170
g89
g90
ssg71
g2160
sg64
(lp2171
S':'
asbag57
(g78
g59
NtRp2172
(dp2173
g62
(dp2174
sg71
g2160
sg64
(lp2175
g57
(g58
g59
NtRp2176
(dp2177
g62
(dp2178
g70
I4
ssg71
g2172
sg64
(lp2179
g100
asbasbasbag57
(g73
g59
NtRp2180
(dp2181
g62
(dp2182
sg71
g2049
sg64
(lp2183
g57
(g78
g59
NtRp2184
(dp2185
g62
(dp2186
g82
g83
ssg71
g2180
sg64
(lp2187
g1179
asbag57
(g78
g59
NtRp2188
(dp2189
g62
(dp2190
g89
g90
ssg71
g2180
sg64
(lp2191
S':'
asbag57
(g78
g59
NtRp2192
(dp2193
g62
(dp2194
sg71
g2180
sg64
(lp2195
g57
(g58
g59
NtRp2196
(dp2197
g62
(dp2198
g70
I4
ssg71
g2192
sg64
(lp2199
g1192
asbasbasbag57
(g73
g59
NtRp2200
(dp2201
g62
(dp2202
sg71
g2049
sg64
(lp2203
g57
(g78
g59
NtRp2204
(dp2205
g62
(dp2206
g82
g83
ssg71
g2200
sg64
(lp2207
g1355
asbag57
(g78
g59
NtRp2208
(dp2209
g62
(dp2210
g89
g90
ssg71
g2200
sg64
(lp2211
S':'
asbag57
(g78
g59
NtRp2212
(dp2213
g62
(dp2214
sg71
g2200
sg64
(lp2215
g57
(g58
g59
NtRp2216
(dp2217
g62
(dp2218
g70
I4
ssg71
g2212
sg64
(lp2219
g100
asbasbasbag57
(g73
g59
NtRp2220
(dp2221
g62
(dp2222
sg71
g2049
sg64
(lp2223
g57
(g78
g59
NtRp2224
(dp2225
g62
(dp2226
g82
g83
ssg71
g2220
sg64
(lp2227
g1376
asbag57
(g78
g59
NtRp2228
(dp2229
g62
(dp2230
g89
g90
ssg71
g2220
sg64
(lp2231
S':'
asbag57
(g78
g59
NtRp2232
(dp2233
g62
(dp2234
sg71
g2220
sg64
(lp2235
g57
(g58
g59
NtRp2236
(dp2237
g62
(dp2238
g70
I4
ssg71
g2232
sg64
(lp2239
g100
asbasbasbag57
(g73
g59
NtRp2240
(dp2241
g62
(dp2242
sg71
g2049
sg64
(lp2243
g57
(g78
g59
NtRp2244
(dp2245
g62
(dp2246
g82
g83
ssg71
g2240
sg64
(lp2247
g1614
asbag57
(g78
g59
NtRp2248
(dp2249
g62
(dp2250
g89
g90
ssg71
g2240
sg64
(lp2251
S':'
asbag57
(g78
g59
NtRp2252
(dp2253
g62
(dp2254
sg71
g2240
sg64
(lp2255
g57
(g58
g59
NtRp2256
(dp2257
g62
(dp2258
g70
I4
ssg71
g2252
sg64
(lp2259
g1627
asbasbasbag57
(g73
g59
NtRp2260
(dp2261
g62
(dp2262
sg71
g2049
sg64
(lp2263
g57
(g78
g59
NtRp2264
(dp2265
g62
(dp2266
g82
g83
ssg71
g2260
sg64
(lp2267
g1657
asbag57
(g78
g59
NtRp2268
(dp2269
g62
(dp2270
g89
g90
ssg71
g2260
sg64
(lp2271
S':'
asbag57
(g78
g59
NtRp2272
(dp2273
g62
(dp2274
sg71
g2260
sg64
(lp2275
g57
(g58
g59
NtRp2276
(dp2277
g62
(dp2278
g70
I4
ssg71
g2272
sg64
(lp2279
g57
(g66
g59
NtRp2280
(dp2281
g62
(dp2282
g70
I3
ssg71
Nsg64
(lp2283
g57
(g73
g59
NtRp2284
(dp2285
g62
(dp2286
sg71
g2280
sg64
(lp2287
g57
(g78
g59
NtRp2288
(dp2289
g62
(dp2290
sg71
g2284
sg64
(lp2291
g57
(g58
g59
NtRp2292
(dp2293
g62
(dp2294
g70
I3
ssg71
g2288
sg64
(lp2295
S'2'
asbasbasbag57
(g73
g59
NtRp2296
(dp2297
g62
(dp2298
sg71
g2280
sg64
(lp2299
g57
(g78
g59
NtRp2300
(dp2301
g62
(dp2302
sg71
g2296
sg64
(lp2303
g57
(g58
g59
NtRp2304
(dp2305
g62
(dp2306
g70
I3
ssg71
g2300
sg64
(lp2307
S'0'
asbasbasbag57
(g73
g59
NtRp2308
(dp2309
g62
(dp2310
sg71
g2280
sg64
(lp2311
g57
(g78
g59
NtRp2312
(dp2313
g62
(dp2314
sg71
g2308
sg64
(lp2315
g57
(g58
g59
NtRp2316
(dp2317
g62
(dp2318
g70
I3
ssg71
g2312
sg64
(lp2319
S'2'
asbasbasbag57
(g73
g59
NtRp2320
(dp2321
g62
(dp2322
sg71
g2280
sg64
(lp2323
g57
(g78
g59
NtRp2324
(dp2325
g62
(dp2326
sg71
g2320
sg64
(lp2327
g57
(g58
g59
NtRp2328
(dp2329
g62
(dp2330
g70
I3
ssg71
g2324
sg64
(lp2331
S'datetime.datetime(2012, 8, 30, 4, 8, 18)'
p2332
asbasbasbag57
(g73
g59
NtRp2333
(dp2334
g62
(dp2335
sg71
g2280
sg64
(lp2336
g57
(g78
g59
NtRp2337
(dp2338
g62
(dp2339
sg71
g2333
sg64
(lp2340
g57
(g58
g59
NtRp2341
(dp2342
g62
(dp2343
g70
I3
ssg71
g2337
sg64
(lp2344
g1735
asbasbasbasbasbasbasbasbasbasbasbag57
(g73
g59
NtRp2345
(dp2346
g62
(dp2347
sg71
g67
sg64
(lp2348
g57
(g78
g59
NtRp2349
(dp2350
g62
(dp2351
g82
g83
ssg71
g2345
sg64
(lp2352
S'is_https'
p2353
asbag57
(g78
g59
NtRp2354
(dp2355
g62
(dp2356
g89
g90
ssg71
g2345
sg64
(lp2357
S':'
asbag57
(g78
g59
NtRp2358
(dp2359
g62
(dp2360
sg71
g2345
sg64
(lp2361
g57
(g58
g59
NtRp2362
(dp2363
g62
(dp2364
g70
I5
ssg71
g2358
sg64
(lp2365
g100
asbasbasbag57
(g73
g59
NtRp2366
(dp2367
g62
(dp2368
sg71
g67
sg64
(lp2369
g57
(g78
g59
NtRp2370
(dp2371
g62
(dp2372
g82
g83
ssg71
g2366
sg64
(lp2373
S'is_local'
p2374
asbag57
(g78
g59
NtRp2375
(dp2376
g62
(dp2377
g89
g90
ssg71
g2366
sg64
(lp2378
S':'
asbag57
(g78
g59
NtRp2379
(dp2380
g62
(dp2381
sg71
g2366
sg64
(lp2382
g57
(g58
g59
NtRp2383
(dp2384
g62
(dp2385
g70
I5
ssg71
g2379
sg64
(lp2386
g1844
asbasbasbag57
(g73
g59
NtRp2387
(dp2388
g62
(dp2389
sg71
g67
sg64
(lp2390
g57
(g78
g59
NtRp2391
(dp2392
g62
(dp2393
g82
g83
ssg71
g2387
sg64
(lp2394
S'is_restful'
p2395
asbag57
(g78
g59
NtRp2396
(dp2397
g62
(dp2398
g89
g90
ssg71
g2387
sg64
(lp2399
S':'
asbag57
(g78
g59
NtRp2400
(dp2401
g62
(dp2402
sg71
g2387
sg64
(lp2403
g57
(g58
g59
NtRp2404
(dp2405
g62
(dp2406
g70
I5
ssg71
g2400
sg64
(lp2407
g100
asbasbasbag57
(g73
g59
NtRp2408
(dp2409
g62
(dp2410
sg71
g67
sg64
(lp2411
g57
(g78
g59
NtRp2412
(dp2413
g62
(dp2414
g82
g83
ssg71
g2408
sg64
(lp2415
S'now'
p2416
asbag57
(g78
g59
NtRp2417
(dp2418
g62
(dp2419
g89
g90
ssg71
g2408
sg64
(lp2420
S':'
asbag57
(g78
g59
NtRp2421
(dp2422
g62
(dp2423
sg71
g2408
sg64
(lp2424
g57
(g58
g59
NtRp2425
(dp2426
g62
(dp2427
g70
I5
ssg71
g2421
sg64
(lp2428
S'datetime.datetime(2012, 8, 31, 1, 56, 24, 721620)'
p2429
asbasbasbag57
(g73
g59
NtRp2430
(dp2431
g62
(dp2432
sg71
g67
sg64
(lp2433
g57
(g78
g59
NtRp2434
(dp2435
g62
(dp2436
g82
g83
ssg71
g2430
sg64
(lp2437
S'post_vars'
p2438
asbag57
(g78
g59
NtRp2439
(dp2440
g62
(dp2441
g89
g90
ssg71
g2430
sg64
(lp2442
S':'
asbag57
(g78
g59
NtRp2443
(dp2444
g62
(dp2445
sg71
g2430
sg64
(lp2446
g57
(g58
g59
NtRp2447
(dp2448
g62
(dp2449
g70
I5
ssg71
g2443
sg64
(lp2450
g57
(g66
g59
NtRp2451
(dp2452
g62
(dp2453
g70
I4
ssg71
Nsg64
(lp2454
sbasbasbasbag57
(g73
g59
NtRp2455
(dp2456
g62
(dp2457
sg71
g67
sg64
(lp2458
g57
(g78
g59
NtRp2459
(dp2460
g62
(dp2461
g82
g83
ssg71
g2455
sg64
(lp2462
S'raw_args'
p2463
asbag57
(g78
g59
NtRp2464
(dp2465
g62
(dp2466
g89
g90
ssg71
g2455
sg64
(lp2467
S':'
asbag57
(g78
g59
NtRp2468
(dp2469
g62
(dp2470
sg71
g2455
sg64
(lp2471
g57
(g58
g59
NtRp2472
(dp2473
g62
(dp2474
g70
I5
ssg71
g2468
sg64
(lp2475
S'None'
p2476
asbasbasbag57
(g73
g59
NtRp2477
(dp2478
g62
(dp2479
sg71
g67
sg64
(lp2480
g57
(g78
g59
NtRp2481
(dp2482
g62
(dp2483
g82
g83
ssg71
g2477
sg64
(lp2484
S'raw_extension'
p2485
asbag57
(g78
g59
NtRp2486
(dp2487
g62
(dp2488
g89
g90
ssg71
g2477
sg64
(lp2489
S':'
asbag57
(g78
g59
NtRp2490
(dp2491
g62
(dp2492
sg71
g2477
sg64
(lp2493
g57
(g58
g59
NtRp2494
(dp2495
g62
(dp2496
g70
I5
ssg71
g2490
sg64
(lp2497
S'None'
p2498
asbasbasbag57
(g73
g59
NtRp2499
(dp2500
g62
(dp2501
sg71
g67
sg64
(lp2502
g57
(g78
g59
NtRp2503
(dp2504
g62
(dp2505
g82
g83
ssg71
g2499
sg64
(lp2506
S'url'
p2507
asbag57
(g78
g59
NtRp2508
(dp2509
g62
(dp2510
g89
g90
ssg71
g2499
sg64
(lp2511
S':'
asbag57
(g78
g59
NtRp2512
(dp2513
g62
(dp2514
sg71
g2499
sg64
(lp2515
g57
(g58
g59
NtRp2516
(dp2517
g62
(dp2518
g70
I5
ssg71
g2512
sg64
(lp2519
S'/FotoBuk/default/index'
p2520
asbasbasbag57
(g73
g59
NtRp2521
(dp2522
g62
(dp2523
sg71
g67
sg64
(lp2524
g57
(g78
g59
NtRp2525
(dp2526
g62
(dp2527
g82
g83
ssg71
g2521
sg64
(lp2528
S'utcnow'
p2529
asbag57
(g78
g59
NtRp2530
(dp2531
g62
(dp2532
g89
g90
ssg71
g2521
sg64
(lp2533
S':'
asbag57
(g78
g59
NtRp2534
(dp2535
g62
(dp2536
sg71
g2521
sg64
(lp2537
g57
(g58
g59
NtRp2538
(dp2539
g62
(dp2540
g70
I5
ssg71
g2534
sg64
(lp2541
S'datetime.datetime(2012, 8, 30, 20, 26, 24, 721649)'
p2542
asbasbasbag57
(g73
g59
NtRp2543
(dp2544
g62
(dp2545
sg71
g67
sg64
(lp2546
g57
(g78
g59
NtRp2547
(dp2548
g62
(dp2549
g82
g83
ssg71
g2543
sg64
(lp2550
S'uuid'
p2551
asbag57
(g78
g59
NtRp2552
(dp2553
g62
(dp2554
g89
g90
ssg71
g2543
sg64
(lp2555
S':'
asbag57
(g78
g59
NtRp2556
(dp2557
g62
(dp2558
sg71
g2543
sg64
(lp2559
g57
(g58
g59
NtRp2560
(dp2561
g62
(dp2562
g70
I5
ssg71
g2556
sg64
(lp2563
S'FotoBuk/127.0.0.1.2012-08-31.01-56-24.acc2a5cd-bb30-439f-84f0-d73545b3c799'
p2564
asbasbasbag57
(g73
g59
NtRp2565
(dp2566
g62
(dp2567
sg71
g67
sg64
(lp2568
g57
(g78
g59
NtRp2569
(dp2570
g62
(dp2571
g82
g83
ssg71
g2565
sg64
(lp2572
S'vars'
p2573
asbag57
(g78
g59
NtRp2574
(dp2575
g62
(dp2576
g89
g90
ssg71
g2565
sg64
(lp2577
S':'
asbag57
(g78
g59
NtRp2578
(dp2579
g62
(dp2580
sg71
g2565
sg64
(lp2581
g57
(g58
g59
NtRp2582
(dp2583
g62
(dp2584
g70
I5
ssg71
g2578
sg64
(lp2585
g57
(g66
g59
NtRp2586
(dp2587
g62
(dp2588
g70
I4
ssg71
Nsg64
(lp2589
sbasbasbasbag57
(g73
g59
NtRp2590
(dp2591
g62
(dp2592
sg71
g67
sg64
(lp2593
g57
(g78
g59
NtRp2594
(dp2595
g62
(dp2596
g82
g83
ssg71
g2590
sg64
(lp2597
S'wsgi'
p2598
asbag57
(g78
g59
NtRp2599
(dp2600
g62
(dp2601
g89
g90
ssg71
g2590
sg64
(lp2602
S':'
asbag57
(g78
g59
NtRp2603
(dp2604
g62
(dp2605
sg71
g2590
sg64
(lp2606
g57
(g58
g59
NtRp2607
(dp2608
g62
(dp2609
g70
I5
ssg71
g2603
sg64
(lp2610
g57
(g66
g59
NtRp2611
(dp2612
g62
(dp2613
g70
I4
ssg71
Nsg64
(lp2614
g57
(g73
g59
NtRp2615
(dp2616
g62
(dp2617
sg71
g2611
sg64
(lp2618
g57
(g78
g59
NtRp2619
(dp2620
g62
(dp2621
g82
g83
ssg71
g2615
sg64
(lp2622
S'environ'
p2623
asbag57
(g78
g59
NtRp2624
(dp2625
g62
(dp2626
g89
g90
ssg71
g2615
sg64
(lp2627
S':'
asbag57
(g78
g59
NtRp2628
(dp2629
g62
(dp2630
sg71
g2615
sg64
(lp2631
g57
(g58
g59
NtRp2632
(dp2633
g62
(dp2634
g70
I4
ssg71
g2628
sg64
(lp2635
g57
(g66
g59
NtRp2636
(dp2637
g62
(dp2638
g70
I3
ssg71
Nsg64
(lp2639
g57
(g73
g59
NtRp2640
(dp2641
g62
(dp2642
sg71
g2636
sg64
(lp2643
g57
(g78
g59
NtRp2644
(dp2645
g62
(dp2646
g82
g83
ssg71
g2640
sg64
(lp2647
S'HTTP_ACCEPT'
p2648
asbag57
(g78
g59
NtRp2649
(dp2650
g62
(dp2651
g89
g90
ssg71
g2640
sg64
(lp2652
S':'
asbag57
(g78
g59
NtRp2653
(dp2654
g62
(dp2655
sg71
g2640
sg64
(lp2656
g57
(g58
g59
NtRp2657
(dp2658
g62
(dp2659
g70
I3
ssg71
g2653
sg64
(lp2660
g1214
asbasbasbag57
(g73
g59
NtRp2661
(dp2662
g62
(dp2663
sg71
g2636
sg64
(lp2664
g57
(g78
g59
NtRp2665
(dp2666
g62
(dp2667
g82
g83
ssg71
g2661
sg64
(lp2668
S'HTTP_ACCEPT_ENCODING'
p2669
asbag57
(g78
g59
NtRp2670
(dp2671
g62
(dp2672
g89
g90
ssg71
g2661
sg64
(lp2673
S':'
asbag57
(g78
g59
NtRp2674
(dp2675
g62
(dp2676
sg71
g2661
sg64
(lp2677
g57
(g58
g59
NtRp2678
(dp2679
g62
(dp2680
g70
I3
ssg71
g2674
sg64
(lp2681
g1236
asbasbasbag57
(g73
g59
NtRp2682
(dp2683
g62
(dp2684
sg71
g2636
sg64
(lp2685
g57
(g78
g59
NtRp2686
(dp2687
g62
(dp2688
g82
g83
ssg71
g2682
sg64
(lp2689
S'HTTP_ACCEPT_LANGUAGE'
p2690
asbag57
(g78
g59
NtRp2691
(dp2692
g62
(dp2693
g89
g90
ssg71
g2682
sg64
(lp2694
S':'
asbag57
(g78
g59
NtRp2695
(dp2696
g62
(dp2697
sg71
g2682
sg64
(lp2698
g57
(g58
g59
NtRp2699
(dp2700
g62
(dp2701
g70
I3
ssg71
g2695
sg64
(lp2702
g1258
asbasbasbag57
(g73
g59
NtRp2703
(dp2704
g62
(dp2705
sg71
g2636
sg64
(lp2706
g57
(g78
g59
NtRp2707
(dp2708
g62
(dp2709
g82
g83
ssg71
g2703
sg64
(lp2710
S'HTTP_CONNECTION'
p2711
asbag57
(g78
g59
NtRp2712
(dp2713
g62
(dp2714
g89
g90
ssg71
g2703
sg64
(lp2715
S':'
asbag57
(g78
g59
NtRp2716
(dp2717
g62
(dp2718
sg71
g2703
sg64
(lp2719
g57
(g58
g59
NtRp2720
(dp2721
g62
(dp2722
g70
I3
ssg71
g2716
sg64
(lp2723
g1280
asbasbasbag57
(g73
g59
NtRp2724
(dp2725
g62
(dp2726
sg71
g2636
sg64
(lp2727
g57
(g78
g59
NtRp2728
(dp2729
g62
(dp2730
g82
g83
ssg71
g2724
sg64
(lp2731
S'HTTP_COOKIE'
p2732
asbag57
(g78
g59
NtRp2733
(dp2734
g62
(dp2735
g89
g90
ssg71
g2724
sg64
(lp2736
S':'
asbag57
(g78
g59
NtRp2737
(dp2738
g62
(dp2739
sg71
g2724
sg64
(lp2740
g57
(g58
g59
NtRp2741
(dp2742
g62
(dp2743
g70
I3
ssg71
g2737
sg64
(lp2744
g1302
asbasbasbag57
(g73
g59
NtRp2745
(dp2746
g62
(dp2747
sg71
g2636
sg64
(lp2748
g57
(g78
g59
NtRp2749
(dp2750
g62
(dp2751
g82
g83
ssg71
g2745
sg64
(lp2752
S'HTTP_HOST'
p2753
asbag57
(g78
g59
NtRp2754
(dp2755
g62
(dp2756
g89
g90
ssg71
g2745
sg64
(lp2757
S':'
asbag57
(g78
g59
NtRp2758
(dp2759
g62
(dp2760
sg71
g2745
sg64
(lp2761
g57
(g58
g59
NtRp2762
(dp2763
g62
(dp2764
g70
I3
ssg71
g2758
sg64
(lp2765
g1324
asbasbasbag57
(g73
g59
NtRp2766
(dp2767
g62
(dp2768
sg71
g2636
sg64
(lp2769
g57
(g78
g59
NtRp2770
(dp2771
g62
(dp2772
g82
g83
ssg71
g2766
sg64
(lp2773
S'HTTP_USER_AGENT'
p2774
asbag57
(g78
g59
NtRp2775
(dp2776
g62
(dp2777
g89
g90
ssg71
g2766
sg64
(lp2778
S':'
asbag57
(g78
g59
NtRp2779
(dp2780
g62
(dp2781
sg71
g2766
sg64
(lp2782
g57
(g58
g59
NtRp2783
(dp2784
g62
(dp2785
g70
I3
ssg71
g2779
sg64
(lp2786
g1346
asbasbasbag57
(g73
g59
NtRp2787
(dp2788
g62
(dp2789
sg71
g2636
sg64
(lp2790
g57
(g78
g59
NtRp2791
(dp2792
g62
(dp2793
g82
g83
ssg71
g2787
sg64
(lp2794
S'PATH_INFO'
p2795
asbag57
(g78
g59
NtRp2796
(dp2797
g62
(dp2798
g89
g90
ssg71
g2787
sg64
(lp2799
S':'
asbag57
(g78
g59
NtRp2800
(dp2801
g62
(dp2802
sg71
g2787
sg64
(lp2803
g57
(g58
g59
NtRp2804
(dp2805
g62
(dp2806
g70
I3
ssg71
g2800
sg64
(lp2807
g1410
asbasbasbag57
(g73
g59
NtRp2808
(dp2809
g62
(dp2810
sg71
g2636
sg64
(lp2811
g57
(g78
g59
NtRp2812
(dp2813
g62
(dp2814
g82
g83
ssg71
g2808
sg64
(lp2815
S'QUERY_STRING'
p2816
asbag57
(g78
g59
NtRp2817
(dp2818
g62
(dp2819
g89
g90
ssg71
g2808
sg64
(lp2820
S':'
asbag57
(g78
g59
NtRp2821
(dp2822
g62
(dp2823
sg71
g2808
sg64
(lp2824
g57
(g58
g59
NtRp2825
(dp2826
g62
(dp2827
g70
I3
ssg71
g2821
sg64
(lp2828
S''
asbasbasbag57
(g73
g59
NtRp2829
(dp2830
g62
(dp2831
sg71
g2636
sg64
(lp2832
g57
(g78
g59
NtRp2833
(dp2834
g62
(dp2835
g82
g83
ssg71
g2829
sg64
(lp2836
S'REMOTE_ADDR'
p2837
asbag57
(g78
g59
NtRp2838
(dp2839
g62
(dp2840
g89
g90
ssg71
g2829
sg64
(lp2841
S':'
asbag57
(g78
g59
NtRp2842
(dp2843
g62
(dp2844
sg71
g2829
sg64
(lp2845
g57
(g58
g59
NtRp2846
(dp2847
g62
(dp2848
g70
I3
ssg71
g2842
sg64
(lp2849
g212
asbasbasbag57
(g73
g59
NtRp2850
(dp2851
g62
(dp2852
sg71
g2636
sg64
(lp2853
g57
(g78
g59
NtRp2854
(dp2855
g62
(dp2856
g82
g83
ssg71
g2850
sg64
(lp2857
S'REMOTE_PORT'
p2858
asbag57
(g78
g59
NtRp2859
(dp2860
g62
(dp2861
g89
g90
ssg71
g2850
sg64
(lp2862
S':'
asbag57
(g78
g59
NtRp2863
(dp2864
g62
(dp2865
sg71
g2850
sg64
(lp2866
g57
(g58
g59
NtRp2867
(dp2868
g62
(dp2869
g70
I3
ssg71
g2863
sg64
(lp2870
g1474
asbasbasbag57
(g73
g59
NtRp2871
(dp2872
g62
(dp2873
sg71
g2636
sg64
(lp2874
g57
(g78
g59
NtRp2875
(dp2876
g62
(dp2877
g82
g83
ssg71
g2871
sg64
(lp2878
S'REQUEST_METHOD'
p2879
asbag57
(g78
g59
NtRp2880
(dp2881
g62
(dp2882
g89
g90
ssg71
g2871
sg64
(lp2883
S':'
asbag57
(g78
g59
NtRp2884
(dp2885
g62
(dp2886
sg71
g2871
sg64
(lp2887
g57
(g58
g59
NtRp2888
(dp2889
g62
(dp2890
g70
I3
ssg71
g2884
sg64
(lp2891
g1496
asbasbasbag57
(g73
g59
NtRp2892
(dp2893
g62
(dp2894
sg71
g2636
sg64
(lp2895
g57
(g78
g59
NtRp2896
(dp2897
g62
(dp2898
g82
g83
ssg71
g2892
sg64
(lp2899
S'SCRIPT_NAME'
p2900
asbag57
(g78
g59
NtRp2901
(dp2902
g62
(dp2903
g89
g90
ssg71
g2892
sg64
(lp2904
S':'
asbag57
(g78
g59
NtRp2905
(dp2906
g62
(dp2907
sg71
g2892
sg64
(lp2908
g57
(g58
g59
NtRp2909
(dp2910
g62
(dp2911
g70
I3
ssg71
g2905
sg64
(lp2912
S''
asbasbasbag57
(g73
g59
NtRp2913
(dp2914
g62
(dp2915
sg71
g2636
sg64
(lp2916
g57
(g78
g59
NtRp2917
(dp2918
g62
(dp2919
g82
g83
ssg71
g2913
sg64
(lp2920
S'SERVER_NAME'
p2921
asbag57
(g78
g59
NtRp2922
(dp2923
g62
(dp2924
g89
g90
ssg71
g2913
sg64
(lp2925
S':'
asbag57
(g78
g59
NtRp2926
(dp2927
g62
(dp2928
sg71
g2913
sg64
(lp2929
g57
(g58
g59
NtRp2930
(dp2931
g62
(dp2932
g70
I3
ssg71
g2926
sg64
(lp2933
g1539
asbasbasbag57
(g73
g59
NtRp2934
(dp2935
g62
(dp2936
sg71
g2636
sg64
(lp2937
g57
(g78
g59
NtRp2938
(dp2939
g62
(dp2940
g82
g83
ssg71
g2934
sg64
(lp2941
S'SERVER_PORT'
p2942
asbag57
(g78
g59
NtRp2943
(dp2944
g62
(dp2945
g89
g90
ssg71
g2934
sg64
(lp2946
S':'
asbag57
(g78
g59
NtRp2947
(dp2948
g62
(dp2949
sg71
g2934
sg64
(lp2950
g57
(g58
g59
NtRp2951
(dp2952
g62
(dp2953
g70
I3
ssg71
g2947
sg64
(lp2954
g1561
asbasbasbag57
(g73
g59
NtRp2955
(dp2956
g62
(dp2957
sg71
g2636
sg64
(lp2958
g57
(g78
g59
NtRp2959
(dp2960
g62
(dp2961
g82
g83
ssg71
g2955
sg64
(lp2962
S'SERVER_PROTOCOL'
p2963
asbag57
(g78
g59
NtRp2964
(dp2965
g62
(dp2966
g89
g90
ssg71
g2955
sg64
(lp2967
S':'
asbag57
(g78
g59
NtRp2968
(dp2969
g62
(dp2970
sg71
g2955
sg64
(lp2971
g57
(g58
g59
NtRp2972
(dp2973
g62
(dp2974
g70
I3
ssg71
g2968
sg64
(lp2975
g1583
asbasbasbag57
(g73
g59
NtRp2976
(dp2977
g62
(dp2978
sg71
g2636
sg64
(lp2979
g57
(g78
g59
NtRp2980
(dp2981
g62
(dp2982
g82
g83
ssg71
g2976
sg64
(lp2983
S'SERVER_SOFTWARE'
p2984
asbag57
(g78
g59
NtRp2985
(dp2986
g62
(dp2987
g89
g90
ssg71
g2976
sg64
(lp2988
S':'
asbag57
(g78
g59
NtRp2989
(dp2990
g62
(dp2991
sg71
g2976
sg64
(lp2992
g57
(g58
g59
NtRp2993
(dp2994
g62
(dp2995
g70
I3
ssg71
g2989
sg64
(lp2996
g1605
asbasbasbag57
(g73
g59
NtRp2997
(dp2998
g62
(dp2999
sg71
g2636
sg64
(lp3000
g57
(g78
g59
NtRp3001
(dp3002
g62
(dp3003
g82
g83
ssg71
g2997
sg64
(lp3004
S'wsgi.errors'
p3005
asbag57
(g78
g59
NtRp3006
(dp3007
g62
(dp3008
g89
g90
ssg71
g2997
sg64
(lp3009
S':'
asbag57
(g78
g59
NtRp3010
(dp3011
g62
(dp3012
sg71
g2997
sg64
(lp3013
g57
(g58
g59
NtRp3014
(dp3015
g62
(dp3016
g70
I3
ssg71
g3010
sg64
(lp3017
S"<open file '<stderr>', mode 'w' at 0xb77a40d0>"
p3018
asbasbasbag57
(g73
g59
NtRp3019
(dp3020
g62
(dp3021
sg71
g2636
sg64
(lp3022
g57
(g78
g59
NtRp3023
(dp3024
g62
(dp3025
g82
g83
ssg71
g3019
sg64
(lp3026
S'wsgi.file_wrapper'
p3027
asbag57
(g78
g59
NtRp3028
(dp3029
g62
(dp3030
g89
g90
ssg71
g3019
sg64
(lp3031
S':'
asbag57
(g78
g59
NtRp3032
(dp3033
g62
(dp3034
sg71
g3019
sg64
(lp3035
g57
(g58
g59
NtRp3036
(dp3037
g62
(dp3038
g70
I3
ssg71
g3032
sg64
(lp3039
S'<class wsgiref.util.FileWrapper at 0x9f8226c>'
p3040
asbasbasbag57
(g73
g59
NtRp3041
(dp3042
g62
(dp3043
sg71
g2636
sg64
(lp3044
g57
(g78
g59
NtRp3045
(dp3046
g62
(dp3047
g82
g83
ssg71
g3041
sg64
(lp3048
S'wsgi.input'
p3049
asbag57
(g78
g59
NtRp3050
(dp3051
g62
(dp3052
g89
g90
ssg71
g3041
sg64
(lp3053
S':'
asbag57
(g78
g59
NtRp3054
(dp3055
g62
(dp3056
sg71
g3041
sg64
(lp3057
g57
(g58
g59
NtRp3058
(dp3059
g62
(dp3060
g70
I3
ssg71
g3054
sg64
(lp3061
S'<cStringIO.StringO object at 0xaea55ba0>'
p3062
asbasbasbag57
(g73
g59
NtRp3063
(dp3064
g62
(dp3065
sg71
g2636
sg64
(lp3066
g57
(g78
g59
NtRp3067
(dp3068
g62
(dp3069
g82
g83
ssg71
g3063
sg64
(lp3070
S'wsgi.multiprocess'
p3071
asbag57
(g78
g59
NtRp3072
(dp3073
g62
(dp3074
g89
g90
ssg71
g3063
sg64
(lp3075
S':'
asbag57
(g78
g59
NtRp3076
(dp3077
g62
(dp3078
sg71
g3063
sg64
(lp3079
g57
(g58
g59
NtRp3080
(dp3081
g62
(dp3082
g70
I3
ssg71
g3076
sg64
(lp3083
g100
asbasbasbag57
(g73
g59
NtRp3084
(dp3085
g62
(dp3086
sg71
g2636
sg64
(lp3087
g57
(g78
g59
NtRp3088
(dp3089
g62
(dp3090
g82
g83
ssg71
g3084
sg64
(lp3091
S'wsgi.multithread'
p3092
asbag57
(g78
g59
NtRp3093
(dp3094
g62
(dp3095
g89
g90
ssg71
g3084
sg64
(lp3096
S':'
asbag57
(g78
g59
NtRp3097
(dp3098
g62
(dp3099
sg71
g3084
sg64
(lp3100
g57
(g58
g59
NtRp3101
(dp3102
g62
(dp3103
g70
I3
ssg71
g3097
sg64
(lp3104
g1844
asbasbasbag57
(g73
g59
NtRp3105
(dp3106
g62
(dp3107
sg71
g2636
sg64
(lp3108
g57
(g78
g59
NtRp3109
(dp3110
g62
(dp3111
g82
g83
ssg71
g3105
sg64
(lp3112
S'wsgi.run_once'
p3113
asbag57
(g78
g59
NtRp3114
(dp3115
g62
(dp3116
g89
g90
ssg71
g3105
sg64
(lp3117
S':'
asbag57
(g78
g59
NtRp3118
(dp3119
g62
(dp3120
sg71
g3105
sg64
(lp3121
g57
(g58
g59
NtRp3122
(dp3123
g62
(dp3124
g70
I3
ssg71
g3118
sg64
(lp3125
g100
asbasbasbag57
(g73
g59
NtRp3126
(dp3127
g62
(dp3128
sg71
g2636
sg64
(lp3129
g57
(g78
g59
NtRp3130
(dp3131
g62
(dp3132
g82
g83
ssg71
g3126
sg64
(lp3133
S'wsgi.url_scheme'
p3134
asbag57
(g78
g59
NtRp3135
(dp3136
g62
(dp3137
g89
g90
ssg71
g3126
sg64
(lp3138
S':'
asbag57
(g78
g59
NtRp3139
(dp3140
g62
(dp3141
sg71
g3126
sg64
(lp3142
g57
(g58
g59
NtRp3143
(dp3144
g62
(dp3145
g70
I3
ssg71
g3139
sg64
(lp3146
g1887
asbasbasbag57
(g73
g59
NtRp3147
(dp3148
g62
(dp3149
sg71
g2636
sg64
(lp3150
g57
(g78
g59
NtRp3151
(dp3152
g62
(dp3153
g82
g83
ssg71
g3147
sg64
(lp3154
S'wsgi.version'
p3155
asbag57
(g78
g59
NtRp3156
(dp3157
g62
(dp3158
g89
g90
ssg71
g3147
sg64
(lp3159
S':'
asbag57
(g78
g59
NtRp3160
(dp3161
g62
(dp3162
sg71
g3147
sg64
(lp3163
g57
(g58
g59
NtRp3164
(dp3165
g62
(dp3166
g70
I3
ssg71
g3160
sg64
(lp3167
S'1'
asbasbasbasbasbasbasbasbasbasbasbasbasbsS'frames'
p3168
(lp3169
(dp3170
S'file'
p3171
S'/home/piyush/web2py/gluon/restricted.py'
p3172
sS'dump'
p3173
(dp3174
S'environment'
p3175
S"{'A': <class 'gluon.html.A'>, 'B': <class 'gluon.html.B'>, 'BEAUTIFY': <class 'gluon.html.BEAUTIFY'>, 'BODY': <class 'gluon.html.BODY'>, 'BR': <class 'gluon.html.BR'>, 'BUTTON': <class 'gluon.html.BUTTON'>, 'CAT': <class 'gluon.html.CAT'>, 'CENTER': <class 'gluon.html.CENTER'>, 'CLEANUP': <class 'gluon.validators.CLEANUP'>, 'CODE': <class 'gluon.html.CODE'>, ...}"
p3176
sS'ccode'
p3177
S'<code object <module> at 0xae794c38, file "/home...cations/FotoBuk/controllers/default.py", line 12>'
p3178
ssS'lnum'
p3179
I209
sS'lines'
p3180
(dp3181
I204
S'    try:'
p3182
sI205
S'        if type(code) == types.CodeType:'
p3183
sI206
S'            ccode = code'
p3184
sI207
S'        else:'
p3185
sI208
S'            ccode = compile2(code,layer)'
p3186
sI209
S'        exec ccode in environment'
p3187
sI210
S'    except HTTP:'
p3188
sI211
S'        raise'
p3189
sI212
S'    except RestrictedError:'
p3190
sI213
S'        # do not encapsulate (obfuscate) the original RestrictedError'
p3191
ssS'call'
p3192
S"(code='# -*- coding: utf-8 -*-\\n# this file is released ...=crud())\\n\\nresponse._vars=response._caller(index)\\n', environment={'A': <class 'gluon.html.A'>, 'B': <class 'gluon.html.B'>, 'BEAUTIFY': <class 'gluon.html.BEAUTIFY'>, 'BODY': <class 'gluon.html.BODY'>, 'BR': <class 'gluon.html.BR'>, 'BUTTON': <class 'gluon.html.BUTTON'>, 'CAT': <class 'gluon.html.CAT'>, 'CENTER': <class 'gluon.html.CENTER'>, 'CLEANUP': <class 'gluon.validators.CLEANUP'>, 'CODE': <class 'gluon.html.CODE'>, ...}, layer='/home/piyush/web2py/applications/FotoBuk/controllers/default.py')"
p3193
sS'func'
p3194
S'restricted'
p3195
sa(dp3196
g3171
S'/home/piyush/web2py/applications/FotoBuk/controllers/default.py'
p3197
sg3173
(dp3198
S'auth'
p3199
S'undefined'
p3200
ssg3179
I60
sg3180
(dp3201
I64
S'    http://..../[app]/default/data/create/[table]'
p3202
sI55
S'    supports xml, json, xmlrpc, jsonrpc, amfrpc, rss, csv'
p3203
sI56
S'    """'
p3204
sI57
S'    return service()'
p3205
sI58
S''
sI59
S''
sI60
S'@auth.requires_signature()'
p3206
sI61
S'def data():'
p3207
sI62
S'    """'
p3208
sI63
S'    http://..../[app]/default/data/tables'
p3209
ssg3192
S'()'
p3210
sg3194
S'<module>'
p3211
sasS'pyver'
p3212
S'Python 2.7.2: /usr/bin/python'
p3213
sS'session'
p3214
g57
(g58
g59
NtRp3215
(dp3216
g62
(dp3217
sg64
(lp3218
g57
(g66
g59
NtRp3219
(dp3220
g62
(dp3221
g70
I5
ssg71
Nsg64
(lp3222
g57
(g73
g59
NtRp3223
(dp3224
g62
(dp3225
sg71
g3219
sg64
(lp3226
g57
(g78
g59
NtRp3227
(dp3228
g62
(dp3229
g82
g83
ssg71
g3223
sg64
(lp3230
S'auth'
p3231
asbag57
(g78
g59
NtRp3232
(dp3233
g62
(dp3234
g89
g90
ssg71
g3223
sg64
(lp3235
S':'
asbag57
(g78
g59
NtRp3236
(dp3237
g62
(dp3238
sg71
g3223
sg64
(lp3239
g57
(g58
g59
NtRp3240
(dp3241
g62
(dp3242
g70
I5
ssg71
g3236
sg64
(lp3243
S'None'
p3244
asbasbasbasbasbsS'etype'
p3245
S"<type 'exceptions.NameError'>"
p3246
sS'date'
p3247
S'Fri Aug 31 01:56:24 2012'
p3248
sS'response'
p3249
g57
(g58
g59
NtRp3250
(dp3251
g62
(dp3252
sg64
(lp3253
g57
(g66
g59
NtRp3254
(dp3255
g62
(dp3256
g70
I5
ssg71
Nsg64
(lp3257
g57
(g73
g59
NtRp3258
(dp3259
g62
(dp3260
sg71
g3254
sg64
(lp3261
g57
(g78
g59
NtRp3262
(dp3263
g62
(dp3264
g82
g83
ssg71
g3258
sg64
(lp3265
g155
asbag57
(g78
g59
NtRp3266
(dp3267
g62
(dp3268
g89
g90
ssg71
g3258
sg64
(lp3269
S':'
asbag57
(g78
g59
NtRp3270
(dp3271
g62
(dp3272
sg71
g3258
sg64
(lp3273
g57
(g58
g59
NtRp3274
(dp3275
g62
(dp3276
g70
I5
ssg71
g3270
sg64
(lp3277
S'<cStringIO.StringO object at 0xae99e8c0>'
p3278
asbasbasbag57
(g73
g59
NtRp3279
(dp3280
g62
(dp3281
sg71
g3254
sg64
(lp3282
g57
(g78
g59
NtRp3283
(dp3284
g62
(dp3285
g82
g83
ssg71
g3279
sg64
(lp3286
g243
asbag57
(g78
g59
NtRp3287
(dp3288
g62
(dp3289
g89
g90
ssg71
g3279
sg64
(lp3290
S':'
asbag57
(g78
g59
NtRp3291
(dp3292
g62
(dp3293
sg71
g3279
sg64
(lp3294
g57
(g58
g59
NtRp3295
(dp3296
g62
(dp3297
g70
I5
ssg71
g3291
sg64
(lp3298
g57
(g66
g59
NtRp3299
(dp3300
g62
(dp3301
g70
I4
ssg71
Nsg64
(lp3302
g57
(g73
g59
NtRp3303
(dp3304
g62
(dp3305
sg71
g3299
sg64
(lp3306
g57
(g78
g59
NtRp3307
(dp3308
g62
(dp3309
g82
g83
ssg71
g3303
sg64
(lp3310
S'session_id_fotobuk'
p3311
asbag57
(g78
g59
NtRp3312
(dp3313
g62
(dp3314
g89
g90
ssg71
g3303
sg64
(lp3315
S':'
asbag57
(g78
g59
NtRp3316
(dp3317
g62
(dp3318
sg71
g3303
sg64
(lp3319
g57
(g58
g59
NtRp3320
(dp3321
g62
(dp3322
g70
I4
ssg71
g3316
sg64
(lp3323
g475
ag57
(g66
g59
NtRp3324
(dp3325
g62
(dp3326
g70
I3
ssg71
Nsg64
(lp3327
g57
(g73
g59
NtRp3328
(dp3329
g62
(dp3330
sg71
g3324
sg64
(lp3331
g57
(g78
g59
NtRp3332
(dp3333
g62
(dp3334
g82
g83
ssg71
g3328
sg64
(lp3335
g294
asbag57
(g78
g59
NtRp3336
(dp3337
g62
(dp3338
g89
g90
ssg71
g3328
sg64
(lp3339
S':'
asbag57
(g78
g59
NtRp3340
(dp3341
g62
(dp3342
sg71
g3328
sg64
(lp3343
g57
(g58
g59
NtRp3344
(dp3345
g62
(dp3346
g70
I3
ssg71
g3340
sg64
(lp3347
S''
asbasbasbag57
(g73
g59
NtRp3348
(dp3349
g62
(dp3350
sg71
g3324
sg64
(lp3351
g57
(g78
g59
NtRp3352
(dp3353
g62
(dp3354
g82
g83
ssg71
g3348
sg64
(lp3355
g315
asbag57
(g78
g59
NtRp3356
(dp3357
g62
(dp3358
g89
g90
ssg71
g3348
sg64
(lp3359
S':'
asbag57
(g78
g59
NtRp3360
(dp3361
g62
(dp3362
sg71
g3348
sg64
(lp3363
g57
(g58
g59
NtRp3364
(dp3365
g62
(dp3366
g70
I3
ssg71
g3360
sg64
(lp3367
S''
asbasbasbag57
(g73
g59
NtRp3368
(dp3369
g62
(dp3370
sg71
g3324
sg64
(lp3371
g57
(g78
g59
NtRp3372
(dp3373
g62
(dp3374
g82
g83
ssg71
g3368
sg64
(lp3375
g336
asbag57
(g78
g59
NtRp3376
(dp3377
g62
(dp3378
g89
g90
ssg71
g3368
sg64
(lp3379
S':'
asbag57
(g78
g59
NtRp3380
(dp3381
g62
(dp3382
sg71
g3368
sg64
(lp3383
g57
(g58
g59
NtRp3384
(dp3385
g62
(dp3386
g70
I3
ssg71
g3380
sg64
(lp3387
S''
asbasbasbag57
(g73
g59
NtRp3388
(dp3389
g62
(dp3390
sg71
g3324
sg64
(lp3391
g57
(g78
g59
NtRp3392
(dp3393
g62
(dp3394
g82
g83
ssg71
g3388
sg64
(lp3395
g357
asbag57
(g78
g59
NtRp3396
(dp3397
g62
(dp3398
g89
g90
ssg71
g3388
sg64
(lp3399
S':'
asbag57
(g78
g59
NtRp3400
(dp3401
g62
(dp3402
sg71
g3388
sg64
(lp3403
g57
(g58
g59
NtRp3404
(dp3405
g62
(dp3406
g70
I3
ssg71
g3400
sg64
(lp3407
S''
asbasbasbag57
(g73
g59
NtRp3408
(dp3409
g62
(dp3410
sg71
g3324
sg64
(lp3411
g57
(g78
g59
NtRp3412
(dp3413
g62
(dp3414
g82
g83
ssg71
g3408
sg64
(lp3415
g378
asbag57
(g78
g59
NtRp3416
(dp3417
g62
(dp3418
g89
g90
ssg71
g3408
sg64
(lp3419
S':'
asbag57
(g78
g59
NtRp3420
(dp3421
g62
(dp3422
sg71
g3408
sg64
(lp3423
g57
(g58
g59
NtRp3424
(dp3425
g62
(dp3426
g70
I3
ssg71
g3420
sg64
(lp3427
S''
asbasbasbag57
(g73
g59
NtRp3428
(dp3429
g62
(dp3430
sg71
g3324
sg64
(lp3431
g57
(g78
g59
NtRp3432
(dp3433
g62
(dp3434
g82
g83
ssg71
g3428
sg64
(lp3435
g399
asbag57
(g78
g59
NtRp3436
(dp3437
g62
(dp3438
g89
g90
ssg71
g3428
sg64
(lp3439
S':'
asbag57
(g78
g59
NtRp3440
(dp3441
g62
(dp3442
sg71
g3428
sg64
(lp3443
g57
(g58
g59
NtRp3444
(dp3445
g62
(dp3446
g70
I3
ssg71
g3440
sg64
(lp3447
S'/'
asbasbasbag57
(g73
g59
NtRp3448
(dp3449
g62
(dp3450
sg71
g3324
sg64
(lp3451
g57
(g78
g59
NtRp3452
(dp3453
g62
(dp3454
g82
g83
ssg71
g3448
sg64
(lp3455
g420
asbag57
(g78
g59
NtRp3456
(dp3457
g62
(dp3458
g89
g90
ssg71
g3448
sg64
(lp3459
S':'
asbag57
(g78
g59
NtRp3460
(dp3461
g62
(dp3462
sg71
g3448
sg64
(lp3463
g57
(g58
g59
NtRp3464
(dp3465
g62
(dp3466
g70
I3
ssg71
g3460
sg64
(lp3467
S''
asbasbasbag57
(g73
g59
NtRp3468
(dp3469
g62
(dp3470
sg71
g3324
sg64
(lp3471
g57
(g78
g59
NtRp3472
(dp3473
g62
(dp3474
g82
g83
ssg71
g3468
sg64
(lp3475
g441
asbag57
(g78
g59
NtRp3476
(dp3477
g62
(dp3478
g89
g90
ssg71
g3468
sg64
(lp3479
S':'
asbag57
(g78
g59
NtRp3480
(dp3481
g62
(dp3482
sg71
g3468
sg64
(lp3483
g57
(g58
g59
NtRp3484
(dp3485
g62
(dp3486
g70
I3
ssg71
g3480
sg64
(lp3487
S''
asbasbasbasbasbasbasbasbasbasbasbag57
(g73
g59
NtRp3488
(dp3489
g62
(dp3490
sg71
g3254
sg64
(lp3491
g57
(g78
g59
NtRp3492
(dp3493
g62
(dp3494
g82
g83
ssg71
g3488
sg64
(lp3495
S'delimiters'
p3496
asbag57
(g78
g59
NtRp3497
(dp3498
g62
(dp3499
g89
g90
ssg71
g3488
sg64
(lp3500
S':'
asbag57
(g78
g59
NtRp3501
(dp3502
g62
(dp3503
sg71
g3488
sg64
(lp3504
g57
(g58
g59
NtRp3505
(dp3506
g62
(dp3507
g70
I5
ssg71
g3501
sg64
(lp3508
g57
(g66
g59
NtRp3509
(dp3510
g62
(dp3511
g70
I4
ssg71
Nsg64
(lp3512
g57
(g73
g59
NtRp3513
(dp3514
g62
(dp3515
sg71
g3509
sg64
(lp3516
g57
(g78
g59
NtRp3517
(dp3518
g62
(dp3519
sg71
g3513
sg64
(lp3520
g57
(g58
g59
NtRp3521
(dp3522
g62
(dp3523
g70
I4
ssg71
g3517
sg64
(lp3524
S'{{'
p3525
asbasbasbag57
(g73
g59
NtRp3526
(dp3527
g62
(dp3528
sg71
g3509
sg64
(lp3529
g57
(g78
g59
NtRp3530
(dp3531
g62
(dp3532
sg71
g3526
sg64
(lp3533
g57
(g58
g59
NtRp3534
(dp3535
g62
(dp3536
g70
I4
ssg71
g3530
sg64
(lp3537
S'}}'
p3538
asbasbasbasbasbasbasbag57
(g73
g59
NtRp3539
(dp3540
g62
(dp3541
sg71
g3254
sg64
(lp3542
g57
(g78
g59
NtRp3543
(dp3544
g62
(dp3545
g82
g83
ssg71
g3539
sg64
(lp3546
S'files'
p3547
asbag57
(g78
g59
NtRp3548
(dp3549
g62
(dp3550
g89
g90
ssg71
g3539
sg64
(lp3551
S':'
asbag57
(g78
g59
NtRp3552
(dp3553
g62
(dp3554
sg71
g3539
sg64
(lp3555
g57
(g58
g59
NtRp3556
(dp3557
g62
(dp3558
g70
I5
ssg71
g3552
sg64
(lp3559
g57
(g66
g59
NtRp3560
(dp3561
g62
(dp3562
g70
I4
ssg71
Nsg64
(lp3563
sbasbasbasbag57
(g73
g59
NtRp3564
(dp3565
g62
(dp3566
sg71
g3254
sg64
(lp3567
g57
(g78
g59
NtRp3568
(dp3569
g62
(dp3570
g82
g83
ssg71
g3564
sg64
(lp3571
S'flash'
p3572
asbag57
(g78
g59
NtRp3573
(dp3574
g62
(dp3575
g89
g90
ssg71
g3564
sg64
(lp3576
S':'
asbag57
(g78
g59
NtRp3577
(dp3578
g62
(dp3579
sg71
g3564
sg64
(lp3580
g57
(g58
g59
NtRp3581
(dp3582
g62
(dp3583
g70
I5
ssg71
g3577
sg64
(lp3584
S''
asbasbasbag57
(g73
g59
NtRp3585
(dp3586
g62
(dp3587
sg71
g3254
sg64
(lp3588
g57
(g78
g59
NtRp3589
(dp3590
g62
(dp3591
g82
g83
ssg71
g3585
sg64
(lp3592
S'generic_patterns'
p3593
asbag57
(g78
g59
NtRp3594
(dp3595
g62
(dp3596
g89
g90
ssg71
g3585
sg64
(lp3597
S':'
asbag57
(g78
g59
NtRp3598
(dp3599
g62
(dp3600
sg71
g3585
sg64
(lp3601
g57
(g58
g59
NtRp3602
(dp3603
g62
(dp3604
g70
I5
ssg71
g3598
sg64
(lp3605
g57
(g66
g59
NtRp3606
(dp3607
g62
(dp3608
g70
I4
ssg71
Nsg64
(lp3609
sbasbasbasbag57
(g73
g59
NtRp3610
(dp3611
g62
(dp3612
sg71
g3254
sg64
(lp3613
g57
(g78
g59
NtRp3614
(dp3615
g62
(dp3616
g82
g83
ssg71
g3610
sg64
(lp3617
S'google_analytics_id'
p3618
asbag57
(g78
g59
NtRp3619
(dp3620
g62
(dp3621
g89
g90
ssg71
g3610
sg64
(lp3622
S':'
asbag57
(g78
g59
NtRp3623
(dp3624
g62
(dp3625
sg71
g3610
sg64
(lp3626
g57
(g58
g59
NtRp3627
(dp3628
g62
(dp3629
g70
I5
ssg71
g3623
sg64
(lp3630
S'None'
p3631
asbasbasbag57
(g73
g59
NtRp3632
(dp3633
g62
(dp3634
sg71
g3254
sg64
(lp3635
g57
(g78
g59
NtRp3636
(dp3637
g62
(dp3638
g82
g83
ssg71
g3632
sg64
(lp3639
S'headers'
p3640
asbag57
(g78
g59
NtRp3641
(dp3642
g62
(dp3643
g89
g90
ssg71
g3632
sg64
(lp3644
S':'
asbag57
(g78
g59
NtRp3645
(dp3646
g62
(dp3647
sg71
g3632
sg64
(lp3648
g57
(g58
g59
NtRp3649
(dp3650
g62
(dp3651
g70
I5
ssg71
g3645
sg64
(lp3652
g57
(g66
g59
NtRp3653
(dp3654
g62
(dp3655
g70
I4
ssg71
Nsg64
(lp3656
g57
(g73
g59
NtRp3657
(dp3658
g62
(dp3659
sg71
g3653
sg64
(lp3660
g57
(g78
g59
NtRp3661
(dp3662
g62
(dp3663
g82
g83
ssg71
g3657
sg64
(lp3664
S'Cache-Control'
p3665
asbag57
(g78
g59
NtRp3666
(dp3667
g62
(dp3668
g89
g90
ssg71
g3657
sg64
(lp3669
S':'
asbag57
(g78
g59
NtRp3670
(dp3671
g62
(dp3672
sg71
g3657
sg64
(lp3673
g57
(g58
g59
NtRp3674
(dp3675
g62
(dp3676
g70
I4
ssg71
g3670
sg64
(lp3677
S'no-store, no-cache, must-revalidate, post-check=0, pre-check=0'
p3678
asbasbasbag57
(g73
g59
NtRp3679
(dp3680
g62
(dp3681
sg71
g3653
sg64
(lp3682
g57
(g78
g59
NtRp3683
(dp3684
g62
(dp3685
g82
g83
ssg71
g3679
sg64
(lp3686
S'Content-Type'
p3687
asbag57
(g78
g59
NtRp3688
(dp3689
g62
(dp3690
g89
g90
ssg71
g3679
sg64
(lp3691
S':'
asbag57
(g78
g59
NtRp3692
(dp3693
g62
(dp3694
sg71
g3679
sg64
(lp3695
g57
(g58
g59
NtRp3696
(dp3697
g62
(dp3698
g70
I4
ssg71
g3692
sg64
(lp3699
S'text/html; charset=utf-8'
p3700
asbasbasbag57
(g73
g59
NtRp3701
(dp3702
g62
(dp3703
sg71
g3653
sg64
(lp3704
g57
(g78
g59
NtRp3705
(dp3706
g62
(dp3707
g82
g83
ssg71
g3701
sg64
(lp3708
S'Expires'
p3709
asbag57
(g78
g59
NtRp3710
(dp3711
g62
(dp3712
g89
g90
ssg71
g3701
sg64
(lp3713
S':'
asbag57
(g78
g59
NtRp3714
(dp3715
g62
(dp3716
sg71
g3701
sg64
(lp3717
g57
(g58
g59
NtRp3718
(dp3719
g62
(dp3720
g70
I4
ssg71
g3714
sg64
(lp3721
S'Thu, 30 Aug 2012 20:26:24 GMT'
p3722
asbasbasbag57
(g73
g59
NtRp3723
(dp3724
g62
(dp3725
sg71
g3653
sg64
(lp3726
g57
(g78
g59
NtRp3727
(dp3728
g62
(dp3729
g82
g83
ssg71
g3723
sg64
(lp3730
S'Pragma'
p3731
asbag57
(g78
g59
NtRp3732
(dp3733
g62
(dp3734
g89
g90
ssg71
g3723
sg64
(lp3735
S':'
asbag57
(g78
g59
NtRp3736
(dp3737
g62
(dp3738
sg71
g3723
sg64
(lp3739
g57
(g58
g59
NtRp3740
(dp3741
g62
(dp3742
g70
I4
ssg71
g3736
sg64
(lp3743
S'no-cache'
p3744
asbasbasbag57
(g73
g59
NtRp3745
(dp3746
g62
(dp3747
sg71
g3653
sg64
(lp3748
g57
(g78
g59
NtRp3749
(dp3750
g62
(dp3751
g82
g83
ssg71
g3745
sg64
(lp3752
S'X-Powered-By'
p3753
asbag57
(g78
g59
NtRp3754
(dp3755
g62
(dp3756
g89
g90
ssg71
g3745
sg64
(lp3757
S':'
asbag57
(g78
g59
NtRp3758
(dp3759
g62
(dp3760
sg71
g3745
sg64
(lp3761
g57
(g58
g59
NtRp3762
(dp3763
g62
(dp3764
g70
I4
ssg71
g3758
sg64
(lp3765
S'web2py'
p3766
asbasbasbasbasbasbasbag57
(g73
g59
NtRp3767
(dp3768
g62
(dp3769
sg71
g3254
sg64
(lp3770
g57
(g78
g59
NtRp3771
(dp3772
g62
(dp3773
g82
g83
ssg71
g3767
sg64
(lp3774
S'menu'
p3775
asbag57
(g78
g59
NtRp3776
(dp3777
g62
(dp3778
g89
g90
ssg71
g3767
sg64
(lp3779
S':'
asbag57
(g78
g59
NtRp3780
(dp3781
g62
(dp3782
sg71
g3767
sg64
(lp3783
g57
(g58
g59
NtRp3784
(dp3785
g62
(dp3786
g70
I5
ssg71
g3780
sg64
(lp3787
g57
(g66
g59
NtRp3788
(dp3789
g62
(dp3790
g70
I4
ssg71
Nsg64
(lp3791
g57
(g73
g59
NtRp3792
(dp3793
g62
(dp3794
sg71
g3788
sg64
(lp3795
g57
(g78
g59
NtRp3796
(dp3797
g62
(dp3798
sg71
g3792
sg64
(lp3799
g57
(g58
g59
NtRp3800
(dp3801
g62
(dp3802
g70
I4
ssg71
g3796
sg64
(lp3803
g57
(g66
g59
NtRp3804
(dp3805
g62
(dp3806
g70
I3
ssg71
Nsg64
(lp3807
g57
(g73
g59
NtRp3808
(dp3809
g62
(dp3810
sg71
g3804
sg64
(lp3811
g57
(g78
g59
NtRp3812
(dp3813
g62
(dp3814
sg71
g3808
sg64
(lp3815
g57
(g58
g59
NtRp3816
(dp3817
g62
(dp3818
g70
I3
ssg71
g3812
sg64
(lp3819
cgluon.languages
lazyT_unpickle
p3820
(S's\x04\x00\x00\x00Home'
tRp3821
asbasbasbag57
(g73
g59
NtRp3822
(dp3823
g62
(dp3824
sg71
g3804
sg64
(lp3825
g57
(g78
g59
NtRp3826
(dp3827
g62
(dp3828
sg71
g3822
sg64
(lp3829
g57
(g58
g59
NtRp3830
(dp3831
g62
(dp3832
g70
I3
ssg71
g3826
sg64
(lp3833
g100
asbasbasbag57
(g73
g59
NtRp3834
(dp3835
g62
(dp3836
sg71
g3804
sg64
(lp3837
g57
(g78
g59
NtRp3838
(dp3839
g62
(dp3840
sg71
g3834
sg64
(lp3841
g57
(g58
g59
NtRp3842
(dp3843
g62
(dp3844
g70
I3
ssg71
g3838
sg64
(lp3845
S'/FotoBuk/default/index'
p3846
asbasbasbag57
(g73
g59
NtRp3847
(dp3848
g62
(dp3849
sg71
g3804
sg64
(lp3850
g57
(g78
g59
NtRp3851
(dp3852
g62
(dp3853
sg71
g3847
sg64
(lp3854
g57
(g58
g59
NtRp3855
(dp3856
g62
(dp3857
g70
I3
ssg71
g3851
sg64
(lp3858
g57
(g66
g59
NtRp3859
(dp3860
g62
(dp3861
g70
I2
ssg71
Nsg64
(lp3862
sbasbasbasbasbasbasbasbag57
(g73
g59
NtRp3863
(dp3864
g62
(dp3865
sg71
g3788
sg64
(lp3866
g57
(g78
g59
NtRp3867
(dp3868
g62
(dp3869
sg71
g3863
sg64
(lp3870
g57
(g58
g59
NtRp3871
(dp3872
g62
(dp3873
g70
I4
ssg71
g3867
sg64
(lp3874
g57
(g66
g59
NtRp3875
(dp3876
g62
(dp3877
g70
I3
ssg71
Nsg64
(lp3878
g57
(g73
g59
NtRp3879
(dp3880
g62
(dp3881
sg71
g3875
sg64
(lp3882
g57
(g78
g59
NtRp3883
(dp3884
g62
(dp3885
sg71
g3879
sg64
(lp3886
g57
(g58
g59
NtRp3887
(dp3888
g62
(dp3889
g70
I3
ssg71
g3883
sg64
(lp3890
g57
(cgluon.html
SPAN
p3891
g59
NtRp3892
(dp3893
g62
(dp3894
g82
S'color:yellow'
p3895
ssg71
Nsg64
(lp3896
g3766
asbasbasbasbag57
(g73
g59
NtRp3897
(dp3898
g62
(dp3899
sg71
g3875
sg64
(lp3900
g57
(g78
g59
NtRp3901
(dp3902
g62
(dp3903
sg71
g3897
sg64
(lp3904
g57
(g58
g59
NtRp3905
(dp3906
g62
(dp3907
g70
I3
ssg71
g3901
sg64
(lp3908
g100
asbasbasbag57
(g73
g59
NtRp3909
(dp3910
g62
(dp3911
sg71
g3875
sg64
(lp3912
g57
(g78
g59
NtRp3913
(dp3914
g62
(dp3915
sg71
g3909
sg64
(lp3916
g57
(g58
g59
NtRp3917
(dp3918
g62
(dp3919
g70
I3
ssg71
g3913
sg64
(lp3920
S'http://web2py.com'
p3921
asbasbasbag57
(g73
g59
NtRp3922
(dp3923
g62
(dp3924
sg71
g3875
sg64
(lp3925
g57
(g78
g59
NtRp3926
(dp3927
g62
(dp3928
sg71
g3922
sg64
(lp3929
g57
(g58
g59
NtRp3930
(dp3931
g62
(dp3932
g70
I3
ssg71
g3926
sg64
(lp3933
g57
(g66
g59
NtRp3934
(dp3935
g62
(dp3936
g70
I2
ssg71
Nsg64
(lp3937
g57
(g73
g59
NtRp3938
(dp3939
g62
(dp3940
sg71
g3934
sg64
(lp3941
g57
(g78
g59
NtRp3942
(dp3943
g62
(dp3944
sg71
g3938
sg64
(lp3945
g57
(g58
g59
NtRp3946
(dp3947
g62
(dp3948
g70
I2
ssg71
g3942
sg64
(lp3949
g57
(g66
g59
NtRp3950
(dp3951
g62
(dp3952
g70
I1
ssg71
Nsg64
(lp3953
g57
(g73
g59
NtRp3954
(dp3955
g62
(dp3956
sg71
g3950
sg64
(lp3957
g57
(g78
g59
NtRp3958
(dp3959
g62
(dp3960
sg71
g3954
sg64
(lp3961
g57
(g58
g59
NtRp3962
(dp3963
g62
(dp3964
g70
I1
ssg71
g3958
sg64
(lp3965
g3820
(S's\x08\x00\x00\x00My Sites'
tRp3966
asbasbasbag57
(g73
g59
NtRp3967
(dp3968
g62
(dp3969
sg71
g3950
sg64
(lp3970
g57
(g78
g59
NtRp3971
(dp3972
g62
(dp3973
sg71
g3967
sg64
(lp3974
g57
(g58
g59
NtRp3975
(dp3976
g62
(dp3977
g70
I1
ssg71
g3971
sg64
(lp3978
I00
asbasbasbag57
(g73
g59
NtRp3979
(dp3980
g62
(dp3981
sg71
g3950
sg64
(lp3982
g57
(g78
g59
NtRp3983
(dp3984
g62
(dp3985
sg71
g3979
sg64
(lp3986
g57
(g58
g59
NtRp3987
(dp3988
g62
(dp3989
g70
I1
ssg71
g3983
sg64
(lp3990
S'/admin/default/site'
p3991
asbasbasbasbasbasbasbag57
(g73
g59
NtRp3992
(dp3993
g62
(dp3994
sg71
g3934
sg64
(lp3995
g57
(g78
g59
NtRp3996
(dp3997
g62
(dp3998
sg71
g3992
sg64
(lp3999
g57
(g58
g59
NtRp4000
(dp4001
g62
(dp4002
g70
I2
ssg71
g3996
sg64
(lp4003
g57
(g66
g59
NtRp4004
(dp4005
g62
(dp4006
g70
I1
ssg71
Nsg64
(lp4007
g57
(g73
g59
NtRp4008
(dp4009
g62
(dp4010
sg71
g4004
sg64
(lp4011
g57
(g78
g59
NtRp4012
(dp4013
g62
(dp4014
sg71
g4008
sg64
(lp4015
g57
(g58
g59
NtRp4016
(dp4017
g62
(dp4018
g70
I1
ssg71
g4012
sg64
(lp4019
g3820
(S's\x08\x00\x00\x00This App'
tRp4020
asbasbasbag57
(g73
g59
NtRp4021
(dp4022
g62
(dp4023
sg71
g4004
sg64
(lp4024
g57
(g78
g59
NtRp4025
(dp4026
g62
(dp4027
sg71
g4021
sg64
(lp4028
g57
(g58
g59
NtRp4029
(dp4030
g62
(dp4031
g70
I1
ssg71
g4025
sg64
(lp4032
I00
asbasbasbag57
(g73
g59
NtRp4033
(dp4034
g62
(dp4035
sg71
g4004
sg64
(lp4036
g57
(g78
g59
NtRp4037
(dp4038
g62
(dp4039
sg71
g4033
sg64
(lp4040
g57
(g58
g59
NtRp4041
(dp4042
g62
(dp4043
g70
I1
ssg71
g4037
sg64
(lp4044
S'/admin/default/design/FotoBuk'
p4045
asbasbasbag57
(g73
g59
NtRp4046
(dp4047
g62
(dp4048
sg71
g4004
sg64
(lp4049
g57
(g78
g59
NtRp4050
(dp4051
g62
(dp4052
sg71
g4046
sg64
(lp4053
g57
(g58
g59
NtRp4054
(dp4055
g62
(dp4056
g70
I1
ssg71
g4050
sg64
(lp4057
(lp4058
(g3820
(S's\n\x00\x00\x00Controller'
tRp4059
I00
S'/admin/default/edit/FotoBuk/controllers/default.py'
tp4060
a(g3820
(S's\x04\x00\x00\x00View'
tRp4061
I00
S'/admin/default/edit/FotoBuk/views/default/index.html'
tp4062
a(g3820
(S's\x06\x00\x00\x00Layout'
tRp4063
I00
S'/admin/default/edit/FotoBuk/views/layout.html'
tp4064
a(g3820
(S's\n\x00\x00\x00Stylesheet'
tRp4065
I00
S'/admin/default/edit/FotoBuk/static/css/web2py.css'
tp4066
a(g3820
(S's\x08\x00\x00\x00DB Model'
tRp4067
I00
S'/admin/default/edit/FotoBuk/models/db.py'
tp4068
a(g3820
(S's\n\x00\x00\x00Menu Model'
tRp4069
I00
S'/admin/default/edit/FotoBuk/models/menu.py'
tp4070
a(g3820
(S's\x08\x00\x00\x00Database'
tRp4071
I00
S'/FotoBuk/appadmin/index'
tp4072
a(g3820
(S's\x06\x00\x00\x00Errors'
tRp4073
I00
S'/admin/default/errors/FotoBuk'
tp4074
a(g3820
(S's\x05\x00\x00\x00About'
tRp4075
I00
S'/admin/default/about/FotoBuk'
tp4076
aasbasbasbasbasbasbasbag57
(g73
g59
NtRp4077
(dp4078
g62
(dp4079
sg71
g3934
sg64
(lp4080
g57
(g78
g59
NtRp4081
(dp4082
g62
(dp4083
sg71
g4077
sg64
(lp4084
g57
(g58
g59
NtRp4085
(dp4086
g62
(dp4087
g70
I2
ssg71
g4081
sg64
(lp4088
g57
(g66
g59
NtRp4089
(dp4090
g62
(dp4091
g70
I1
ssg71
Nsg64
(lp4092
g57
(g73
g59
NtRp4093
(dp4094
g62
(dp4095
sg71
g4089
sg64
(lp4096
g57
(g78
g59
NtRp4097
(dp4098
g62
(dp4099
sg71
g4093
sg64
(lp4100
g57
(g58
g59
NtRp4101
(dp4102
g62
(dp4103
g70
I1
ssg71
g4097
sg64
(lp4104
S'web2py.com'
p4105
asbasbasbag57
(g73
g59
NtRp4106
(dp4107
g62
(dp4108
sg71
g4089
sg64
(lp4109
g57
(g78
g59
NtRp4110
(dp4111
g62
(dp4112
sg71
g4106
sg64
(lp4113
g57
(g58
g59
NtRp4114
(dp4115
g62
(dp4116
g70
I1
ssg71
g4110
sg64
(lp4117
I00
asbasbasbag57
(g73
g59
NtRp4118
(dp4119
g62
(dp4120
sg71
g4089
sg64
(lp4121
g57
(g78
g59
NtRp4122
(dp4123
g62
(dp4124
sg71
g4118
sg64
(lp4125
g57
(g58
g59
NtRp4126
(dp4127
g62
(dp4128
g70
I1
ssg71
g4122
sg64
(lp4129
S'http://www.web2py.com'
p4130
asbasbasbag57
(g73
g59
NtRp4131
(dp4132
g62
(dp4133
sg71
g4089
sg64
(lp4134
g57
(g78
g59
NtRp4135
(dp4136
g62
(dp4137
sg71
g4131
sg64
(lp4138
g57
(g58
g59
NtRp4139
(dp4140
g62
(dp4141
g70
I1
ssg71
g4135
sg64
(lp4142
(lp4143
(g3820
(S's\x08\x00\x00\x00Download'
tRp4144
I00
S'http://www.web2py.com/examples/default/download'
p4145
tp4146
a(g3820
(S's\x07\x00\x00\x00Support'
tRp4147
I00
S'http://www.web2py.com/examples/default/support'
p4148
tp4149
a(g3820
(S's\x04\x00\x00\x00Demo'
tRp4150
I00
S'http://web2py.com/demo_admin'
p4151
tp4152
a(g3820
(S's\x0e\x00\x00\x00Quick Examples'
tRp4153
I00
S'http://web2py.com/examples/default/examples'
p4154
tp4155
a(g3820
(S's\x03\x00\x00\x00FAQ'
tRp4156
I00
S'http://web2py.com/AlterEgo'
p4157
tp4158
a(g3820
(S's\x06\x00\x00\x00Videos'
tRp4159
I00
S'http://www.web2py.com/examples/default/videos/'
p4160
tp4161
a(g3820
(S's\x11\x00\x00\x00Free Applications'
tRp4162
I00
S'http://web2py.com/appliances'
p4163
tp4164
a(g3820
(S's\x07\x00\x00\x00Plugins'
tRp4165
I00
S'http://web2py.com/plugins'
p4166
tp4167
a(g3820
(S's\x07\x00\x00\x00Layouts'
tRp4168
I00
S'http://web2py.com/layouts'
p4169
tp4170
a(g3820
(S's\x07\x00\x00\x00Recipes'
tRp4171
I00
S'http://web2pyslices.com/'
p4172
tp4173
a(g3820
(S's\x08\x00\x00\x00Semantic'
tRp4174
I00
S'http://web2py.com/semantic'
p4175
tp4176
aasbasbasbasbasbasbasbag57
(g73
g59
NtRp4177
(dp4178
g62
(dp4179
sg71
g3934
sg64
(lp4180
g57
(g78
g59
NtRp4181
(dp4182
g62
(dp4183
sg71
g4177
sg64
(lp4184
g57
(g58
g59
NtRp4185
(dp4186
g62
(dp4187
g70
I2
ssg71
g4181
sg64
(lp4188
g57
(g66
g59
NtRp4189
(dp4190
g62
(dp4191
g70
I1
ssg71
Nsg64
(lp4192
g57
(g73
g59
NtRp4193
(dp4194
g62
(dp4195
sg71
g4189
sg64
(lp4196
g57
(g78
g59
NtRp4197
(dp4198
g62
(dp4199
sg71
g4193
sg64
(lp4200
g57
(g58
g59
NtRp4201
(dp4202
g62
(dp4203
g70
I1
ssg71
g4197
sg64
(lp4204
g3820
(S's\r\x00\x00\x00Documentation'
tRp4205
asbasbasbag57
(g73
g59
NtRp4206
(dp4207
g62
(dp4208
sg71
g4189
sg64
(lp4209
g57
(g78
g59
NtRp4210
(dp4211
g62
(dp4212
sg71
g4206
sg64
(lp4213
g57
(g58
g59
NtRp4214
(dp4215
g62
(dp4216
g70
I1
ssg71
g4210
sg64
(lp4217
I00
asbasbasbag57
(g73
g59
NtRp4218
(dp4219
g62
(dp4220
sg71
g4189
sg64
(lp4221
g57
(g78
g59
NtRp4222
(dp4223
g62
(dp4224
sg71
g4218
sg64
(lp4225
g57
(g58
g59
NtRp4226
(dp4227
g62
(dp4228
g70
I1
ssg71
g4222
sg64
(lp4229
S'http://www.web2py.com/book'
p4230
asbasbasbag57
(g73
g59
NtRp4231
(dp4232
g62
(dp4233
sg71
g4189
sg64
(lp4234
g57
(g78
g59
NtRp4235
(dp4236
g62
(dp4237
sg71
g4231
sg64
(lp4238
g57
(g58
g59
NtRp4239
(dp4240
g62
(dp4241
g70
I1
ssg71
g4235
sg64
(lp4242
(lp4243
(g3820
(S's\x07\x00\x00\x00Preface'
tRp4244
I00
S'http://www.web2py.com/book/default/chapter/00'
p4245
tp4246
a(g3820
(S's\x0c\x00\x00\x00Introduction'
tRp4247
I00
S'http://www.web2py.com/book/default/chapter/01'
p4248
tp4249
a(g3820
(S's\x06\x00\x00\x00Python'
tRp4250
I00
S'http://www.web2py.com/book/default/chapter/02'
p4251
tp4252
a(g3820
(S's\x08\x00\x00\x00Overview'
tRp4253
I00
S'http://www.web2py.com/book/default/chapter/03'
p4254
tp4255
a(g3820
(S's\x08\x00\x00\x00The Core'
tRp4256
I00
S'http://www.web2py.com/book/default/chapter/04'
p4257
tp4258
a(g3820
(S's\t\x00\x00\x00The Views'
tRp4259
I00
S'http://www.web2py.com/book/default/chapter/05'
p4260
tp4261
a(g3820
(S's\x08\x00\x00\x00Database'
tRp4262
I00
S'http://www.web2py.com/book/default/chapter/06'
p4263
tp4264
a(g3820
(S's\x14\x00\x00\x00Forms and Validators'
tRp4265
I00
S'http://www.web2py.com/book/default/chapter/07'
p4266
tp4267
a(g3820
(S's\r\x00\x00\x00Email and SMS'
tRp4268
I00
S'http://www.web2py.com/book/default/chapter/08'
p4269
tp4270
a(g3820
(S's\x0e\x00\x00\x00Access Control'
tRp4271
I00
S'http://www.web2py.com/book/default/chapter/09'
p4272
tp4273
a(g3820
(S's\x08\x00\x00\x00Services'
tRp4274
I00
S'http://www.web2py.com/book/default/chapter/10'
p4275
tp4276
a(g3820
(S's\x0c\x00\x00\x00Ajax Recipes'
tRp4277
I00
S'http://www.web2py.com/book/default/chapter/11'
p4278
tp4279
a(g3820
(S's\x16\x00\x00\x00Components and Plugins'
tRp4280
I00
S'http://www.web2py.com/book/default/chapter/12'
p4281
tp4282
a(g3820
(S's\x12\x00\x00\x00Deployment Recipes'
tRp4283
I00
S'http://www.web2py.com/book/default/chapter/13'
p4284
tp4285
a(g3820
(S's\r\x00\x00\x00Other Recipes'
tRp4286
I00
S'http://www.web2py.com/book/default/chapter/14'
p4287
tp4288
a(g3820
(S's\r\x00\x00\x00Buy this book'
tRp4289
I00
S'http://stores.lulu.com/web2py'
p4290
tp4291
aasbasbasbasbasbasbasbag57
(g73
g59
NtRp4292
(dp4293
g62
(dp4294
sg71
g3934
sg64
(lp4295
g57
(g78
g59
NtRp4296
(dp4297
g62
(dp4298
sg71
g4292
sg64
(lp4299
g57
(g58
g59
NtRp4300
(dp4301
g62
(dp4302
g70
I2
ssg71
g4296
sg64
(lp4303
g57
(g66
g59
NtRp4304
(dp4305
g62
(dp4306
g70
I1
ssg71
Nsg64
(lp4307
g57
(g73
g59
NtRp4308
(dp4309
g62
(dp4310
sg71
g4304
sg64
(lp4311
g57
(g78
g59
NtRp4312
(dp4313
g62
(dp4314
sg71
g4308
sg64
(lp4315
g57
(g58
g59
NtRp4316
(dp4317
g62
(dp4318
g70
I1
ssg71
g4312
sg64
(lp4319
g3820
(S's\t\x00\x00\x00Community'
tRp4320
asbasbasbag57
(g73
g59
NtRp4321
(dp4322
g62
(dp4323
sg71
g4304
sg64
(lp4324
g57
(g78
g59
NtRp4325
(dp4326
g62
(dp4327
sg71
g4321
sg64
(lp4328
g57
(g58
g59
NtRp4329
(dp4330
g62
(dp4331
g70
I1
ssg71
g4325
sg64
(lp4332
I00
asbasbasbag57
(g73
g59
NtRp4333
(dp4334
g62
(dp4335
sg71
g4304
sg64
(lp4336
g57
(g78
g59
NtRp4337
(dp4338
g62
(dp4339
sg71
g4333
sg64
(lp4340
g57
(g58
g59
NtRp4341
(dp4342
g62
(dp4343
g70
I1
ssg71
g4337
sg64
(lp4344
Nasbasbasbag57
(g73
g59
NtRp4345
(dp4346
g62
(dp4347
sg71
g4304
sg64
(lp4348
g57
(g78
g59
NtRp4349
(dp4350
g62
(dp4351
sg71
g4345
sg64
(lp4352
g57
(g58
g59
NtRp4353
(dp4354
g62
(dp4355
g70
I1
ssg71
g4349
sg64
(lp4356
(lp4357
(g3820
(S's\x06\x00\x00\x00Groups'
tRp4358
I00
S'http://www.web2py.com/examples/default/usergroups'
p4359
tp4360
a(g3820
(S's\x07\x00\x00\x00Twitter'
tRp4361
I00
S'http://twitter.com/web2py'
p4362
tp4363
a(g3820
(S's\t\x00\x00\x00Live Chat'
tRp4364
I00
S'http://webchat.freenode.net/?channels=web2py'
p4365
tp4366
aasbasbasbasbasbasbasbag57
(g73
g59
NtRp4367
(dp4368
g62
(dp4369
sg71
g3934
sg64
(lp4370
g57
(g78
g59
NtRp4371
(dp4372
g62
(dp4373
sg71
g4367
sg64
(lp4374
g57
(g58
g59
NtRp4375
(dp4376
g62
(dp4377
g70
I2
ssg71
g4371
sg64
(lp4378
g57
(g66
g59
NtRp4379
(dp4380
g62
(dp4381
g70
I1
ssg71
Nsg64
(lp4382
g57
(g73
g59
NtRp4383
(dp4384
g62
(dp4385
sg71
g4379
sg64
(lp4386
g57
(g78
g59
NtRp4387
(dp4388
g62
(dp4389
sg71
g4383
sg64
(lp4390
g57
(g58
g59
NtRp4391
(dp4392
g62
(dp4393
g70
I1
ssg71
g4387
sg64
(lp4394
g3820
(S's\x07\x00\x00\x00Plugins'
tRp4395
asbasbasbag57
(g73
g59
NtRp4396
(dp4397
g62
(dp4398
sg71
g4379
sg64
(lp4399
g57
(g78
g59
NtRp4400
(dp4401
g62
(dp4402
sg71
g4396
sg64
(lp4403
g57
(g58
g59
NtRp4404
(dp4405
g62
(dp4406
g70
I1
ssg71
g4400
sg64
(lp4407
I00
asbasbasbag57
(g73
g59
NtRp4408
(dp4409
g62
(dp4410
sg71
g4379
sg64
(lp4411
g57
(g78
g59
NtRp4412
(dp4413
g62
(dp4414
sg71
g4408
sg64
(lp4415
g57
(g58
g59
NtRp4416
(dp4417
g62
(dp4418
g70
I1
ssg71
g4412
sg64
(lp4419
Nasbasbasbag57
(g73
g59
NtRp4420
(dp4421
g62
(dp4422
sg71
g4379
sg64
(lp4423
g57
(g78
g59
NtRp4424
(dp4425
g62
(dp4426
sg71
g4420
sg64
(lp4427
g57
(g58
g59
NtRp4428
(dp4429
g62
(dp4430
g70
I1
ssg71
g4424
sg64
(lp4431
(lp4432
(S'plugin_wiki'
p4433
I00
S'http://web2py.com/examples/default/download'
p4434
tp4435
a(g3820
(S's\r\x00\x00\x00Other Plugins'
tRp4436
I00
g4166
tp4437
a(g3820
(S's\x0e\x00\x00\x00Layout Plugins'
tRp4438
I00
g4169
tp4439
aasbasbasbasbasbasbasbasbasbasbasbasbasbasbasbasbasbasbasbag57
(g73
g59
NtRp4440
(dp4441
g62
(dp4442
sg71
g3254
sg64
(lp4443
g57
(g78
g59
NtRp4444
(dp4445
g62
(dp4446
g82
g83
ssg71
g4440
sg64
(lp4447
S'meta'
p4448
asbag57
(g78
g59
NtRp4449
(dp4450
g62
(dp4451
g89
g90
ssg71
g4440
sg64
(lp4452
S':'
asbag57
(g78
g59
NtRp4453
(dp4454
g62
(dp4455
sg71
g4440
sg64
(lp4456
g57
(g58
g59
NtRp4457
(dp4458
g62
(dp4459
g70
I5
ssg71
g4453
sg64
(lp4460
g57
(g66
g59
NtRp4461
(dp4462
g62
(dp4463
g70
I4
ssg71
Nsg64
(lp4464
g57
(g73
g59
NtRp4465
(dp4466
g62
(dp4467
sg71
g4461
sg64
(lp4468
g57
(g78
g59
NtRp4469
(dp4470
g62
(dp4471
g82
g83
ssg71
g4465
sg64
(lp4472
S'author'
p4473
asbag57
(g78
g59
NtRp4474
(dp4475
g62
(dp4476
g89
g90
ssg71
g4465
sg64
(lp4477
S':'
asbag57
(g78
g59
NtRp4478
(dp4479
g62
(dp4480
sg71
g4465
sg64
(lp4481
g57
(g58
g59
NtRp4482
(dp4483
g62
(dp4484
g70
I4
ssg71
g4478
sg64
(lp4485
S'Your Name <you@example.com>'
p4486
asbasbasbag57
(g73
g59
NtRp4487
(dp4488
g62
(dp4489
sg71
g4461
sg64
(lp4490
g57
(g78
g59
NtRp4491
(dp4492
g62
(dp4493
g82
g83
ssg71
g4487
sg64
(lp4494
S'description'
p4495
asbag57
(g78
g59
NtRp4496
(dp4497
g62
(dp4498
g89
g90
ssg71
g4487
sg64
(lp4499
S':'
asbag57
(g78
g59
NtRp4500
(dp4501
g62
(dp4502
sg71
g4487
sg64
(lp4503
g57
(g58
g59
NtRp4504
(dp4505
g62
(dp4506
g70
I4
ssg71
g4500
sg64
(lp4507
S'a cool new app'
p4508
asbasbasbag57
(g73
g59
NtRp4509
(dp4510
g62
(dp4511
sg71
g4461
sg64
(lp4512
g57
(g78
g59
NtRp4513
(dp4514
g62
(dp4515
g82
g83
ssg71
g4509
sg64
(lp4516
S'generator'
p4517
asbag57
(g78
g59
NtRp4518
(dp4519
g62
(dp4520
g89
g90
ssg71
g4509
sg64
(lp4521
S':'
asbag57
(g78
g59
NtRp4522
(dp4523
g62
(dp4524
sg71
g4509
sg64
(lp4525
g57
(g58
g59
NtRp4526
(dp4527
g62
(dp4528
g70
I4
ssg71
g4522
sg64
(lp4529
S'Web2py Web Framework'
p4530
asbasbasbag57
(g73
g59
NtRp4531
(dp4532
g62
(dp4533
sg71
g4461
sg64
(lp4534
g57
(g78
g59
NtRp4535
(dp4536
g62
(dp4537
g82
g83
ssg71
g4531
sg64
(lp4538
S'keywords'
p4539
asbag57
(g78
g59
NtRp4540
(dp4541
g62
(dp4542
g89
g90
ssg71
g4531
sg64
(lp4543
S':'
asbag57
(g78
g59
NtRp4544
(dp4545
g62
(dp4546
sg71
g4531
sg64
(lp4547
g57
(g58
g59
NtRp4548
(dp4549
g62
(dp4550
g70
I4
ssg71
g4544
sg64
(lp4551
S'web2py, python, framework'
p4552
asbasbasbasbasbasbasbag57
(g73
g59
NtRp4553
(dp4554
g62
(dp4555
sg71
g3254
sg64
(lp4556
g57
(g78
g59
NtRp4557
(dp4558
g62
(dp4559
g82
g83
ssg71
g4553
sg64
(lp4560
S'postprocessing'
p4561
asbag57
(g78
g59
NtRp4562
(dp4563
g62
(dp4564
g89
g90
ssg71
g4553
sg64
(lp4565
S':'
asbag57
(g78
g59
NtRp4566
(dp4567
g62
(dp4568
sg71
g4553
sg64
(lp4569
g57
(g58
g59
NtRp4570
(dp4571
g62
(dp4572
g70
I5
ssg71
g4566
sg64
(lp4573
g57
(g66
g59
NtRp4574
(dp4575
g62
(dp4576
g70
I4
ssg71
Nsg64
(lp4577
sbasbasbasbag57
(g73
g59
NtRp4578
(dp4579
g62
(dp4580
sg71
g3254
sg64
(lp4581
g57
(g78
g59
NtRp4582
(dp4583
g62
(dp4584
g82
g83
ssg71
g4578
sg64
(lp4585
S'session_file'
p4586
asbag57
(g78
g59
NtRp4587
(dp4588
g62
(dp4589
g89
g90
ssg71
g4578
sg64
(lp4590
S':'
asbag57
(g78
g59
NtRp4591
(dp4592
g62
(dp4593
sg71
g4578
sg64
(lp4594
g57
(g58
g59
NtRp4595
(dp4596
g62
(dp4597
g70
I5
ssg71
g4591
sg64
(lp4598
S"<open file '/home/piyush/web2py/applications/FotoBuk/sessions/127.0.0.1-961e4bc4-dc07-4e6c-b9f7-52a46e56ffd5', mode 'rb+' at 0xae321128>"
p4599
asbasbasbag57
(g73
g59
NtRp4600
(dp4601
g62
(dp4602
sg71
g3254
sg64
(lp4603
g57
(g78
g59
NtRp4604
(dp4605
g62
(dp4606
g82
g83
ssg71
g4600
sg64
(lp4607
S'session_filename'
p4608
asbag57
(g78
g59
NtRp4609
(dp4610
g62
(dp4611
g89
g90
ssg71
g4600
sg64
(lp4612
S':'
asbag57
(g78
g59
NtRp4613
(dp4614
g62
(dp4615
sg71
g4600
sg64
(lp4616
g57
(g58
g59
NtRp4617
(dp4618
g62
(dp4619
g70
I5
ssg71
g4613
sg64
(lp4620
S'/home/piyush/web2py/applications/FotoBuk/sessions/127.0.0.1-961e4bc4-dc07-4e6c-b9f7-52a46e56ffd5'
p4621
asbasbasbag57
(g73
g59
NtRp4622
(dp4623
g62
(dp4624
sg71
g3254
sg64
(lp4625
g57
(g78
g59
NtRp4626
(dp4627
g62
(dp4628
g82
g83
ssg71
g4622
sg64
(lp4629
S'session_id'
p4630
asbag57
(g78
g59
NtRp4631
(dp4632
g62
(dp4633
g89
g90
ssg71
g4622
sg64
(lp4634
S':'
asbag57
(g78
g59
NtRp4635
(dp4636
g62
(dp4637
sg71
g4622
sg64
(lp4638
g57
(g58
g59
NtRp4639
(dp4640
g62
(dp4641
g70
I5
ssg71
g4635
sg64
(lp4642
g475
asbasbasbag57
(g73
g59
NtRp4643
(dp4644
g62
(dp4645
sg71
g3254
sg64
(lp4646
g57
(g78
g59
NtRp4647
(dp4648
g62
(dp4649
g82
g83
ssg71
g4643
sg64
(lp4650
S'session_id_name'
p4651
asbag57
(g78
g59
NtRp4652
(dp4653
g62
(dp4654
g89
g90
ssg71
g4643
sg64
(lp4655
S':'
asbag57
(g78
g59
NtRp4656
(dp4657
g62
(dp4658
sg71
g4643
sg64
(lp4659
g57
(g58
g59
NtRp4660
(dp4661
g62
(dp4662
g70
I5
ssg71
g4656
sg64
(lp4663
g3311
asbasbasbag57
(g73
g59
NtRp4664
(dp4665
g62
(dp4666
sg71
g3254
sg64
(lp4667
g57
(g78
g59
NtRp4668
(dp4669
g62
(dp4670
g82
g83
ssg71
g4664
sg64
(lp4671
S'session_locked'
p4672
asbag57
(g78
g59
NtRp4673
(dp4674
g62
(dp4675
g89
g90
ssg71
g4664
sg64
(lp4676
S':'
asbag57
(g78
g59
NtRp4677
(dp4678
g62
(dp4679
sg71
g4664
sg64
(lp4680
g57
(g58
g59
NtRp4681
(dp4682
g62
(dp4683
g70
I5
ssg71
g4677
sg64
(lp4684
g1844
asbasbasbag57
(g73
g59
NtRp4685
(dp4686
g62
(dp4687
sg71
g3254
sg64
(lp4688
g57
(g78
g59
NtRp4689
(dp4690
g62
(dp4691
g82
g83
ssg71
g4685
sg64
(lp4692
S'session_new'
p4693
asbag57
(g78
g59
NtRp4694
(dp4695
g62
(dp4696
g89
g90
ssg71
g4685
sg64
(lp4697
S':'
asbag57
(g78
g59
NtRp4698
(dp4699
g62
(dp4700
sg71
g4685
sg64
(lp4701
g57
(g58
g59
NtRp4702
(dp4703
g62
(dp4704
g70
I5
ssg71
g4698
sg64
(lp4705
g100
asbasbasbag57
(g73
g59
NtRp4706
(dp4707
g62
(dp4708
sg71
g3254
sg64
(lp4709
g57
(g78
g59
NtRp4710
(dp4711
g62
(dp4712
g82
g83
ssg71
g4706
sg64
(lp4713
S'status'
p4714
asbag57
(g78
g59
NtRp4715
(dp4716
g62
(dp4717
g89
g90
ssg71
g4706
sg64
(lp4718
S':'
asbag57
(g78
g59
NtRp4719
(dp4720
g62
(dp4721
sg71
g4706
sg64
(lp4722
g57
(g58
g59
NtRp4723
(dp4724
g62
(dp4725
g70
I5
ssg71
g4719
sg64
(lp4726
S'200'
p4727
asbasbasbag57
(g73
g59
NtRp4728
(dp4729
g62
(dp4730
sg71
g3254
sg64
(lp4731
g57
(g78
g59
NtRp4732
(dp4733
g62
(dp4734
g82
g83
ssg71
g4728
sg64
(lp4735
S'subtitle'
p4736
asbag57
(g78
g59
NtRp4737
(dp4738
g62
(dp4739
g89
g90
ssg71
g4728
sg64
(lp4740
S':'
asbag57
(g78
g59
NtRp4741
(dp4742
g62
(dp4743
sg71
g4728
sg64
(lp4744
g57
(g58
g59
NtRp4745
(dp4746
g62
(dp4747
g70
I5
ssg71
g4741
sg64
(lp4748
g3820
(S's\r\x00\x00\x00customize me!'
tRp4749
asbasbasbag57
(g73
g59
NtRp4750
(dp4751
g62
(dp4752
sg71
g3254
sg64
(lp4753
g57
(g78
g59
NtRp4754
(dp4755
g62
(dp4756
g82
g83
ssg71
g4750
sg64
(lp4757
S'title'
p4758
asbag57
(g78
g59
NtRp4759
(dp4760
g62
(dp4761
g89
g90
ssg71
g4750
sg64
(lp4762
S':'
asbag57
(g78
g59
NtRp4763
(dp4764
g62
(dp4765
sg71
g4750
sg64
(lp4766
g57
(g58
g59
NtRp4767
(dp4768
g62
(dp4769
g70
I5
ssg71
g4763
sg64
(lp4770
S'Fotobuk'
p4771
asbasbasbag57
(g73
g59
NtRp4772
(dp4773
g62
(dp4774
sg71
g3254
sg64
(lp4775
g57
(g78
g59
NtRp4776
(dp4777
g62
(dp4778
g82
g83
ssg71
g4772
sg64
(lp4779
S'view'
p4780
asbag57
(g78
g59
NtRp4781
(dp4782
g62
(dp4783
g89
g90
ssg71
g4772
sg64
(lp4784
S':'
asbag57
(g78
g59
NtRp4785
(dp4786
g62
(dp4787
sg71
g4772
sg64
(lp4788
g57
(g58
g59
NtRp4789
(dp4790
g62
(dp4791
g70
I5
ssg71
g4785
sg64
(lp4792
S'default/index.html'
p4793
asbasbasbasbasbsS'locals'
p4794
(dp4795
S'OBJECT'
p4796
S"<class 'gluon.html.OBJECT'>"
p4797
sS'SQLDB'
p4798
S"<class 'gluon.dal.DAL'>"
p4799
sg3214
S"<Storage {'_Session__hash': '\\xda\\xef\\xd65\\xc6\\x...owser': {'version': '11.0', 'name': 'Firefox'}}}>"
p4800
sS'LINK'
p4801
S"<class 'gluon.html.LINK'>"
p4802
sS'BR'
p4803
S"<class 'gluon.html.BR'>"
p4804
sS'local_import'
p4805
S'<function <lambda>>'
p4806
sS'OPTGROUP'
p4807
S"<class 'gluon.html.OPTGROUP'>"
p4808
sS'PRE'
p4809
S"<class 'gluon.html.PRE'>"
p4810
sS'IS_INT_IN_RANGE'
p4811
S"<class 'gluon.validators.IS_INT_IN_RANGE'>"
p4812
sS'IS_LOWER'
p4813
S"<class 'gluon.validators.IS_LOWER'>"
p4814
sS'IS_STRONG'
p4815
S"<class 'gluon.validators.IS_STRONG'>"
p4816
sS'cache'
p4817
S'<gluon.cache.Cache object>'
p4818
sS'IS_IN_DB'
p4819
S"<class 'gluon.validators.IS_IN_DB'>"
p4820
sS'TAG'
p4821
S'<gluon.html.__TAG__ object>'
p4822
sS'SQLField'
p4823
S"<class 'gluon.dal.Field'>"
p4824
sS'BODY'
p4825
S"<class 'gluon.html.BODY'>"
p4826
sS'IS_DATE_IN_RANGE'
p4827
S"<class 'gluon.validators.IS_DATE_IN_RANGE'>"
p4828
sS'IFRAME'
p4829
S"<class 'gluon.html.IFRAME'>"
p4830
sS'URL'
p4831
S'<function URL>'
p4832
sS'__file__'
p4833
S"'/home/piyush/web2py/applications/FotoBuk/controllers/default.py'"
p4834
sS'db'
p4835
S'<DAL sqlite://storage.sqlite>'
p4836
sS'P'
S"<class 'gluon.html.P'>"
p4837
sS'TFOOT'
p4838
S"<class 'gluon.html.TFOOT'>"
p4839
sS'XHTML'
p4840
S"<class 'gluon.html.XHTML'>"
p4841
sS'ON'
p4842
g1844
sS'OL'
p4843
S"<class 'gluon.html.OL'>"
p4844
sS'TEXTAREA'
p4845
S"<class 'gluon.html.TEXTAREA'>"
p4846
sS'MENU'
p4847
S"<class 'gluon.html.MENU'>"
p4848
sS'EM'
p4849
S"<class 'gluon.html.EM'>"
p4850
sS'CODE'
p4851
S"<class 'gluon.html.CODE'>"
p4852
sS'HTTP'
p4853
S"<class 'gluon.http.HTTP'>"
p4854
sS'HR'
p4855
S"<class 'gluon.html.HR'>"
p4856
sS'IS_DATETIME'
p4857
S"<class 'gluon.validators.IS_DATETIME'>"
p4858
sS'STYLE'
p4859
S"<class 'gluon.html.STYLE'>"
p4860
sS'LABEL'
p4861
S"<class 'gluon.html.LABEL'>"
p4862
sS'CLEANUP'
p4863
S"<class 'gluon.validators.CLEANUP'>"
p4864
sS'download'
p4865
S'<function download>'
p4866
sS'SELECT'
p4867
S"<class 'gluon.html.SELECT'>"
p4868
sS'index'
p4869
S'<function index>'
p4870
sS'CENTER'
p4871
S"<class 'gluon.html.CENTER'>"
p4872
sS'__builtins__'
p4873
S"{'ArithmeticError': <type 'exceptions.ArithmeticError'>, 'AssertionError': <type 'exceptions.AssertionError'>, 'AttributeError': <type 'exceptions.AttributeError'>, 'BaseException': <type 'exceptions.BaseException'>, 'BufferError': <type 'exceptions.BufferError'>, 'BytesWarning': <type 'exceptions.BytesWarning'>, 'DeprecationWarning': <type 'exceptions.DeprecationWarning'>, 'EOFError': <type 'exceptions.EOFError'>, 'Ellipsis': Ellipsis, 'EnvironmentError': <type 'exceptions.EnvironmentError'>, ...}"
p4874
sS'HTML'
p4875
S"<class 'gluon.html.HTML'>"
p4876
sS'SQLFORM'
p4877
S"<class 'gluon.sqlhtml.SQLFORM'>"
p4878
sS'LOAD'
p4879
S'<function LOAD>'
p4880
sS'redirect'
p4881
S'<function redirect>'
p4882
sS'FIELDSET'
p4883
S"<class 'gluon.html.FIELDSET'>"
p4884
sS'IS_EQUAL_TO'
p4885
S"<class 'gluon.validators.IS_EQUAL_TO'>"
p4886
sS'embed64'
p4887
S'<function embed64>'
p4888
sS'IS_LIST_OF'
p4889
S"<class 'gluon.validators.IS_LIST_OF'>"
p4890
sS'INPUT'
p4891
S"<class 'gluon.html.INPUT'>"
p4892
sS'EMBED'
p4893
S"<class 'gluon.html.EMBED'>"
p4894
sS'_'
S'<function _>'
p4895
sS'FORM'
p4896
S"<class 'gluon.html.FORM'>"
p4897
sS'H2'
p4898
S"<class 'gluon.html.H2'>"
p4899
sS'H3'
p4900
S"<class 'gluon.html.H3'>"
p4901
sS'BUTTON'
p4902
S"<class 'gluon.html.BUTTON'>"
p4903
sS'H1'
p4904
S"<class 'gluon.html.H1'>"
p4905
sS'H6'
p4906
S"<class 'gluon.html.H6'>"
p4907
sS'H4'
p4908
S"<class 'gluon.html.H4'>"
p4909
sS'H5'
p4910
S"<class 'gluon.html.H5'>"
p4911
sS'UL'
p4912
S"<class 'gluon.html.UL'>"
p4913
sS'IS_UPPER'
p4914
S"<class 'gluon.validators.IS_UPPER'>"
p4915
sS'xmlescape'
p4916
S'<function xmlescape>'
p4917
sS'IS_TIME'
p4918
S"<class 'gluon.validators.IS_TIME'>"
p4919
sS'OPTION'
p4920
S"<class 'gluon.html.OPTION'>"
p4921
sS'TITLE'
p4922
S"<class 'gluon.html.TITLE'>"
p4923
sS'CRYPT'
p4924
S"<class 'gluon.validators.CRYPT'>"
p4925
sS'IS_EMPTY_OR'
p4926
S"<class 'gluon.validators.IS_EMPTY_OR'>"
p4927
sS'MARKMIN'
p4928
S"<class 'gluon.html.MARKMIN'>"
p4929
sS'__name__'
p4930
S"'__restricted__'"
p4931
sS'STRONG'
p4932
S"<class 'gluon.html.STRONG'>"
p4933
sS'COL'
p4934
S"<class 'gluon.html.COL'>"
p4935
sS'SCRIPT'
p4936
S"<class 'gluon.html.SCRIPT'>"
p4937
sg3192
S'<function call>'
p4938
sS'TABLE'
p4939
S"<class 'gluon.html.TABLE'>"
p4940
sS'IS_IPV4'
p4941
S"<class 'gluon.validators.IS_IPV4'>"
p4942
sS'IS_LENGTH'
p4943
S"<class 'gluon.validators.IS_LENGTH'>"
p4944
sS'XML'
p4945
S"<class 'gluon.html.XML'>"
p4946
sS'B'
S"<class 'gluon.html.B'>"
p4947
sS'IMG'
p4948
S"<class 'gluon.html.IMG'>"
p4949
sS'SQLTABLE'
p4950
S"<class 'gluon.sqlhtml.SQLTABLE'>"
p4951
sS'IS_MATCH'
p4952
S"<class 'gluon.validators.IS_MATCH'>"
p4953
sS'IS_ALPHANUMERIC'
p4954
S"<class 'gluon.validators.IS_ALPHANUMERIC'>"
p4955
sS'SPAN'
p4956
S"<class 'gluon.html.SPAN'>"
p4957
sS'IS_SLUG'
p4958
S"<class 'gluon.validators.IS_SLUG'>"
p4959
sS'META'
p4960
S"<class 'gluon.html.META'>"
p4961
sS'IS_DATE'
p4962
S"<class 'gluon.validators.IS_DATE'>"
p4963
sS'IS_EMAIL'
p4964
S"<class 'gluon.validators.IS_EMAIL'>"
p4965
sS'IS_NOT_EMPTY'
p4966
S"<class 'gluon.validators.IS_NOT_EMPTY'>"
p4967
sS'IS_FLOAT_IN_RANGE'
p4968
S"<class 'gluon.validators.IS_FLOAT_IN_RANGE'>"
p4969
sS'BEAUTIFY'
p4970
S"<class 'gluon.html.BEAUTIFY'>"
p4971
sS'TBODY'
p4972
S"<class 'gluon.html.TBODY'>"
p4973
sS'CAT'
p4974
S"<class 'gluon.html.CAT'>"
p4975
sS'Field'
p4976
S"<class 'gluon.dal.Field'>"
p4977
sS'DIV'
p4978
S"<class 'gluon.html.DIV'>"
p4979
sS'LEGEND'
p4980
S"<class 'gluon.html.LEGEND'>"
p4981
sS'COLGROUP'
p4982
S"<class 'gluon.html.COLGROUP'>"
p4983
sS'DAL'
p4984
S"<class 'gluon.dal.DAL'>"
p4985
sS'TT'
p4986
S"<class 'gluon.html.TT'>"
p4987
sS'TR'
p4988
S"<class 'gluon.html.TR'>"
p4989
sS'LI'
p4990
S"<class 'gluon.html.LI'>"
p4991
sS'TH'
p4992
S"<class 'gluon.html.TH'>"
p4993
sS'TD'
p4994
S"<class 'gluon.html.TD'>"
p4995
sS'IS_URL'
p4996
S"<class 'gluon.validators.IS_URL'>"
p4997
sS'A'
S"<class 'gluon.html.A'>"
p4998
sS'HEAD'
p4999
S"<class 'gluon.html.HEAD'>"
p5000
sS'IS_DATETIME_IN_RANGE'
p5001
S"<class 'gluon.validators.IS_DATETIME_IN_RANGE'>"
p5002
sS'IS_IMAGE'
p5003
S"<class 'gluon.validators.IS_IMAGE'>"
p5004
sS'I'
S"<class 'gluon.html.I'>"
p5005
sS'IS_NOT_IN_DB'
p5006
S"<class 'gluon.validators.IS_NOT_IN_DB'>"
p5007
sS'user'
p5008
S'<function user>'
p5009
sg3249
S"<Storage {'body': <cStringIO.StringO object at 0...a> at 0xae9b8e64>, 'view': 'default/index.html'}>"
p5010
sS'THEAD'
p5011
S"<class 'gluon.html.THEAD'>"
p5012
sS'IS_NULL_OR'
p5013
S"<class 'gluon.validators.IS_EMPTY_OR'>"
p5014
sg56
S"<Storage {'function': 'index', 'body': <cStringI...plications/FotoBuk/', 'post_vars': <Storage {}>}>"
p5015
sS'IS_EXPR'
p5016
S"<class 'gluon.validators.IS_EXPR'>"
p5017
sS'IS_IN_SET'
p5018
S"<class 'gluon.validators.IS_IN_SET'>"
p5019
sS'IS_UPLOAD_FILENAME'
p5020
S"<class 'gluon.validators.IS_UPLOAD_FILENAME'>"
p5021
sS'IS_DECIMAL_IN_RANGE'
p5022
S"<class 'gluon.validators.IS_DECIMAL_IN_RANGE'>"
p5023
sS'T'
S'<gluon.languages.translator object>'
p5024
sssS'traceback'
p5025
S'Traceback (most recent call last):\n  File "/home/piyush/web2py/gluon/restricted.py", line 209, in restricted\n    exec ccode in environment\n  File "/home/piyush/web2py/applications/FotoBuk/controllers/default.py", line 60, in <module>\n    @auth.requires_signature()\nNameError: name \'auth\' is not defined\n'
p5026
s.