(dp1
S'output'
p2
S"<type 'exceptions.NameError'> global name 'like' is not defined"
p3
sS'layer'
p4
S'/home/piyush/web2py/applications/FotoBuk/controllers/default.py'
p5
sS'code'
p6
S"@auth.requires_login()\ndef index():\n\tli=db(db.image).select()\n\treturn dict(li=li)\n\n@auth.requires_login()\ndef insert():\n    db.image.author.default=auth.user.first_name\n    db.image.author_id=auth.user_id\n    form=SQLFORM(db.image)\n    if form.process().accepted:\n        response.flash = 'your image is posted'\n    return dict(form=form)\n\n@auth.requires_login()\ndef show():\n    flag=0\n    image = db(db.image.id==request.args(0)).select().first()\n    db.comment.image_id.default = image.id\n    cur_user=auth.user_id\n    form = SQLFORM(db.comment)\n    likes = db(db.like.like_id==image.id).select()\n    query = (like.like_id==image.id and like.liker==cur_user)\n    if db(query).count>0:\n    #if db((db.like.like_id==image.id) and (db.like.liker==int(cur_user))).count()> 0:\n\t    flag=1;\n    else:\n\t    flag=0;\n    print likes\n#    for lik in likes:\n#\t    if cur\n#\t    if int(cur_user) == int(lik.liker):\n#\t\t    flag=1\n    print flag\n    form2 = SQLFORM(db.like)\n    if form2.process().accepted and flag==0:\n\tprint 'yes'\n\tresponse.flash = 'You have liked the image'\n    \tdb.like.insert(likername=auth.user.first_name)\n\tdb.like.insert(liker=auth.user_id)\n\tdb.like.insert(like_id=image.id)\n    else:\n\tresponse.flash = 'You already like this image'\n\n    if form.process().accepted:\n        response.flash = 'your comment is posted'\n\n    comments = db(db.comment.image_id==image.id).select()\n    return dict(cur_user=cur_user,flag=flag,image=image, comments=comments, likes=likes, form=form, form2=form2)\n\ndef delete():\n    db(db.image.id==request.args(0)).delete()\n    image = db(db.image.id==request.args(0)).select()\n\ndef user():\n\treturn dict(form=auth())\n\ndef download():\n\treturn response.download(request,db)\n\nresponse._vars=response._caller(show)\n"
p7
sS'snapshot'
p8
(dp9
S'exception'
p10
(dp11
S'__hash__'
p12
S"<method-wrapper '__hash__' of exceptions.NameError object>"
p13
sS'__setattr__'
p14
S"<method-wrapper '__setattr__' of exceptions.NameError object>"
p15
sS'__reduce_ex__'
p16
S'<built-in method __reduce_ex__ of exceptions.NameError object>'
p17
sS'__getslice__'
p18
S"<method-wrapper '__getslice__' of exceptions.NameError object>"
p19
sS'__getitem__'
p20
S"<method-wrapper '__getitem__' of exceptions.NameError object>"
p21
sS'__setstate__'
p22
S'<built-in method __setstate__ of exceptions.NameError object>'
p23
sS'__reduce__'
p24
S'<built-in method __reduce__ of exceptions.NameError object>'
p25
sS'__str__'
p26
S"<method-wrapper '__str__' of exceptions.NameError object>"
p27
sS'__format__'
p28
S'<built-in method __format__ of exceptions.NameError object>'
p29
sS'__getattribute__'
p30
S"<method-wrapper '__getattribute__' of exceptions.NameError object>"
p31
sS'__class__'
p32
S"<type 'exceptions.NameError'>"
p33
sS'__unicode__'
p34
S'<built-in method __unicode__ of exceptions.NameError object>'
p35
sS'__delattr__'
p36
S"<method-wrapper '__delattr__' of exceptions.NameError object>"
p37
sS'__subclasshook__'
p38
S'<built-in method __subclasshook__ of type object>'
p39
sS'__repr__'
p40
S"<method-wrapper '__repr__' of exceptions.NameError object>"
p41
sS'args'
p42
S'("global name \'like\' is not defined",)'
p43
sS'__dict__'
p44
S'{}'
p45
sS'__sizeof__'
p46
S'<built-in method __sizeof__ of exceptions.NameError object>'
p47
sS'__doc__'
p48
S"'Name not found globally.'"
p49
sS'__init__'
p50
S"<method-wrapper '__init__' of exceptions.NameError object>"
p51
sS'__new__'
p52
S'<built-in method __new__ of type object>'
p53
ssS'evalue'
p54
S"global name 'like' is not defined"
p55
sS'request'
p56
ccopy_reg
_reconstructor
p57
(cgluon.html
BEAUTIFY
p58
c__builtin__
object
p59
NtRp60
(dp61
S'attributes'
p62
(dp63
sS'components'
p64
(lp65
g57
(cgluon.html
TABLE
p66
g59
NtRp67
(dp68
g62
(dp69
S'level'
p70
I5
ssS'parent'
p71
Nsg64
(lp72
g57
(cgluon.html
TR
p73
g59
NtRp74
(dp75
g62
(dp76
sg71
g67
sg64
(lp77
g57
(cgluon.html
TD
p78
g59
NtRp79
(dp80
g62
(dp81
S'_style'
p82
S'font-weight:bold;vertical-align:top'
p83
ssg71
g74
sg64
(lp84
S'ajax'
p85
asbag57
(g78
g59
NtRp86
(dp87
g62
(dp88
S'_valign'
p89
S'top'
p90
ssg71
g74
sg64
(lp91
S':'
asbag57
(g78
g59
NtRp92
(dp93
g62
(dp94
sg71
g74
sg64
(lp95
g57
(g58
g59
NtRp96
(dp97
g62
(dp98
g70
I5
ssg71
g92
sg64
(lp99
S'False'
p100
asbasbasbag57
(g73
g59
NtRp101
(dp102
g62
(dp103
sg71
g67
sg64
(lp104
g57
(g78
g59
NtRp105
(dp106
g62
(dp107
g82
g83
ssg71
g101
sg64
(lp108
S'application'
p109
asbag57
(g78
g59
NtRp110
(dp111
g62
(dp112
g89
g90
ssg71
g101
sg64
(lp113
S':'
asbag57
(g78
g59
NtRp114
(dp115
g62
(dp116
sg71
g101
sg64
(lp117
g57
(g58
g59
NtRp118
(dp119
g62
(dp120
g70
I5
ssg71
g114
sg64
(lp121
S'FotoBuk'
p122
asbasbasbag57
(g73
g59
NtRp123
(dp124
g62
(dp125
sg71
g67
sg64
(lp126
g57
(g78
g59
NtRp127
(dp128
g62
(dp129
g82
g83
ssg71
g123
sg64
(lp130
g42
asbag57
(g78
g59
NtRp131
(dp132
g62
(dp133
g89
g90
ssg71
g123
sg64
(lp134
S':'
asbag57
(g78
g59
NtRp135
(dp136
g62
(dp137
sg71
g123
sg64
(lp138
g57
(g58
g59
NtRp139
(dp140
g62
(dp141
g70
I5
ssg71
g135
sg64
(lp142
g57
(g66
g59
NtRp143
(dp144
g62
(dp145
g70
I4
ssg71
Nsg64
(lp146
g57
(g73
g59
NtRp147
(dp148
g62
(dp149
sg71
g143
sg64
(lp150
g57
(g78
g59
NtRp151
(dp152
g62
(dp153
sg71
g147
sg64
(lp154
g57
(g58
g59
NtRp155
(dp156
g62
(dp157
g70
I4
ssg71
g151
sg64
(lp158
S'2'
asbasbasbasbasbasbasbag57
(g73
g59
NtRp159
(dp160
g62
(dp161
sg71
g67
sg64
(lp162
g57
(g78
g59
NtRp163
(dp164
g62
(dp165
g82
g83
ssg71
g159
sg64
(lp166
S'body'
p167
asbag57
(g78
g59
NtRp168
(dp169
g62
(dp170
g89
g90
ssg71
g159
sg64
(lp171
S':'
asbag57
(g78
g59
NtRp172
(dp173
g62
(dp174
sg71
g159
sg64
(lp175
g57
(g58
g59
NtRp176
(dp177
g62
(dp178
g70
I5
ssg71
g172
sg64
(lp179
S'<cStringIO.StringO object at 0xb39eaa00>'
p180
asbasbasbag57
(g73
g59
NtRp181
(dp182
g62
(dp183
sg71
g67
sg64
(lp184
g57
(g78
g59
NtRp185
(dp186
g62
(dp187
g82
g83
ssg71
g181
sg64
(lp188
S'cid'
p189
asbag57
(g78
g59
NtRp190
(dp191
g62
(dp192
g89
g90
ssg71
g181
sg64
(lp193
S':'
asbag57
(g78
g59
NtRp194
(dp195
g62
(dp196
sg71
g181
sg64
(lp197
g57
(g58
g59
NtRp198
(dp199
g62
(dp200
g70
I5
ssg71
g194
sg64
(lp201
S'None'
p202
asbasbasbag57
(g73
g59
NtRp203
(dp204
g62
(dp205
sg71
g67
sg64
(lp206
g57
(g78
g59
NtRp207
(dp208
g62
(dp209
g82
g83
ssg71
g203
sg64
(lp210
S'client'
p211
asbag57
(g78
g59
NtRp212
(dp213
g62
(dp214
g89
g90
ssg71
g203
sg64
(lp215
S':'
asbag57
(g78
g59
NtRp216
(dp217
g62
(dp218
sg71
g203
sg64
(lp219
g57
(g58
g59
NtRp220
(dp221
g62
(dp222
g70
I5
ssg71
g216
sg64
(lp223
S'127.0.0.1'
p224
asbasbasbag57
(g73
g59
NtRp225
(dp226
g62
(dp227
sg71
g67
sg64
(lp228
g57
(g78
g59
NtRp229
(dp230
g62
(dp231
g82
g83
ssg71
g225
sg64
(lp232
S'controller'
p233
asbag57
(g78
g59
NtRp234
(dp235
g62
(dp236
g89
g90
ssg71
g225
sg64
(lp237
S':'
asbag57
(g78
g59
NtRp238
(dp239
g62
(dp240
sg71
g225
sg64
(lp241
g57
(g58
g59
NtRp242
(dp243
g62
(dp244
g70
I5
ssg71
g238
sg64
(lp245
S'default'
p246
asbasbasbag57
(g73
g59
NtRp247
(dp248
g62
(dp249
sg71
g67
sg64
(lp250
g57
(g78
g59
NtRp251
(dp252
g62
(dp253
g82
g83
ssg71
g247
sg64
(lp254
S'cookies'
p255
asbag57
(g78
g59
NtRp256
(dp257
g62
(dp258
g89
g90
ssg71
g247
sg64
(lp259
S':'
asbag57
(g78
g59
NtRp260
(dp261
g62
(dp262
sg71
g247
sg64
(lp263
g57
(g58
g59
NtRp264
(dp265
g62
(dp266
g70
I5
ssg71
g260
sg64
(lp267
g57
(g66
g59
NtRp268
(dp269
g62
(dp270
g70
I4
ssg71
Nsg64
(lp271
g57
(g73
g59
NtRp272
(dp273
g62
(dp274
sg71
g268
sg64
(lp275
g57
(g78
g59
NtRp276
(dp277
g62
(dp278
g82
g83
ssg71
g272
sg64
(lp279
S'session_id_admin'
p280
asbag57
(g78
g59
NtRp281
(dp282
g62
(dp283
g89
g90
ssg71
g272
sg64
(lp284
S':'
asbag57
(g78
g59
NtRp285
(dp286
g62
(dp287
sg71
g272
sg64
(lp288
g57
(g58
g59
NtRp289
(dp290
g62
(dp291
g70
I4
ssg71
g285
sg64
(lp292
S'127.0.0.1-b3c2d1ad-f796-4da8-b8a8-41b2a25cf8e7'
p293
ag57
(g66
g59
NtRp294
(dp295
g62
(dp296
g70
I3
ssg71
Nsg64
(lp297
g57
(g73
g59
NtRp298
(dp299
g62
(dp300
sg71
g294
sg64
(lp301
g57
(g78
g59
NtRp302
(dp303
g62
(dp304
g82
g83
ssg71
g298
sg64
(lp305
S'comment'
p306
asbag57
(g78
g59
NtRp307
(dp308
g62
(dp309
g89
g90
ssg71
g298
sg64
(lp310
S':'
asbag57
(g78
g59
NtRp311
(dp312
g62
(dp313
sg71
g298
sg64
(lp314
g57
(g58
g59
NtRp315
(dp316
g62
(dp317
g70
I3
ssg71
g311
sg64
(lp318
S''
asbasbasbag57
(g73
g59
NtRp319
(dp320
g62
(dp321
sg71
g294
sg64
(lp322
g57
(g78
g59
NtRp323
(dp324
g62
(dp325
g82
g83
ssg71
g319
sg64
(lp326
S'domain'
p327
asbag57
(g78
g59
NtRp328
(dp329
g62
(dp330
g89
g90
ssg71
g319
sg64
(lp331
S':'
asbag57
(g78
g59
NtRp332
(dp333
g62
(dp334
sg71
g319
sg64
(lp335
g57
(g58
g59
NtRp336
(dp337
g62
(dp338
g70
I3
ssg71
g332
sg64
(lp339
S''
asbasbasbag57
(g73
g59
NtRp340
(dp341
g62
(dp342
sg71
g294
sg64
(lp343
g57
(g78
g59
NtRp344
(dp345
g62
(dp346
g82
g83
ssg71
g340
sg64
(lp347
S'expires'
p348
asbag57
(g78
g59
NtRp349
(dp350
g62
(dp351
g89
g90
ssg71
g340
sg64
(lp352
S':'
asbag57
(g78
g59
NtRp353
(dp354
g62
(dp355
sg71
g340
sg64
(lp356
g57
(g58
g59
NtRp357
(dp358
g62
(dp359
g70
I3
ssg71
g353
sg64
(lp360
S''
asbasbasbag57
(g73
g59
NtRp361
(dp362
g62
(dp363
sg71
g294
sg64
(lp364
g57
(g78
g59
NtRp365
(dp366
g62
(dp367
g82
g83
ssg71
g361
sg64
(lp368
S'httponly'
p369
asbag57
(g78
g59
NtRp370
(dp371
g62
(dp372
g89
g90
ssg71
g361
sg64
(lp373
S':'
asbag57
(g78
g59
NtRp374
(dp375
g62
(dp376
sg71
g361
sg64
(lp377
g57
(g58
g59
NtRp378
(dp379
g62
(dp380
g70
I3
ssg71
g374
sg64
(lp381
S''
asbasbasbag57
(g73
g59
NtRp382
(dp383
g62
(dp384
sg71
g294
sg64
(lp385
g57
(g78
g59
NtRp386
(dp387
g62
(dp388
g82
g83
ssg71
g382
sg64
(lp389
S'max-age'
p390
asbag57
(g78
g59
NtRp391
(dp392
g62
(dp393
g89
g90
ssg71
g382
sg64
(lp394
S':'
asbag57
(g78
g59
NtRp395
(dp396
g62
(dp397
sg71
g382
sg64
(lp398
g57
(g58
g59
NtRp399
(dp400
g62
(dp401
g70
I3
ssg71
g395
sg64
(lp402
S''
asbasbasbag57
(g73
g59
NtRp403
(dp404
g62
(dp405
sg71
g294
sg64
(lp406
g57
(g78
g59
NtRp407
(dp408
g62
(dp409
g82
g83
ssg71
g403
sg64
(lp410
S'path'
p411
asbag57
(g78
g59
NtRp412
(dp413
g62
(dp414
g89
g90
ssg71
g403
sg64
(lp415
S':'
asbag57
(g78
g59
NtRp416
(dp417
g62
(dp418
sg71
g403
sg64
(lp419
g57
(g58
g59
NtRp420
(dp421
g62
(dp422
g70
I3
ssg71
g416
sg64
(lp423
S''
asbasbasbag57
(g73
g59
NtRp424
(dp425
g62
(dp426
sg71
g294
sg64
(lp427
g57
(g78
g59
NtRp428
(dp429
g62
(dp430
g82
g83
ssg71
g424
sg64
(lp431
S'secure'
p432
asbag57
(g78
g59
NtRp433
(dp434
g62
(dp435
g89
g90
ssg71
g424
sg64
(lp436
S':'
asbag57
(g78
g59
NtRp437
(dp438
g62
(dp439
sg71
g424
sg64
(lp440
g57
(g58
g59
NtRp441
(dp442
g62
(dp443
g70
I3
ssg71
g437
sg64
(lp444
S''
asbasbasbag57
(g73
g59
NtRp445
(dp446
g62
(dp447
sg71
g294
sg64
(lp448
g57
(g78
g59
NtRp449
(dp450
g62
(dp451
g82
g83
ssg71
g445
sg64
(lp452
S'version'
p453
asbag57
(g78
g59
NtRp454
(dp455
g62
(dp456
g89
g90
ssg71
g445
sg64
(lp457
S':'
asbag57
(g78
g59
NtRp458
(dp459
g62
(dp460
sg71
g445
sg64
(lp461
g57
(g58
g59
NtRp462
(dp463
g62
(dp464
g70
I3
ssg71
g458
sg64
(lp465
S''
asbasbasbasbasbasbasbag57
(g73
g59
NtRp466
(dp467
g62
(dp468
sg71
g268
sg64
(lp469
g57
(g78
g59
NtRp470
(dp471
g62
(dp472
g82
g83
ssg71
g466
sg64
(lp473
S'session_id_fotobuk'
p474
asbag57
(g78
g59
NtRp475
(dp476
g62
(dp477
g89
g90
ssg71
g466
sg64
(lp478
S':'
asbag57
(g78
g59
NtRp479
(dp480
g62
(dp481
sg71
g466
sg64
(lp482
g57
(g58
g59
NtRp483
(dp484
g62
(dp485
g70
I4
ssg71
g479
sg64
(lp486
S'127.0.0.1-a0aa12fe-f234-43d8-b1ed-9cc366e4417f'
p487
ag57
(g66
g59
NtRp488
(dp489
g62
(dp490
g70
I3
ssg71
Nsg64
(lp491
g57
(g73
g59
NtRp492
(dp493
g62
(dp494
sg71
g488
sg64
(lp495
g57
(g78
g59
NtRp496
(dp497
g62
(dp498
g82
g83
ssg71
g492
sg64
(lp499
g306
asbag57
(g78
g59
NtRp500
(dp501
g62
(dp502
g89
g90
ssg71
g492
sg64
(lp503
S':'
asbag57
(g78
g59
NtRp504
(dp505
g62
(dp506
sg71
g492
sg64
(lp507
g57
(g58
g59
NtRp508
(dp509
g62
(dp510
g70
I3
ssg71
g504
sg64
(lp511
S''
asbasbasbag57
(g73
g59
NtRp512
(dp513
g62
(dp514
sg71
g488
sg64
(lp515
g57
(g78
g59
NtRp516
(dp517
g62
(dp518
g82
g83
ssg71
g512
sg64
(lp519
g327
asbag57
(g78
g59
NtRp520
(dp521
g62
(dp522
g89
g90
ssg71
g512
sg64
(lp523
S':'
asbag57
(g78
g59
NtRp524
(dp525
g62
(dp526
sg71
g512
sg64
(lp527
g57
(g58
g59
NtRp528
(dp529
g62
(dp530
g70
I3
ssg71
g524
sg64
(lp531
S''
asbasbasbag57
(g73
g59
NtRp532
(dp533
g62
(dp534
sg71
g488
sg64
(lp535
g57
(g78
g59
NtRp536
(dp537
g62
(dp538
g82
g83
ssg71
g532
sg64
(lp539
g348
asbag57
(g78
g59
NtRp540
(dp541
g62
(dp542
g89
g90
ssg71
g532
sg64
(lp543
S':'
asbag57
(g78
g59
NtRp544
(dp545
g62
(dp546
sg71
g532
sg64
(lp547
g57
(g58
g59
NtRp548
(dp549
g62
(dp550
g70
I3
ssg71
g544
sg64
(lp551
S''
asbasbasbag57
(g73
g59
NtRp552
(dp553
g62
(dp554
sg71
g488
sg64
(lp555
g57
(g78
g59
NtRp556
(dp557
g62
(dp558
g82
g83
ssg71
g552
sg64
(lp559
g369
asbag57
(g78
g59
NtRp560
(dp561
g62
(dp562
g89
g90
ssg71
g552
sg64
(lp563
S':'
asbag57
(g78
g59
NtRp564
(dp565
g62
(dp566
sg71
g552
sg64
(lp567
g57
(g58
g59
NtRp568
(dp569
g62
(dp570
g70
I3
ssg71
g564
sg64
(lp571
S''
asbasbasbag57
(g73
g59
NtRp572
(dp573
g62
(dp574
sg71
g488
sg64
(lp575
g57
(g78
g59
NtRp576
(dp577
g62
(dp578
g82
g83
ssg71
g572
sg64
(lp579
g390
asbag57
(g78
g59
NtRp580
(dp581
g62
(dp582
g89
g90
ssg71
g572
sg64
(lp583
S':'
asbag57
(g78
g59
NtRp584
(dp585
g62
(dp586
sg71
g572
sg64
(lp587
g57
(g58
g59
NtRp588
(dp589
g62
(dp590
g70
I3
ssg71
g584
sg64
(lp591
S''
asbasbasbag57
(g73
g59
NtRp592
(dp593
g62
(dp594
sg71
g488
sg64
(lp595
g57
(g78
g59
NtRp596
(dp597
g62
(dp598
g82
g83
ssg71
g592
sg64
(lp599
g411
asbag57
(g78
g59
NtRp600
(dp601
g62
(dp602
g89
g90
ssg71
g592
sg64
(lp603
S':'
asbag57
(g78
g59
NtRp604
(dp605
g62
(dp606
sg71
g592
sg64
(lp607
g57
(g58
g59
NtRp608
(dp609
g62
(dp610
g70
I3
ssg71
g604
sg64
(lp611
S''
asbasbasbag57
(g73
g59
NtRp612
(dp613
g62
(dp614
sg71
g488
sg64
(lp615
g57
(g78
g59
NtRp616
(dp617
g62
(dp618
g82
g83
ssg71
g612
sg64
(lp619
g432
asbag57
(g78
g59
NtRp620
(dp621
g62
(dp622
g89
g90
ssg71
g612
sg64
(lp623
S':'
asbag57
(g78
g59
NtRp624
(dp625
g62
(dp626
sg71
g612
sg64
(lp627
g57
(g58
g59
NtRp628
(dp629
g62
(dp630
g70
I3
ssg71
g624
sg64
(lp631
S''
asbasbasbag57
(g73
g59
NtRp632
(dp633
g62
(dp634
sg71
g488
sg64
(lp635
g57
(g78
g59
NtRp636
(dp637
g62
(dp638
g82
g83
ssg71
g632
sg64
(lp639
g453
asbag57
(g78
g59
NtRp640
(dp641
g62
(dp642
g89
g90
ssg71
g632
sg64
(lp643
S':'
asbag57
(g78
g59
NtRp644
(dp645
g62
(dp646
sg71
g632
sg64
(lp647
g57
(g58
g59
NtRp648
(dp649
g62
(dp650
g70
I3
ssg71
g644
sg64
(lp651
S''
asbasbasbasbasbasbasbag57
(g73
g59
NtRp652
(dp653
g62
(dp654
sg71
g268
sg64
(lp655
g57
(g78
g59
NtRp656
(dp657
g62
(dp658
g82
g83
ssg71
g652
sg64
(lp659
S'session_id_welcome'
p660
asbag57
(g78
g59
NtRp661
(dp662
g62
(dp663
g89
g90
ssg71
g652
sg64
(lp664
S':'
asbag57
(g78
g59
NtRp665
(dp666
g62
(dp667
sg71
g652
sg64
(lp668
g57
(g58
g59
NtRp669
(dp670
g62
(dp671
g70
I4
ssg71
g665
sg64
(lp672
S'127.0.0.1-d9249293-42c1-424c-bc11-0262fbc13d21'
p673
ag57
(g66
g59
NtRp674
(dp675
g62
(dp676
g70
I3
ssg71
Nsg64
(lp677
g57
(g73
g59
NtRp678
(dp679
g62
(dp680
sg71
g674
sg64
(lp681
g57
(g78
g59
NtRp682
(dp683
g62
(dp684
g82
g83
ssg71
g678
sg64
(lp685
g306
asbag57
(g78
g59
NtRp686
(dp687
g62
(dp688
g89
g90
ssg71
g678
sg64
(lp689
S':'
asbag57
(g78
g59
NtRp690
(dp691
g62
(dp692
sg71
g678
sg64
(lp693
g57
(g58
g59
NtRp694
(dp695
g62
(dp696
g70
I3
ssg71
g690
sg64
(lp697
S''
asbasbasbag57
(g73
g59
NtRp698
(dp699
g62
(dp700
sg71
g674
sg64
(lp701
g57
(g78
g59
NtRp702
(dp703
g62
(dp704
g82
g83
ssg71
g698
sg64
(lp705
g327
asbag57
(g78
g59
NtRp706
(dp707
g62
(dp708
g89
g90
ssg71
g698
sg64
(lp709
S':'
asbag57
(g78
g59
NtRp710
(dp711
g62
(dp712
sg71
g698
sg64
(lp713
g57
(g58
g59
NtRp714
(dp715
g62
(dp716
g70
I3
ssg71
g710
sg64
(lp717
S''
asbasbasbag57
(g73
g59
NtRp718
(dp719
g62
(dp720
sg71
g674
sg64
(lp721
g57
(g78
g59
NtRp722
(dp723
g62
(dp724
g82
g83
ssg71
g718
sg64
(lp725
g348
asbag57
(g78
g59
NtRp726
(dp727
g62
(dp728
g89
g90
ssg71
g718
sg64
(lp729
S':'
asbag57
(g78
g59
NtRp730
(dp731
g62
(dp732
sg71
g718
sg64
(lp733
g57
(g58
g59
NtRp734
(dp735
g62
(dp736
g70
I3
ssg71
g730
sg64
(lp737
S''
asbasbasbag57
(g73
g59
NtRp738
(dp739
g62
(dp740
sg71
g674
sg64
(lp741
g57
(g78
g59
NtRp742
(dp743
g62
(dp744
g82
g83
ssg71
g738
sg64
(lp745
g369
asbag57
(g78
g59
NtRp746
(dp747
g62
(dp748
g89
g90
ssg71
g738
sg64
(lp749
S':'
asbag57
(g78
g59
NtRp750
(dp751
g62
(dp752
sg71
g738
sg64
(lp753
g57
(g58
g59
NtRp754
(dp755
g62
(dp756
g70
I3
ssg71
g750
sg64
(lp757
S''
asbasbasbag57
(g73
g59
NtRp758
(dp759
g62
(dp760
sg71
g674
sg64
(lp761
g57
(g78
g59
NtRp762
(dp763
g62
(dp764
g82
g83
ssg71
g758
sg64
(lp765
g390
asbag57
(g78
g59
NtRp766
(dp767
g62
(dp768
g89
g90
ssg71
g758
sg64
(lp769
S':'
asbag57
(g78
g59
NtRp770
(dp771
g62
(dp772
sg71
g758
sg64
(lp773
g57
(g58
g59
NtRp774
(dp775
g62
(dp776
g70
I3
ssg71
g770
sg64
(lp777
S''
asbasbasbag57
(g73
g59
NtRp778
(dp779
g62
(dp780
sg71
g674
sg64
(lp781
g57
(g78
g59
NtRp782
(dp783
g62
(dp784
g82
g83
ssg71
g778
sg64
(lp785
g411
asbag57
(g78
g59
NtRp786
(dp787
g62
(dp788
g89
g90
ssg71
g778
sg64
(lp789
S':'
asbag57
(g78
g59
NtRp790
(dp791
g62
(dp792
sg71
g778
sg64
(lp793
g57
(g58
g59
NtRp794
(dp795
g62
(dp796
g70
I3
ssg71
g790
sg64
(lp797
S''
asbasbasbag57
(g73
g59
NtRp798
(dp799
g62
(dp800
sg71
g674
sg64
(lp801
g57
(g78
g59
NtRp802
(dp803
g62
(dp804
g82
g83
ssg71
g798
sg64
(lp805
g432
asbag57
(g78
g59
NtRp806
(dp807
g62
(dp808
g89
g90
ssg71
g798
sg64
(lp809
S':'
asbag57
(g78
g59
NtRp810
(dp811
g62
(dp812
sg71
g798
sg64
(lp813
g57
(g58
g59
NtRp814
(dp815
g62
(dp816
g70
I3
ssg71
g810
sg64
(lp817
S''
asbasbasbag57
(g73
g59
NtRp818
(dp819
g62
(dp820
sg71
g674
sg64
(lp821
g57
(g78
g59
NtRp822
(dp823
g62
(dp824
g82
g83
ssg71
g818
sg64
(lp825
g453
asbag57
(g78
g59
NtRp826
(dp827
g62
(dp828
g89
g90
ssg71
g818
sg64
(lp829
S':'
asbag57
(g78
g59
NtRp830
(dp831
g62
(dp832
sg71
g818
sg64
(lp833
g57
(g58
g59
NtRp834
(dp835
g62
(dp836
g70
I3
ssg71
g830
sg64
(lp837
S''
asbasbasbasbasbasbasbasbasbasbasbag57
(g73
g59
NtRp838
(dp839
g62
(dp840
sg71
g67
sg64
(lp841
g57
(g78
g59
NtRp842
(dp843
g62
(dp844
g82
g83
ssg71
g838
sg64
(lp845
S'env'
p846
asbag57
(g78
g59
NtRp847
(dp848
g62
(dp849
g89
g90
ssg71
g838
sg64
(lp850
S':'
asbag57
(g78
g59
NtRp851
(dp852
g62
(dp853
sg71
g838
sg64
(lp854
g57
(g58
g59
NtRp855
(dp856
g62
(dp857
g70
I5
ssg71
g851
sg64
(lp858
g57
(g66
g59
NtRp859
(dp860
g62
(dp861
g70
I4
ssg71
Nsg64
(lp862
g57
(g73
g59
NtRp863
(dp864
g62
(dp865
sg71
g859
sg64
(lp866
g57
(g78
g59
NtRp867
(dp868
g62
(dp869
g82
g83
ssg71
g863
sg64
(lp870
S'app_folders'
p871
asbag57
(g78
g59
NtRp872
(dp873
g62
(dp874
g89
g90
ssg71
g863
sg64
(lp875
S':'
asbag57
(g78
g59
NtRp876
(dp877
g62
(dp878
sg71
g863
sg64
(lp879
g57
(g58
g59
NtRp880
(dp881
g62
(dp882
g70
I4
ssg71
g876
sg64
(lp883
S"set(['/home/piyush/web2py/applications/FotoBuk/', '/home/piyush/web2py/applications/welcome/', '/home/piyush/web2py/applications/admin/'])"
p884
asbasbasbag57
(g73
g59
NtRp885
(dp886
g62
(dp887
sg71
g859
sg64
(lp888
g57
(g78
g59
NtRp889
(dp890
g62
(dp891
g82
g83
ssg71
g885
sg64
(lp892
S'applications_parent'
p893
asbag57
(g78
g59
NtRp894
(dp895
g62
(dp896
g89
g90
ssg71
g885
sg64
(lp897
S':'
asbag57
(g78
g59
NtRp898
(dp899
g62
(dp900
sg71
g885
sg64
(lp901
g57
(g58
g59
NtRp902
(dp903
g62
(dp904
g70
I4
ssg71
g898
sg64
(lp905
S'/home/piyush/web2py'
p906
asbasbasbag57
(g73
g59
NtRp907
(dp908
g62
(dp909
sg71
g859
sg64
(lp910
g57
(g78
g59
NtRp911
(dp912
g62
(dp913
g82
g83
ssg71
g907
sg64
(lp914
S'cmd_args'
p915
asbag57
(g78
g59
NtRp916
(dp917
g62
(dp918
g89
g90
ssg71
g907
sg64
(lp919
S':'
asbag57
(g78
g59
NtRp920
(dp921
g62
(dp922
sg71
g907
sg64
(lp923
g57
(g58
g59
NtRp924
(dp925
g62
(dp926
g70
I4
ssg71
g920
sg64
(lp927
g57
(g66
g59
NtRp928
(dp929
g62
(dp930
g70
I3
ssg71
Nsg64
(lp931
sbasbasbasbag57
(g73
g59
NtRp932
(dp933
g62
(dp934
sg71
g859
sg64
(lp935
g57
(g78
g59
NtRp936
(dp937
g62
(dp938
g82
g83
ssg71
g932
sg64
(lp939
S'cmd_options'
p940
asbag57
(g78
g59
NtRp941
(dp942
g62
(dp943
g89
g90
ssg71
g932
sg64
(lp944
S':'
asbag57
(g78
g59
NtRp945
(dp946
g62
(dp947
sg71
g932
sg64
(lp948
g57
(g58
g59
NtRp949
(dp950
g62
(dp951
g70
I4
ssg71
g945
sg64
(lp952
S"<Values at 0x8d4130c: {'verbose': False, 'ip': '127.0.0.1', 'with_scheduler': False, 'ips': ['10.1.39.167', '10.42.0.1'], 'shutdown_timeout': 5, 'taskbar': False, 'port': 8000, 'maxthreads': None, 'softcron': False, 'server_name': 'Solo', 'bpython': False, 'nogui': False, 'nocron': False, 'extcron': False, 'run_system_tests': False, 'test': None, 'folder': '/home/piyush/web2py', 'config': '', 'import_models': False, 'winservice': '', 'shell': None, 'run': '', 'log_filename': 'httpserver.log', 'debuglevel': 30, 'args': [''], 'socket_timeout': 5, 'ssl_ca_certificate': None, 'scheduler': None, 'profiler_filename': None, 'ssl_private_key': '', 'scheduler_groups': None, 'password': '<ask>', 'request_queue_size': 5, 'ssl_certificate': '', 'cronjob': False, 'numthreads': None, 'quiet': False, 'interfaces': None, 'minthreads': None, 'timeout': 10, 'plain': False, 'nobanner': False, 'pid_filename': 'httpserver.pid'}>"
p953
asbasbasbag57
(g73
g59
NtRp954
(dp955
g62
(dp956
sg71
g859
sg64
(lp957
g57
(g78
g59
NtRp958
(dp959
g62
(dp960
g82
g83
ssg71
g954
sg64
(lp961
S'db_sessions'
p962
asbag57
(g78
g59
NtRp963
(dp964
g62
(dp965
g89
g90
ssg71
g954
sg64
(lp966
S':'
asbag57
(g78
g59
NtRp967
(dp968
g62
(dp969
sg71
g954
sg64
(lp970
g57
(g58
g59
NtRp971
(dp972
g62
(dp973
g70
I4
ssg71
g967
sg64
(lp974
S'set([])'
p975
asbasbasbag57
(g73
g59
NtRp976
(dp977
g62
(dp978
sg71
g859
sg64
(lp979
g57
(g78
g59
NtRp980
(dp981
g62
(dp982
g82
g83
ssg71
g976
sg64
(lp983
S'debugging'
p984
asbag57
(g78
g59
NtRp985
(dp986
g62
(dp987
g89
g90
ssg71
g976
sg64
(lp988
S':'
asbag57
(g78
g59
NtRp989
(dp990
g62
(dp991
sg71
g976
sg64
(lp992
g57
(g58
g59
NtRp993
(dp994
g62
(dp995
g70
I4
ssg71
g989
sg64
(lp996
g100
asbasbasbag57
(g73
g59
NtRp997
(dp998
g62
(dp999
sg71
g859
sg64
(lp1000
g57
(g78
g59
NtRp1001
(dp1002
g62
(dp1003
g82
g83
ssg71
g997
sg64
(lp1004
S'gluon_parent'
p1005
asbag57
(g78
g59
NtRp1006
(dp1007
g62
(dp1008
g89
g90
ssg71
g997
sg64
(lp1009
S':'
asbag57
(g78
g59
NtRp1010
(dp1011
g62
(dp1012
sg71
g997
sg64
(lp1013
g57
(g58
g59
NtRp1014
(dp1015
g62
(dp1016
g70
I4
ssg71
g1010
sg64
(lp1017
S'/home/piyush/web2py'
p1018
asbasbasbag57
(g73
g59
NtRp1019
(dp1020
g62
(dp1021
sg71
g859
sg64
(lp1022
g57
(g78
g59
NtRp1023
(dp1024
g62
(dp1025
g82
g83
ssg71
g1019
sg64
(lp1026
S'http_accept'
p1027
asbag57
(g78
g59
NtRp1028
(dp1029
g62
(dp1030
g89
g90
ssg71
g1019
sg64
(lp1031
S':'
asbag57
(g78
g59
NtRp1032
(dp1033
g62
(dp1034
sg71
g1019
sg64
(lp1035
g57
(g58
g59
NtRp1036
(dp1037
g62
(dp1038
g70
I4
ssg71
g1032
sg64
(lp1039
S'text/html,application/xhtml+xml,application/xml;q=0.9,*/*;q=0.8'
p1040
asbasbasbag57
(g73
g59
NtRp1041
(dp1042
g62
(dp1043
sg71
g859
sg64
(lp1044
g57
(g78
g59
NtRp1045
(dp1046
g62
(dp1047
g82
g83
ssg71
g1041
sg64
(lp1048
S'http_accept_encoding'
p1049
asbag57
(g78
g59
NtRp1050
(dp1051
g62
(dp1052
g89
g90
ssg71
g1041
sg64
(lp1053
S':'
asbag57
(g78
g59
NtRp1054
(dp1055
g62
(dp1056
sg71
g1041
sg64
(lp1057
g57
(g58
g59
NtRp1058
(dp1059
g62
(dp1060
g70
I4
ssg71
g1054
sg64
(lp1061
S'gzip, deflate'
p1062
asbasbasbag57
(g73
g59
NtRp1063
(dp1064
g62
(dp1065
sg71
g859
sg64
(lp1066
g57
(g78
g59
NtRp1067
(dp1068
g62
(dp1069
g82
g83
ssg71
g1063
sg64
(lp1070
S'http_accept_language'
p1071
asbag57
(g78
g59
NtRp1072
(dp1073
g62
(dp1074
g89
g90
ssg71
g1063
sg64
(lp1075
S':'
asbag57
(g78
g59
NtRp1076
(dp1077
g62
(dp1078
sg71
g1063
sg64
(lp1079
g57
(g58
g59
NtRp1080
(dp1081
g62
(dp1082
g70
I4
ssg71
g1076
sg64
(lp1083
S'en-us,en;q=0.5'
p1084
asbasbasbag57
(g73
g59
NtRp1085
(dp1086
g62
(dp1087
sg71
g859
sg64
(lp1088
g57
(g78
g59
NtRp1089
(dp1090
g62
(dp1091
g82
g83
ssg71
g1085
sg64
(lp1092
S'http_cache_control'
p1093
asbag57
(g78
g59
NtRp1094
(dp1095
g62
(dp1096
g89
g90
ssg71
g1085
sg64
(lp1097
S':'
asbag57
(g78
g59
NtRp1098
(dp1099
g62
(dp1100
sg71
g1085
sg64
(lp1101
g57
(g58
g59
NtRp1102
(dp1103
g62
(dp1104
g70
I4
ssg71
g1098
sg64
(lp1105
S'max-age=0'
p1106
asbasbasbag57
(g73
g59
NtRp1107
(dp1108
g62
(dp1109
sg71
g859
sg64
(lp1110
g57
(g78
g59
NtRp1111
(dp1112
g62
(dp1113
g82
g83
ssg71
g1107
sg64
(lp1114
S'http_connection'
p1115
asbag57
(g78
g59
NtRp1116
(dp1117
g62
(dp1118
g89
g90
ssg71
g1107
sg64
(lp1119
S':'
asbag57
(g78
g59
NtRp1120
(dp1121
g62
(dp1122
sg71
g1107
sg64
(lp1123
g57
(g58
g59
NtRp1124
(dp1125
g62
(dp1126
g70
I4
ssg71
g1120
sg64
(lp1127
S'keep-alive'
p1128
asbasbasbag57
(g73
g59
NtRp1129
(dp1130
g62
(dp1131
sg71
g859
sg64
(lp1132
g57
(g78
g59
NtRp1133
(dp1134
g62
(dp1135
g82
g83
ssg71
g1129
sg64
(lp1136
S'http_cookie'
p1137
asbag57
(g78
g59
NtRp1138
(dp1139
g62
(dp1140
g89
g90
ssg71
g1129
sg64
(lp1141
S':'
asbag57
(g78
g59
NtRp1142
(dp1143
g62
(dp1144
sg71
g1129
sg64
(lp1145
g57
(g58
g59
NtRp1146
(dp1147
g62
(dp1148
g70
I4
ssg71
g1142
sg64
(lp1149
S'session_id_welcome=127.0.0.1-d9249293-42c1-424c-bc11-0262fbc13d21; session_id_fotobuk=127.0.0.1-a0aa12fe-f234-43d8-b1ed-9cc366e4417f; session_id_admin=127.0.0.1-b3c2d1ad-f796-4da8-b8a8-41b2a25cf8e7'
p1150
asbasbasbag57
(g73
g59
NtRp1151
(dp1152
g62
(dp1153
sg71
g859
sg64
(lp1154
g57
(g78
g59
NtRp1155
(dp1156
g62
(dp1157
g82
g83
ssg71
g1151
sg64
(lp1158
S'http_host'
p1159
asbag57
(g78
g59
NtRp1160
(dp1161
g62
(dp1162
g89
g90
ssg71
g1151
sg64
(lp1163
S':'
asbag57
(g78
g59
NtRp1164
(dp1165
g62
(dp1166
sg71
g1151
sg64
(lp1167
g57
(g58
g59
NtRp1168
(dp1169
g62
(dp1170
g70
I4
ssg71
g1164
sg64
(lp1171
S'127.0.0.1:8000'
p1172
asbasbasbag57
(g73
g59
NtRp1173
(dp1174
g62
(dp1175
sg71
g859
sg64
(lp1176
g57
(g78
g59
NtRp1177
(dp1178
g62
(dp1179
g82
g83
ssg71
g1173
sg64
(lp1180
S'http_user_agent'
p1181
asbag57
(g78
g59
NtRp1182
(dp1183
g62
(dp1184
g89
g90
ssg71
g1173
sg64
(lp1185
S':'
asbag57
(g78
g59
NtRp1186
(dp1187
g62
(dp1188
sg71
g1173
sg64
(lp1189
g57
(g58
g59
NtRp1190
(dp1191
g62
(dp1192
g70
I4
ssg71
g1186
sg64
(lp1193
S'Mozilla/5.0 (X11; Linux i686; rv:11.0) Gecko/20100101 Firefox/11.0'
p1194
asbasbasbag57
(g73
g59
NtRp1195
(dp1196
g62
(dp1197
sg71
g859
sg64
(lp1198
g57
(g78
g59
NtRp1199
(dp1200
g62
(dp1201
g82
g83
ssg71
g1195
sg64
(lp1202
S'is_jython'
p1203
asbag57
(g78
g59
NtRp1204
(dp1205
g62
(dp1206
g89
g90
ssg71
g1195
sg64
(lp1207
S':'
asbag57
(g78
g59
NtRp1208
(dp1209
g62
(dp1210
sg71
g1195
sg64
(lp1211
g57
(g58
g59
NtRp1212
(dp1213
g62
(dp1214
g70
I4
ssg71
g1208
sg64
(lp1215
g100
asbasbasbag57
(g73
g59
NtRp1216
(dp1217
g62
(dp1218
sg71
g859
sg64
(lp1219
g57
(g78
g59
NtRp1220
(dp1221
g62
(dp1222
g82
g83
ssg71
g1216
sg64
(lp1223
S'is_pypy'
p1224
asbag57
(g78
g59
NtRp1225
(dp1226
g62
(dp1227
g89
g90
ssg71
g1216
sg64
(lp1228
S':'
asbag57
(g78
g59
NtRp1229
(dp1230
g62
(dp1231
sg71
g1216
sg64
(lp1232
g57
(g58
g59
NtRp1233
(dp1234
g62
(dp1235
g70
I4
ssg71
g1229
sg64
(lp1236
g100
asbasbasbag57
(g73
g59
NtRp1237
(dp1238
g62
(dp1239
sg71
g859
sg64
(lp1240
g57
(g78
g59
NtRp1241
(dp1242
g62
(dp1243
g82
g83
ssg71
g1237
sg64
(lp1244
S'path_info'
p1245
asbag57
(g78
g59
NtRp1246
(dp1247
g62
(dp1248
g89
g90
ssg71
g1237
sg64
(lp1249
S':'
asbag57
(g78
g59
NtRp1250
(dp1251
g62
(dp1252
sg71
g1237
sg64
(lp1253
g57
(g58
g59
NtRp1254
(dp1255
g62
(dp1256
g70
I4
ssg71
g1250
sg64
(lp1257
S'/FotoBuk/default/show/2'
p1258
asbasbasbag57
(g73
g59
NtRp1259
(dp1260
g62
(dp1261
sg71
g859
sg64
(lp1262
g57
(g78
g59
NtRp1263
(dp1264
g62
(dp1265
g82
g83
ssg71
g1259
sg64
(lp1266
S'query_string'
p1267
asbag57
(g78
g59
NtRp1268
(dp1269
g62
(dp1270
g89
g90
ssg71
g1259
sg64
(lp1271
S':'
asbag57
(g78
g59
NtRp1272
(dp1273
g62
(dp1274
sg71
g1259
sg64
(lp1275
g57
(g58
g59
NtRp1276
(dp1277
g62
(dp1278
g70
I4
ssg71
g1272
sg64
(lp1279
S''
asbasbasbag57
(g73
g59
NtRp1280
(dp1281
g62
(dp1282
sg71
g859
sg64
(lp1283
g57
(g78
g59
NtRp1284
(dp1285
g62
(dp1286
g82
g83
ssg71
g1280
sg64
(lp1287
S'remote_addr'
p1288
asbag57
(g78
g59
NtRp1289
(dp1290
g62
(dp1291
g89
g90
ssg71
g1280
sg64
(lp1292
S':'
asbag57
(g78
g59
NtRp1293
(dp1294
g62
(dp1295
sg71
g1280
sg64
(lp1296
g57
(g58
g59
NtRp1297
(dp1298
g62
(dp1299
g70
I4
ssg71
g1293
sg64
(lp1300
g224
asbasbasbag57
(g73
g59
NtRp1301
(dp1302
g62
(dp1303
sg71
g859
sg64
(lp1304
g57
(g78
g59
NtRp1305
(dp1306
g62
(dp1307
g82
g83
ssg71
g1301
sg64
(lp1308
S'remote_port'
p1309
asbag57
(g78
g59
NtRp1310
(dp1311
g62
(dp1312
g89
g90
ssg71
g1301
sg64
(lp1313
S':'
asbag57
(g78
g59
NtRp1314
(dp1315
g62
(dp1316
sg71
g1301
sg64
(lp1317
g57
(g58
g59
NtRp1318
(dp1319
g62
(dp1320
g70
I4
ssg71
g1314
sg64
(lp1321
S'53608'
p1322
asbasbasbag57
(g73
g59
NtRp1323
(dp1324
g62
(dp1325
sg71
g859
sg64
(lp1326
g57
(g78
g59
NtRp1327
(dp1328
g62
(dp1329
g82
g83
ssg71
g1323
sg64
(lp1330
S'request_method'
p1331
asbag57
(g78
g59
NtRp1332
(dp1333
g62
(dp1334
g89
g90
ssg71
g1323
sg64
(lp1335
S':'
asbag57
(g78
g59
NtRp1336
(dp1337
g62
(dp1338
sg71
g1323
sg64
(lp1339
g57
(g58
g59
NtRp1340
(dp1341
g62
(dp1342
g70
I4
ssg71
g1336
sg64
(lp1343
S'GET'
p1344
asbasbasbag57
(g73
g59
NtRp1345
(dp1346
g62
(dp1347
sg71
g859
sg64
(lp1348
g57
(g78
g59
NtRp1349
(dp1350
g62
(dp1351
g82
g83
ssg71
g1345
sg64
(lp1352
S'script_name'
p1353
asbag57
(g78
g59
NtRp1354
(dp1355
g62
(dp1356
g89
g90
ssg71
g1345
sg64
(lp1357
S':'
asbag57
(g78
g59
NtRp1358
(dp1359
g62
(dp1360
sg71
g1345
sg64
(lp1361
g57
(g58
g59
NtRp1362
(dp1363
g62
(dp1364
g70
I4
ssg71
g1358
sg64
(lp1365
S''
asbasbasbag57
(g73
g59
NtRp1366
(dp1367
g62
(dp1368
sg71
g859
sg64
(lp1369
g57
(g78
g59
NtRp1370
(dp1371
g62
(dp1372
g82
g83
ssg71
g1366
sg64
(lp1373
S'server_name'
p1374
asbag57
(g78
g59
NtRp1375
(dp1376
g62
(dp1377
g89
g90
ssg71
g1366
sg64
(lp1378
S':'
asbag57
(g78
g59
NtRp1379
(dp1380
g62
(dp1381
sg71
g1366
sg64
(lp1382
g57
(g58
g59
NtRp1383
(dp1384
g62
(dp1385
g70
I4
ssg71
g1379
sg64
(lp1386
S'Solo'
p1387
asbasbasbag57
(g73
g59
NtRp1388
(dp1389
g62
(dp1390
sg71
g859
sg64
(lp1391
g57
(g78
g59
NtRp1392
(dp1393
g62
(dp1394
g82
g83
ssg71
g1388
sg64
(lp1395
S'server_port'
p1396
asbag57
(g78
g59
NtRp1397
(dp1398
g62
(dp1399
g89
g90
ssg71
g1388
sg64
(lp1400
S':'
asbag57
(g78
g59
NtRp1401
(dp1402
g62
(dp1403
sg71
g1388
sg64
(lp1404
g57
(g58
g59
NtRp1405
(dp1406
g62
(dp1407
g70
I4
ssg71
g1401
sg64
(lp1408
S'8000'
p1409
asbasbasbag57
(g73
g59
NtRp1410
(dp1411
g62
(dp1412
sg71
g859
sg64
(lp1413
g57
(g78
g59
NtRp1414
(dp1415
g62
(dp1416
g82
g83
ssg71
g1410
sg64
(lp1417
S'server_protocol'
p1418
asbag57
(g78
g59
NtRp1419
(dp1420
g62
(dp1421
g89
g90
ssg71
g1410
sg64
(lp1422
S':'
asbag57
(g78
g59
NtRp1423
(dp1424
g62
(dp1425
sg71
g1410
sg64
(lp1426
g57
(g58
g59
NtRp1427
(dp1428
g62
(dp1429
g70
I4
ssg71
g1423
sg64
(lp1430
S'HTTP/1.1'
p1431
asbasbasbag57
(g73
g59
NtRp1432
(dp1433
g62
(dp1434
sg71
g859
sg64
(lp1435
g57
(g78
g59
NtRp1436
(dp1437
g62
(dp1438
g82
g83
ssg71
g1432
sg64
(lp1439
S'server_software'
p1440
asbag57
(g78
g59
NtRp1441
(dp1442
g62
(dp1443
g89
g90
ssg71
g1432
sg64
(lp1444
S':'
asbag57
(g78
g59
NtRp1445
(dp1446
g62
(dp1447
sg71
g1432
sg64
(lp1448
g57
(g58
g59
NtRp1449
(dp1450
g62
(dp1451
g70
I4
ssg71
g1445
sg64
(lp1452
S'Rocket 1.2.4'
p1453
asbasbasbag57
(g73
g59
NtRp1454
(dp1455
g62
(dp1456
sg71
g859
sg64
(lp1457
g57
(g78
g59
NtRp1458
(dp1459
g62
(dp1460
g82
g83
ssg71
g1454
sg64
(lp1461
S'web2py_crontype'
p1462
asbag57
(g78
g59
NtRp1463
(dp1464
g62
(dp1465
g89
g90
ssg71
g1454
sg64
(lp1466
S':'
asbag57
(g78
g59
NtRp1467
(dp1468
g62
(dp1469
sg71
g1454
sg64
(lp1470
g57
(g58
g59
NtRp1471
(dp1472
g62
(dp1473
g70
I4
ssg71
g1467
sg64
(lp1474
S'hard'
p1475
asbasbasbag57
(g73
g59
NtRp1476
(dp1477
g62
(dp1478
sg71
g859
sg64
(lp1479
g57
(g78
g59
NtRp1480
(dp1481
g62
(dp1482
g82
g83
ssg71
g1476
sg64
(lp1483
S'web2py_path'
p1484
asbag57
(g78
g59
NtRp1485
(dp1486
g62
(dp1487
g89
g90
ssg71
g1476
sg64
(lp1488
S':'
asbag57
(g78
g59
NtRp1489
(dp1490
g62
(dp1491
sg71
g1476
sg64
(lp1492
g57
(g58
g59
NtRp1493
(dp1494
g62
(dp1495
g70
I4
ssg71
g1489
sg64
(lp1496
g906
asbasbasbag57
(g73
g59
NtRp1497
(dp1498
g62
(dp1499
sg71
g859
sg64
(lp1500
g57
(g78
g59
NtRp1501
(dp1502
g62
(dp1503
g82
g83
ssg71
g1497
sg64
(lp1504
S'web2py_version'
p1505
asbag57
(g78
g59
NtRp1506
(dp1507
g62
(dp1508
g89
g90
ssg71
g1497
sg64
(lp1509
S':'
asbag57
(g78
g59
NtRp1510
(dp1511
g62
(dp1512
sg71
g1497
sg64
(lp1513
g57
(g58
g59
NtRp1514
(dp1515
g62
(dp1516
g70
I4
ssg71
g1510
sg64
(lp1517
g57
(g66
g59
NtRp1518
(dp1519
g62
(dp1520
g70
I3
ssg71
Nsg64
(lp1521
g57
(g73
g59
NtRp1522
(dp1523
g62
(dp1524
sg71
g1518
sg64
(lp1525
g57
(g78
g59
NtRp1526
(dp1527
g62
(dp1528
sg71
g1522
sg64
(lp1529
g57
(g58
g59
NtRp1530
(dp1531
g62
(dp1532
g70
I3
ssg71
g1526
sg64
(lp1533
S'2'
asbasbasbag57
(g73
g59
NtRp1534
(dp1535
g62
(dp1536
sg71
g1518
sg64
(lp1537
g57
(g78
g59
NtRp1538
(dp1539
g62
(dp1540
sg71
g1534
sg64
(lp1541
g57
(g58
g59
NtRp1542
(dp1543
g62
(dp1544
g70
I3
ssg71
g1538
sg64
(lp1545
S'0'
asbasbasbag57
(g73
g59
NtRp1546
(dp1547
g62
(dp1548
sg71
g1518
sg64
(lp1549
g57
(g78
g59
NtRp1550
(dp1551
g62
(dp1552
sg71
g1546
sg64
(lp1553
g57
(g58
g59
NtRp1554
(dp1555
g62
(dp1556
g70
I3
ssg71
g1550
sg64
(lp1557
S'2'
asbasbasbag57
(g73
g59
NtRp1558
(dp1559
g62
(dp1560
sg71
g1518
sg64
(lp1561
g57
(g78
g59
NtRp1562
(dp1563
g62
(dp1564
sg71
g1558
sg64
(lp1565
g57
(g58
g59
NtRp1566
(dp1567
g62
(dp1568
g70
I3
ssg71
g1562
sg64
(lp1569
S'datetime.datetime(2012, 8, 30, 4, 8, 18)'
p1570
asbasbasbag57
(g73
g59
NtRp1571
(dp1572
g62
(dp1573
sg71
g1518
sg64
(lp1574
g57
(g78
g59
NtRp1575
(dp1576
g62
(dp1577
sg71
g1571
sg64
(lp1578
g57
(g58
g59
NtRp1579
(dp1580
g62
(dp1581
g70
I3
ssg71
g1575
sg64
(lp1582
S'stable'
p1583
asbasbasbasbasbasbasbag57
(g73
g59
NtRp1584
(dp1585
g62
(dp1586
sg71
g859
sg64
(lp1587
g57
(g78
g59
NtRp1588
(dp1589
g62
(dp1590
g82
g83
ssg71
g1584
sg64
(lp1591
S'wsgi_errors'
p1592
asbag57
(g78
g59
NtRp1593
(dp1594
g62
(dp1595
g89
g90
ssg71
g1584
sg64
(lp1596
S':'
asbag57
(g78
g59
NtRp1597
(dp1598
g62
(dp1599
sg71
g1584
sg64
(lp1600
g57
(g58
g59
NtRp1601
(dp1602
g62
(dp1603
g70
I4
ssg71
g1597
sg64
(lp1604
S"<open file '<stderr>', mode 'w' at 0xb772d0d0>"
p1605
asbasbasbag57
(g73
g59
NtRp1606
(dp1607
g62
(dp1608
sg71
g859
sg64
(lp1609
g57
(g78
g59
NtRp1610
(dp1611
g62
(dp1612
g82
g83
ssg71
g1606
sg64
(lp1613
S'wsgi_file_wrapper'
p1614
asbag57
(g78
g59
NtRp1615
(dp1616
g62
(dp1617
g89
g90
ssg71
g1606
sg64
(lp1618
S':'
asbag57
(g78
g59
NtRp1619
(dp1620
g62
(dp1621
sg71
g1606
sg64
(lp1622
g57
(g58
g59
NtRp1623
(dp1624
g62
(dp1625
g70
I4
ssg71
g1619
sg64
(lp1626
S'<class wsgiref.util.FileWrapper at 0x8d0326c>'
p1627
asbasbasbag57
(g73
g59
NtRp1628
(dp1629
g62
(dp1630
sg71
g859
sg64
(lp1631
g57
(g78
g59
NtRp1632
(dp1633
g62
(dp1634
g82
g83
ssg71
g1628
sg64
(lp1635
S'wsgi_input'
p1636
asbag57
(g78
g59
NtRp1637
(dp1638
g62
(dp1639
g89
g90
ssg71
g1628
sg64
(lp1640
S':'
asbag57
(g78
g59
NtRp1641
(dp1642
g62
(dp1643
sg71
g1628
sg64
(lp1644
g57
(g58
g59
NtRp1645
(dp1646
g62
(dp1647
g70
I4
ssg71
g1641
sg64
(lp1648
S'<socket._fileobject object at 0xb57600ec>'
p1649
asbasbasbag57
(g73
g59
NtRp1650
(dp1651
g62
(dp1652
sg71
g859
sg64
(lp1653
g57
(g78
g59
NtRp1654
(dp1655
g62
(dp1656
g82
g83
ssg71
g1650
sg64
(lp1657
S'wsgi_multiprocess'
p1658
asbag57
(g78
g59
NtRp1659
(dp1660
g62
(dp1661
g89
g90
ssg71
g1650
sg64
(lp1662
S':'
asbag57
(g78
g59
NtRp1663
(dp1664
g62
(dp1665
sg71
g1650
sg64
(lp1666
g57
(g58
g59
NtRp1667
(dp1668
g62
(dp1669
g70
I4
ssg71
g1663
sg64
(lp1670
g100
asbasbasbag57
(g73
g59
NtRp1671
(dp1672
g62
(dp1673
sg71
g859
sg64
(lp1674
g57
(g78
g59
NtRp1675
(dp1676
g62
(dp1677
g82
g83
ssg71
g1671
sg64
(lp1678
S'wsgi_multithread'
p1679
asbag57
(g78
g59
NtRp1680
(dp1681
g62
(dp1682
g89
g90
ssg71
g1671
sg64
(lp1683
S':'
asbag57
(g78
g59
NtRp1684
(dp1685
g62
(dp1686
sg71
g1671
sg64
(lp1687
g57
(g58
g59
NtRp1688
(dp1689
g62
(dp1690
g70
I4
ssg71
g1684
sg64
(lp1691
S'True'
p1692
asbasbasbag57
(g73
g59
NtRp1693
(dp1694
g62
(dp1695
sg71
g859
sg64
(lp1696
g57
(g78
g59
NtRp1697
(dp1698
g62
(dp1699
g82
g83
ssg71
g1693
sg64
(lp1700
S'wsgi_run_once'
p1701
asbag57
(g78
g59
NtRp1702
(dp1703
g62
(dp1704
g89
g90
ssg71
g1693
sg64
(lp1705
S':'
asbag57
(g78
g59
NtRp1706
(dp1707
g62
(dp1708
sg71
g1693
sg64
(lp1709
g57
(g58
g59
NtRp1710
(dp1711
g62
(dp1712
g70
I4
ssg71
g1706
sg64
(lp1713
g100
asbasbasbag57
(g73
g59
NtRp1714
(dp1715
g62
(dp1716
sg71
g859
sg64
(lp1717
g57
(g78
g59
NtRp1718
(dp1719
g62
(dp1720
g82
g83
ssg71
g1714
sg64
(lp1721
S'wsgi_url_scheme'
p1722
asbag57
(g78
g59
NtRp1723
(dp1724
g62
(dp1725
g89
g90
ssg71
g1714
sg64
(lp1726
S':'
asbag57
(g78
g59
NtRp1727
(dp1728
g62
(dp1729
sg71
g1714
sg64
(lp1730
g57
(g58
g59
NtRp1731
(dp1732
g62
(dp1733
g70
I4
ssg71
g1727
sg64
(lp1734
S'http'
p1735
asbasbasbag57
(g73
g59
NtRp1736
(dp1737
g62
(dp1738
sg71
g859
sg64
(lp1739
g57
(g78
g59
NtRp1740
(dp1741
g62
(dp1742
g82
g83
ssg71
g1736
sg64
(lp1743
S'wsgi_version'
p1744
asbag57
(g78
g59
NtRp1745
(dp1746
g62
(dp1747
g89
g90
ssg71
g1736
sg64
(lp1748
S':'
asbag57
(g78
g59
NtRp1749
(dp1750
g62
(dp1751
sg71
g1736
sg64
(lp1752
g57
(g58
g59
NtRp1753
(dp1754
g62
(dp1755
g70
I4
ssg71
g1749
sg64
(lp1756
g57
(g66
g59
NtRp1757
(dp1758
g62
(dp1759
g70
I3
ssg71
Nsg64
(lp1760
g57
(g73
g59
NtRp1761
(dp1762
g62
(dp1763
sg71
g1757
sg64
(lp1764
g57
(g78
g59
NtRp1765
(dp1766
g62
(dp1767
sg71
g1761
sg64
(lp1768
g57
(g58
g59
NtRp1769
(dp1770
g62
(dp1771
g70
I3
ssg71
g1765
sg64
(lp1772
S'1'
asbasbasbag57
(g73
g59
NtRp1773
(dp1774
g62
(dp1775
sg71
g1757
sg64
(lp1776
g57
(g78
g59
NtRp1777
(dp1778
g62
(dp1779
sg71
g1773
sg64
(lp1780
g57
(g58
g59
NtRp1781
(dp1782
g62
(dp1783
g70
I3
ssg71
g1777
sg64
(lp1784
S'0'
asbasbasbasbasbasbasbasbasbasbasbag57
(g73
g59
NtRp1785
(dp1786
g62
(dp1787
sg71
g67
sg64
(lp1788
g57
(g78
g59
NtRp1789
(dp1790
g62
(dp1791
g82
g83
ssg71
g1785
sg64
(lp1792
S'extension'
p1793
asbag57
(g78
g59
NtRp1794
(dp1795
g62
(dp1796
g89
g90
ssg71
g1785
sg64
(lp1797
S':'
asbag57
(g78
g59
NtRp1798
(dp1799
g62
(dp1800
sg71
g1785
sg64
(lp1801
g57
(g58
g59
NtRp1802
(dp1803
g62
(dp1804
g70
I5
ssg71
g1798
sg64
(lp1805
S'html'
p1806
asbasbasbag57
(g73
g59
NtRp1807
(dp1808
g62
(dp1809
sg71
g67
sg64
(lp1810
g57
(g78
g59
NtRp1811
(dp1812
g62
(dp1813
g82
g83
ssg71
g1807
sg64
(lp1814
S'folder'
p1815
asbag57
(g78
g59
NtRp1816
(dp1817
g62
(dp1818
g89
g90
ssg71
g1807
sg64
(lp1819
S':'
asbag57
(g78
g59
NtRp1820
(dp1821
g62
(dp1822
sg71
g1807
sg64
(lp1823
g57
(g58
g59
NtRp1824
(dp1825
g62
(dp1826
g70
I5
ssg71
g1820
sg64
(lp1827
S'/home/piyush/web2py/applications/FotoBuk/'
p1828
asbasbasbag57
(g73
g59
NtRp1829
(dp1830
g62
(dp1831
sg71
g67
sg64
(lp1832
g57
(g78
g59
NtRp1833
(dp1834
g62
(dp1835
g82
g83
ssg71
g1829
sg64
(lp1836
S'function'
p1837
asbag57
(g78
g59
NtRp1838
(dp1839
g62
(dp1840
g89
g90
ssg71
g1829
sg64
(lp1841
S':'
asbag57
(g78
g59
NtRp1842
(dp1843
g62
(dp1844
sg71
g1829
sg64
(lp1845
g57
(g58
g59
NtRp1846
(dp1847
g62
(dp1848
g70
I5
ssg71
g1842
sg64
(lp1849
S'show'
p1850
asbasbasbag57
(g73
g59
NtRp1851
(dp1852
g62
(dp1853
sg71
g67
sg64
(lp1854
g57
(g78
g59
NtRp1855
(dp1856
g62
(dp1857
g82
g83
ssg71
g1851
sg64
(lp1858
S'get_vars'
p1859
asbag57
(g78
g59
NtRp1860
(dp1861
g62
(dp1862
g89
g90
ssg71
g1851
sg64
(lp1863
S':'
asbag57
(g78
g59
NtRp1864
(dp1865
g62
(dp1866
sg71
g1851
sg64
(lp1867
g57
(g58
g59
NtRp1868
(dp1869
g62
(dp1870
g70
I5
ssg71
g1864
sg64
(lp1871
g57
(g66
g59
NtRp1872
(dp1873
g62
(dp1874
g70
I4
ssg71
Nsg64
(lp1875
sbasbasbasbag57
(g73
g59
NtRp1876
(dp1877
g62
(dp1878
sg71
g67
sg64
(lp1879
g57
(g78
g59
NtRp1880
(dp1881
g62
(dp1882
g82
g83
ssg71
g1876
sg64
(lp1883
S'global_settings'
p1884
asbag57
(g78
g59
NtRp1885
(dp1886
g62
(dp1887
g89
g90
ssg71
g1876
sg64
(lp1888
S':'
asbag57
(g78
g59
NtRp1889
(dp1890
g62
(dp1891
sg71
g1876
sg64
(lp1892
g57
(g58
g59
NtRp1893
(dp1894
g62
(dp1895
g70
I5
ssg71
g1889
sg64
(lp1896
g57
(g66
g59
NtRp1897
(dp1898
g62
(dp1899
g70
I4
ssg71
Nsg64
(lp1900
g57
(g73
g59
NtRp1901
(dp1902
g62
(dp1903
sg71
g1897
sg64
(lp1904
g57
(g78
g59
NtRp1905
(dp1906
g62
(dp1907
g82
g83
ssg71
g1901
sg64
(lp1908
g871
asbag57
(g78
g59
NtRp1909
(dp1910
g62
(dp1911
g89
g90
ssg71
g1901
sg64
(lp1912
S':'
asbag57
(g78
g59
NtRp1913
(dp1914
g62
(dp1915
sg71
g1901
sg64
(lp1916
g57
(g58
g59
NtRp1917
(dp1918
g62
(dp1919
g70
I4
ssg71
g1913
sg64
(lp1920
S"set(['/home/piyush/web2py/applications/FotoBuk/', '/home/piyush/web2py/applications/welcome/', '/home/piyush/web2py/applications/admin/'])"
p1921
asbasbasbag57
(g73
g59
NtRp1922
(dp1923
g62
(dp1924
sg71
g1897
sg64
(lp1925
g57
(g78
g59
NtRp1926
(dp1927
g62
(dp1928
g82
g83
ssg71
g1922
sg64
(lp1929
g893
asbag57
(g78
g59
NtRp1930
(dp1931
g62
(dp1932
g89
g90
ssg71
g1922
sg64
(lp1933
S':'
asbag57
(g78
g59
NtRp1934
(dp1935
g62
(dp1936
sg71
g1922
sg64
(lp1937
g57
(g58
g59
NtRp1938
(dp1939
g62
(dp1940
g70
I4
ssg71
g1934
sg64
(lp1941
g906
asbasbasbag57
(g73
g59
NtRp1942
(dp1943
g62
(dp1944
sg71
g1897
sg64
(lp1945
g57
(g78
g59
NtRp1946
(dp1947
g62
(dp1948
g82
g83
ssg71
g1942
sg64
(lp1949
g915
asbag57
(g78
g59
NtRp1950
(dp1951
g62
(dp1952
g89
g90
ssg71
g1942
sg64
(lp1953
S':'
asbag57
(g78
g59
NtRp1954
(dp1955
g62
(dp1956
sg71
g1942
sg64
(lp1957
g57
(g58
g59
NtRp1958
(dp1959
g62
(dp1960
g70
I4
ssg71
g1954
sg64
(lp1961
g57
(g66
g59
NtRp1962
(dp1963
g62
(dp1964
g70
I3
ssg71
Nsg64
(lp1965
sbasbasbasbag57
(g73
g59
NtRp1966
(dp1967
g62
(dp1968
sg71
g1897
sg64
(lp1969
g57
(g78
g59
NtRp1970
(dp1971
g62
(dp1972
g82
g83
ssg71
g1966
sg64
(lp1973
g940
asbag57
(g78
g59
NtRp1974
(dp1975
g62
(dp1976
g89
g90
ssg71
g1966
sg64
(lp1977
S':'
asbag57
(g78
g59
NtRp1978
(dp1979
g62
(dp1980
sg71
g1966
sg64
(lp1981
g57
(g58
g59
NtRp1982
(dp1983
g62
(dp1984
g70
I4
ssg71
g1978
sg64
(lp1985
S"<Values at 0x8d4130c: {'verbose': False, 'ip': '127.0.0.1', 'with_scheduler': False, 'ips': ['10.1.39.167', '10.42.0.1'], 'shutdown_timeout': 5, 'taskbar': False, 'port': 8000, 'maxthreads': None, 'softcron': False, 'server_name': 'Solo', 'bpython': False, 'nogui': False, 'nocron': False, 'extcron': False, 'run_system_tests': False, 'test': None, 'folder': '/home/piyush/web2py', 'config': '', 'import_models': False, 'winservice': '', 'shell': None, 'run': '', 'log_filename': 'httpserver.log', 'debuglevel': 30, 'args': [''], 'socket_timeout': 5, 'ssl_ca_certificate': None, 'scheduler': None, 'profiler_filename': None, 'ssl_private_key': '', 'scheduler_groups': None, 'password': '<ask>', 'request_queue_size': 5, 'ssl_certificate': '', 'cronjob': False, 'numthreads': None, 'quiet': False, 'interfaces': None, 'minthreads': None, 'timeout': 10, 'plain': False, 'nobanner': False, 'pid_filename': 'httpserver.pid'}>"
p1986
asbasbasbag57
(g73
g59
NtRp1987
(dp1988
g62
(dp1989
sg71
g1897
sg64
(lp1990
g57
(g78
g59
NtRp1991
(dp1992
g62
(dp1993
g82
g83
ssg71
g1987
sg64
(lp1994
g962
asbag57
(g78
g59
NtRp1995
(dp1996
g62
(dp1997
g89
g90
ssg71
g1987
sg64
(lp1998
S':'
asbag57
(g78
g59
NtRp1999
(dp2000
g62
(dp2001
sg71
g1987
sg64
(lp2002
g57
(g58
g59
NtRp2003
(dp2004
g62
(dp2005
g70
I4
ssg71
g1999
sg64
(lp2006
S'set([])'
p2007
asbasbasbag57
(g73
g59
NtRp2008
(dp2009
g62
(dp2010
sg71
g1897
sg64
(lp2011
g57
(g78
g59
NtRp2012
(dp2013
g62
(dp2014
g82
g83
ssg71
g2008
sg64
(lp2015
g984
asbag57
(g78
g59
NtRp2016
(dp2017
g62
(dp2018
g89
g90
ssg71
g2008
sg64
(lp2019
S':'
asbag57
(g78
g59
NtRp2020
(dp2021
g62
(dp2022
sg71
g2008
sg64
(lp2023
g57
(g58
g59
NtRp2024
(dp2025
g62
(dp2026
g70
I4
ssg71
g2020
sg64
(lp2027
g100
asbasbasbag57
(g73
g59
NtRp2028
(dp2029
g62
(dp2030
sg71
g1897
sg64
(lp2031
g57
(g78
g59
NtRp2032
(dp2033
g62
(dp2034
g82
g83
ssg71
g2028
sg64
(lp2035
g1005
asbag57
(g78
g59
NtRp2036
(dp2037
g62
(dp2038
g89
g90
ssg71
g2028
sg64
(lp2039
S':'
asbag57
(g78
g59
NtRp2040
(dp2041
g62
(dp2042
sg71
g2028
sg64
(lp2043
g57
(g58
g59
NtRp2044
(dp2045
g62
(dp2046
g70
I4
ssg71
g2040
sg64
(lp2047
g1018
asbasbasbag57
(g73
g59
NtRp2048
(dp2049
g62
(dp2050
sg71
g1897
sg64
(lp2051
g57
(g78
g59
NtRp2052
(dp2053
g62
(dp2054
g82
g83
ssg71
g2048
sg64
(lp2055
g1203
asbag57
(g78
g59
NtRp2056
(dp2057
g62
(dp2058
g89
g90
ssg71
g2048
sg64
(lp2059
S':'
asbag57
(g78
g59
NtRp2060
(dp2061
g62
(dp2062
sg71
g2048
sg64
(lp2063
g57
(g58
g59
NtRp2064
(dp2065
g62
(dp2066
g70
I4
ssg71
g2060
sg64
(lp2067
g100
asbasbasbag57
(g73
g59
NtRp2068
(dp2069
g62
(dp2070
sg71
g1897
sg64
(lp2071
g57
(g78
g59
NtRp2072
(dp2073
g62
(dp2074
g82
g83
ssg71
g2068
sg64
(lp2075
g1224
asbag57
(g78
g59
NtRp2076
(dp2077
g62
(dp2078
g89
g90
ssg71
g2068
sg64
(lp2079
S':'
asbag57
(g78
g59
NtRp2080
(dp2081
g62
(dp2082
sg71
g2068
sg64
(lp2083
g57
(g58
g59
NtRp2084
(dp2085
g62
(dp2086
g70
I4
ssg71
g2080
sg64
(lp2087
g100
asbasbasbag57
(g73
g59
NtRp2088
(dp2089
g62
(dp2090
sg71
g1897
sg64
(lp2091
g57
(g78
g59
NtRp2092
(dp2093
g62
(dp2094
g82
g83
ssg71
g2088
sg64
(lp2095
g1462
asbag57
(g78
g59
NtRp2096
(dp2097
g62
(dp2098
g89
g90
ssg71
g2088
sg64
(lp2099
S':'
asbag57
(g78
g59
NtRp2100
(dp2101
g62
(dp2102
sg71
g2088
sg64
(lp2103
g57
(g58
g59
NtRp2104
(dp2105
g62
(dp2106
g70
I4
ssg71
g2100
sg64
(lp2107
g1475
asbasbasbag57
(g73
g59
NtRp2108
(dp2109
g62
(dp2110
sg71
g1897
sg64
(lp2111
g57
(g78
g59
NtRp2112
(dp2113
g62
(dp2114
g82
g83
ssg71
g2108
sg64
(lp2115
g1505
asbag57
(g78
g59
NtRp2116
(dp2117
g62
(dp2118
g89
g90
ssg71
g2108
sg64
(lp2119
S':'
asbag57
(g78
g59
NtRp2120
(dp2121
g62
(dp2122
sg71
g2108
sg64
(lp2123
g57
(g58
g59
NtRp2124
(dp2125
g62
(dp2126
g70
I4
ssg71
g2120
sg64
(lp2127
g57
(g66
g59
NtRp2128
(dp2129
g62
(dp2130
g70
I3
ssg71
Nsg64
(lp2131
g57
(g73
g59
NtRp2132
(dp2133
g62
(dp2134
sg71
g2128
sg64
(lp2135
g57
(g78
g59
NtRp2136
(dp2137
g62
(dp2138
sg71
g2132
sg64
(lp2139
g57
(g58
g59
NtRp2140
(dp2141
g62
(dp2142
g70
I3
ssg71
g2136
sg64
(lp2143
S'2'
asbasbasbag57
(g73
g59
NtRp2144
(dp2145
g62
(dp2146
sg71
g2128
sg64
(lp2147
g57
(g78
g59
NtRp2148
(dp2149
g62
(dp2150
sg71
g2144
sg64
(lp2151
g57
(g58
g59
NtRp2152
(dp2153
g62
(dp2154
g70
I3
ssg71
g2148
sg64
(lp2155
S'0'
asbasbasbag57
(g73
g59
NtRp2156
(dp2157
g62
(dp2158
sg71
g2128
sg64
(lp2159
g57
(g78
g59
NtRp2160
(dp2161
g62
(dp2162
sg71
g2156
sg64
(lp2163
g57
(g58
g59
NtRp2164
(dp2165
g62
(dp2166
g70
I3
ssg71
g2160
sg64
(lp2167
S'2'
asbasbasbag57
(g73
g59
NtRp2168
(dp2169
g62
(dp2170
sg71
g2128
sg64
(lp2171
g57
(g78
g59
NtRp2172
(dp2173
g62
(dp2174
sg71
g2168
sg64
(lp2175
g57
(g58
g59
NtRp2176
(dp2177
g62
(dp2178
g70
I3
ssg71
g2172
sg64
(lp2179
S'datetime.datetime(2012, 8, 30, 4, 8, 18)'
p2180
asbasbasbag57
(g73
g59
NtRp2181
(dp2182
g62
(dp2183
sg71
g2128
sg64
(lp2184
g57
(g78
g59
NtRp2185
(dp2186
g62
(dp2187
sg71
g2181
sg64
(lp2188
g57
(g58
g59
NtRp2189
(dp2190
g62
(dp2191
g70
I3
ssg71
g2185
sg64
(lp2192
g1583
asbasbasbasbasbasbasbasbasbasbasbag57
(g73
g59
NtRp2193
(dp2194
g62
(dp2195
sg71
g67
sg64
(lp2196
g57
(g78
g59
NtRp2197
(dp2198
g62
(dp2199
g82
g83
ssg71
g2193
sg64
(lp2200
S'is_https'
p2201
asbag57
(g78
g59
NtRp2202
(dp2203
g62
(dp2204
g89
g90
ssg71
g2193
sg64
(lp2205
S':'
asbag57
(g78
g59
NtRp2206
(dp2207
g62
(dp2208
sg71
g2193
sg64
(lp2209
g57
(g58
g59
NtRp2210
(dp2211
g62
(dp2212
g70
I5
ssg71
g2206
sg64
(lp2213
g100
asbasbasbag57
(g73
g59
NtRp2214
(dp2215
g62
(dp2216
sg71
g67
sg64
(lp2217
g57
(g78
g59
NtRp2218
(dp2219
g62
(dp2220
g82
g83
ssg71
g2214
sg64
(lp2221
S'is_local'
p2222
asbag57
(g78
g59
NtRp2223
(dp2224
g62
(dp2225
g89
g90
ssg71
g2214
sg64
(lp2226
S':'
asbag57
(g78
g59
NtRp2227
(dp2228
g62
(dp2229
sg71
g2214
sg64
(lp2230
g57
(g58
g59
NtRp2231
(dp2232
g62
(dp2233
g70
I5
ssg71
g2227
sg64
(lp2234
g1692
asbasbasbag57
(g73
g59
NtRp2235
(dp2236
g62
(dp2237
sg71
g67
sg64
(lp2238
g57
(g78
g59
NtRp2239
(dp2240
g62
(dp2241
g82
g83
ssg71
g2235
sg64
(lp2242
S'is_restful'
p2243
asbag57
(g78
g59
NtRp2244
(dp2245
g62
(dp2246
g89
g90
ssg71
g2235
sg64
(lp2247
S':'
asbag57
(g78
g59
NtRp2248
(dp2249
g62
(dp2250
sg71
g2235
sg64
(lp2251
g57
(g58
g59
NtRp2252
(dp2253
g62
(dp2254
g70
I5
ssg71
g2248
sg64
(lp2255
g100
asbasbasbag57
(g73
g59
NtRp2256
(dp2257
g62
(dp2258
sg71
g67
sg64
(lp2259
g57
(g78
g59
NtRp2260
(dp2261
g62
(dp2262
g82
g83
ssg71
g2256
sg64
(lp2263
S'now'
p2264
asbag57
(g78
g59
NtRp2265
(dp2266
g62
(dp2267
g89
g90
ssg71
g2256
sg64
(lp2268
S':'
asbag57
(g78
g59
NtRp2269
(dp2270
g62
(dp2271
sg71
g2256
sg64
(lp2272
g57
(g58
g59
NtRp2273
(dp2274
g62
(dp2275
g70
I5
ssg71
g2269
sg64
(lp2276
S'datetime.datetime(2012, 8, 31, 14, 1, 3, 306888)'
p2277
asbasbasbag57
(g73
g59
NtRp2278
(dp2279
g62
(dp2280
sg71
g67
sg64
(lp2281
g57
(g78
g59
NtRp2282
(dp2283
g62
(dp2284
g82
g83
ssg71
g2278
sg64
(lp2285
S'post_vars'
p2286
asbag57
(g78
g59
NtRp2287
(dp2288
g62
(dp2289
g89
g90
ssg71
g2278
sg64
(lp2290
S':'
asbag57
(g78
g59
NtRp2291
(dp2292
g62
(dp2293
sg71
g2278
sg64
(lp2294
g57
(g58
g59
NtRp2295
(dp2296
g62
(dp2297
g70
I5
ssg71
g2291
sg64
(lp2298
g57
(g66
g59
NtRp2299
(dp2300
g62
(dp2301
g70
I4
ssg71
Nsg64
(lp2302
sbasbasbasbag57
(g73
g59
NtRp2303
(dp2304
g62
(dp2305
sg71
g67
sg64
(lp2306
g57
(g78
g59
NtRp2307
(dp2308
g62
(dp2309
g82
g83
ssg71
g2303
sg64
(lp2310
S'raw_args'
p2311
asbag57
(g78
g59
NtRp2312
(dp2313
g62
(dp2314
g89
g90
ssg71
g2303
sg64
(lp2315
S':'
asbag57
(g78
g59
NtRp2316
(dp2317
g62
(dp2318
sg71
g2303
sg64
(lp2319
g57
(g58
g59
NtRp2320
(dp2321
g62
(dp2322
g70
I5
ssg71
g2316
sg64
(lp2323
S'2'
asbasbasbag57
(g73
g59
NtRp2324
(dp2325
g62
(dp2326
sg71
g67
sg64
(lp2327
g57
(g78
g59
NtRp2328
(dp2329
g62
(dp2330
g82
g83
ssg71
g2324
sg64
(lp2331
S'raw_extension'
p2332
asbag57
(g78
g59
NtRp2333
(dp2334
g62
(dp2335
g89
g90
ssg71
g2324
sg64
(lp2336
S':'
asbag57
(g78
g59
NtRp2337
(dp2338
g62
(dp2339
sg71
g2324
sg64
(lp2340
g57
(g58
g59
NtRp2341
(dp2342
g62
(dp2343
g70
I5
ssg71
g2337
sg64
(lp2344
S'None'
p2345
asbasbasbag57
(g73
g59
NtRp2346
(dp2347
g62
(dp2348
sg71
g67
sg64
(lp2349
g57
(g78
g59
NtRp2350
(dp2351
g62
(dp2352
g82
g83
ssg71
g2346
sg64
(lp2353
S'url'
p2354
asbag57
(g78
g59
NtRp2355
(dp2356
g62
(dp2357
g89
g90
ssg71
g2346
sg64
(lp2358
S':'
asbag57
(g78
g59
NtRp2359
(dp2360
g62
(dp2361
sg71
g2346
sg64
(lp2362
g57
(g58
g59
NtRp2363
(dp2364
g62
(dp2365
g70
I5
ssg71
g2359
sg64
(lp2366
S'/FotoBuk/default/show/2'
p2367
asbasbasbag57
(g73
g59
NtRp2368
(dp2369
g62
(dp2370
sg71
g67
sg64
(lp2371
g57
(g78
g59
NtRp2372
(dp2373
g62
(dp2374
g82
g83
ssg71
g2368
sg64
(lp2375
S'utcnow'
p2376
asbag57
(g78
g59
NtRp2377
(dp2378
g62
(dp2379
g89
g90
ssg71
g2368
sg64
(lp2380
S':'
asbag57
(g78
g59
NtRp2381
(dp2382
g62
(dp2383
sg71
g2368
sg64
(lp2384
g57
(g58
g59
NtRp2385
(dp2386
g62
(dp2387
g70
I5
ssg71
g2381
sg64
(lp2388
S'datetime.datetime(2012, 8, 31, 8, 31, 3, 306918)'
p2389
asbasbasbag57
(g73
g59
NtRp2390
(dp2391
g62
(dp2392
sg71
g67
sg64
(lp2393
g57
(g78
g59
NtRp2394
(dp2395
g62
(dp2396
g82
g83
ssg71
g2390
sg64
(lp2397
S'uuid'
p2398
asbag57
(g78
g59
NtRp2399
(dp2400
g62
(dp2401
g89
g90
ssg71
g2390
sg64
(lp2402
S':'
asbag57
(g78
g59
NtRp2403
(dp2404
g62
(dp2405
sg71
g2390
sg64
(lp2406
g57
(g58
g59
NtRp2407
(dp2408
g62
(dp2409
g70
I5
ssg71
g2403
sg64
(lp2410
S'FotoBuk/127.0.0.1.2012-08-31.14-01-03.8febc333-b94a-4d15-a155-a3e9f22c9ac3'
p2411
asbasbasbag57
(g73
g59
NtRp2412
(dp2413
g62
(dp2414
sg71
g67
sg64
(lp2415
g57
(g78
g59
NtRp2416
(dp2417
g62
(dp2418
g82
g83
ssg71
g2412
sg64
(lp2419
S'vars'
p2420
asbag57
(g78
g59
NtRp2421
(dp2422
g62
(dp2423
g89
g90
ssg71
g2412
sg64
(lp2424
S':'
asbag57
(g78
g59
NtRp2425
(dp2426
g62
(dp2427
sg71
g2412
sg64
(lp2428
g57
(g58
g59
NtRp2429
(dp2430
g62
(dp2431
g70
I5
ssg71
g2425
sg64
(lp2432
g57
(g66
g59
NtRp2433
(dp2434
g62
(dp2435
g70
I4
ssg71
Nsg64
(lp2436
sbasbasbasbag57
(g73
g59
NtRp2437
(dp2438
g62
(dp2439
sg71
g67
sg64
(lp2440
g57
(g78
g59
NtRp2441
(dp2442
g62
(dp2443
g82
g83
ssg71
g2437
sg64
(lp2444
S'wsgi'
p2445
asbag57
(g78
g59
NtRp2446
(dp2447
g62
(dp2448
g89
g90
ssg71
g2437
sg64
(lp2449
S':'
asbag57
(g78
g59
NtRp2450
(dp2451
g62
(dp2452
sg71
g2437
sg64
(lp2453
g57
(g58
g59
NtRp2454
(dp2455
g62
(dp2456
g70
I5
ssg71
g2450
sg64
(lp2457
g57
(g66
g59
NtRp2458
(dp2459
g62
(dp2460
g70
I4
ssg71
Nsg64
(lp2461
g57
(g73
g59
NtRp2462
(dp2463
g62
(dp2464
sg71
g2458
sg64
(lp2465
g57
(g78
g59
NtRp2466
(dp2467
g62
(dp2468
g82
g83
ssg71
g2462
sg64
(lp2469
S'environ'
p2470
asbag57
(g78
g59
NtRp2471
(dp2472
g62
(dp2473
g89
g90
ssg71
g2462
sg64
(lp2474
S':'
asbag57
(g78
g59
NtRp2475
(dp2476
g62
(dp2477
sg71
g2462
sg64
(lp2478
g57
(g58
g59
NtRp2479
(dp2480
g62
(dp2481
g70
I4
ssg71
g2475
sg64
(lp2482
g57
(g66
g59
NtRp2483
(dp2484
g62
(dp2485
g70
I3
ssg71
Nsg64
(lp2486
g57
(g73
g59
NtRp2487
(dp2488
g62
(dp2489
sg71
g2483
sg64
(lp2490
g57
(g78
g59
NtRp2491
(dp2492
g62
(dp2493
g82
g83
ssg71
g2487
sg64
(lp2494
S'HTTP_ACCEPT'
p2495
asbag57
(g78
g59
NtRp2496
(dp2497
g62
(dp2498
g89
g90
ssg71
g2487
sg64
(lp2499
S':'
asbag57
(g78
g59
NtRp2500
(dp2501
g62
(dp2502
sg71
g2487
sg64
(lp2503
g57
(g58
g59
NtRp2504
(dp2505
g62
(dp2506
g70
I3
ssg71
g2500
sg64
(lp2507
g1040
asbasbasbag57
(g73
g59
NtRp2508
(dp2509
g62
(dp2510
sg71
g2483
sg64
(lp2511
g57
(g78
g59
NtRp2512
(dp2513
g62
(dp2514
g82
g83
ssg71
g2508
sg64
(lp2515
S'HTTP_ACCEPT_ENCODING'
p2516
asbag57
(g78
g59
NtRp2517
(dp2518
g62
(dp2519
g89
g90
ssg71
g2508
sg64
(lp2520
S':'
asbag57
(g78
g59
NtRp2521
(dp2522
g62
(dp2523
sg71
g2508
sg64
(lp2524
g57
(g58
g59
NtRp2525
(dp2526
g62
(dp2527
g70
I3
ssg71
g2521
sg64
(lp2528
g1062
asbasbasbag57
(g73
g59
NtRp2529
(dp2530
g62
(dp2531
sg71
g2483
sg64
(lp2532
g57
(g78
g59
NtRp2533
(dp2534
g62
(dp2535
g82
g83
ssg71
g2529
sg64
(lp2536
S'HTTP_ACCEPT_LANGUAGE'
p2537
asbag57
(g78
g59
NtRp2538
(dp2539
g62
(dp2540
g89
g90
ssg71
g2529
sg64
(lp2541
S':'
asbag57
(g78
g59
NtRp2542
(dp2543
g62
(dp2544
sg71
g2529
sg64
(lp2545
g57
(g58
g59
NtRp2546
(dp2547
g62
(dp2548
g70
I3
ssg71
g2542
sg64
(lp2549
g1084
asbasbasbag57
(g73
g59
NtRp2550
(dp2551
g62
(dp2552
sg71
g2483
sg64
(lp2553
g57
(g78
g59
NtRp2554
(dp2555
g62
(dp2556
g82
g83
ssg71
g2550
sg64
(lp2557
S'HTTP_CACHE_CONTROL'
p2558
asbag57
(g78
g59
NtRp2559
(dp2560
g62
(dp2561
g89
g90
ssg71
g2550
sg64
(lp2562
S':'
asbag57
(g78
g59
NtRp2563
(dp2564
g62
(dp2565
sg71
g2550
sg64
(lp2566
g57
(g58
g59
NtRp2567
(dp2568
g62
(dp2569
g70
I3
ssg71
g2563
sg64
(lp2570
g1106
asbasbasbag57
(g73
g59
NtRp2571
(dp2572
g62
(dp2573
sg71
g2483
sg64
(lp2574
g57
(g78
g59
NtRp2575
(dp2576
g62
(dp2577
g82
g83
ssg71
g2571
sg64
(lp2578
S'HTTP_CONNECTION'
p2579
asbag57
(g78
g59
NtRp2580
(dp2581
g62
(dp2582
g89
g90
ssg71
g2571
sg64
(lp2583
S':'
asbag57
(g78
g59
NtRp2584
(dp2585
g62
(dp2586
sg71
g2571
sg64
(lp2587
g57
(g58
g59
NtRp2588
(dp2589
g62
(dp2590
g70
I3
ssg71
g2584
sg64
(lp2591
g1128
asbasbasbag57
(g73
g59
NtRp2592
(dp2593
g62
(dp2594
sg71
g2483
sg64
(lp2595
g57
(g78
g59
NtRp2596
(dp2597
g62
(dp2598
g82
g83
ssg71
g2592
sg64
(lp2599
S'HTTP_COOKIE'
p2600
asbag57
(g78
g59
NtRp2601
(dp2602
g62
(dp2603
g89
g90
ssg71
g2592
sg64
(lp2604
S':'
asbag57
(g78
g59
NtRp2605
(dp2606
g62
(dp2607
sg71
g2592
sg64
(lp2608
g57
(g58
g59
NtRp2609
(dp2610
g62
(dp2611
g70
I3
ssg71
g2605
sg64
(lp2612
g1150
asbasbasbag57
(g73
g59
NtRp2613
(dp2614
g62
(dp2615
sg71
g2483
sg64
(lp2616
g57
(g78
g59
NtRp2617
(dp2618
g62
(dp2619
g82
g83
ssg71
g2613
sg64
(lp2620
S'HTTP_HOST'
p2621
asbag57
(g78
g59
NtRp2622
(dp2623
g62
(dp2624
g89
g90
ssg71
g2613
sg64
(lp2625
S':'
asbag57
(g78
g59
NtRp2626
(dp2627
g62
(dp2628
sg71
g2613
sg64
(lp2629
g57
(g58
g59
NtRp2630
(dp2631
g62
(dp2632
g70
I3
ssg71
g2626
sg64
(lp2633
g1172
asbasbasbag57
(g73
g59
NtRp2634
(dp2635
g62
(dp2636
sg71
g2483
sg64
(lp2637
g57
(g78
g59
NtRp2638
(dp2639
g62
(dp2640
g82
g83
ssg71
g2634
sg64
(lp2641
S'HTTP_USER_AGENT'
p2642
asbag57
(g78
g59
NtRp2643
(dp2644
g62
(dp2645
g89
g90
ssg71
g2634
sg64
(lp2646
S':'
asbag57
(g78
g59
NtRp2647
(dp2648
g62
(dp2649
sg71
g2634
sg64
(lp2650
g57
(g58
g59
NtRp2651
(dp2652
g62
(dp2653
g70
I3
ssg71
g2647
sg64
(lp2654
g1194
asbasbasbag57
(g73
g59
NtRp2655
(dp2656
g62
(dp2657
sg71
g2483
sg64
(lp2658
g57
(g78
g59
NtRp2659
(dp2660
g62
(dp2661
g82
g83
ssg71
g2655
sg64
(lp2662
S'PATH_INFO'
p2663
asbag57
(g78
g59
NtRp2664
(dp2665
g62
(dp2666
g89
g90
ssg71
g2655
sg64
(lp2667
S':'
asbag57
(g78
g59
NtRp2668
(dp2669
g62
(dp2670
sg71
g2655
sg64
(lp2671
g57
(g58
g59
NtRp2672
(dp2673
g62
(dp2674
g70
I3
ssg71
g2668
sg64
(lp2675
g1258
asbasbasbag57
(g73
g59
NtRp2676
(dp2677
g62
(dp2678
sg71
g2483
sg64
(lp2679
g57
(g78
g59
NtRp2680
(dp2681
g62
(dp2682
g82
g83
ssg71
g2676
sg64
(lp2683
S'QUERY_STRING'
p2684
asbag57
(g78
g59
NtRp2685
(dp2686
g62
(dp2687
g89
g90
ssg71
g2676
sg64
(lp2688
S':'
asbag57
(g78
g59
NtRp2689
(dp2690
g62
(dp2691
sg71
g2676
sg64
(lp2692
g57
(g58
g59
NtRp2693
(dp2694
g62
(dp2695
g70
I3
ssg71
g2689
sg64
(lp2696
S''
asbasbasbag57
(g73
g59
NtRp2697
(dp2698
g62
(dp2699
sg71
g2483
sg64
(lp2700
g57
(g78
g59
NtRp2701
(dp2702
g62
(dp2703
g82
g83
ssg71
g2697
sg64
(lp2704
S'REMOTE_ADDR'
p2705
asbag57
(g78
g59
NtRp2706
(dp2707
g62
(dp2708
g89
g90
ssg71
g2697
sg64
(lp2709
S':'
asbag57
(g78
g59
NtRp2710
(dp2711
g62
(dp2712
sg71
g2697
sg64
(lp2713
g57
(g58
g59
NtRp2714
(dp2715
g62
(dp2716
g70
I3
ssg71
g2710
sg64
(lp2717
g224
asbasbasbag57
(g73
g59
NtRp2718
(dp2719
g62
(dp2720
sg71
g2483
sg64
(lp2721
g57
(g78
g59
NtRp2722
(dp2723
g62
(dp2724
g82
g83
ssg71
g2718
sg64
(lp2725
S'REMOTE_PORT'
p2726
asbag57
(g78
g59
NtRp2727
(dp2728
g62
(dp2729
g89
g90
ssg71
g2718
sg64
(lp2730
S':'
asbag57
(g78
g59
NtRp2731
(dp2732
g62
(dp2733
sg71
g2718
sg64
(lp2734
g57
(g58
g59
NtRp2735
(dp2736
g62
(dp2737
g70
I3
ssg71
g2731
sg64
(lp2738
g1322
asbasbasbag57
(g73
g59
NtRp2739
(dp2740
g62
(dp2741
sg71
g2483
sg64
(lp2742
g57
(g78
g59
NtRp2743
(dp2744
g62
(dp2745
g82
g83
ssg71
g2739
sg64
(lp2746
S'REQUEST_METHOD'
p2747
asbag57
(g78
g59
NtRp2748
(dp2749
g62
(dp2750
g89
g90
ssg71
g2739
sg64
(lp2751
S':'
asbag57
(g78
g59
NtRp2752
(dp2753
g62
(dp2754
sg71
g2739
sg64
(lp2755
g57
(g58
g59
NtRp2756
(dp2757
g62
(dp2758
g70
I3
ssg71
g2752
sg64
(lp2759
g1344
asbasbasbag57
(g73
g59
NtRp2760
(dp2761
g62
(dp2762
sg71
g2483
sg64
(lp2763
g57
(g78
g59
NtRp2764
(dp2765
g62
(dp2766
g82
g83
ssg71
g2760
sg64
(lp2767
S'SCRIPT_NAME'
p2768
asbag57
(g78
g59
NtRp2769
(dp2770
g62
(dp2771
g89
g90
ssg71
g2760
sg64
(lp2772
S':'
asbag57
(g78
g59
NtRp2773
(dp2774
g62
(dp2775
sg71
g2760
sg64
(lp2776
g57
(g58
g59
NtRp2777
(dp2778
g62
(dp2779
g70
I3
ssg71
g2773
sg64
(lp2780
S''
asbasbasbag57
(g73
g59
NtRp2781
(dp2782
g62
(dp2783
sg71
g2483
sg64
(lp2784
g57
(g78
g59
NtRp2785
(dp2786
g62
(dp2787
g82
g83
ssg71
g2781
sg64
(lp2788
S'SERVER_NAME'
p2789
asbag57
(g78
g59
NtRp2790
(dp2791
g62
(dp2792
g89
g90
ssg71
g2781
sg64
(lp2793
S':'
asbag57
(g78
g59
NtRp2794
(dp2795
g62
(dp2796
sg71
g2781
sg64
(lp2797
g57
(g58
g59
NtRp2798
(dp2799
g62
(dp2800
g70
I3
ssg71
g2794
sg64
(lp2801
g1387
asbasbasbag57
(g73
g59
NtRp2802
(dp2803
g62
(dp2804
sg71
g2483
sg64
(lp2805
g57
(g78
g59
NtRp2806
(dp2807
g62
(dp2808
g82
g83
ssg71
g2802
sg64
(lp2809
S'SERVER_PORT'
p2810
asbag57
(g78
g59
NtRp2811
(dp2812
g62
(dp2813
g89
g90
ssg71
g2802
sg64
(lp2814
S':'
asbag57
(g78
g59
NtRp2815
(dp2816
g62
(dp2817
sg71
g2802
sg64
(lp2818
g57
(g58
g59
NtRp2819
(dp2820
g62
(dp2821
g70
I3
ssg71
g2815
sg64
(lp2822
g1409
asbasbasbag57
(g73
g59
NtRp2823
(dp2824
g62
(dp2825
sg71
g2483
sg64
(lp2826
g57
(g78
g59
NtRp2827
(dp2828
g62
(dp2829
g82
g83
ssg71
g2823
sg64
(lp2830
S'SERVER_PROTOCOL'
p2831
asbag57
(g78
g59
NtRp2832
(dp2833
g62
(dp2834
g89
g90
ssg71
g2823
sg64
(lp2835
S':'
asbag57
(g78
g59
NtRp2836
(dp2837
g62
(dp2838
sg71
g2823
sg64
(lp2839
g57
(g58
g59
NtRp2840
(dp2841
g62
(dp2842
g70
I3
ssg71
g2836
sg64
(lp2843
g1431
asbasbasbag57
(g73
g59
NtRp2844
(dp2845
g62
(dp2846
sg71
g2483
sg64
(lp2847
g57
(g78
g59
NtRp2848
(dp2849
g62
(dp2850
g82
g83
ssg71
g2844
sg64
(lp2851
S'SERVER_SOFTWARE'
p2852
asbag57
(g78
g59
NtRp2853
(dp2854
g62
(dp2855
g89
g90
ssg71
g2844
sg64
(lp2856
S':'
asbag57
(g78
g59
NtRp2857
(dp2858
g62
(dp2859
sg71
g2844
sg64
(lp2860
g57
(g58
g59
NtRp2861
(dp2862
g62
(dp2863
g70
I3
ssg71
g2857
sg64
(lp2864
g1453
asbasbasbag57
(g73
g59
NtRp2865
(dp2866
g62
(dp2867
sg71
g2483
sg64
(lp2868
g57
(g78
g59
NtRp2869
(dp2870
g62
(dp2871
g82
g83
ssg71
g2865
sg64
(lp2872
S'wsgi.errors'
p2873
asbag57
(g78
g59
NtRp2874
(dp2875
g62
(dp2876
g89
g90
ssg71
g2865
sg64
(lp2877
S':'
asbag57
(g78
g59
NtRp2878
(dp2879
g62
(dp2880
sg71
g2865
sg64
(lp2881
g57
(g58
g59
NtRp2882
(dp2883
g62
(dp2884
g70
I3
ssg71
g2878
sg64
(lp2885
S"<open file '<stderr>', mode 'w' at 0xb772d0d0>"
p2886
asbasbasbag57
(g73
g59
NtRp2887
(dp2888
g62
(dp2889
sg71
g2483
sg64
(lp2890
g57
(g78
g59
NtRp2891
(dp2892
g62
(dp2893
g82
g83
ssg71
g2887
sg64
(lp2894
S'wsgi.file_wrapper'
p2895
asbag57
(g78
g59
NtRp2896
(dp2897
g62
(dp2898
g89
g90
ssg71
g2887
sg64
(lp2899
S':'
asbag57
(g78
g59
NtRp2900
(dp2901
g62
(dp2902
sg71
g2887
sg64
(lp2903
g57
(g58
g59
NtRp2904
(dp2905
g62
(dp2906
g70
I3
ssg71
g2900
sg64
(lp2907
S'<class wsgiref.util.FileWrapper at 0x8d0326c>'
p2908
asbasbasbag57
(g73
g59
NtRp2909
(dp2910
g62
(dp2911
sg71
g2483
sg64
(lp2912
g57
(g78
g59
NtRp2913
(dp2914
g62
(dp2915
g82
g83
ssg71
g2909
sg64
(lp2916
S'wsgi.input'
p2917
asbag57
(g78
g59
NtRp2918
(dp2919
g62
(dp2920
g89
g90
ssg71
g2909
sg64
(lp2921
S':'
asbag57
(g78
g59
NtRp2922
(dp2923
g62
(dp2924
sg71
g2909
sg64
(lp2925
g57
(g58
g59
NtRp2926
(dp2927
g62
(dp2928
g70
I3
ssg71
g2922
sg64
(lp2929
S'<cStringIO.StringO object at 0xb39eaa00>'
p2930
asbasbasbag57
(g73
g59
NtRp2931
(dp2932
g62
(dp2933
sg71
g2483
sg64
(lp2934
g57
(g78
g59
NtRp2935
(dp2936
g62
(dp2937
g82
g83
ssg71
g2931
sg64
(lp2938
S'wsgi.multiprocess'
p2939
asbag57
(g78
g59
NtRp2940
(dp2941
g62
(dp2942
g89
g90
ssg71
g2931
sg64
(lp2943
S':'
asbag57
(g78
g59
NtRp2944
(dp2945
g62
(dp2946
sg71
g2931
sg64
(lp2947
g57
(g58
g59
NtRp2948
(dp2949
g62
(dp2950
g70
I3
ssg71
g2944
sg64
(lp2951
g100
asbasbasbag57
(g73
g59
NtRp2952
(dp2953
g62
(dp2954
sg71
g2483
sg64
(lp2955
g57
(g78
g59
NtRp2956
(dp2957
g62
(dp2958
g82
g83
ssg71
g2952
sg64
(lp2959
S'wsgi.multithread'
p2960
asbag57
(g78
g59
NtRp2961
(dp2962
g62
(dp2963
g89
g90
ssg71
g2952
sg64
(lp2964
S':'
asbag57
(g78
g59
NtRp2965
(dp2966
g62
(dp2967
sg71
g2952
sg64
(lp2968
g57
(g58
g59
NtRp2969
(dp2970
g62
(dp2971
g70
I3
ssg71
g2965
sg64
(lp2972
g1692
asbasbasbag57
(g73
g59
NtRp2973
(dp2974
g62
(dp2975
sg71
g2483
sg64
(lp2976
g57
(g78
g59
NtRp2977
(dp2978
g62
(dp2979
g82
g83
ssg71
g2973
sg64
(lp2980
S'wsgi.run_once'
p2981
asbag57
(g78
g59
NtRp2982
(dp2983
g62
(dp2984
g89
g90
ssg71
g2973
sg64
(lp2985
S':'
asbag57
(g78
g59
NtRp2986
(dp2987
g62
(dp2988
sg71
g2973
sg64
(lp2989
g57
(g58
g59
NtRp2990
(dp2991
g62
(dp2992
g70
I3
ssg71
g2986
sg64
(lp2993
g100
asbasbasbag57
(g73
g59
NtRp2994
(dp2995
g62
(dp2996
sg71
g2483
sg64
(lp2997
g57
(g78
g59
NtRp2998
(dp2999
g62
(dp3000
g82
g83
ssg71
g2994
sg64
(lp3001
S'wsgi.url_scheme'
p3002
asbag57
(g78
g59
NtRp3003
(dp3004
g62
(dp3005
g89
g90
ssg71
g2994
sg64
(lp3006
S':'
asbag57
(g78
g59
NtRp3007
(dp3008
g62
(dp3009
sg71
g2994
sg64
(lp3010
g57
(g58
g59
NtRp3011
(dp3012
g62
(dp3013
g70
I3
ssg71
g3007
sg64
(lp3014
g1735
asbasbasbag57
(g73
g59
NtRp3015
(dp3016
g62
(dp3017
sg71
g2483
sg64
(lp3018
g57
(g78
g59
NtRp3019
(dp3020
g62
(dp3021
g82
g83
ssg71
g3015
sg64
(lp3022
S'wsgi.version'
p3023
asbag57
(g78
g59
NtRp3024
(dp3025
g62
(dp3026
g89
g90
ssg71
g3015
sg64
(lp3027
S':'
asbag57
(g78
g59
NtRp3028
(dp3029
g62
(dp3030
sg71
g3015
sg64
(lp3031
g57
(g58
g59
NtRp3032
(dp3033
g62
(dp3034
g70
I3
ssg71
g3028
sg64
(lp3035
S'1'
asbasbasbasbasbasbasbasbasbasbasbasbasbsS'frames'
p3036
(lp3037
(dp3038
S'file'
p3039
S'/home/piyush/web2py/gluon/restricted.py'
p3040
sS'dump'
p3041
(dp3042
S'environment'
p3043
S"{'A': <class 'gluon.html.A'>, 'Auth': <class 'gluon.tools.Auth'>, 'B': <class 'gluon.html.B'>, 'BEAUTIFY': <class 'gluon.html.BEAUTIFY'>, 'BODY': <class 'gluon.html.BODY'>, 'BR': <class 'gluon.html.BR'>, 'BUTTON': <class 'gluon.html.BUTTON'>, 'CAT': <class 'gluon.html.CAT'>, 'CENTER': <class 'gluon.html.CENTER'>, 'CLEANUP': <class 'gluon.validators.CLEANUP'>, ...}"
p3044
sS'ccode'
p3045
S'<code object <module> at 0xaeeb2ad0, file "/home...ications/FotoBuk/controllers/default.py", line 1>'
p3046
ssS'lnum'
p3047
I209
sS'lines'
p3048
(dp3049
I204
S'    try:'
p3050
sI205
S'        if type(code) == types.CodeType:'
p3051
sI206
S'            ccode = code'
p3052
sI207
S'        else:'
p3053
sI208
S'            ccode = compile2(code,layer)'
p3054
sI209
S'        exec ccode in environment'
p3055
sI210
S'    except HTTP:'
p3056
sI211
S'        raise'
p3057
sI212
S'    except RestrictedError:'
p3058
sI213
S'        # do not encapsulate (obfuscate) the original RestrictedError'
p3059
ssS'call'
p3060
S"(code='@auth.requires_login()\\ndef index():\\n\\tli=db(db.im...quest,db)\\n\\nresponse._vars=response._caller(show)\\n', environment={'A': <class 'gluon.html.A'>, 'Auth': <class 'gluon.tools.Auth'>, 'B': <class 'gluon.html.B'>, 'BEAUTIFY': <class 'gluon.html.BEAUTIFY'>, 'BODY': <class 'gluon.html.BODY'>, 'BR': <class 'gluon.html.BR'>, 'BUTTON': <class 'gluon.html.BUTTON'>, 'CAT': <class 'gluon.html.CAT'>, 'CENTER': <class 'gluon.html.CENTER'>, 'CLEANUP': <class 'gluon.validators.CLEANUP'>, ...}, layer='/home/piyush/web2py/applications/FotoBuk/controllers/default.py')"
p3061
sS'func'
p3062
S'restricted'
p3063
sa(dp3064
g3039
S'/home/piyush/web2py/applications/FotoBuk/controllers/default.py'
p3065
sg3041
(dp3066
sg3047
I61
sg3048
(dp3067
I50
S''
sI51
S'def delete():'
p3068
sI52
S'    db(db.image.id==request.args(0)).delete()'
p3069
sI53
S'    image = db(db.image.id==request.args(0)).select()'
p3070
sI54
S''
sI55
S'def user():'
p3071
sI56
S'\treturn dict(form=auth())'
p3072
sI57
S''
sI58
S'def download():'
p3073
sI59
S'\treturn response.download(request,db)'
p3074
ssg3060
S'()'
p3075
sg3062
S'<module>'
p3076
sa(dp3077
g3039
S'/home/piyush/web2py/gluon/globals.py'
p3078
sg3041
(dp3079
S'self'
p3080
S'undefined'
p3081
sS'f'
S'<function show>'
p3082
ssg3047
I185
sg3048
(dp3083
I180
S'        self.menu = []             # used by the default view layout'
p3084
sI181
S'        self.files = []            # used by web2py_ajax.html'
p3085
sI182
S'        self.generic_patterns = [] # patterns to allow generic views'
p3086
sI183
S"        self.delimiters = ('{{','}}')"
p3087
sI184
S'        self._vars = None'
p3088
sI185
S'        self._caller = lambda f: f()'
p3089
sI186
S'        self._view_environment = None'
p3090
sI187
S'        self._custom_commit = None'
p3091
sI188
S'        self._custom_rollback = None'
p3092
sI189
S''
ssg3060
S'(f=<function show>)'
p3093
sg3062
S'<lambda>'
p3094
sa(dp3095
g3039
S'/home/piyush/web2py/gluon/tools.py'
p3096
sg3041
(dp3097
S'action'
p3098
S'<function show>'
p3099
sS'a'
S'()'
p3100
sS'b'
g45
ssg3047
I2776
sg3048
(dp3101
I2771
S'                    flag = condition'
p3102
sI2772
S'                if not flag:'
p3103
sI2773
S'                    current.session.flash = self.messages.access_denied'
p3104
sI2774
S'                    return call_or_redirect('
p3105
sI2775
S'                        self.settings.on_failed_authorization)'
p3106
sI2776
S'                return action(*a, **b)'
p3107
sI2777
S'            f.__doc__ = action.__doc__'
p3108
sI2778
S'            f.__name__ = action.__name__'
p3109
sI2779
S'            f.__dict__.update(action.__dict__)'
p3110
sI2780
S'            return f'
p3111
ssg3060
S'(*a=(), **b={})'
p3112
sg3062
S'f'
sa(dp3113
g3039
S'/home/piyush/web2py/applications/FotoBuk/controllers/default.py'
p3114
sg3041
(dp3115
S'query'
p3116
g3081
sS'image'
p3117
S"<Row {'comment': <Set (comment.image_id = 2)>, '... <gluon.dal.RecordDeleter object at 0xaec9e78c>}>"
p3118
sS'image.id'
p3119
S'2'
sS'like'
p3120
g3081
sS'cur_user'
p3121
S'1'
ssg3047
I23
sg3048
(dp3122
I18
S'    image = db(db.image.id==request.args(0)).select().first()'
p3123
sI19
S'    db.comment.image_id.default = image.id'
p3124
sI20
S'    cur_user=auth.user_id'
p3125
sI21
S'    form = SQLFORM(db.comment)'
p3126
sI22
S'    likes = db(db.like.like_id==image.id).select()'
p3127
sI23
S'    query = (like.like_id==image.id and like.liker==cur_user)'
p3128
sI24
S'    if db(query).count>0:'
p3129
sI25
S'    #if db((db.like.like_id==image.id) and (db.like.liker==int(cur_user))).count()> 0:'
p3130
sI26
S'\t    flag=1;'
p3131
sI27
S'    else:'
p3132
ssg3060
S'()'
p3133
sg3062
S'show'
p3134
sasS'pyver'
p3135
S'Python 2.7.2: /usr/bin/python'
p3136
sS'session'
p3137
g57
(g58
g59
NtRp3138
(dp3139
g62
(dp3140
sg64
(lp3141
g57
(g66
g59
NtRp3142
(dp3143
g62
(dp3144
g70
I5
ssg71
Nsg64
(lp3145
g57
(g73
g59
NtRp3146
(dp3147
g62
(dp3148
sg71
g3142
sg64
(lp3149
g57
(g78
g59
NtRp3150
(dp3151
g62
(dp3152
g82
g83
ssg71
g3146
sg64
(lp3153
S'auth'
p3154
asbag57
(g78
g59
NtRp3155
(dp3156
g62
(dp3157
g89
g90
ssg71
g3146
sg64
(lp3158
S':'
asbag57
(g78
g59
NtRp3159
(dp3160
g62
(dp3161
sg71
g3146
sg64
(lp3162
g57
(g58
g59
NtRp3163
(dp3164
g62
(dp3165
g70
I5
ssg71
g3159
sg64
(lp3166
g57
(g66
g59
NtRp3167
(dp3168
g62
(dp3169
g70
I4
ssg71
Nsg64
(lp3170
g57
(g73
g59
NtRp3171
(dp3172
g62
(dp3173
sg71
g3167
sg64
(lp3174
g57
(g78
g59
NtRp3175
(dp3176
g62
(dp3177
g82
g83
ssg71
g3171
sg64
(lp3178
S'expiration'
p3179
asbag57
(g78
g59
NtRp3180
(dp3181
g62
(dp3182
g89
g90
ssg71
g3171
sg64
(lp3183
S':'
asbag57
(g78
g59
NtRp3184
(dp3185
g62
(dp3186
sg71
g3171
sg64
(lp3187
g57
(g58
g59
NtRp3188
(dp3189
g62
(dp3190
g70
I4
ssg71
g3184
sg64
(lp3191
S'3600'
p3192
asbasbasbag57
(g73
g59
NtRp3193
(dp3194
g62
(dp3195
sg71
g3167
sg64
(lp3196
g57
(g78
g59
NtRp3197
(dp3198
g62
(dp3199
g82
g83
ssg71
g3193
sg64
(lp3200
S'hmac_key'
p3201
asbag57
(g78
g59
NtRp3202
(dp3203
g62
(dp3204
g89
g90
ssg71
g3193
sg64
(lp3205
S':'
asbag57
(g78
g59
NtRp3206
(dp3207
g62
(dp3208
sg71
g3193
sg64
(lp3209
g57
(g58
g59
NtRp3210
(dp3211
g62
(dp3212
g70
I4
ssg71
g3206
sg64
(lp3213
S'34caddca-8413-4a49-8910-7936269d9f94'
p3214
asbasbasbag57
(g73
g59
NtRp3215
(dp3216
g62
(dp3217
sg71
g3167
sg64
(lp3218
g57
(g78
g59
NtRp3219
(dp3220
g62
(dp3221
g82
g83
ssg71
g3215
sg64
(lp3222
S'last_visit'
p3223
asbag57
(g78
g59
NtRp3224
(dp3225
g62
(dp3226
g89
g90
ssg71
g3215
sg64
(lp3227
S':'
asbag57
(g78
g59
NtRp3228
(dp3229
g62
(dp3230
sg71
g3215
sg64
(lp3231
g57
(g58
g59
NtRp3232
(dp3233
g62
(dp3234
g70
I4
ssg71
g3228
sg64
(lp3235
S'datetime.datetime(2012, 8, 31, 14, 1, 3, 306888)'
p3236
asbasbasbag57
(g73
g59
NtRp3237
(dp3238
g62
(dp3239
sg71
g3167
sg64
(lp3240
g57
(g78
g59
NtRp3241
(dp3242
g62
(dp3243
g82
g83
ssg71
g3237
sg64
(lp3244
S'remember'
p3245
asbag57
(g78
g59
NtRp3246
(dp3247
g62
(dp3248
g89
g90
ssg71
g3237
sg64
(lp3249
S':'
asbag57
(g78
g59
NtRp3250
(dp3251
g62
(dp3252
sg71
g3237
sg64
(lp3253
g57
(g58
g59
NtRp3254
(dp3255
g62
(dp3256
g70
I4
ssg71
g3250
sg64
(lp3257
g100
asbasbasbag57
(g73
g59
NtRp3258
(dp3259
g62
(dp3260
sg71
g3167
sg64
(lp3261
g57
(g78
g59
NtRp3262
(dp3263
g62
(dp3264
g82
g83
ssg71
g3258
sg64
(lp3265
S'user'
p3266
asbag57
(g78
g59
NtRp3267
(dp3268
g62
(dp3269
g89
g90
ssg71
g3258
sg64
(lp3270
S':'
asbag57
(g78
g59
NtRp3271
(dp3272
g62
(dp3273
sg71
g3258
sg64
(lp3274
g57
(g58
g59
NtRp3275
(dp3276
g62
(dp3277
g70
I4
ssg71
g3271
sg64
(lp3278
g57
(g66
g59
NtRp3279
(dp3280
g62
(dp3281
g70
I3
ssg71
Nsg64
(lp3282
g57
(g73
g59
NtRp3283
(dp3284
g62
(dp3285
sg71
g3279
sg64
(lp3286
g57
(g78
g59
NtRp3287
(dp3288
g62
(dp3289
g82
g83
ssg71
g3283
sg64
(lp3290
S'email'
p3291
asbag57
(g78
g59
NtRp3292
(dp3293
g62
(dp3294
g89
g90
ssg71
g3283
sg64
(lp3295
S':'
asbag57
(g78
g59
NtRp3296
(dp3297
g62
(dp3298
sg71
g3283
sg64
(lp3299
g57
(g58
g59
NtRp3300
(dp3301
g62
(dp3302
g70
I3
ssg71
g3296
sg64
(lp3303
S'piyush.bansal@students.iiit.ac.in'
p3304
asbasbasbag57
(g73
g59
NtRp3305
(dp3306
g62
(dp3307
sg71
g3279
sg64
(lp3308
g57
(g78
g59
NtRp3309
(dp3310
g62
(dp3311
g82
g83
ssg71
g3305
sg64
(lp3312
S'first_name'
p3313
asbag57
(g78
g59
NtRp3314
(dp3315
g62
(dp3316
g89
g90
ssg71
g3305
sg64
(lp3317
S':'
asbag57
(g78
g59
NtRp3318
(dp3319
g62
(dp3320
sg71
g3305
sg64
(lp3321
g57
(g58
g59
NtRp3322
(dp3323
g62
(dp3324
g70
I3
ssg71
g3318
sg64
(lp3325
S'piyush'
p3326
asbasbasbag57
(g73
g59
NtRp3327
(dp3328
g62
(dp3329
sg71
g3279
sg64
(lp3330
g57
(g78
g59
NtRp3331
(dp3332
g62
(dp3333
g82
g83
ssg71
g3327
sg64
(lp3334
S'id'
p3335
asbag57
(g78
g59
NtRp3336
(dp3337
g62
(dp3338
g89
g90
ssg71
g3327
sg64
(lp3339
S':'
asbag57
(g78
g59
NtRp3340
(dp3341
g62
(dp3342
sg71
g3327
sg64
(lp3343
g57
(g58
g59
NtRp3344
(dp3345
g62
(dp3346
g70
I3
ssg71
g3340
sg64
(lp3347
S'1'
asbasbasbag57
(g73
g59
NtRp3348
(dp3349
g62
(dp3350
sg71
g3279
sg64
(lp3351
g57
(g78
g59
NtRp3352
(dp3353
g62
(dp3354
g82
g83
ssg71
g3348
sg64
(lp3355
S'last_name'
p3356
asbag57
(g78
g59
NtRp3357
(dp3358
g62
(dp3359
g89
g90
ssg71
g3348
sg64
(lp3360
S':'
asbag57
(g78
g59
NtRp3361
(dp3362
g62
(dp3363
sg71
g3348
sg64
(lp3364
g57
(g58
g59
NtRp3365
(dp3366
g62
(dp3367
g70
I3
ssg71
g3361
sg64
(lp3368
S'bansal'
p3369
asbasbasbag57
(g73
g59
NtRp3370
(dp3371
g62
(dp3372
sg71
g3279
sg64
(lp3373
g57
(g78
g59
NtRp3374
(dp3375
g62
(dp3376
g82
g83
ssg71
g3370
sg64
(lp3377
S'password'
p3378
asbag57
(g78
g59
NtRp3379
(dp3380
g62
(dp3381
g89
g90
ssg71
g3370
sg64
(lp3382
S':'
asbag57
(g78
g59
NtRp3383
(dp3384
g62
(dp3385
sg71
g3370
sg64
(lp3386
g57
(g58
g59
NtRp3387
(dp3388
g62
(dp3389
g70
I3
ssg71
g3383
sg64
(lp3390
S'pbkdf2(1000,20,sha512)$913ba6c957a64f30$d4b59e0f074c5a6d9fd585309ed33902fece40a6'
p3391
asbasbasbag57
(g73
g59
NtRp3392
(dp3393
g62
(dp3394
sg71
g3279
sg64
(lp3395
g57
(g78
g59
NtRp3396
(dp3397
g62
(dp3398
g82
g83
ssg71
g3392
sg64
(lp3399
S'registration_id'
p3400
asbag57
(g78
g59
NtRp3401
(dp3402
g62
(dp3403
g89
g90
ssg71
g3392
sg64
(lp3404
S':'
asbag57
(g78
g59
NtRp3405
(dp3406
g62
(dp3407
sg71
g3392
sg64
(lp3408
g57
(g58
g59
NtRp3409
(dp3410
g62
(dp3411
g70
I3
ssg71
g3405
sg64
(lp3412
S''
asbasbasbag57
(g73
g59
NtRp3413
(dp3414
g62
(dp3415
sg71
g3279
sg64
(lp3416
g57
(g78
g59
NtRp3417
(dp3418
g62
(dp3419
g82
g83
ssg71
g3413
sg64
(lp3420
S'registration_key'
p3421
asbag57
(g78
g59
NtRp3422
(dp3423
g62
(dp3424
g89
g90
ssg71
g3413
sg64
(lp3425
S':'
asbag57
(g78
g59
NtRp3426
(dp3427
g62
(dp3428
sg71
g3413
sg64
(lp3429
g57
(g58
g59
NtRp3430
(dp3431
g62
(dp3432
g70
I3
ssg71
g3426
sg64
(lp3433
S''
asbasbasbag57
(g73
g59
NtRp3434
(dp3435
g62
(dp3436
sg71
g3279
sg64
(lp3437
g57
(g78
g59
NtRp3438
(dp3439
g62
(dp3440
g82
g83
ssg71
g3434
sg64
(lp3441
S'reset_password_key'
p3442
asbag57
(g78
g59
NtRp3443
(dp3444
g62
(dp3445
g89
g90
ssg71
g3434
sg64
(lp3446
S':'
asbag57
(g78
g59
NtRp3447
(dp3448
g62
(dp3449
sg71
g3434
sg64
(lp3450
g57
(g58
g59
NtRp3451
(dp3452
g62
(dp3453
g70
I3
ssg71
g3447
sg64
(lp3454
S''
asbasbasbasbasbasbasbag57
(g73
g59
NtRp3455
(dp3456
g62
(dp3457
sg71
g3167
sg64
(lp3458
g57
(g78
g59
NtRp3459
(dp3460
g62
(dp3461
g82
g83
ssg71
g3455
sg64
(lp3462
S'user_groups'
p3463
asbag57
(g78
g59
NtRp3464
(dp3465
g62
(dp3466
g89
g90
ssg71
g3455
sg64
(lp3467
S':'
asbag57
(g78
g59
NtRp3468
(dp3469
g62
(dp3470
sg71
g3455
sg64
(lp3471
g57
(g58
g59
NtRp3472
(dp3473
g62
(dp3474
g70
I4
ssg71
g3468
sg64
(lp3475
g57
(g66
g59
NtRp3476
(dp3477
g62
(dp3478
g70
I3
ssg71
Nsg64
(lp3479
g57
(g73
g59
NtRp3480
(dp3481
g62
(dp3482
sg71
g3476
sg64
(lp3483
g57
(g78
g59
NtRp3484
(dp3485
g62
(dp3486
g82
g83
ssg71
g3480
sg64
(lp3487
S'1'
asbag57
(g78
g59
NtRp3488
(dp3489
g62
(dp3490
g89
g90
ssg71
g3480
sg64
(lp3491
S':'
asbag57
(g78
g59
NtRp3492
(dp3493
g62
(dp3494
sg71
g3480
sg64
(lp3495
g57
(g58
g59
NtRp3496
(dp3497
g62
(dp3498
g70
I3
ssg71
g3492
sg64
(lp3499
S'user_1'
p3500
asbasbasbasbasbasbasbasbasbasbasbag57
(g73
g59
NtRp3501
(dp3502
g62
(dp3503
sg71
g3142
sg64
(lp3504
g57
(g78
g59
NtRp3505
(dp3506
g62
(dp3507
g82
g83
ssg71
g3501
sg64
(lp3508
S'flash'
p3509
asbag57
(g78
g59
NtRp3510
(dp3511
g62
(dp3512
g89
g90
ssg71
g3501
sg64
(lp3513
S':'
asbag57
(g78
g59
NtRp3514
(dp3515
g62
(dp3516
sg71
g3501
sg64
(lp3517
g57
(g58
g59
NtRp3518
(dp3519
g62
(dp3520
g70
I5
ssg71
g3514
sg64
(lp3521
S'None'
p3522
asbasbasbasbasbsS'etype'
p3523
S"<type 'exceptions.NameError'>"
p3524
sS'date'
p3525
S'Fri Aug 31 14:01:03 2012'
p3526
sS'response'
p3527
g57
(g58
g59
NtRp3528
(dp3529
g62
(dp3530
sg64
(lp3531
g57
(g66
g59
NtRp3532
(dp3533
g62
(dp3534
g70
I5
ssg71
Nsg64
(lp3535
g57
(g73
g59
NtRp3536
(dp3537
g62
(dp3538
sg71
g3532
sg64
(lp3539
g57
(g78
g59
NtRp3540
(dp3541
g62
(dp3542
g82
g83
ssg71
g3536
sg64
(lp3543
g167
asbag57
(g78
g59
NtRp3544
(dp3545
g62
(dp3546
g89
g90
ssg71
g3536
sg64
(lp3547
S':'
asbag57
(g78
g59
NtRp3548
(dp3549
g62
(dp3550
sg71
g3536
sg64
(lp3551
g57
(g58
g59
NtRp3552
(dp3553
g62
(dp3554
g70
I5
ssg71
g3548
sg64
(lp3555
S'<cStringIO.StringO object at 0xae610540>'
p3556
asbasbasbag57
(g73
g59
NtRp3557
(dp3558
g62
(dp3559
sg71
g3532
sg64
(lp3560
g57
(g78
g59
NtRp3561
(dp3562
g62
(dp3563
g82
g83
ssg71
g3557
sg64
(lp3564
g255
asbag57
(g78
g59
NtRp3565
(dp3566
g62
(dp3567
g89
g90
ssg71
g3557
sg64
(lp3568
S':'
asbag57
(g78
g59
NtRp3569
(dp3570
g62
(dp3571
sg71
g3557
sg64
(lp3572
g57
(g58
g59
NtRp3573
(dp3574
g62
(dp3575
g70
I5
ssg71
g3569
sg64
(lp3576
g57
(g66
g59
NtRp3577
(dp3578
g62
(dp3579
g70
I4
ssg71
Nsg64
(lp3580
g57
(g73
g59
NtRp3581
(dp3582
g62
(dp3583
sg71
g3577
sg64
(lp3584
g57
(g78
g59
NtRp3585
(dp3586
g62
(dp3587
g82
g83
ssg71
g3581
sg64
(lp3588
S'session_id_fotobuk'
p3589
asbag57
(g78
g59
NtRp3590
(dp3591
g62
(dp3592
g89
g90
ssg71
g3581
sg64
(lp3593
S':'
asbag57
(g78
g59
NtRp3594
(dp3595
g62
(dp3596
sg71
g3581
sg64
(lp3597
g57
(g58
g59
NtRp3598
(dp3599
g62
(dp3600
g70
I4
ssg71
g3594
sg64
(lp3601
g487
ag57
(g66
g59
NtRp3602
(dp3603
g62
(dp3604
g70
I3
ssg71
Nsg64
(lp3605
g57
(g73
g59
NtRp3606
(dp3607
g62
(dp3608
sg71
g3602
sg64
(lp3609
g57
(g78
g59
NtRp3610
(dp3611
g62
(dp3612
g82
g83
ssg71
g3606
sg64
(lp3613
g306
asbag57
(g78
g59
NtRp3614
(dp3615
g62
(dp3616
g89
g90
ssg71
g3606
sg64
(lp3617
S':'
asbag57
(g78
g59
NtRp3618
(dp3619
g62
(dp3620
sg71
g3606
sg64
(lp3621
g57
(g58
g59
NtRp3622
(dp3623
g62
(dp3624
g70
I3
ssg71
g3618
sg64
(lp3625
S''
asbasbasbag57
(g73
g59
NtRp3626
(dp3627
g62
(dp3628
sg71
g3602
sg64
(lp3629
g57
(g78
g59
NtRp3630
(dp3631
g62
(dp3632
g82
g83
ssg71
g3626
sg64
(lp3633
g327
asbag57
(g78
g59
NtRp3634
(dp3635
g62
(dp3636
g89
g90
ssg71
g3626
sg64
(lp3637
S':'
asbag57
(g78
g59
NtRp3638
(dp3639
g62
(dp3640
sg71
g3626
sg64
(lp3641
g57
(g58
g59
NtRp3642
(dp3643
g62
(dp3644
g70
I3
ssg71
g3638
sg64
(lp3645
S''
asbasbasbag57
(g73
g59
NtRp3646
(dp3647
g62
(dp3648
sg71
g3602
sg64
(lp3649
g57
(g78
g59
NtRp3650
(dp3651
g62
(dp3652
g82
g83
ssg71
g3646
sg64
(lp3653
g348
asbag57
(g78
g59
NtRp3654
(dp3655
g62
(dp3656
g89
g90
ssg71
g3646
sg64
(lp3657
S':'
asbag57
(g78
g59
NtRp3658
(dp3659
g62
(dp3660
sg71
g3646
sg64
(lp3661
g57
(g58
g59
NtRp3662
(dp3663
g62
(dp3664
g70
I3
ssg71
g3658
sg64
(lp3665
S''
asbasbasbag57
(g73
g59
NtRp3666
(dp3667
g62
(dp3668
sg71
g3602
sg64
(lp3669
g57
(g78
g59
NtRp3670
(dp3671
g62
(dp3672
g82
g83
ssg71
g3666
sg64
(lp3673
g369
asbag57
(g78
g59
NtRp3674
(dp3675
g62
(dp3676
g89
g90
ssg71
g3666
sg64
(lp3677
S':'
asbag57
(g78
g59
NtRp3678
(dp3679
g62
(dp3680
sg71
g3666
sg64
(lp3681
g57
(g58
g59
NtRp3682
(dp3683
g62
(dp3684
g70
I3
ssg71
g3678
sg64
(lp3685
S''
asbasbasbag57
(g73
g59
NtRp3686
(dp3687
g62
(dp3688
sg71
g3602
sg64
(lp3689
g57
(g78
g59
NtRp3690
(dp3691
g62
(dp3692
g82
g83
ssg71
g3686
sg64
(lp3693
g390
asbag57
(g78
g59
NtRp3694
(dp3695
g62
(dp3696
g89
g90
ssg71
g3686
sg64
(lp3697
S':'
asbag57
(g78
g59
NtRp3698
(dp3699
g62
(dp3700
sg71
g3686
sg64
(lp3701
g57
(g58
g59
NtRp3702
(dp3703
g62
(dp3704
g70
I3
ssg71
g3698
sg64
(lp3705
S''
asbasbasbag57
(g73
g59
NtRp3706
(dp3707
g62
(dp3708
sg71
g3602
sg64
(lp3709
g57
(g78
g59
NtRp3710
(dp3711
g62
(dp3712
g82
g83
ssg71
g3706
sg64
(lp3713
g411
asbag57
(g78
g59
NtRp3714
(dp3715
g62
(dp3716
g89
g90
ssg71
g3706
sg64
(lp3717
S':'
asbag57
(g78
g59
NtRp3718
(dp3719
g62
(dp3720
sg71
g3706
sg64
(lp3721
g57
(g58
g59
NtRp3722
(dp3723
g62
(dp3724
g70
I3
ssg71
g3718
sg64
(lp3725
S'/'
asbasbasbag57
(g73
g59
NtRp3726
(dp3727
g62
(dp3728
sg71
g3602
sg64
(lp3729
g57
(g78
g59
NtRp3730
(dp3731
g62
(dp3732
g82
g83
ssg71
g3726
sg64
(lp3733
g432
asbag57
(g78
g59
NtRp3734
(dp3735
g62
(dp3736
g89
g90
ssg71
g3726
sg64
(lp3737
S':'
asbag57
(g78
g59
NtRp3738
(dp3739
g62
(dp3740
sg71
g3726
sg64
(lp3741
g57
(g58
g59
NtRp3742
(dp3743
g62
(dp3744
g70
I3
ssg71
g3738
sg64
(lp3745
S''
asbasbasbag57
(g73
g59
NtRp3746
(dp3747
g62
(dp3748
sg71
g3602
sg64
(lp3749
g57
(g78
g59
NtRp3750
(dp3751
g62
(dp3752
g82
g83
ssg71
g3746
sg64
(lp3753
g453
asbag57
(g78
g59
NtRp3754
(dp3755
g62
(dp3756
g89
g90
ssg71
g3746
sg64
(lp3757
S':'
asbag57
(g78
g59
NtRp3758
(dp3759
g62
(dp3760
sg71
g3746
sg64
(lp3761
g57
(g58
g59
NtRp3762
(dp3763
g62
(dp3764
g70
I3
ssg71
g3758
sg64
(lp3765
S''
asbasbasbasbasbasbasbasbasbasbasbag57
(g73
g59
NtRp3766
(dp3767
g62
(dp3768
sg71
g3532
sg64
(lp3769
g57
(g78
g59
NtRp3770
(dp3771
g62
(dp3772
g82
g83
ssg71
g3766
sg64
(lp3773
S'delimiters'
p3774
asbag57
(g78
g59
NtRp3775
(dp3776
g62
(dp3777
g89
g90
ssg71
g3766
sg64
(lp3778
S':'
asbag57
(g78
g59
NtRp3779
(dp3780
g62
(dp3781
sg71
g3766
sg64
(lp3782
g57
(g58
g59
NtRp3783
(dp3784
g62
(dp3785
g70
I5
ssg71
g3779
sg64
(lp3786
g57
(g66
g59
NtRp3787
(dp3788
g62
(dp3789
g70
I4
ssg71
Nsg64
(lp3790
g57
(g73
g59
NtRp3791
(dp3792
g62
(dp3793
sg71
g3787
sg64
(lp3794
g57
(g78
g59
NtRp3795
(dp3796
g62
(dp3797
sg71
g3791
sg64
(lp3798
g57
(g58
g59
NtRp3799
(dp3800
g62
(dp3801
g70
I4
ssg71
g3795
sg64
(lp3802
S'{{'
p3803
asbasbasbag57
(g73
g59
NtRp3804
(dp3805
g62
(dp3806
sg71
g3787
sg64
(lp3807
g57
(g78
g59
NtRp3808
(dp3809
g62
(dp3810
sg71
g3804
sg64
(lp3811
g57
(g58
g59
NtRp3812
(dp3813
g62
(dp3814
g70
I4
ssg71
g3808
sg64
(lp3815
S'}}'
p3816
asbasbasbasbasbasbasbag57
(g73
g59
NtRp3817
(dp3818
g62
(dp3819
sg71
g3532
sg64
(lp3820
g57
(g78
g59
NtRp3821
(dp3822
g62
(dp3823
g82
g83
ssg71
g3817
sg64
(lp3824
S'files'
p3825
asbag57
(g78
g59
NtRp3826
(dp3827
g62
(dp3828
g89
g90
ssg71
g3817
sg64
(lp3829
S':'
asbag57
(g78
g59
NtRp3830
(dp3831
g62
(dp3832
sg71
g3817
sg64
(lp3833
g57
(g58
g59
NtRp3834
(dp3835
g62
(dp3836
g70
I5
ssg71
g3830
sg64
(lp3837
g57
(g66
g59
NtRp3838
(dp3839
g62
(dp3840
g70
I4
ssg71
Nsg64
(lp3841
sbasbasbasbag57
(g73
g59
NtRp3842
(dp3843
g62
(dp3844
sg71
g3532
sg64
(lp3845
g57
(g78
g59
NtRp3846
(dp3847
g62
(dp3848
g82
g83
ssg71
g3842
sg64
(lp3849
S'flash'
p3850
asbag57
(g78
g59
NtRp3851
(dp3852
g62
(dp3853
g89
g90
ssg71
g3842
sg64
(lp3854
S':'
asbag57
(g78
g59
NtRp3855
(dp3856
g62
(dp3857
sg71
g3842
sg64
(lp3858
g57
(g58
g59
NtRp3859
(dp3860
g62
(dp3861
g70
I5
ssg71
g3855
sg64
(lp3862
S''
asbasbasbag57
(g73
g59
NtRp3863
(dp3864
g62
(dp3865
sg71
g3532
sg64
(lp3866
g57
(g78
g59
NtRp3867
(dp3868
g62
(dp3869
g82
g83
ssg71
g3863
sg64
(lp3870
S'generic_patterns'
p3871
asbag57
(g78
g59
NtRp3872
(dp3873
g62
(dp3874
g89
g90
ssg71
g3863
sg64
(lp3875
S':'
asbag57
(g78
g59
NtRp3876
(dp3877
g62
(dp3878
sg71
g3863
sg64
(lp3879
g57
(g58
g59
NtRp3880
(dp3881
g62
(dp3882
g70
I5
ssg71
g3876
sg64
(lp3883
g57
(g66
g59
NtRp3884
(dp3885
g62
(dp3886
g70
I4
ssg71
Nsg64
(lp3887
sbasbasbasbag57
(g73
g59
NtRp3888
(dp3889
g62
(dp3890
sg71
g3532
sg64
(lp3891
g57
(g78
g59
NtRp3892
(dp3893
g62
(dp3894
g82
g83
ssg71
g3888
sg64
(lp3895
S'google_analytics_id'
p3896
asbag57
(g78
g59
NtRp3897
(dp3898
g62
(dp3899
g89
g90
ssg71
g3888
sg64
(lp3900
S':'
asbag57
(g78
g59
NtRp3901
(dp3902
g62
(dp3903
sg71
g3888
sg64
(lp3904
g57
(g58
g59
NtRp3905
(dp3906
g62
(dp3907
g70
I5
ssg71
g3901
sg64
(lp3908
S'None'
p3909
asbasbasbag57
(g73
g59
NtRp3910
(dp3911
g62
(dp3912
sg71
g3532
sg64
(lp3913
g57
(g78
g59
NtRp3914
(dp3915
g62
(dp3916
g82
g83
ssg71
g3910
sg64
(lp3917
S'headers'
p3918
asbag57
(g78
g59
NtRp3919
(dp3920
g62
(dp3921
g89
g90
ssg71
g3910
sg64
(lp3922
S':'
asbag57
(g78
g59
NtRp3923
(dp3924
g62
(dp3925
sg71
g3910
sg64
(lp3926
g57
(g58
g59
NtRp3927
(dp3928
g62
(dp3929
g70
I5
ssg71
g3923
sg64
(lp3930
g57
(g66
g59
NtRp3931
(dp3932
g62
(dp3933
g70
I4
ssg71
Nsg64
(lp3934
g57
(g73
g59
NtRp3935
(dp3936
g62
(dp3937
sg71
g3931
sg64
(lp3938
g57
(g78
g59
NtRp3939
(dp3940
g62
(dp3941
g82
g83
ssg71
g3935
sg64
(lp3942
S'Cache-Control'
p3943
asbag57
(g78
g59
NtRp3944
(dp3945
g62
(dp3946
g89
g90
ssg71
g3935
sg64
(lp3947
S':'
asbag57
(g78
g59
NtRp3948
(dp3949
g62
(dp3950
sg71
g3935
sg64
(lp3951
g57
(g58
g59
NtRp3952
(dp3953
g62
(dp3954
g70
I4
ssg71
g3948
sg64
(lp3955
S'no-store, no-cache, must-revalidate, post-check=0, pre-check=0'
p3956
asbasbasbag57
(g73
g59
NtRp3957
(dp3958
g62
(dp3959
sg71
g3931
sg64
(lp3960
g57
(g78
g59
NtRp3961
(dp3962
g62
(dp3963
g82
g83
ssg71
g3957
sg64
(lp3964
S'Content-Type'
p3965
asbag57
(g78
g59
NtRp3966
(dp3967
g62
(dp3968
g89
g90
ssg71
g3957
sg64
(lp3969
S':'
asbag57
(g78
g59
NtRp3970
(dp3971
g62
(dp3972
sg71
g3957
sg64
(lp3973
g57
(g58
g59
NtRp3974
(dp3975
g62
(dp3976
g70
I4
ssg71
g3970
sg64
(lp3977
S'text/html; charset=utf-8'
p3978
asbasbasbag57
(g73
g59
NtRp3979
(dp3980
g62
(dp3981
sg71
g3931
sg64
(lp3982
g57
(g78
g59
NtRp3983
(dp3984
g62
(dp3985
g82
g83
ssg71
g3979
sg64
(lp3986
S'Expires'
p3987
asbag57
(g78
g59
NtRp3988
(dp3989
g62
(dp3990
g89
g90
ssg71
g3979
sg64
(lp3991
S':'
asbag57
(g78
g59
NtRp3992
(dp3993
g62
(dp3994
sg71
g3979
sg64
(lp3995
g57
(g58
g59
NtRp3996
(dp3997
g62
(dp3998
g70
I4
ssg71
g3992
sg64
(lp3999
S'Fri, 31 Aug 2012 08:31:03 GMT'
p4000
asbasbasbag57
(g73
g59
NtRp4001
(dp4002
g62
(dp4003
sg71
g3931
sg64
(lp4004
g57
(g78
g59
NtRp4005
(dp4006
g62
(dp4007
g82
g83
ssg71
g4001
sg64
(lp4008
S'Pragma'
p4009
asbag57
(g78
g59
NtRp4010
(dp4011
g62
(dp4012
g89
g90
ssg71
g4001
sg64
(lp4013
S':'
asbag57
(g78
g59
NtRp4014
(dp4015
g62
(dp4016
sg71
g4001
sg64
(lp4017
g57
(g58
g59
NtRp4018
(dp4019
g62
(dp4020
g70
I4
ssg71
g4014
sg64
(lp4021
S'no-cache'
p4022
asbasbasbag57
(g73
g59
NtRp4023
(dp4024
g62
(dp4025
sg71
g3931
sg64
(lp4026
g57
(g78
g59
NtRp4027
(dp4028
g62
(dp4029
g82
g83
ssg71
g4023
sg64
(lp4030
S'X-Powered-By'
p4031
asbag57
(g78
g59
NtRp4032
(dp4033
g62
(dp4034
g89
g90
ssg71
g4023
sg64
(lp4035
S':'
asbag57
(g78
g59
NtRp4036
(dp4037
g62
(dp4038
sg71
g4023
sg64
(lp4039
g57
(g58
g59
NtRp4040
(dp4041
g62
(dp4042
g70
I4
ssg71
g4036
sg64
(lp4043
S'web2py'
p4044
asbasbasbasbasbasbasbag57
(g73
g59
NtRp4045
(dp4046
g62
(dp4047
sg71
g3532
sg64
(lp4048
g57
(g78
g59
NtRp4049
(dp4050
g62
(dp4051
g82
g83
ssg71
g4045
sg64
(lp4052
S'menu'
p4053
asbag57
(g78
g59
NtRp4054
(dp4055
g62
(dp4056
g89
g90
ssg71
g4045
sg64
(lp4057
S':'
asbag57
(g78
g59
NtRp4058
(dp4059
g62
(dp4060
sg71
g4045
sg64
(lp4061
g57
(g58
g59
NtRp4062
(dp4063
g62
(dp4064
g70
I5
ssg71
g4058
sg64
(lp4065
g57
(g66
g59
NtRp4066
(dp4067
g62
(dp4068
g70
I4
ssg71
Nsg64
(lp4069
g57
(g73
g59
NtRp4070
(dp4071
g62
(dp4072
sg71
g4066
sg64
(lp4073
g57
(g78
g59
NtRp4074
(dp4075
g62
(dp4076
sg71
g4070
sg64
(lp4077
g57
(g58
g59
NtRp4078
(dp4079
g62
(dp4080
g70
I4
ssg71
g4074
sg64
(lp4081
g57
(g66
g59
NtRp4082
(dp4083
g62
(dp4084
g70
I3
ssg71
Nsg64
(lp4085
g57
(g73
g59
NtRp4086
(dp4087
g62
(dp4088
sg71
g4082
sg64
(lp4089
g57
(g78
g59
NtRp4090
(dp4091
g62
(dp4092
sg71
g4086
sg64
(lp4093
g57
(g58
g59
NtRp4094
(dp4095
g62
(dp4096
g70
I3
ssg71
g4090
sg64
(lp4097
cgluon.languages
lazyT_unpickle
p4098
(S's\x04\x00\x00\x00Home'
tRp4099
asbasbasbag57
(g73
g59
NtRp4100
(dp4101
g62
(dp4102
sg71
g4082
sg64
(lp4103
g57
(g78
g59
NtRp4104
(dp4105
g62
(dp4106
sg71
g4100
sg64
(lp4107
g57
(g58
g59
NtRp4108
(dp4109
g62
(dp4110
g70
I3
ssg71
g4104
sg64
(lp4111
g100
asbasbasbag57
(g73
g59
NtRp4112
(dp4113
g62
(dp4114
sg71
g4082
sg64
(lp4115
g57
(g78
g59
NtRp4116
(dp4117
g62
(dp4118
sg71
g4112
sg64
(lp4119
g57
(g58
g59
NtRp4120
(dp4121
g62
(dp4122
g70
I3
ssg71
g4116
sg64
(lp4123
S'/FotoBuk/default/index'
p4124
asbasbasbag57
(g73
g59
NtRp4125
(dp4126
g62
(dp4127
sg71
g4082
sg64
(lp4128
g57
(g78
g59
NtRp4129
(dp4130
g62
(dp4131
sg71
g4125
sg64
(lp4132
g57
(g58
g59
NtRp4133
(dp4134
g62
(dp4135
g70
I3
ssg71
g4129
sg64
(lp4136
g57
(g66
g59
NtRp4137
(dp4138
g62
(dp4139
g70
I2
ssg71
Nsg64
(lp4140
sbasbasbasbasbasbasbasbag57
(g73
g59
NtRp4141
(dp4142
g62
(dp4143
sg71
g4066
sg64
(lp4144
g57
(g78
g59
NtRp4145
(dp4146
g62
(dp4147
sg71
g4141
sg64
(lp4148
g57
(g58
g59
NtRp4149
(dp4150
g62
(dp4151
g70
I4
ssg71
g4145
sg64
(lp4152
g57
(g66
g59
NtRp4153
(dp4154
g62
(dp4155
g70
I3
ssg71
Nsg64
(lp4156
g57
(g73
g59
NtRp4157
(dp4158
g62
(dp4159
sg71
g4153
sg64
(lp4160
g57
(g78
g59
NtRp4161
(dp4162
g62
(dp4163
sg71
g4157
sg64
(lp4164
g57
(g58
g59
NtRp4165
(dp4166
g62
(dp4167
g70
I3
ssg71
g4161
sg64
(lp4168
g57
(cgluon.html
SPAN
p4169
g59
NtRp4170
(dp4171
g62
(dp4172
g82
S'color:yellow'
p4173
ssg71
Nsg64
(lp4174
g4044
asbasbasbasbag57
(g73
g59
NtRp4175
(dp4176
g62
(dp4177
sg71
g4153
sg64
(lp4178
g57
(g78
g59
NtRp4179
(dp4180
g62
(dp4181
sg71
g4175
sg64
(lp4182
g57
(g58
g59
NtRp4183
(dp4184
g62
(dp4185
g70
I3
ssg71
g4179
sg64
(lp4186
g100
asbasbasbag57
(g73
g59
NtRp4187
(dp4188
g62
(dp4189
sg71
g4153
sg64
(lp4190
g57
(g78
g59
NtRp4191
(dp4192
g62
(dp4193
sg71
g4187
sg64
(lp4194
g57
(g58
g59
NtRp4195
(dp4196
g62
(dp4197
g70
I3
ssg71
g4191
sg64
(lp4198
S'http://web2py.com'
p4199
asbasbasbag57
(g73
g59
NtRp4200
(dp4201
g62
(dp4202
sg71
g4153
sg64
(lp4203
g57
(g78
g59
NtRp4204
(dp4205
g62
(dp4206
sg71
g4200
sg64
(lp4207
g57
(g58
g59
NtRp4208
(dp4209
g62
(dp4210
g70
I3
ssg71
g4204
sg64
(lp4211
g57
(g66
g59
NtRp4212
(dp4213
g62
(dp4214
g70
I2
ssg71
Nsg64
(lp4215
g57
(g73
g59
NtRp4216
(dp4217
g62
(dp4218
sg71
g4212
sg64
(lp4219
g57
(g78
g59
NtRp4220
(dp4221
g62
(dp4222
sg71
g4216
sg64
(lp4223
g57
(g58
g59
NtRp4224
(dp4225
g62
(dp4226
g70
I2
ssg71
g4220
sg64
(lp4227
g57
(g66
g59
NtRp4228
(dp4229
g62
(dp4230
g70
I1
ssg71
Nsg64
(lp4231
g57
(g73
g59
NtRp4232
(dp4233
g62
(dp4234
sg71
g4228
sg64
(lp4235
g57
(g78
g59
NtRp4236
(dp4237
g62
(dp4238
sg71
g4232
sg64
(lp4239
g57
(g58
g59
NtRp4240
(dp4241
g62
(dp4242
g70
I1
ssg71
g4236
sg64
(lp4243
g4098
(S's\x08\x00\x00\x00My Sites'
tRp4244
asbasbasbag57
(g73
g59
NtRp4245
(dp4246
g62
(dp4247
sg71
g4228
sg64
(lp4248
g57
(g78
g59
NtRp4249
(dp4250
g62
(dp4251
sg71
g4245
sg64
(lp4252
g57
(g58
g59
NtRp4253
(dp4254
g62
(dp4255
g70
I1
ssg71
g4249
sg64
(lp4256
I00
asbasbasbag57
(g73
g59
NtRp4257
(dp4258
g62
(dp4259
sg71
g4228
sg64
(lp4260
g57
(g78
g59
NtRp4261
(dp4262
g62
(dp4263
sg71
g4257
sg64
(lp4264
g57
(g58
g59
NtRp4265
(dp4266
g62
(dp4267
g70
I1
ssg71
g4261
sg64
(lp4268
S'/admin/default/site'
p4269
asbasbasbasbasbasbasbag57
(g73
g59
NtRp4270
(dp4271
g62
(dp4272
sg71
g4212
sg64
(lp4273
g57
(g78
g59
NtRp4274
(dp4275
g62
(dp4276
sg71
g4270
sg64
(lp4277
g57
(g58
g59
NtRp4278
(dp4279
g62
(dp4280
g70
I2
ssg71
g4274
sg64
(lp4281
g57
(g66
g59
NtRp4282
(dp4283
g62
(dp4284
g70
I1
ssg71
Nsg64
(lp4285
g57
(g73
g59
NtRp4286
(dp4287
g62
(dp4288
sg71
g4282
sg64
(lp4289
g57
(g78
g59
NtRp4290
(dp4291
g62
(dp4292
sg71
g4286
sg64
(lp4293
g57
(g58
g59
NtRp4294
(dp4295
g62
(dp4296
g70
I1
ssg71
g4290
sg64
(lp4297
g4098
(S's\x08\x00\x00\x00This App'
tRp4298
asbasbasbag57
(g73
g59
NtRp4299
(dp4300
g62
(dp4301
sg71
g4282
sg64
(lp4302
g57
(g78
g59
NtRp4303
(dp4304
g62
(dp4305
sg71
g4299
sg64
(lp4306
g57
(g58
g59
NtRp4307
(dp4308
g62
(dp4309
g70
I1
ssg71
g4303
sg64
(lp4310
I00
asbasbasbag57
(g73
g59
NtRp4311
(dp4312
g62
(dp4313
sg71
g4282
sg64
(lp4314
g57
(g78
g59
NtRp4315
(dp4316
g62
(dp4317
sg71
g4311
sg64
(lp4318
g57
(g58
g59
NtRp4319
(dp4320
g62
(dp4321
g70
I1
ssg71
g4315
sg64
(lp4322
S'/admin/default/design/FotoBuk'
p4323
asbasbasbag57
(g73
g59
NtRp4324
(dp4325
g62
(dp4326
sg71
g4282
sg64
(lp4327
g57
(g78
g59
NtRp4328
(dp4329
g62
(dp4330
sg71
g4324
sg64
(lp4331
g57
(g58
g59
NtRp4332
(dp4333
g62
(dp4334
g70
I1
ssg71
g4328
sg64
(lp4335
(lp4336
(g4098
(S's\n\x00\x00\x00Controller'
tRp4337
I00
S'/admin/default/edit/FotoBuk/controllers/default.py'
tp4338
a(g4098
(S's\x04\x00\x00\x00View'
tRp4339
I00
S'/admin/default/edit/FotoBuk/views/default/show.html'
tp4340
a(g4098
(S's\x06\x00\x00\x00Layout'
tRp4341
I00
S'/admin/default/edit/FotoBuk/views/layout.html'
tp4342
a(g4098
(S's\n\x00\x00\x00Stylesheet'
tRp4343
I00
S'/admin/default/edit/FotoBuk/static/css/web2py.css'
tp4344
a(g4098
(S's\x08\x00\x00\x00DB Model'
tRp4345
I00
S'/admin/default/edit/FotoBuk/models/db.py'
tp4346
a(g4098
(S's\n\x00\x00\x00Menu Model'
tRp4347
I00
S'/admin/default/edit/FotoBuk/models/menu.py'
tp4348
a(g4098
(S's\x08\x00\x00\x00Database'
tRp4349
I00
S'/FotoBuk/appadmin/index'
tp4350
a(g4098
(S's\x06\x00\x00\x00Errors'
tRp4351
I00
S'/admin/default/errors/FotoBuk'
tp4352
a(g4098
(S's\x05\x00\x00\x00About'
tRp4353
I00
S'/admin/default/about/FotoBuk'
tp4354
aasbasbasbasbasbasbasbag57
(g73
g59
NtRp4355
(dp4356
g62
(dp4357
sg71
g4212
sg64
(lp4358
g57
(g78
g59
NtRp4359
(dp4360
g62
(dp4361
sg71
g4355
sg64
(lp4362
g57
(g58
g59
NtRp4363
(dp4364
g62
(dp4365
g70
I2
ssg71
g4359
sg64
(lp4366
g57
(g66
g59
NtRp4367
(dp4368
g62
(dp4369
g70
I1
ssg71
Nsg64
(lp4370
g57
(g73
g59
NtRp4371
(dp4372
g62
(dp4373
sg71
g4367
sg64
(lp4374
g57
(g78
g59
NtRp4375
(dp4376
g62
(dp4377
sg71
g4371
sg64
(lp4378
g57
(g58
g59
NtRp4379
(dp4380
g62
(dp4381
g70
I1
ssg71
g4375
sg64
(lp4382
S'web2py.com'
p4383
asbasbasbag57
(g73
g59
NtRp4384
(dp4385
g62
(dp4386
sg71
g4367
sg64
(lp4387
g57
(g78
g59
NtRp4388
(dp4389
g62
(dp4390
sg71
g4384
sg64
(lp4391
g57
(g58
g59
NtRp4392
(dp4393
g62
(dp4394
g70
I1
ssg71
g4388
sg64
(lp4395
I00
asbasbasbag57
(g73
g59
NtRp4396
(dp4397
g62
(dp4398
sg71
g4367
sg64
(lp4399
g57
(g78
g59
NtRp4400
(dp4401
g62
(dp4402
sg71
g4396
sg64
(lp4403
g57
(g58
g59
NtRp4404
(dp4405
g62
(dp4406
g70
I1
ssg71
g4400
sg64
(lp4407
S'http://www.web2py.com'
p4408
asbasbasbag57
(g73
g59
NtRp4409
(dp4410
g62
(dp4411
sg71
g4367
sg64
(lp4412
g57
(g78
g59
NtRp4413
(dp4414
g62
(dp4415
sg71
g4409
sg64
(lp4416
g57
(g58
g59
NtRp4417
(dp4418
g62
(dp4419
g70
I1
ssg71
g4413
sg64
(lp4420
(lp4421
(g4098
(S's\x08\x00\x00\x00Download'
tRp4422
I00
S'http://www.web2py.com/examples/default/download'
p4423
tp4424
a(g4098
(S's\x07\x00\x00\x00Support'
tRp4425
I00
S'http://www.web2py.com/examples/default/support'
p4426
tp4427
a(g4098
(S's\x04\x00\x00\x00Demo'
tRp4428
I00
S'http://web2py.com/demo_admin'
p4429
tp4430
a(g4098
(S's\x0e\x00\x00\x00Quick Examples'
tRp4431
I00
S'http://web2py.com/examples/default/examples'
p4432
tp4433
a(g4098
(S's\x03\x00\x00\x00FAQ'
tRp4434
I00
S'http://web2py.com/AlterEgo'
p4435
tp4436
a(g4098
(S's\x06\x00\x00\x00Videos'
tRp4437
I00
S'http://www.web2py.com/examples/default/videos/'
p4438
tp4439
a(g4098
(S's\x11\x00\x00\x00Free Applications'
tRp4440
I00
S'http://web2py.com/appliances'
p4441
tp4442
a(g4098
(S's\x07\x00\x00\x00Plugins'
tRp4443
I00
S'http://web2py.com/plugins'
p4444
tp4445
a(g4098
(S's\x07\x00\x00\x00Layouts'
tRp4446
I00
S'http://web2py.com/layouts'
p4447
tp4448
a(g4098
(S's\x07\x00\x00\x00Recipes'
tRp4449
I00
S'http://web2pyslices.com/'
p4450
tp4451
a(g4098
(S's\x08\x00\x00\x00Semantic'
tRp4452
I00
S'http://web2py.com/semantic'
p4453
tp4454
aasbasbasbasbasbasbasbag57
(g73
g59
NtRp4455
(dp4456
g62
(dp4457
sg71
g4212
sg64
(lp4458
g57
(g78
g59
NtRp4459
(dp4460
g62
(dp4461
sg71
g4455
sg64
(lp4462
g57
(g58
g59
NtRp4463
(dp4464
g62
(dp4465
g70
I2
ssg71
g4459
sg64
(lp4466
g57
(g66
g59
NtRp4467
(dp4468
g62
(dp4469
g70
I1
ssg71
Nsg64
(lp4470
g57
(g73
g59
NtRp4471
(dp4472
g62
(dp4473
sg71
g4467
sg64
(lp4474
g57
(g78
g59
NtRp4475
(dp4476
g62
(dp4477
sg71
g4471
sg64
(lp4478
g57
(g58
g59
NtRp4479
(dp4480
g62
(dp4481
g70
I1
ssg71
g4475
sg64
(lp4482
g4098
(S's\r\x00\x00\x00Documentation'
tRp4483
asbasbasbag57
(g73
g59
NtRp4484
(dp4485
g62
(dp4486
sg71
g4467
sg64
(lp4487
g57
(g78
g59
NtRp4488
(dp4489
g62
(dp4490
sg71
g4484
sg64
(lp4491
g57
(g58
g59
NtRp4492
(dp4493
g62
(dp4494
g70
I1
ssg71
g4488
sg64
(lp4495
I00
asbasbasbag57
(g73
g59
NtRp4496
(dp4497
g62
(dp4498
sg71
g4467
sg64
(lp4499
g57
(g78
g59
NtRp4500
(dp4501
g62
(dp4502
sg71
g4496
sg64
(lp4503
g57
(g58
g59
NtRp4504
(dp4505
g62
(dp4506
g70
I1
ssg71
g4500
sg64
(lp4507
S'http://www.web2py.com/book'
p4508
asbasbasbag57
(g73
g59
NtRp4509
(dp4510
g62
(dp4511
sg71
g4467
sg64
(lp4512
g57
(g78
g59
NtRp4513
(dp4514
g62
(dp4515
sg71
g4509
sg64
(lp4516
g57
(g58
g59
NtRp4517
(dp4518
g62
(dp4519
g70
I1
ssg71
g4513
sg64
(lp4520
(lp4521
(g4098
(S's\x07\x00\x00\x00Preface'
tRp4522
I00
S'http://www.web2py.com/book/default/chapter/00'
p4523
tp4524
a(g4098
(S's\x0c\x00\x00\x00Introduction'
tRp4525
I00
S'http://www.web2py.com/book/default/chapter/01'
p4526
tp4527
a(g4098
(S's\x06\x00\x00\x00Python'
tRp4528
I00
S'http://www.web2py.com/book/default/chapter/02'
p4529
tp4530
a(g4098
(S's\x08\x00\x00\x00Overview'
tRp4531
I00
S'http://www.web2py.com/book/default/chapter/03'
p4532
tp4533
a(g4098
(S's\x08\x00\x00\x00The Core'
tRp4534
I00
S'http://www.web2py.com/book/default/chapter/04'
p4535
tp4536
a(g4098
(S's\t\x00\x00\x00The Views'
tRp4537
I00
S'http://www.web2py.com/book/default/chapter/05'
p4538
tp4539
a(g4098
(S's\x08\x00\x00\x00Database'
tRp4540
I00
S'http://www.web2py.com/book/default/chapter/06'
p4541
tp4542
a(g4098
(S's\x14\x00\x00\x00Forms and Validators'
tRp4543
I00
S'http://www.web2py.com/book/default/chapter/07'
p4544
tp4545
a(g4098
(S's\r\x00\x00\x00Email and SMS'
tRp4546
I00
S'http://www.web2py.com/book/default/chapter/08'
p4547
tp4548
a(g4098
(S's\x0e\x00\x00\x00Access Control'
tRp4549
I00
S'http://www.web2py.com/book/default/chapter/09'
p4550
tp4551
a(g4098
(S's\x08\x00\x00\x00Services'
tRp4552
I00
S'http://www.web2py.com/book/default/chapter/10'
p4553
tp4554
a(g4098
(S's\x0c\x00\x00\x00Ajax Recipes'
tRp4555
I00
S'http://www.web2py.com/book/default/chapter/11'
p4556
tp4557
a(g4098
(S's\x16\x00\x00\x00Components and Plugins'
tRp4558
I00
S'http://www.web2py.com/book/default/chapter/12'
p4559
tp4560
a(g4098
(S's\x12\x00\x00\x00Deployment Recipes'
tRp4561
I00
S'http://www.web2py.com/book/default/chapter/13'
p4562
tp4563
a(g4098
(S's\r\x00\x00\x00Other Recipes'
tRp4564
I00
S'http://www.web2py.com/book/default/chapter/14'
p4565
tp4566
a(g4098
(S's\r\x00\x00\x00Buy this book'
tRp4567
I00
S'http://stores.lulu.com/web2py'
p4568
tp4569
aasbasbasbasbasbasbasbag57
(g73
g59
NtRp4570
(dp4571
g62
(dp4572
sg71
g4212
sg64
(lp4573
g57
(g78
g59
NtRp4574
(dp4575
g62
(dp4576
sg71
g4570
sg64
(lp4577
g57
(g58
g59
NtRp4578
(dp4579
g62
(dp4580
g70
I2
ssg71
g4574
sg64
(lp4581
g57
(g66
g59
NtRp4582
(dp4583
g62
(dp4584
g70
I1
ssg71
Nsg64
(lp4585
g57
(g73
g59
NtRp4586
(dp4587
g62
(dp4588
sg71
g4582
sg64
(lp4589
g57
(g78
g59
NtRp4590
(dp4591
g62
(dp4592
sg71
g4586
sg64
(lp4593
g57
(g58
g59
NtRp4594
(dp4595
g62
(dp4596
g70
I1
ssg71
g4590
sg64
(lp4597
g4098
(S's\t\x00\x00\x00Community'
tRp4598
asbasbasbag57
(g73
g59
NtRp4599
(dp4600
g62
(dp4601
sg71
g4582
sg64
(lp4602
g57
(g78
g59
NtRp4603
(dp4604
g62
(dp4605
sg71
g4599
sg64
(lp4606
g57
(g58
g59
NtRp4607
(dp4608
g62
(dp4609
g70
I1
ssg71
g4603
sg64
(lp4610
I00
asbasbasbag57
(g73
g59
NtRp4611
(dp4612
g62
(dp4613
sg71
g4582
sg64
(lp4614
g57
(g78
g59
NtRp4615
(dp4616
g62
(dp4617
sg71
g4611
sg64
(lp4618
g57
(g58
g59
NtRp4619
(dp4620
g62
(dp4621
g70
I1
ssg71
g4615
sg64
(lp4622
Nasbasbasbag57
(g73
g59
NtRp4623
(dp4624
g62
(dp4625
sg71
g4582
sg64
(lp4626
g57
(g78
g59
NtRp4627
(dp4628
g62
(dp4629
sg71
g4623
sg64
(lp4630
g57
(g58
g59
NtRp4631
(dp4632
g62
(dp4633
g70
I1
ssg71
g4627
sg64
(lp4634
(lp4635
(g4098
(S's\x06\x00\x00\x00Groups'
tRp4636
I00
S'http://www.web2py.com/examples/default/usergroups'
p4637
tp4638
a(g4098
(S's\x07\x00\x00\x00Twitter'
tRp4639
I00
S'http://twitter.com/web2py'
p4640
tp4641
a(g4098
(S's\t\x00\x00\x00Live Chat'
tRp4642
I00
S'http://webchat.freenode.net/?channels=web2py'
p4643
tp4644
aasbasbasbasbasbasbasbag57
(g73
g59
NtRp4645
(dp4646
g62
(dp4647
sg71
g4212
sg64
(lp4648
g57
(g78
g59
NtRp4649
(dp4650
g62
(dp4651
sg71
g4645
sg64
(lp4652
g57
(g58
g59
NtRp4653
(dp4654
g62
(dp4655
g70
I2
ssg71
g4649
sg64
(lp4656
g57
(g66
g59
NtRp4657
(dp4658
g62
(dp4659
g70
I1
ssg71
Nsg64
(lp4660
g57
(g73
g59
NtRp4661
(dp4662
g62
(dp4663
sg71
g4657
sg64
(lp4664
g57
(g78
g59
NtRp4665
(dp4666
g62
(dp4667
sg71
g4661
sg64
(lp4668
g57
(g58
g59
NtRp4669
(dp4670
g62
(dp4671
g70
I1
ssg71
g4665
sg64
(lp4672
g4098
(S's\x07\x00\x00\x00Plugins'
tRp4673
asbasbasbag57
(g73
g59
NtRp4674
(dp4675
g62
(dp4676
sg71
g4657
sg64
(lp4677
g57
(g78
g59
NtRp4678
(dp4679
g62
(dp4680
sg71
g4674
sg64
(lp4681
g57
(g58
g59
NtRp4682
(dp4683
g62
(dp4684
g70
I1
ssg71
g4678
sg64
(lp4685
I00
asbasbasbag57
(g73
g59
NtRp4686
(dp4687
g62
(dp4688
sg71
g4657
sg64
(lp4689
g57
(g78
g59
NtRp4690
(dp4691
g62
(dp4692
sg71
g4686
sg64
(lp4693
g57
(g58
g59
NtRp4694
(dp4695
g62
(dp4696
g70
I1
ssg71
g4690
sg64
(lp4697
Nasbasbasbag57
(g73
g59
NtRp4698
(dp4699
g62
(dp4700
sg71
g4657
sg64
(lp4701
g57
(g78
g59
NtRp4702
(dp4703
g62
(dp4704
sg71
g4698
sg64
(lp4705
g57
(g58
g59
NtRp4706
(dp4707
g62
(dp4708
g70
I1
ssg71
g4702
sg64
(lp4709
(lp4710
(S'plugin_wiki'
p4711
I00
S'http://web2py.com/examples/default/download'
p4712
tp4713
a(g4098
(S's\r\x00\x00\x00Other Plugins'
tRp4714
I00
g4444
tp4715
a(g4098
(S's\x0e\x00\x00\x00Layout Plugins'
tRp4716
I00
g4447
tp4717
aasbasbasbasbasbasbasbasbasbasbasbasbasbasbasbasbasbasbasbag57
(g73
g59
NtRp4718
(dp4719
g62
(dp4720
sg71
g3532
sg64
(lp4721
g57
(g78
g59
NtRp4722
(dp4723
g62
(dp4724
g82
g83
ssg71
g4718
sg64
(lp4725
S'meta'
p4726
asbag57
(g78
g59
NtRp4727
(dp4728
g62
(dp4729
g89
g90
ssg71
g4718
sg64
(lp4730
S':'
asbag57
(g78
g59
NtRp4731
(dp4732
g62
(dp4733
sg71
g4718
sg64
(lp4734
g57
(g58
g59
NtRp4735
(dp4736
g62
(dp4737
g70
I5
ssg71
g4731
sg64
(lp4738
g57
(g66
g59
NtRp4739
(dp4740
g62
(dp4741
g70
I4
ssg71
Nsg64
(lp4742
g57
(g73
g59
NtRp4743
(dp4744
g62
(dp4745
sg71
g4739
sg64
(lp4746
g57
(g78
g59
NtRp4747
(dp4748
g62
(dp4749
g82
g83
ssg71
g4743
sg64
(lp4750
S'author'
p4751
asbag57
(g78
g59
NtRp4752
(dp4753
g62
(dp4754
g89
g90
ssg71
g4743
sg64
(lp4755
S':'
asbag57
(g78
g59
NtRp4756
(dp4757
g62
(dp4758
sg71
g4743
sg64
(lp4759
g57
(g58
g59
NtRp4760
(dp4761
g62
(dp4762
g70
I4
ssg71
g4756
sg64
(lp4763
S'Your Name <you@example.com>'
p4764
asbasbasbag57
(g73
g59
NtRp4765
(dp4766
g62
(dp4767
sg71
g4739
sg64
(lp4768
g57
(g78
g59
NtRp4769
(dp4770
g62
(dp4771
g82
g83
ssg71
g4765
sg64
(lp4772
S'description'
p4773
asbag57
(g78
g59
NtRp4774
(dp4775
g62
(dp4776
g89
g90
ssg71
g4765
sg64
(lp4777
S':'
asbag57
(g78
g59
NtRp4778
(dp4779
g62
(dp4780
sg71
g4765
sg64
(lp4781
g57
(g58
g59
NtRp4782
(dp4783
g62
(dp4784
g70
I4
ssg71
g4778
sg64
(lp4785
S'a cool new app'
p4786
asbasbasbag57
(g73
g59
NtRp4787
(dp4788
g62
(dp4789
sg71
g4739
sg64
(lp4790
g57
(g78
g59
NtRp4791
(dp4792
g62
(dp4793
g82
g83
ssg71
g4787
sg64
(lp4794
S'generator'
p4795
asbag57
(g78
g59
NtRp4796
(dp4797
g62
(dp4798
g89
g90
ssg71
g4787
sg64
(lp4799
S':'
asbag57
(g78
g59
NtRp4800
(dp4801
g62
(dp4802
sg71
g4787
sg64
(lp4803
g57
(g58
g59
NtRp4804
(dp4805
g62
(dp4806
g70
I4
ssg71
g4800
sg64
(lp4807
S'Web2py Web Framework'
p4808
asbasbasbag57
(g73
g59
NtRp4809
(dp4810
g62
(dp4811
sg71
g4739
sg64
(lp4812
g57
(g78
g59
NtRp4813
(dp4814
g62
(dp4815
g82
g83
ssg71
g4809
sg64
(lp4816
S'keywords'
p4817
asbag57
(g78
g59
NtRp4818
(dp4819
g62
(dp4820
g89
g90
ssg71
g4809
sg64
(lp4821
S':'
asbag57
(g78
g59
NtRp4822
(dp4823
g62
(dp4824
sg71
g4809
sg64
(lp4825
g57
(g58
g59
NtRp4826
(dp4827
g62
(dp4828
g70
I4
ssg71
g4822
sg64
(lp4829
S'web2py, python, framework'
p4830
asbasbasbasbasbasbasbag57
(g73
g59
NtRp4831
(dp4832
g62
(dp4833
sg71
g3532
sg64
(lp4834
g57
(g78
g59
NtRp4835
(dp4836
g62
(dp4837
g82
g83
ssg71
g4831
sg64
(lp4838
S'postprocessing'
p4839
asbag57
(g78
g59
NtRp4840
(dp4841
g62
(dp4842
g89
g90
ssg71
g4831
sg64
(lp4843
S':'
asbag57
(g78
g59
NtRp4844
(dp4845
g62
(dp4846
sg71
g4831
sg64
(lp4847
g57
(g58
g59
NtRp4848
(dp4849
g62
(dp4850
g70
I5
ssg71
g4844
sg64
(lp4851
g57
(g66
g59
NtRp4852
(dp4853
g62
(dp4854
g70
I4
ssg71
Nsg64
(lp4855
sbasbasbasbag57
(g73
g59
NtRp4856
(dp4857
g62
(dp4858
sg71
g3532
sg64
(lp4859
g57
(g78
g59
NtRp4860
(dp4861
g62
(dp4862
g82
g83
ssg71
g4856
sg64
(lp4863
S'session_file'
p4864
asbag57
(g78
g59
NtRp4865
(dp4866
g62
(dp4867
g89
g90
ssg71
g4856
sg64
(lp4868
S':'
asbag57
(g78
g59
NtRp4869
(dp4870
g62
(dp4871
sg71
g4856
sg64
(lp4872
g57
(g58
g59
NtRp4873
(dp4874
g62
(dp4875
g70
I5
ssg71
g4869
sg64
(lp4876
S"<open file '/home/piyush/web2py/applications/FotoBuk/sessions/127.0.0.1-a0aa12fe-f234-43d8-b1ed-9cc366e4417f', mode 'rb+' at 0x8f903e8>"
p4877
asbasbasbag57
(g73
g59
NtRp4878
(dp4879
g62
(dp4880
sg71
g3532
sg64
(lp4881
g57
(g78
g59
NtRp4882
(dp4883
g62
(dp4884
g82
g83
ssg71
g4878
sg64
(lp4885
S'session_filename'
p4886
asbag57
(g78
g59
NtRp4887
(dp4888
g62
(dp4889
g89
g90
ssg71
g4878
sg64
(lp4890
S':'
asbag57
(g78
g59
NtRp4891
(dp4892
g62
(dp4893
sg71
g4878
sg64
(lp4894
g57
(g58
g59
NtRp4895
(dp4896
g62
(dp4897
g70
I5
ssg71
g4891
sg64
(lp4898
S'/home/piyush/web2py/applications/FotoBuk/sessions/127.0.0.1-a0aa12fe-f234-43d8-b1ed-9cc366e4417f'
p4899
asbasbasbag57
(g73
g59
NtRp4900
(dp4901
g62
(dp4902
sg71
g3532
sg64
(lp4903
g57
(g78
g59
NtRp4904
(dp4905
g62
(dp4906
g82
g83
ssg71
g4900
sg64
(lp4907
S'session_id'
p4908
asbag57
(g78
g59
NtRp4909
(dp4910
g62
(dp4911
g89
g90
ssg71
g4900
sg64
(lp4912
S':'
asbag57
(g78
g59
NtRp4913
(dp4914
g62
(dp4915
sg71
g4900
sg64
(lp4916
g57
(g58
g59
NtRp4917
(dp4918
g62
(dp4919
g70
I5
ssg71
g4913
sg64
(lp4920
g487
asbasbasbag57
(g73
g59
NtRp4921
(dp4922
g62
(dp4923
sg71
g3532
sg64
(lp4924
g57
(g78
g59
NtRp4925
(dp4926
g62
(dp4927
g82
g83
ssg71
g4921
sg64
(lp4928
S'session_id_name'
p4929
asbag57
(g78
g59
NtRp4930
(dp4931
g62
(dp4932
g89
g90
ssg71
g4921
sg64
(lp4933
S':'
asbag57
(g78
g59
NtRp4934
(dp4935
g62
(dp4936
sg71
g4921
sg64
(lp4937
g57
(g58
g59
NtRp4938
(dp4939
g62
(dp4940
g70
I5
ssg71
g4934
sg64
(lp4941
g3589
asbasbasbag57
(g73
g59
NtRp4942
(dp4943
g62
(dp4944
sg71
g3532
sg64
(lp4945
g57
(g78
g59
NtRp4946
(dp4947
g62
(dp4948
g82
g83
ssg71
g4942
sg64
(lp4949
S'session_locked'
p4950
asbag57
(g78
g59
NtRp4951
(dp4952
g62
(dp4953
g89
g90
ssg71
g4942
sg64
(lp4954
S':'
asbag57
(g78
g59
NtRp4955
(dp4956
g62
(dp4957
sg71
g4942
sg64
(lp4958
g57
(g58
g59
NtRp4959
(dp4960
g62
(dp4961
g70
I5
ssg71
g4955
sg64
(lp4962
g1692
asbasbasbag57
(g73
g59
NtRp4963
(dp4964
g62
(dp4965
sg71
g3532
sg64
(lp4966
g57
(g78
g59
NtRp4967
(dp4968
g62
(dp4969
g82
g83
ssg71
g4963
sg64
(lp4970
S'session_new'
p4971
asbag57
(g78
g59
NtRp4972
(dp4973
g62
(dp4974
g89
g90
ssg71
g4963
sg64
(lp4975
S':'
asbag57
(g78
g59
NtRp4976
(dp4977
g62
(dp4978
sg71
g4963
sg64
(lp4979
g57
(g58
g59
NtRp4980
(dp4981
g62
(dp4982
g70
I5
ssg71
g4976
sg64
(lp4983
g100
asbasbasbag57
(g73
g59
NtRp4984
(dp4985
g62
(dp4986
sg71
g3532
sg64
(lp4987
g57
(g78
g59
NtRp4988
(dp4989
g62
(dp4990
g82
g83
ssg71
g4984
sg64
(lp4991
S'status'
p4992
asbag57
(g78
g59
NtRp4993
(dp4994
g62
(dp4995
g89
g90
ssg71
g4984
sg64
(lp4996
S':'
asbag57
(g78
g59
NtRp4997
(dp4998
g62
(dp4999
sg71
g4984
sg64
(lp5000
g57
(g58
g59
NtRp5001
(dp5002
g62
(dp5003
g70
I5
ssg71
g4997
sg64
(lp5004
S'200'
p5005
asbasbasbag57
(g73
g59
NtRp5006
(dp5007
g62
(dp5008
sg71
g3532
sg64
(lp5009
g57
(g78
g59
NtRp5010
(dp5011
g62
(dp5012
g82
g83
ssg71
g5006
sg64
(lp5013
S'subtitle'
p5014
asbag57
(g78
g59
NtRp5015
(dp5016
g62
(dp5017
g89
g90
ssg71
g5006
sg64
(lp5018
S':'
asbag57
(g78
g59
NtRp5019
(dp5020
g62
(dp5021
sg71
g5006
sg64
(lp5022
g57
(g58
g59
NtRp5023
(dp5024
g62
(dp5025
g70
I5
ssg71
g5019
sg64
(lp5026
g4098
(S's\r\x00\x00\x00customize me!'
tRp5027
asbasbasbag57
(g73
g59
NtRp5028
(dp5029
g62
(dp5030
sg71
g3532
sg64
(lp5031
g57
(g78
g59
NtRp5032
(dp5033
g62
(dp5034
g82
g83
ssg71
g5028
sg64
(lp5035
S'title'
p5036
asbag57
(g78
g59
NtRp5037
(dp5038
g62
(dp5039
g89
g90
ssg71
g5028
sg64
(lp5040
S':'
asbag57
(g78
g59
NtRp5041
(dp5042
g62
(dp5043
sg71
g5028
sg64
(lp5044
g57
(g58
g59
NtRp5045
(dp5046
g62
(dp5047
g70
I5
ssg71
g5041
sg64
(lp5048
S'Fotobuk'
p5049
asbasbasbag57
(g73
g59
NtRp5050
(dp5051
g62
(dp5052
sg71
g3532
sg64
(lp5053
g57
(g78
g59
NtRp5054
(dp5055
g62
(dp5056
g82
g83
ssg71
g5050
sg64
(lp5057
S'view'
p5058
asbag57
(g78
g59
NtRp5059
(dp5060
g62
(dp5061
g89
g90
ssg71
g5050
sg64
(lp5062
S':'
asbag57
(g78
g59
NtRp5063
(dp5064
g62
(dp5065
sg71
g5050
sg64
(lp5066
g57
(g58
g59
NtRp5067
(dp5068
g62
(dp5069
g70
I5
ssg71
g5063
sg64
(lp5070
S'default/show.html'
p5071
asbasbasbasbasbsS'locals'
p5072
(dp5073
S'flag'
p5074
S'0'
sS'cur_user'
p5075
S'1'
sS'image'
p5076
S"<Row {'comment': <Set (comment.image_id = 2)>, '... <gluon.dal.RecordDeleter object at 0xaec9e78c>}>"
p5077
sS'form'
p5078
S'<gluon.sqlhtml.SQLFORM object>'
p5079
sS'likes'
p5080
S'<Rows (7)>'
p5081
sssS'traceback'
p5082
S'Traceback (most recent call last):\n  File "/home/piyush/web2py/gluon/restricted.py", line 209, in restricted\n    exec ccode in environment\n  File "/home/piyush/web2py/applications/FotoBuk/controllers/default.py", line 61, in <module>\n  File "/home/piyush/web2py/gluon/globals.py", line 185, in <lambda>\n    self._caller = lambda f: f()\n  File "/home/piyush/web2py/gluon/tools.py", line 2776, in f\n    return action(*a, **b)\n  File "/home/piyush/web2py/applications/FotoBuk/controllers/default.py", line 23, in show\n    query = (like.like_id==image.id and like.liker==cur_user)\nNameError: global name \'like\' is not defined\n'
p5083
s.