(dp1
S'output'
p2
S"<type 'exceptions.SyntaxError'> invalid syntax (show.html, line 95)"
p3
sS'layer'
p4
S'/home/piyush/web2py/applications/FotoBuk/views/default/show.html'
p5
sS'code'
p6
S'response.write(\'<!DOCTYPE html>\\r\\n<!-- paulirish.com/2008/conditional-stylesheets-vs-css-hacks-answer-neither/ -->\\r\\n<!--[if lt IE 7]><html class="ie ie6 ie-lte9 ie-lte8 ie-lte7 no-js" lang="\', escape=False)\nresponse.write(T.accepted_language or \'en\')\nresponse.write(\'"> <![endif]-->\\r\\n<!--[if IE 7]><html class="ie ie7 ie-lte9 ie-lte8 ie-lte7 no-js" lang="\', escape=False)\nresponse.write(T.accepted_language or \'en\')\nresponse.write(\'"> <![endif]-->\\r\\n<!--[if IE 8]><html class="ie ie8 ie-lte9 ie-lte8 no-js" lang="\', escape=False)\nresponse.write(T.accepted_language or \'en\')\nresponse.write(\'"> <![endif]-->\\r\\n<!--[if IE 9]><html class="ie9 ie-lte9 no-js" lang="\', escape=False)\nresponse.write(T.accepted_language or \'en\')\nresponse.write(\'"> <![endif]-->\\r\\n<!--[if (gt IE 9)|!(IE)]><!--> <html class="no-js" lang="\', escape=False)\nresponse.write(T.accepted_language or \'en\')\nresponse.write(\'"> <!--<![endif]-->\\r\\n<head>\\r\\n  <meta charset="utf-8" />\\r\\n  <!-- www.phpied.com/conditional-comments-block-downloads/ -->\\r\\n  <!-- Always force latest IE rendering engine\\r\\n       (even in intranet) & Chrome Frame\\r\\n       Remove this if you use the .htaccess -->\\r\\n  <!--[if IE]>\\r\\n      <meta http-equiv="X-UA-Compatible" content="IE=edge\', escape=False)\nresponse.write(not request.is_local and \',chrome=1\' or \'\')\nresponse.write(\'">\\r\\n      <![endif]-->\\r\\n  \\r\\n  <title>\', escape=False)\nresponse.write(response.title or request.application)\nresponse.write(\'</title>\\r\\n  \\r\\n  <!-- http://dev.w3.org/html5/markup/meta.name.html -->\\r\\n  <meta name="application-name" content="\', escape=False)\nresponse.write(request.application)\nresponse.write(\'" />\\r\\n  \\r\\n  <!-- Speaking of Google, don\\\'t forget to set your site up:\\r\\n       http://google.com/webmasters -->\\r\\n  <meta name="google-site-verification" content="" />\\r\\n  \\r\\n  <!--  Mobile Viewport Fix\\r\\n\\tj.mp/mobileviewport & davidbcalhoun.com/2010/viewport-metatag\\r\\n\\tdevice-width: Occupy full width of the screen in its current orientation\\r\\n\\tinitial-scale = 1.0 retains dimensions instead of zooming out if page height > device height\\r\\n\\tuser-scalable = yes allows the user to zoom in -->\\r\\n  <meta name="viewport" content="width=device-width, initial-scale=1.0">\\r\\n  \\r\\n  <link rel="shortcut icon" href="\', escape=False)\nresponse.write(URL(\'static\',\'images/favicon.ico\'))\nresponse.write(\'" type="image/x-icon">\\r\\n  <link rel="apple-touch-icon" href="\', escape=False)\nresponse.write(URL(\'static\',\'images/favicon.png\'))\nresponse.write(\'">\\r\\n  \\r\\n  <!-- All JavaScript at the bottom, except for Modernizr which enables \\r\\n       HTML5 elements & feature detects -->\\r\\n  <script src="\', escape=False)\nresponse.write(URL(\'static\',\'js/modernizr.custom.js\'))\nresponse.write(\'"></script>   \\r\\n  \\r\\n  <!-- include stylesheets -->\\r\\n  \', escape=False)\nresponse.files.append(URL(\'static\',\'css/bootstrap.min.css\'))\nresponse.files.append(URL(\'static\',\'css/bootstrap-responsive.min.css\'))\nresponse.files.append(URL(\'static\',\'css/web2py.css\'))\nresponse.files.append(URL(\'static\',\'css/web2py_bootstrap.css\'))\nresponse.write(\'\\r\\n\\r\\n  \', escape=False)\nresponse.write(\'<script type="text/javascript"><!--\\n    // These variables are used by the web2py_ajax_init function in web2py_ajax.js (which is loaded below).\\n    var w2p_ajax_confirm_message = "\', escape=False)\nresponse.write(T(\'Are you sure you want to delete this object?\'))\nresponse.write(\'";\\n    var w2p_ajax_date_format = "\', escape=False)\nresponse.write(T(\'%Y-%m-%d\'))\nresponse.write(\'";\\n    var w2p_ajax_datetime_format = "\', escape=False)\nresponse.write(T(\'%Y-%m-%d %H:%M:%S\'))\nresponse.write(\'";\\n    //--></script>\\n\', escape=False)\nresponse.files.insert(0,URL(\'static\',\'js/jquery.js\'))\nresponse.files.insert(1,URL(\'static\',\'css/calendar.css\'))\nresponse.files.insert(2,URL(\'static\',\'js/calendar.js\'))\nresponse.files.insert(3,URL(\'static\',\'js/web2py.js\'))\nresponse.include_meta()\nresponse.include_files()\nresponse.write(\'\\n\', escape=False)\nresponse.write(\'\\r\\n  \\r\\n  \', escape=False)\n# using sidebars need to know what sidebar you want to use\nleft_sidebar_enabled = globals().get(\'left_sidebar_enabled\',False)\nright_sidebar_enabled = globals().get(\'right_sidebar_enabled\',False)\nmiddle_columns = {0:\'span12\',1:\'span9\',2:\'span6\'}[\n(left_sidebar_enabled and 1 or 0)+(right_sidebar_enabled and 1 or 0)]\nresponse.write(\'\\r\\n\\r\\n  <!-- uncomment here to load jquery-ui\\r\\n       <link rel="stylesheet" href="http://ajax.googleapis.com/ajax/libs/jqueryui/1.8.16/themes/base/jquery-ui.css" type="text/css" media="all" />\\r\\n       <script src="http://ajax.googleapis.com/ajax/libs/jqueryui/1.8.16/jquery-ui.min.js" type="text/javascript"></script>\\r\\n       uncomment to load jquery-ui //-->\\r\\n  <noscript><link href="\', escape=False)\nresponse.write(URL(\'static\', \'css/web2py_bootstrap_nojs.css\'))\nresponse.write(\'" rel="stylesheet" type="text/css" /></noscript>\\r\\n  \', escape=False)\nresponse.write(\'\\r\\n</head>\\r\\n\\r\\n<body>\\r\\n  <!-- Navbar ================================================== -->\\r\\n  <div class="navbar navbar-fixed-top">\\r\\n    <div class="navbar-inner">\\r\\n      <div class="container">\\r\\n\\t<!-- the next tag is necessary for bootstrap menus, do not remove -->\\r\\n\\t<a class="btn btn-navbar" data-toggle="collapse" data-target=".nav-collapse">\\r\\n          <span class="icon-bar"></span>\\r\\n          <span class="icon-bar"></span>\\r\\n          <span class="icon-bar"></span>\\r\\n        </a>\\r\\n\\t<a class="brand" href="#">web2py&trade;&nbsp;</a>\\r\\n\\t<div id="navbar">\', escape=False)\nresponse.write(\'auth\' in globals() and auth.navbar() or \'\')\nresponse.write(\'</div>\\r\\n\\t<div class="nav-collapse">\\r\\n\\t  \', escape=False)\nis_mobile=request.user_agent().is_mobile\nresponse.write(\'\\r\\n\\t  \', escape=False)\nif response.menu:\n    response.write(\'\\r\\n\\t  \', escape=False)\n    response.write(MENU(response.menu, _class=\'mobile-menu nav\' if is_mobile else \'nav\',mobile=is_mobile,li_class=\'dropdown\',ul_class=\'dropdown-menu\'))\n    response.write(\'\\r\\n\\t  \', escape=False)\n    pass\nresponse.write(\'\\r\\n\\t</div><!--/.nav-collapse -->\\r\\n      </div>\\r\\n    </div>\\r\\n  </div><!--/top navbar -->\\r\\n  \\r\\n  <div class="container">\\r\\n    <div class="flash">\', escape=False)\nresponse.write(response.flash or \'\')\nresponse.write(\'</div>\\r\\n\\r\\n    <!-- Masthead ================================================== -->\\r\\n    <header class="mastheader" id="header">\\r\\n      <div class="page-header">\\r\\n\\t<h1>\\r\\n\\t  \', escape=False)\nresponse.write(response.title or request.application)\nresponse.write(\'\\r\\n\\t  <small>\', escape=False)\nresponse.write(response.subtitle or \'\')\nresponse.write(\'</small>\\r\\n\\t</h1>\\r\\n      </div>\\r\\n    </header>\\r\\n    \\r\\n    <section id="main" class="main span12">\\r\\n      <div class="row">\\r\\n\\t\', escape=False)\nif left_sidebar_enabled:\n    response.write(\'\\r\\n\\t<div class="span3 left-sidebar">\\r\\n\\t  \', escape=False)\n    response.write(\'\\r\\n\\t  <h3>Left Sidebar</h3>\\r\\n\\t  <p></p>\\r\\n\\t  \', escape=False)\n    response.write(\'\\r\\n\\t</div>\\r\\n\\t\', escape=False)\n    pass\nresponse.write(\'\\r\\n\\t\\r\\n\\t<div class="\', escape=False)\nresponse.write(middle_columns)\nresponse.write(\'">\\r\\n\\t  \', escape=False)\nresponse.write(\'\\r\\n\\t  \', escape=False)\nresponse.write(\'\\n<h1>Image: \', escape=False)\nresponse.write(image.title)\nresponse.write(\'</h1>\\n<center>\\n<img width="200px"\\n     src="\', escape=False)\nresponse.write(URL(\'download\', args=image.file))\nresponse.write(\'" />\\n</center>\\n\', escape=False)\nif len(likes):\n    response.write(\'\\n<h2>Likes</h2><br /><p>\\n  \', escape=False)\n    for like in likes :\n        response.write(\'\\n  <p>\', escape=False)\n        response.write(like.liker)\n        response.write(\' </p>\\n  \', escape=False)\n        pass\n    response.write(\'</p>\\n  \', escape=False)\n    response.write(len(likes))\n    response.write(\'\\n  \', escape=False)\n    pass\nresponse.write(\'\\n \', escape=False)\nif !flag :\n    response.write(\'\\n\\t\', escape=False)\n    response.write(form2)\n    response.write(\'\\n\', escape=False)\nelse:\n    response.write(\'\\n\', escape=False)\n    pass\nresponse.write(\'\\n\', escape=False)\nif len(comments):\n    response.write(\'\\n  <h2>Comments</h2><br /><p>\\n  \', escape=False)\n    for comment in comments:\n        response.write(\'\\n    <p>\', escape=False)\n        response.write(comment.author)\n        response.write(\' says <i>\', escape=False)\n        response.write(comment.body)\n        response.write(\'</i></p>\\n  \', escape=False)\n        pass\n    response.write(\'</p>\\n\', escape=False)\nelse:\n    response.write(\'\\n  <h2>No comments posted yet</h2>\\n\', escape=False)\n    pass\nresponse.write(\'\\n<h2>Post a comment</h2>\\n\', escape=False)\nresponse.write(form)\nresponse.write(\'\\n\\n\\n\', escape=False)\nresponse.write(\'\\r\\n\\t  \', escape=False)\nresponse.write(\'\\r\\n\\t</div>\\r\\n\\t\\r\\n\\t\', escape=False)\nif right_sidebar_enabled:\n    response.write(\'\\r\\n\\t<div class="span3">\\r\\n\\t  \', escape=False)\n    response.write(\'\\r\\n\\t  <h3>Right Sidebar</h3>\\r\\n\\t  <p></p>\\r\\n\\t  \', escape=False)\n    response.write(\'\\r\\n\\t</div>    \\r\\n\\t\', escape=False)\n    pass\nresponse.write(\'\\r\\n      </div><!--/row-->\\r\\n    </section><!--/main-->\\r\\n    \\r\\n    <!-- Footer ================================================== -->\\r\\n    <footer class="footer">\\r\\n      \', escape=False)\nresponse.write(\' <!-- this is default footer -->\\r\\n      <div class="footer-content">\\r\\n\\t<div class="copyright pull-left">\', escape=False)\nresponse.write(T(\'Copyright\'))\nresponse.write(\' &#169; \', escape=False)\nresponse.write(request.now.year)\nresponse.write(\'</div>\\r\\n\\t<div id="poweredBy" class="pull-right">\\r\\n\\t  \', escape=False)\nresponse.write(T(\'Powered by\'))\nresponse.write(\'\\r\\n\\t  <a href="http://www.web2py.com/">web2py</a>\\r\\n\\t</div>\\r\\n      </div>\\r\\n      \', escape=False)\nresponse.write(\'\\r\\n    </footer>\\r\\n    \\r\\n  </div> <!-- /container -->\\r\\n  \\r\\n  <!-- The javascript =============================================\\r\\n       (Placed at the end of the document so the pages load faster) -->\\r\\n  <script>\\r\\n    // this code improves bootstrap menus and adds dropdown support\\r\\n    jQuery(function(){\\r\\n      jQuery(\\\'.nav>li>a\\\').each(function(){\\t        \\r\\n        if(jQuery(this).parent().find(\\\'ul\\\').length)\\r\\n          jQuery(this).attr({\\\'class\\\':\\\'dropdown-toggle\\\',\\\'data-toggle\\\':\\\'dropdown\\\'}).append(\\\'<b class="caret"></b>\\\');\\r\\n      });\\r\\n      jQuery(\\\'.nav li li\\\').each(function(){\\t        \\r\\n        if(jQuery(this).find(\\\'ul\\\').length)\\r\\n          jQuery(this).children(\\\'a\\\').contents().before(\\\'<i class="chevron-right"></i>\\\'); \\r\\n      });\\r\\n      if(jQuery(document).width()>=980) {\\r\\n        jQuery(\\\'ul.nav li.dropdown\\\').hover(function() {\\r\\n          jQuery(this).find(\\\'.dropdown-menu\\\').stop(true, true).delay(200).fadeIn(); \\r\\n        }, function() {\\r\\n          jQuery(this).find(\\\'.dropdown-menu\\\').stop(true, true).delay(200).fadeOut(); \\r\\n        });\\r\\n      }\\r\\n      jQuery(\\\'ul.nav li.dropdown a\\\').click(function(){window.location=jQuery(this).attr(\\\'href\\\');});\\r\\n    });\\r\\n  </script>  \\r\\n  <script src="\', escape=False)\nresponse.write(URL(\'static\',\'js/bootstrap.min.js\'))\nresponse.write(\'"></script>  \\r\\n  <!--[if lt IE 7 ]>\\r\\n      <script src="\', escape=False)\nresponse.write(URL(\'static\',\'js/dd_belatedpng.js\'))\nresponse.write(\'"></script>\\r\\n      <script> DD_belatedPNG.fix(\\\'img, .png_bg\\\'); //fix any <img> or .png_bg background-images </script>\\r\\n      <![endif]-->\\r\\n  \', escape=False)\nif response.google_analytics_id:\n    response.write(\'<script type="text/javascript"> var _gaq = _gaq || []; _gaq.push([\\\'_setAccount\\\', \\\'\', escape=False)\n    response.write(response.google_analytics_id)\n    response.write("\']); _gaq.push([\'_trackPageview\']); (function() { var ga = document.createElement(\'script\'); ga.type = \'text/javascript\'; ga.async = true; ga.src = (\'https:\' == document.location.protocol ? \'https://ssl\' : \'http://www\') + \'.google-analytics.com/ga.js\'; var s = document.getElementsByTagName(\'script\')[0]; s.parentNode.insertBefore(ga, s); })(); </script> ", escape=False)\n    pass\nresponse.write(\'\\r\\n  <script src="\', escape=False)\nresponse.write(URL(\'static\',\'js/share.js\',vars=dict(static=URL(\'static\',\'images\'))))\nresponse.write(\'"></script>  \\r\\n</body>\\r\\n</html>\\r\\n\', escape=False)'
p7
sS'snapshot'
p8
(dp9
S'exception'
p10
(dp11
S'__getslice__'
p12
S"<method-wrapper '__getslice__' of exceptions.SyntaxError object>"
p13
sS'text'
p14
S"'if !flag :\\n'"
p15
sS'__str__'
p16
S"<method-wrapper '__str__' of exceptions.SyntaxError object>"
p17
sS'__reduce__'
p18
S'<built-in method __reduce__ of exceptions.SyntaxError object>'
p19
sS'__dict__'
p20
S'{}'
p21
sS'__sizeof__'
p22
S'<built-in method __sizeof__ of exceptions.SyntaxError object>'
p23
sS'__init__'
p24
S"<method-wrapper '__init__' of exceptions.SyntaxError object>"
p25
sS'__setattr__'
p26
S"<method-wrapper '__setattr__' of exceptions.SyntaxError object>"
p27
sS'__reduce_ex__'
p28
S'<built-in method __reduce_ex__ of exceptions.SyntaxError object>'
p29
sS'__new__'
p30
S'<built-in method __new__ of type object>'
p31
sS'__format__'
p32
S'<built-in method __format__ of exceptions.SyntaxError object>'
p33
sS'__class__'
p34
S"<type 'exceptions.SyntaxError'>"
p35
sS'filename'
p36
S"'/home/piyush/web2py/applications/FotoBuk/views/default/show.html'"
p37
sS'lineno'
p38
S'95'
p39
sS'msg'
p40
S"'invalid syntax'"
p41
sS'__doc__'
p42
S"'Invalid syntax.'"
p43
sS'__getitem__'
p44
S"<method-wrapper '__getitem__' of exceptions.SyntaxError object>"
p45
sS'__setstate__'
p46
S'<built-in method __setstate__ of exceptions.SyntaxError object>'
p47
sS'__getattribute__'
p48
S"<method-wrapper '__getattribute__' of exceptions.SyntaxError object>"
p49
sS'print_file_and_line'
p50
S'None'
p51
sS'args'
p52
S"('invalid syntax', ('/home/piyush/web2py/applications/FotoBuk/views/default/show.html', 95, 4, 'if !flag :\\n'))"
p53
sS'__subclasshook__'
p54
S'<built-in method __subclasshook__ of type object>'
p55
sS'offset'
p56
S'4'
sS'__unicode__'
p57
S'<built-in method __unicode__ of exceptions.SyntaxError object>'
p58
sS'__delattr__'
p59
S"<method-wrapper '__delattr__' of exceptions.SyntaxError object>"
p60
sS'__repr__'
p61
S"<method-wrapper '__repr__' of exceptions.SyntaxError object>"
p62
sS'__hash__'
p63
S"<method-wrapper '__hash__' of exceptions.SyntaxError object>"
p64
ssS'evalue'
p65
S'invalid syntax (show.html, line 95)'
p66
sS'request'
p67
ccopy_reg
_reconstructor
p68
(cgluon.html
BEAUTIFY
p69
c__builtin__
object
p70
NtRp71
(dp72
S'attributes'
p73
(dp74
sS'components'
p75
(lp76
g68
(cgluon.html
TABLE
p77
g70
NtRp78
(dp79
g73
(dp80
S'level'
p81
I5
ssS'parent'
p82
Nsg75
(lp83
g68
(cgluon.html
TR
p84
g70
NtRp85
(dp86
g73
(dp87
sg82
g78
sg75
(lp88
g68
(cgluon.html
TD
p89
g70
NtRp90
(dp91
g73
(dp92
S'_style'
p93
S'font-weight:bold;vertical-align:top'
p94
ssg82
g85
sg75
(lp95
S'ajax'
p96
asbag68
(g89
g70
NtRp97
(dp98
g73
(dp99
S'_valign'
p100
S'top'
p101
ssg82
g85
sg75
(lp102
S':'
asbag68
(g89
g70
NtRp103
(dp104
g73
(dp105
sg82
g85
sg75
(lp106
g68
(g69
g70
NtRp107
(dp108
g73
(dp109
g81
I5
ssg82
g103
sg75
(lp110
S'False'
p111
asbasbasbag68
(g84
g70
NtRp112
(dp113
g73
(dp114
sg82
g78
sg75
(lp115
g68
(g89
g70
NtRp116
(dp117
g73
(dp118
g93
g94
ssg82
g112
sg75
(lp119
S'application'
p120
asbag68
(g89
g70
NtRp121
(dp122
g73
(dp123
g100
g101
ssg82
g112
sg75
(lp124
S':'
asbag68
(g89
g70
NtRp125
(dp126
g73
(dp127
sg82
g112
sg75
(lp128
g68
(g69
g70
NtRp129
(dp130
g73
(dp131
g81
I5
ssg82
g125
sg75
(lp132
S'FotoBuk'
p133
asbasbasbag68
(g84
g70
NtRp134
(dp135
g73
(dp136
sg82
g78
sg75
(lp137
g68
(g89
g70
NtRp138
(dp139
g73
(dp140
g93
g94
ssg82
g134
sg75
(lp141
g52
asbag68
(g89
g70
NtRp142
(dp143
g73
(dp144
g100
g101
ssg82
g134
sg75
(lp145
S':'
asbag68
(g89
g70
NtRp146
(dp147
g73
(dp148
sg82
g134
sg75
(lp149
g68
(g69
g70
NtRp150
(dp151
g73
(dp152
g81
I5
ssg82
g146
sg75
(lp153
g68
(g77
g70
NtRp154
(dp155
g73
(dp156
g81
I4
ssg82
Nsg75
(lp157
g68
(g84
g70
NtRp158
(dp159
g73
(dp160
sg82
g154
sg75
(lp161
g68
(g89
g70
NtRp162
(dp163
g73
(dp164
sg82
g158
sg75
(lp165
g68
(g69
g70
NtRp166
(dp167
g73
(dp168
g81
I4
ssg82
g162
sg75
(lp169
S'1'
asbasbasbasbasbasbasbag68
(g84
g70
NtRp170
(dp171
g73
(dp172
sg82
g78
sg75
(lp173
g68
(g89
g70
NtRp174
(dp175
g73
(dp176
g93
g94
ssg82
g170
sg75
(lp177
S'body'
p178
asbag68
(g89
g70
NtRp179
(dp180
g73
(dp181
g100
g101
ssg82
g170
sg75
(lp182
S':'
asbag68
(g89
g70
NtRp183
(dp184
g73
(dp185
sg82
g170
sg75
(lp186
g68
(g69
g70
NtRp187
(dp188
g73
(dp189
g81
I5
ssg82
g183
sg75
(lp190
S'<cStringIO.StringO object at 0xb2f5b660>'
p191
asbasbasbag68
(g84
g70
NtRp192
(dp193
g73
(dp194
sg82
g78
sg75
(lp195
g68
(g89
g70
NtRp196
(dp197
g73
(dp198
g93
g94
ssg82
g192
sg75
(lp199
S'cid'
p200
asbag68
(g89
g70
NtRp201
(dp202
g73
(dp203
g100
g101
ssg82
g192
sg75
(lp204
S':'
asbag68
(g89
g70
NtRp205
(dp206
g73
(dp207
sg82
g192
sg75
(lp208
g68
(g69
g70
NtRp209
(dp210
g73
(dp211
g81
I5
ssg82
g205
sg75
(lp212
S'None'
p213
asbasbasbag68
(g84
g70
NtRp214
(dp215
g73
(dp216
sg82
g78
sg75
(lp217
g68
(g89
g70
NtRp218
(dp219
g73
(dp220
g93
g94
ssg82
g214
sg75
(lp221
S'client'
p222
asbag68
(g89
g70
NtRp223
(dp224
g73
(dp225
g100
g101
ssg82
g214
sg75
(lp226
S':'
asbag68
(g89
g70
NtRp227
(dp228
g73
(dp229
sg82
g214
sg75
(lp230
g68
(g69
g70
NtRp231
(dp232
g73
(dp233
g81
I5
ssg82
g227
sg75
(lp234
S'127.0.0.1'
p235
asbasbasbag68
(g84
g70
NtRp236
(dp237
g73
(dp238
sg82
g78
sg75
(lp239
g68
(g89
g70
NtRp240
(dp241
g73
(dp242
g93
g94
ssg82
g236
sg75
(lp243
S'controller'
p244
asbag68
(g89
g70
NtRp245
(dp246
g73
(dp247
g100
g101
ssg82
g236
sg75
(lp248
S':'
asbag68
(g89
g70
NtRp249
(dp250
g73
(dp251
sg82
g236
sg75
(lp252
g68
(g69
g70
NtRp253
(dp254
g73
(dp255
g81
I5
ssg82
g249
sg75
(lp256
S'default'
p257
asbasbasbag68
(g84
g70
NtRp258
(dp259
g73
(dp260
sg82
g78
sg75
(lp261
g68
(g89
g70
NtRp262
(dp263
g73
(dp264
g93
g94
ssg82
g258
sg75
(lp265
S'cookies'
p266
asbag68
(g89
g70
NtRp267
(dp268
g73
(dp269
g100
g101
ssg82
g258
sg75
(lp270
S':'
asbag68
(g89
g70
NtRp271
(dp272
g73
(dp273
sg82
g258
sg75
(lp274
g68
(g69
g70
NtRp275
(dp276
g73
(dp277
g81
I5
ssg82
g271
sg75
(lp278
g68
(g77
g70
NtRp279
(dp280
g73
(dp281
g81
I4
ssg82
Nsg75
(lp282
g68
(g84
g70
NtRp283
(dp284
g73
(dp285
sg82
g279
sg75
(lp286
g68
(g89
g70
NtRp287
(dp288
g73
(dp289
g93
g94
ssg82
g283
sg75
(lp290
S'session_id_admin'
p291
asbag68
(g89
g70
NtRp292
(dp293
g73
(dp294
g100
g101
ssg82
g283
sg75
(lp295
S':'
asbag68
(g89
g70
NtRp296
(dp297
g73
(dp298
sg82
g283
sg75
(lp299
g68
(g69
g70
NtRp300
(dp301
g73
(dp302
g81
I4
ssg82
g296
sg75
(lp303
S'127.0.0.1-f31a16a6-2f0e-474e-b0b5-7ca781ebd64d'
p304
ag68
(g77
g70
NtRp305
(dp306
g73
(dp307
g81
I3
ssg82
Nsg75
(lp308
g68
(g84
g70
NtRp309
(dp310
g73
(dp311
sg82
g305
sg75
(lp312
g68
(g89
g70
NtRp313
(dp314
g73
(dp315
g93
g94
ssg82
g309
sg75
(lp316
S'comment'
p317
asbag68
(g89
g70
NtRp318
(dp319
g73
(dp320
g100
g101
ssg82
g309
sg75
(lp321
S':'
asbag68
(g89
g70
NtRp322
(dp323
g73
(dp324
sg82
g309
sg75
(lp325
g68
(g69
g70
NtRp326
(dp327
g73
(dp328
g81
I3
ssg82
g322
sg75
(lp329
S''
asbasbasbag68
(g84
g70
NtRp330
(dp331
g73
(dp332
sg82
g305
sg75
(lp333
g68
(g89
g70
NtRp334
(dp335
g73
(dp336
g93
g94
ssg82
g330
sg75
(lp337
S'domain'
p338
asbag68
(g89
g70
NtRp339
(dp340
g73
(dp341
g100
g101
ssg82
g330
sg75
(lp342
S':'
asbag68
(g89
g70
NtRp343
(dp344
g73
(dp345
sg82
g330
sg75
(lp346
g68
(g69
g70
NtRp347
(dp348
g73
(dp349
g81
I3
ssg82
g343
sg75
(lp350
S''
asbasbasbag68
(g84
g70
NtRp351
(dp352
g73
(dp353
sg82
g305
sg75
(lp354
g68
(g89
g70
NtRp355
(dp356
g73
(dp357
g93
g94
ssg82
g351
sg75
(lp358
S'expires'
p359
asbag68
(g89
g70
NtRp360
(dp361
g73
(dp362
g100
g101
ssg82
g351
sg75
(lp363
S':'
asbag68
(g89
g70
NtRp364
(dp365
g73
(dp366
sg82
g351
sg75
(lp367
g68
(g69
g70
NtRp368
(dp369
g73
(dp370
g81
I3
ssg82
g364
sg75
(lp371
S''
asbasbasbag68
(g84
g70
NtRp372
(dp373
g73
(dp374
sg82
g305
sg75
(lp375
g68
(g89
g70
NtRp376
(dp377
g73
(dp378
g93
g94
ssg82
g372
sg75
(lp379
S'httponly'
p380
asbag68
(g89
g70
NtRp381
(dp382
g73
(dp383
g100
g101
ssg82
g372
sg75
(lp384
S':'
asbag68
(g89
g70
NtRp385
(dp386
g73
(dp387
sg82
g372
sg75
(lp388
g68
(g69
g70
NtRp389
(dp390
g73
(dp391
g81
I3
ssg82
g385
sg75
(lp392
S''
asbasbasbag68
(g84
g70
NtRp393
(dp394
g73
(dp395
sg82
g305
sg75
(lp396
g68
(g89
g70
NtRp397
(dp398
g73
(dp399
g93
g94
ssg82
g393
sg75
(lp400
S'max-age'
p401
asbag68
(g89
g70
NtRp402
(dp403
g73
(dp404
g100
g101
ssg82
g393
sg75
(lp405
S':'
asbag68
(g89
g70
NtRp406
(dp407
g73
(dp408
sg82
g393
sg75
(lp409
g68
(g69
g70
NtRp410
(dp411
g73
(dp412
g81
I3
ssg82
g406
sg75
(lp413
S''
asbasbasbag68
(g84
g70
NtRp414
(dp415
g73
(dp416
sg82
g305
sg75
(lp417
g68
(g89
g70
NtRp418
(dp419
g73
(dp420
g93
g94
ssg82
g414
sg75
(lp421
S'path'
p422
asbag68
(g89
g70
NtRp423
(dp424
g73
(dp425
g100
g101
ssg82
g414
sg75
(lp426
S':'
asbag68
(g89
g70
NtRp427
(dp428
g73
(dp429
sg82
g414
sg75
(lp430
g68
(g69
g70
NtRp431
(dp432
g73
(dp433
g81
I3
ssg82
g427
sg75
(lp434
S''
asbasbasbag68
(g84
g70
NtRp435
(dp436
g73
(dp437
sg82
g305
sg75
(lp438
g68
(g89
g70
NtRp439
(dp440
g73
(dp441
g93
g94
ssg82
g435
sg75
(lp442
S'secure'
p443
asbag68
(g89
g70
NtRp444
(dp445
g73
(dp446
g100
g101
ssg82
g435
sg75
(lp447
S':'
asbag68
(g89
g70
NtRp448
(dp449
g73
(dp450
sg82
g435
sg75
(lp451
g68
(g69
g70
NtRp452
(dp453
g73
(dp454
g81
I3
ssg82
g448
sg75
(lp455
S''
asbasbasbag68
(g84
g70
NtRp456
(dp457
g73
(dp458
sg82
g305
sg75
(lp459
g68
(g89
g70
NtRp460
(dp461
g73
(dp462
g93
g94
ssg82
g456
sg75
(lp463
S'version'
p464
asbag68
(g89
g70
NtRp465
(dp466
g73
(dp467
g100
g101
ssg82
g456
sg75
(lp468
S':'
asbag68
(g89
g70
NtRp469
(dp470
g73
(dp471
sg82
g456
sg75
(lp472
g68
(g69
g70
NtRp473
(dp474
g73
(dp475
g81
I3
ssg82
g469
sg75
(lp476
S''
asbasbasbasbasbasbasbag68
(g84
g70
NtRp477
(dp478
g73
(dp479
sg82
g279
sg75
(lp480
g68
(g89
g70
NtRp481
(dp482
g73
(dp483
g93
g94
ssg82
g477
sg75
(lp484
S'session_id_fotobuk'
p485
asbag68
(g89
g70
NtRp486
(dp487
g73
(dp488
g100
g101
ssg82
g477
sg75
(lp489
S':'
asbag68
(g89
g70
NtRp490
(dp491
g73
(dp492
sg82
g477
sg75
(lp493
g68
(g69
g70
NtRp494
(dp495
g73
(dp496
g81
I4
ssg82
g490
sg75
(lp497
S'127.0.0.1-961e4bc4-dc07-4e6c-b9f7-52a46e56ffd5'
p498
ag68
(g77
g70
NtRp499
(dp500
g73
(dp501
g81
I3
ssg82
Nsg75
(lp502
g68
(g84
g70
NtRp503
(dp504
g73
(dp505
sg82
g499
sg75
(lp506
g68
(g89
g70
NtRp507
(dp508
g73
(dp509
g93
g94
ssg82
g503
sg75
(lp510
g317
asbag68
(g89
g70
NtRp511
(dp512
g73
(dp513
g100
g101
ssg82
g503
sg75
(lp514
S':'
asbag68
(g89
g70
NtRp515
(dp516
g73
(dp517
sg82
g503
sg75
(lp518
g68
(g69
g70
NtRp519
(dp520
g73
(dp521
g81
I3
ssg82
g515
sg75
(lp522
S''
asbasbasbag68
(g84
g70
NtRp523
(dp524
g73
(dp525
sg82
g499
sg75
(lp526
g68
(g89
g70
NtRp527
(dp528
g73
(dp529
g93
g94
ssg82
g523
sg75
(lp530
g338
asbag68
(g89
g70
NtRp531
(dp532
g73
(dp533
g100
g101
ssg82
g523
sg75
(lp534
S':'
asbag68
(g89
g70
NtRp535
(dp536
g73
(dp537
sg82
g523
sg75
(lp538
g68
(g69
g70
NtRp539
(dp540
g73
(dp541
g81
I3
ssg82
g535
sg75
(lp542
S''
asbasbasbag68
(g84
g70
NtRp543
(dp544
g73
(dp545
sg82
g499
sg75
(lp546
g68
(g89
g70
NtRp547
(dp548
g73
(dp549
g93
g94
ssg82
g543
sg75
(lp550
g359
asbag68
(g89
g70
NtRp551
(dp552
g73
(dp553
g100
g101
ssg82
g543
sg75
(lp554
S':'
asbag68
(g89
g70
NtRp555
(dp556
g73
(dp557
sg82
g543
sg75
(lp558
g68
(g69
g70
NtRp559
(dp560
g73
(dp561
g81
I3
ssg82
g555
sg75
(lp562
S''
asbasbasbag68
(g84
g70
NtRp563
(dp564
g73
(dp565
sg82
g499
sg75
(lp566
g68
(g89
g70
NtRp567
(dp568
g73
(dp569
g93
g94
ssg82
g563
sg75
(lp570
g380
asbag68
(g89
g70
NtRp571
(dp572
g73
(dp573
g100
g101
ssg82
g563
sg75
(lp574
S':'
asbag68
(g89
g70
NtRp575
(dp576
g73
(dp577
sg82
g563
sg75
(lp578
g68
(g69
g70
NtRp579
(dp580
g73
(dp581
g81
I3
ssg82
g575
sg75
(lp582
S''
asbasbasbag68
(g84
g70
NtRp583
(dp584
g73
(dp585
sg82
g499
sg75
(lp586
g68
(g89
g70
NtRp587
(dp588
g73
(dp589
g93
g94
ssg82
g583
sg75
(lp590
g401
asbag68
(g89
g70
NtRp591
(dp592
g73
(dp593
g100
g101
ssg82
g583
sg75
(lp594
S':'
asbag68
(g89
g70
NtRp595
(dp596
g73
(dp597
sg82
g583
sg75
(lp598
g68
(g69
g70
NtRp599
(dp600
g73
(dp601
g81
I3
ssg82
g595
sg75
(lp602
S''
asbasbasbag68
(g84
g70
NtRp603
(dp604
g73
(dp605
sg82
g499
sg75
(lp606
g68
(g89
g70
NtRp607
(dp608
g73
(dp609
g93
g94
ssg82
g603
sg75
(lp610
g422
asbag68
(g89
g70
NtRp611
(dp612
g73
(dp613
g100
g101
ssg82
g603
sg75
(lp614
S':'
asbag68
(g89
g70
NtRp615
(dp616
g73
(dp617
sg82
g603
sg75
(lp618
g68
(g69
g70
NtRp619
(dp620
g73
(dp621
g81
I3
ssg82
g615
sg75
(lp622
S''
asbasbasbag68
(g84
g70
NtRp623
(dp624
g73
(dp625
sg82
g499
sg75
(lp626
g68
(g89
g70
NtRp627
(dp628
g73
(dp629
g93
g94
ssg82
g623
sg75
(lp630
g443
asbag68
(g89
g70
NtRp631
(dp632
g73
(dp633
g100
g101
ssg82
g623
sg75
(lp634
S':'
asbag68
(g89
g70
NtRp635
(dp636
g73
(dp637
sg82
g623
sg75
(lp638
g68
(g69
g70
NtRp639
(dp640
g73
(dp641
g81
I3
ssg82
g635
sg75
(lp642
S''
asbasbasbag68
(g84
g70
NtRp643
(dp644
g73
(dp645
sg82
g499
sg75
(lp646
g68
(g89
g70
NtRp647
(dp648
g73
(dp649
g93
g94
ssg82
g643
sg75
(lp650
g464
asbag68
(g89
g70
NtRp651
(dp652
g73
(dp653
g100
g101
ssg82
g643
sg75
(lp654
S':'
asbag68
(g89
g70
NtRp655
(dp656
g73
(dp657
sg82
g643
sg75
(lp658
g68
(g69
g70
NtRp659
(dp660
g73
(dp661
g81
I3
ssg82
g655
sg75
(lp662
S''
asbasbasbasbasbasbasbag68
(g84
g70
NtRp663
(dp664
g73
(dp665
sg82
g279
sg75
(lp666
g68
(g89
g70
NtRp667
(dp668
g73
(dp669
g93
g94
ssg82
g663
sg75
(lp670
S'session_id_ialbum'
p671
asbag68
(g89
g70
NtRp672
(dp673
g73
(dp674
g100
g101
ssg82
g663
sg75
(lp675
S':'
asbag68
(g89
g70
NtRp676
(dp677
g73
(dp678
sg82
g663
sg75
(lp679
g68
(g69
g70
NtRp680
(dp681
g73
(dp682
g81
I4
ssg82
g676
sg75
(lp683
S'127.0.0.1-8bab57f4-8655-4ca4-8b5d-11fde04576c5'
p684
ag68
(g77
g70
NtRp685
(dp686
g73
(dp687
g81
I3
ssg82
Nsg75
(lp688
g68
(g84
g70
NtRp689
(dp690
g73
(dp691
sg82
g685
sg75
(lp692
g68
(g89
g70
NtRp693
(dp694
g73
(dp695
g93
g94
ssg82
g689
sg75
(lp696
g317
asbag68
(g89
g70
NtRp697
(dp698
g73
(dp699
g100
g101
ssg82
g689
sg75
(lp700
S':'
asbag68
(g89
g70
NtRp701
(dp702
g73
(dp703
sg82
g689
sg75
(lp704
g68
(g69
g70
NtRp705
(dp706
g73
(dp707
g81
I3
ssg82
g701
sg75
(lp708
S''
asbasbasbag68
(g84
g70
NtRp709
(dp710
g73
(dp711
sg82
g685
sg75
(lp712
g68
(g89
g70
NtRp713
(dp714
g73
(dp715
g93
g94
ssg82
g709
sg75
(lp716
g338
asbag68
(g89
g70
NtRp717
(dp718
g73
(dp719
g100
g101
ssg82
g709
sg75
(lp720
S':'
asbag68
(g89
g70
NtRp721
(dp722
g73
(dp723
sg82
g709
sg75
(lp724
g68
(g69
g70
NtRp725
(dp726
g73
(dp727
g81
I3
ssg82
g721
sg75
(lp728
S''
asbasbasbag68
(g84
g70
NtRp729
(dp730
g73
(dp731
sg82
g685
sg75
(lp732
g68
(g89
g70
NtRp733
(dp734
g73
(dp735
g93
g94
ssg82
g729
sg75
(lp736
g359
asbag68
(g89
g70
NtRp737
(dp738
g73
(dp739
g100
g101
ssg82
g729
sg75
(lp740
S':'
asbag68
(g89
g70
NtRp741
(dp742
g73
(dp743
sg82
g729
sg75
(lp744
g68
(g69
g70
NtRp745
(dp746
g73
(dp747
g81
I3
ssg82
g741
sg75
(lp748
S''
asbasbasbag68
(g84
g70
NtRp749
(dp750
g73
(dp751
sg82
g685
sg75
(lp752
g68
(g89
g70
NtRp753
(dp754
g73
(dp755
g93
g94
ssg82
g749
sg75
(lp756
g380
asbag68
(g89
g70
NtRp757
(dp758
g73
(dp759
g100
g101
ssg82
g749
sg75
(lp760
S':'
asbag68
(g89
g70
NtRp761
(dp762
g73
(dp763
sg82
g749
sg75
(lp764
g68
(g69
g70
NtRp765
(dp766
g73
(dp767
g81
I3
ssg82
g761
sg75
(lp768
S''
asbasbasbag68
(g84
g70
NtRp769
(dp770
g73
(dp771
sg82
g685
sg75
(lp772
g68
(g89
g70
NtRp773
(dp774
g73
(dp775
g93
g94
ssg82
g769
sg75
(lp776
g401
asbag68
(g89
g70
NtRp777
(dp778
g73
(dp779
g100
g101
ssg82
g769
sg75
(lp780
S':'
asbag68
(g89
g70
NtRp781
(dp782
g73
(dp783
sg82
g769
sg75
(lp784
g68
(g69
g70
NtRp785
(dp786
g73
(dp787
g81
I3
ssg82
g781
sg75
(lp788
S''
asbasbasbag68
(g84
g70
NtRp789
(dp790
g73
(dp791
sg82
g685
sg75
(lp792
g68
(g89
g70
NtRp793
(dp794
g73
(dp795
g93
g94
ssg82
g789
sg75
(lp796
g422
asbag68
(g89
g70
NtRp797
(dp798
g73
(dp799
g100
g101
ssg82
g789
sg75
(lp800
S':'
asbag68
(g89
g70
NtRp801
(dp802
g73
(dp803
sg82
g789
sg75
(lp804
g68
(g69
g70
NtRp805
(dp806
g73
(dp807
g81
I3
ssg82
g801
sg75
(lp808
S''
asbasbasbag68
(g84
g70
NtRp809
(dp810
g73
(dp811
sg82
g685
sg75
(lp812
g68
(g89
g70
NtRp813
(dp814
g73
(dp815
g93
g94
ssg82
g809
sg75
(lp816
g443
asbag68
(g89
g70
NtRp817
(dp818
g73
(dp819
g100
g101
ssg82
g809
sg75
(lp820
S':'
asbag68
(g89
g70
NtRp821
(dp822
g73
(dp823
sg82
g809
sg75
(lp824
g68
(g69
g70
NtRp825
(dp826
g73
(dp827
g81
I3
ssg82
g821
sg75
(lp828
S''
asbasbasbag68
(g84
g70
NtRp829
(dp830
g73
(dp831
sg82
g685
sg75
(lp832
g68
(g89
g70
NtRp833
(dp834
g73
(dp835
g93
g94
ssg82
g829
sg75
(lp836
g464
asbag68
(g89
g70
NtRp837
(dp838
g73
(dp839
g100
g101
ssg82
g829
sg75
(lp840
S':'
asbag68
(g89
g70
NtRp841
(dp842
g73
(dp843
sg82
g829
sg75
(lp844
g68
(g69
g70
NtRp845
(dp846
g73
(dp847
g81
I3
ssg82
g841
sg75
(lp848
S''
asbasbasbasbasbasbasbag68
(g84
g70
NtRp849
(dp850
g73
(dp851
sg82
g279
sg75
(lp852
g68
(g89
g70
NtRp853
(dp854
g73
(dp855
g93
g94
ssg82
g849
sg75
(lp856
S'session_id_welcome'
p857
asbag68
(g89
g70
NtRp858
(dp859
g73
(dp860
g100
g101
ssg82
g849
sg75
(lp861
S':'
asbag68
(g89
g70
NtRp862
(dp863
g73
(dp864
sg82
g849
sg75
(lp865
g68
(g69
g70
NtRp866
(dp867
g73
(dp868
g81
I4
ssg82
g862
sg75
(lp869
S'127.0.0.1-3299e4b7-9181-4336-a2b6-d67ebc8bfe8e'
p870
ag68
(g77
g70
NtRp871
(dp872
g73
(dp873
g81
I3
ssg82
Nsg75
(lp874
g68
(g84
g70
NtRp875
(dp876
g73
(dp877
sg82
g871
sg75
(lp878
g68
(g89
g70
NtRp879
(dp880
g73
(dp881
g93
g94
ssg82
g875
sg75
(lp882
g317
asbag68
(g89
g70
NtRp883
(dp884
g73
(dp885
g100
g101
ssg82
g875
sg75
(lp886
S':'
asbag68
(g89
g70
NtRp887
(dp888
g73
(dp889
sg82
g875
sg75
(lp890
g68
(g69
g70
NtRp891
(dp892
g73
(dp893
g81
I3
ssg82
g887
sg75
(lp894
S''
asbasbasbag68
(g84
g70
NtRp895
(dp896
g73
(dp897
sg82
g871
sg75
(lp898
g68
(g89
g70
NtRp899
(dp900
g73
(dp901
g93
g94
ssg82
g895
sg75
(lp902
g338
asbag68
(g89
g70
NtRp903
(dp904
g73
(dp905
g100
g101
ssg82
g895
sg75
(lp906
S':'
asbag68
(g89
g70
NtRp907
(dp908
g73
(dp909
sg82
g895
sg75
(lp910
g68
(g69
g70
NtRp911
(dp912
g73
(dp913
g81
I3
ssg82
g907
sg75
(lp914
S''
asbasbasbag68
(g84
g70
NtRp915
(dp916
g73
(dp917
sg82
g871
sg75
(lp918
g68
(g89
g70
NtRp919
(dp920
g73
(dp921
g93
g94
ssg82
g915
sg75
(lp922
g359
asbag68
(g89
g70
NtRp923
(dp924
g73
(dp925
g100
g101
ssg82
g915
sg75
(lp926
S':'
asbag68
(g89
g70
NtRp927
(dp928
g73
(dp929
sg82
g915
sg75
(lp930
g68
(g69
g70
NtRp931
(dp932
g73
(dp933
g81
I3
ssg82
g927
sg75
(lp934
S''
asbasbasbag68
(g84
g70
NtRp935
(dp936
g73
(dp937
sg82
g871
sg75
(lp938
g68
(g89
g70
NtRp939
(dp940
g73
(dp941
g93
g94
ssg82
g935
sg75
(lp942
g380
asbag68
(g89
g70
NtRp943
(dp944
g73
(dp945
g100
g101
ssg82
g935
sg75
(lp946
S':'
asbag68
(g89
g70
NtRp947
(dp948
g73
(dp949
sg82
g935
sg75
(lp950
g68
(g69
g70
NtRp951
(dp952
g73
(dp953
g81
I3
ssg82
g947
sg75
(lp954
S''
asbasbasbag68
(g84
g70
NtRp955
(dp956
g73
(dp957
sg82
g871
sg75
(lp958
g68
(g89
g70
NtRp959
(dp960
g73
(dp961
g93
g94
ssg82
g955
sg75
(lp962
g401
asbag68
(g89
g70
NtRp963
(dp964
g73
(dp965
g100
g101
ssg82
g955
sg75
(lp966
S':'
asbag68
(g89
g70
NtRp967
(dp968
g73
(dp969
sg82
g955
sg75
(lp970
g68
(g69
g70
NtRp971
(dp972
g73
(dp973
g81
I3
ssg82
g967
sg75
(lp974
S''
asbasbasbag68
(g84
g70
NtRp975
(dp976
g73
(dp977
sg82
g871
sg75
(lp978
g68
(g89
g70
NtRp979
(dp980
g73
(dp981
g93
g94
ssg82
g975
sg75
(lp982
g422
asbag68
(g89
g70
NtRp983
(dp984
g73
(dp985
g100
g101
ssg82
g975
sg75
(lp986
S':'
asbag68
(g89
g70
NtRp987
(dp988
g73
(dp989
sg82
g975
sg75
(lp990
g68
(g69
g70
NtRp991
(dp992
g73
(dp993
g81
I3
ssg82
g987
sg75
(lp994
S''
asbasbasbag68
(g84
g70
NtRp995
(dp996
g73
(dp997
sg82
g871
sg75
(lp998
g68
(g89
g70
NtRp999
(dp1000
g73
(dp1001
g93
g94
ssg82
g995
sg75
(lp1002
g443
asbag68
(g89
g70
NtRp1003
(dp1004
g73
(dp1005
g100
g101
ssg82
g995
sg75
(lp1006
S':'
asbag68
(g89
g70
NtRp1007
(dp1008
g73
(dp1009
sg82
g995
sg75
(lp1010
g68
(g69
g70
NtRp1011
(dp1012
g73
(dp1013
g81
I3
ssg82
g1007
sg75
(lp1014
S''
asbasbasbag68
(g84
g70
NtRp1015
(dp1016
g73
(dp1017
sg82
g871
sg75
(lp1018
g68
(g89
g70
NtRp1019
(dp1020
g73
(dp1021
g93
g94
ssg82
g1015
sg75
(lp1022
g464
asbag68
(g89
g70
NtRp1023
(dp1024
g73
(dp1025
g100
g101
ssg82
g1015
sg75
(lp1026
S':'
asbag68
(g89
g70
NtRp1027
(dp1028
g73
(dp1029
sg82
g1015
sg75
(lp1030
g68
(g69
g70
NtRp1031
(dp1032
g73
(dp1033
g81
I3
ssg82
g1027
sg75
(lp1034
S''
asbasbasbasbasbasbasbasbasbasbasbag68
(g84
g70
NtRp1035
(dp1036
g73
(dp1037
sg82
g78
sg75
(lp1038
g68
(g89
g70
NtRp1039
(dp1040
g73
(dp1041
g93
g94
ssg82
g1035
sg75
(lp1042
S'env'
p1043
asbag68
(g89
g70
NtRp1044
(dp1045
g73
(dp1046
g100
g101
ssg82
g1035
sg75
(lp1047
S':'
asbag68
(g89
g70
NtRp1048
(dp1049
g73
(dp1050
sg82
g1035
sg75
(lp1051
g68
(g69
g70
NtRp1052
(dp1053
g73
(dp1054
g81
I5
ssg82
g1048
sg75
(lp1055
g68
(g77
g70
NtRp1056
(dp1057
g73
(dp1058
g81
I4
ssg82
Nsg75
(lp1059
g68
(g84
g70
NtRp1060
(dp1061
g73
(dp1062
sg82
g1056
sg75
(lp1063
g68
(g89
g70
NtRp1064
(dp1065
g73
(dp1066
g93
g94
ssg82
g1060
sg75
(lp1067
S'app_folders'
p1068
asbag68
(g89
g70
NtRp1069
(dp1070
g73
(dp1071
g100
g101
ssg82
g1060
sg75
(lp1072
S':'
asbag68
(g89
g70
NtRp1073
(dp1074
g73
(dp1075
sg82
g1060
sg75
(lp1076
g68
(g69
g70
NtRp1077
(dp1078
g73
(dp1079
g81
I4
ssg82
g1073
sg75
(lp1080
S"set(['/home/piyush/web2py/applications/FotoBuk/', '/home/piyush/web2py/applications/welcome/', '/home/piyush/web2py/applications/admin/'])"
p1081
asbasbasbag68
(g84
g70
NtRp1082
(dp1083
g73
(dp1084
sg82
g1056
sg75
(lp1085
g68
(g89
g70
NtRp1086
(dp1087
g73
(dp1088
g93
g94
ssg82
g1082
sg75
(lp1089
S'applications_parent'
p1090
asbag68
(g89
g70
NtRp1091
(dp1092
g73
(dp1093
g100
g101
ssg82
g1082
sg75
(lp1094
S':'
asbag68
(g89
g70
NtRp1095
(dp1096
g73
(dp1097
sg82
g1082
sg75
(lp1098
g68
(g69
g70
NtRp1099
(dp1100
g73
(dp1101
g81
I4
ssg82
g1095
sg75
(lp1102
S'/home/piyush/web2py'
p1103
asbasbasbag68
(g84
g70
NtRp1104
(dp1105
g73
(dp1106
sg82
g1056
sg75
(lp1107
g68
(g89
g70
NtRp1108
(dp1109
g73
(dp1110
g93
g94
ssg82
g1104
sg75
(lp1111
S'cmd_args'
p1112
asbag68
(g89
g70
NtRp1113
(dp1114
g73
(dp1115
g100
g101
ssg82
g1104
sg75
(lp1116
S':'
asbag68
(g89
g70
NtRp1117
(dp1118
g73
(dp1119
sg82
g1104
sg75
(lp1120
g68
(g69
g70
NtRp1121
(dp1122
g73
(dp1123
g81
I4
ssg82
g1117
sg75
(lp1124
g68
(g77
g70
NtRp1125
(dp1126
g73
(dp1127
g81
I3
ssg82
Nsg75
(lp1128
sbasbasbasbag68
(g84
g70
NtRp1129
(dp1130
g73
(dp1131
sg82
g1056
sg75
(lp1132
g68
(g89
g70
NtRp1133
(dp1134
g73
(dp1135
g93
g94
ssg82
g1129
sg75
(lp1136
S'cmd_options'
p1137
asbag68
(g89
g70
NtRp1138
(dp1139
g73
(dp1140
g100
g101
ssg82
g1129
sg75
(lp1141
S':'
asbag68
(g89
g70
NtRp1142
(dp1143
g73
(dp1144
sg82
g1129
sg75
(lp1145
g68
(g69
g70
NtRp1146
(dp1147
g73
(dp1148
g81
I4
ssg82
g1142
sg75
(lp1149
S"<Values at 0x8d4130c: {'verbose': False, 'ip': '127.0.0.1', 'with_scheduler': False, 'ips': ['10.1.39.167', '10.42.0.1'], 'shutdown_timeout': 5, 'taskbar': False, 'port': 8000, 'maxthreads': None, 'softcron': False, 'server_name': 'Solo', 'bpython': False, 'nogui': False, 'nocron': False, 'extcron': False, 'run_system_tests': False, 'test': None, 'folder': '/home/piyush/web2py', 'config': '', 'import_models': False, 'winservice': '', 'shell': None, 'run': '', 'log_filename': 'httpserver.log', 'debuglevel': 30, 'args': [''], 'socket_timeout': 5, 'ssl_ca_certificate': None, 'scheduler': None, 'profiler_filename': None, 'ssl_private_key': '', 'scheduler_groups': None, 'password': '<ask>', 'request_queue_size': 5, 'ssl_certificate': '', 'cronjob': False, 'numthreads': None, 'quiet': False, 'interfaces': None, 'minthreads': None, 'timeout': 10, 'plain': False, 'nobanner': False, 'pid_filename': 'httpserver.pid'}>"
p1150
asbasbasbag68
(g84
g70
NtRp1151
(dp1152
g73
(dp1153
sg82
g1056
sg75
(lp1154
g68
(g89
g70
NtRp1155
(dp1156
g73
(dp1157
g93
g94
ssg82
g1151
sg75
(lp1158
S'db_sessions'
p1159
asbag68
(g89
g70
NtRp1160
(dp1161
g73
(dp1162
g100
g101
ssg82
g1151
sg75
(lp1163
S':'
asbag68
(g89
g70
NtRp1164
(dp1165
g73
(dp1166
sg82
g1151
sg75
(lp1167
g68
(g69
g70
NtRp1168
(dp1169
g73
(dp1170
g81
I4
ssg82
g1164
sg75
(lp1171
S'set([])'
p1172
asbasbasbag68
(g84
g70
NtRp1173
(dp1174
g73
(dp1175
sg82
g1056
sg75
(lp1176
g68
(g89
g70
NtRp1177
(dp1178
g73
(dp1179
g93
g94
ssg82
g1173
sg75
(lp1180
S'debugging'
p1181
asbag68
(g89
g70
NtRp1182
(dp1183
g73
(dp1184
g100
g101
ssg82
g1173
sg75
(lp1185
S':'
asbag68
(g89
g70
NtRp1186
(dp1187
g73
(dp1188
sg82
g1173
sg75
(lp1189
g68
(g69
g70
NtRp1190
(dp1191
g73
(dp1192
g81
I4
ssg82
g1186
sg75
(lp1193
g111
asbasbasbag68
(g84
g70
NtRp1194
(dp1195
g73
(dp1196
sg82
g1056
sg75
(lp1197
g68
(g89
g70
NtRp1198
(dp1199
g73
(dp1200
g93
g94
ssg82
g1194
sg75
(lp1201
S'gluon_parent'
p1202
asbag68
(g89
g70
NtRp1203
(dp1204
g73
(dp1205
g100
g101
ssg82
g1194
sg75
(lp1206
S':'
asbag68
(g89
g70
NtRp1207
(dp1208
g73
(dp1209
sg82
g1194
sg75
(lp1210
g68
(g69
g70
NtRp1211
(dp1212
g73
(dp1213
g81
I4
ssg82
g1207
sg75
(lp1214
S'/home/piyush/web2py'
p1215
asbasbasbag68
(g84
g70
NtRp1216
(dp1217
g73
(dp1218
sg82
g1056
sg75
(lp1219
g68
(g89
g70
NtRp1220
(dp1221
g73
(dp1222
g93
g94
ssg82
g1216
sg75
(lp1223
S'http_accept'
p1224
asbag68
(g89
g70
NtRp1225
(dp1226
g73
(dp1227
g100
g101
ssg82
g1216
sg75
(lp1228
S':'
asbag68
(g89
g70
NtRp1229
(dp1230
g73
(dp1231
sg82
g1216
sg75
(lp1232
g68
(g69
g70
NtRp1233
(dp1234
g73
(dp1235
g81
I4
ssg82
g1229
sg75
(lp1236
S'text/html,application/xhtml+xml,application/xml;q=0.9,*/*;q=0.8'
p1237
asbasbasbag68
(g84
g70
NtRp1238
(dp1239
g73
(dp1240
sg82
g1056
sg75
(lp1241
g68
(g89
g70
NtRp1242
(dp1243
g73
(dp1244
g93
g94
ssg82
g1238
sg75
(lp1245
S'http_accept_encoding'
p1246
asbag68
(g89
g70
NtRp1247
(dp1248
g73
(dp1249
g100
g101
ssg82
g1238
sg75
(lp1250
S':'
asbag68
(g89
g70
NtRp1251
(dp1252
g73
(dp1253
sg82
g1238
sg75
(lp1254
g68
(g69
g70
NtRp1255
(dp1256
g73
(dp1257
g81
I4
ssg82
g1251
sg75
(lp1258
S'gzip, deflate'
p1259
asbasbasbag68
(g84
g70
NtRp1260
(dp1261
g73
(dp1262
sg82
g1056
sg75
(lp1263
g68
(g89
g70
NtRp1264
(dp1265
g73
(dp1266
g93
g94
ssg82
g1260
sg75
(lp1267
S'http_accept_language'
p1268
asbag68
(g89
g70
NtRp1269
(dp1270
g73
(dp1271
g100
g101
ssg82
g1260
sg75
(lp1272
S':'
asbag68
(g89
g70
NtRp1273
(dp1274
g73
(dp1275
sg82
g1260
sg75
(lp1276
g68
(g69
g70
NtRp1277
(dp1278
g73
(dp1279
g81
I4
ssg82
g1273
sg75
(lp1280
S'en-us,en;q=0.5'
p1281
asbasbasbag68
(g84
g70
NtRp1282
(dp1283
g73
(dp1284
sg82
g1056
sg75
(lp1285
g68
(g89
g70
NtRp1286
(dp1287
g73
(dp1288
g93
g94
ssg82
g1282
sg75
(lp1289
S'http_connection'
p1290
asbag68
(g89
g70
NtRp1291
(dp1292
g73
(dp1293
g100
g101
ssg82
g1282
sg75
(lp1294
S':'
asbag68
(g89
g70
NtRp1295
(dp1296
g73
(dp1297
sg82
g1282
sg75
(lp1298
g68
(g69
g70
NtRp1299
(dp1300
g73
(dp1301
g81
I4
ssg82
g1295
sg75
(lp1302
S'keep-alive'
p1303
asbasbasbag68
(g84
g70
NtRp1304
(dp1305
g73
(dp1306
sg82
g1056
sg75
(lp1307
g68
(g89
g70
NtRp1308
(dp1309
g73
(dp1310
g93
g94
ssg82
g1304
sg75
(lp1311
S'http_cookie'
p1312
asbag68
(g89
g70
NtRp1313
(dp1314
g73
(dp1315
g100
g101
ssg82
g1304
sg75
(lp1316
S':'
asbag68
(g89
g70
NtRp1317
(dp1318
g73
(dp1319
sg82
g1304
sg75
(lp1320
g68
(g69
g70
NtRp1321
(dp1322
g73
(dp1323
g81
I4
ssg82
g1317
sg75
(lp1324
S'session_id_welcome=127.0.0.1-3299e4b7-9181-4336-a2b6-d67ebc8bfe8e; session_id_admin=127.0.0.1-f31a16a6-2f0e-474e-b0b5-7ca781ebd64d; session_id_ialbum=127.0.0.1-8bab57f4-8655-4ca4-8b5d-11fde04576c5; session_id_fotobuk=127.0.0.1-961e4bc4-dc07-4e6c-b9f7-52a46e56ffd5'
p1325
asbasbasbag68
(g84
g70
NtRp1326
(dp1327
g73
(dp1328
sg82
g1056
sg75
(lp1329
g68
(g89
g70
NtRp1330
(dp1331
g73
(dp1332
g93
g94
ssg82
g1326
sg75
(lp1333
S'http_host'
p1334
asbag68
(g89
g70
NtRp1335
(dp1336
g73
(dp1337
g100
g101
ssg82
g1326
sg75
(lp1338
S':'
asbag68
(g89
g70
NtRp1339
(dp1340
g73
(dp1341
sg82
g1326
sg75
(lp1342
g68
(g69
g70
NtRp1343
(dp1344
g73
(dp1345
g81
I4
ssg82
g1339
sg75
(lp1346
S'localhost:8000'
p1347
asbasbasbag68
(g84
g70
NtRp1348
(dp1349
g73
(dp1350
sg82
g1056
sg75
(lp1351
g68
(g89
g70
NtRp1352
(dp1353
g73
(dp1354
g93
g94
ssg82
g1348
sg75
(lp1355
S'http_user_agent'
p1356
asbag68
(g89
g70
NtRp1357
(dp1358
g73
(dp1359
g100
g101
ssg82
g1348
sg75
(lp1360
S':'
asbag68
(g89
g70
NtRp1361
(dp1362
g73
(dp1363
sg82
g1348
sg75
(lp1364
g68
(g69
g70
NtRp1365
(dp1366
g73
(dp1367
g81
I4
ssg82
g1361
sg75
(lp1368
S'Mozilla/5.0 (X11; Linux i686; rv:11.0) Gecko/20100101 Firefox/11.0'
p1369
asbasbasbag68
(g84
g70
NtRp1370
(dp1371
g73
(dp1372
sg82
g1056
sg75
(lp1373
g68
(g89
g70
NtRp1374
(dp1375
g73
(dp1376
g93
g94
ssg82
g1370
sg75
(lp1377
S'is_jython'
p1378
asbag68
(g89
g70
NtRp1379
(dp1380
g73
(dp1381
g100
g101
ssg82
g1370
sg75
(lp1382
S':'
asbag68
(g89
g70
NtRp1383
(dp1384
g73
(dp1385
sg82
g1370
sg75
(lp1386
g68
(g69
g70
NtRp1387
(dp1388
g73
(dp1389
g81
I4
ssg82
g1383
sg75
(lp1390
g111
asbasbasbag68
(g84
g70
NtRp1391
(dp1392
g73
(dp1393
sg82
g1056
sg75
(lp1394
g68
(g89
g70
NtRp1395
(dp1396
g73
(dp1397
g93
g94
ssg82
g1391
sg75
(lp1398
S'is_pypy'
p1399
asbag68
(g89
g70
NtRp1400
(dp1401
g73
(dp1402
g100
g101
ssg82
g1391
sg75
(lp1403
S':'
asbag68
(g89
g70
NtRp1404
(dp1405
g73
(dp1406
sg82
g1391
sg75
(lp1407
g68
(g69
g70
NtRp1408
(dp1409
g73
(dp1410
g81
I4
ssg82
g1404
sg75
(lp1411
g111
asbasbasbag68
(g84
g70
NtRp1412
(dp1413
g73
(dp1414
sg82
g1056
sg75
(lp1415
g68
(g89
g70
NtRp1416
(dp1417
g73
(dp1418
g93
g94
ssg82
g1412
sg75
(lp1419
S'path_info'
p1420
asbag68
(g89
g70
NtRp1421
(dp1422
g73
(dp1423
g100
g101
ssg82
g1412
sg75
(lp1424
S':'
asbag68
(g89
g70
NtRp1425
(dp1426
g73
(dp1427
sg82
g1412
sg75
(lp1428
g68
(g69
g70
NtRp1429
(dp1430
g73
(dp1431
g81
I4
ssg82
g1425
sg75
(lp1432
S'/FotoBuk/default/show/1'
p1433
asbasbasbag68
(g84
g70
NtRp1434
(dp1435
g73
(dp1436
sg82
g1056
sg75
(lp1437
g68
(g89
g70
NtRp1438
(dp1439
g73
(dp1440
g93
g94
ssg82
g1434
sg75
(lp1441
S'query_string'
p1442
asbag68
(g89
g70
NtRp1443
(dp1444
g73
(dp1445
g100
g101
ssg82
g1434
sg75
(lp1446
S':'
asbag68
(g89
g70
NtRp1447
(dp1448
g73
(dp1449
sg82
g1434
sg75
(lp1450
g68
(g69
g70
NtRp1451
(dp1452
g73
(dp1453
g81
I4
ssg82
g1447
sg75
(lp1454
S''
asbasbasbag68
(g84
g70
NtRp1455
(dp1456
g73
(dp1457
sg82
g1056
sg75
(lp1458
g68
(g89
g70
NtRp1459
(dp1460
g73
(dp1461
g93
g94
ssg82
g1455
sg75
(lp1462
S'remote_addr'
p1463
asbag68
(g89
g70
NtRp1464
(dp1465
g73
(dp1466
g100
g101
ssg82
g1455
sg75
(lp1467
S':'
asbag68
(g89
g70
NtRp1468
(dp1469
g73
(dp1470
sg82
g1455
sg75
(lp1471
g68
(g69
g70
NtRp1472
(dp1473
g73
(dp1474
g81
I4
ssg82
g1468
sg75
(lp1475
g235
asbasbasbag68
(g84
g70
NtRp1476
(dp1477
g73
(dp1478
sg82
g1056
sg75
(lp1479
g68
(g89
g70
NtRp1480
(dp1481
g73
(dp1482
g93
g94
ssg82
g1476
sg75
(lp1483
S'remote_port'
p1484
asbag68
(g89
g70
NtRp1485
(dp1486
g73
(dp1487
g100
g101
ssg82
g1476
sg75
(lp1488
S':'
asbag68
(g89
g70
NtRp1489
(dp1490
g73
(dp1491
sg82
g1476
sg75
(lp1492
g68
(g69
g70
NtRp1493
(dp1494
g73
(dp1495
g81
I4
ssg82
g1489
sg75
(lp1496
S'52346'
p1497
asbasbasbag68
(g84
g70
NtRp1498
(dp1499
g73
(dp1500
sg82
g1056
sg75
(lp1501
g68
(g89
g70
NtRp1502
(dp1503
g73
(dp1504
g93
g94
ssg82
g1498
sg75
(lp1505
S'request_method'
p1506
asbag68
(g89
g70
NtRp1507
(dp1508
g73
(dp1509
g100
g101
ssg82
g1498
sg75
(lp1510
S':'
asbag68
(g89
g70
NtRp1511
(dp1512
g73
(dp1513
sg82
g1498
sg75
(lp1514
g68
(g69
g70
NtRp1515
(dp1516
g73
(dp1517
g81
I4
ssg82
g1511
sg75
(lp1518
S'GET'
p1519
asbasbasbag68
(g84
g70
NtRp1520
(dp1521
g73
(dp1522
sg82
g1056
sg75
(lp1523
g68
(g89
g70
NtRp1524
(dp1525
g73
(dp1526
g93
g94
ssg82
g1520
sg75
(lp1527
S'script_name'
p1528
asbag68
(g89
g70
NtRp1529
(dp1530
g73
(dp1531
g100
g101
ssg82
g1520
sg75
(lp1532
S':'
asbag68
(g89
g70
NtRp1533
(dp1534
g73
(dp1535
sg82
g1520
sg75
(lp1536
g68
(g69
g70
NtRp1537
(dp1538
g73
(dp1539
g81
I4
ssg82
g1533
sg75
(lp1540
S''
asbasbasbag68
(g84
g70
NtRp1541
(dp1542
g73
(dp1543
sg82
g1056
sg75
(lp1544
g68
(g89
g70
NtRp1545
(dp1546
g73
(dp1547
g93
g94
ssg82
g1541
sg75
(lp1548
S'server_name'
p1549
asbag68
(g89
g70
NtRp1550
(dp1551
g73
(dp1552
g100
g101
ssg82
g1541
sg75
(lp1553
S':'
asbag68
(g89
g70
NtRp1554
(dp1555
g73
(dp1556
sg82
g1541
sg75
(lp1557
g68
(g69
g70
NtRp1558
(dp1559
g73
(dp1560
g81
I4
ssg82
g1554
sg75
(lp1561
S'Solo'
p1562
asbasbasbag68
(g84
g70
NtRp1563
(dp1564
g73
(dp1565
sg82
g1056
sg75
(lp1566
g68
(g89
g70
NtRp1567
(dp1568
g73
(dp1569
g93
g94
ssg82
g1563
sg75
(lp1570
S'server_port'
p1571
asbag68
(g89
g70
NtRp1572
(dp1573
g73
(dp1574
g100
g101
ssg82
g1563
sg75
(lp1575
S':'
asbag68
(g89
g70
NtRp1576
(dp1577
g73
(dp1578
sg82
g1563
sg75
(lp1579
g68
(g69
g70
NtRp1580
(dp1581
g73
(dp1582
g81
I4
ssg82
g1576
sg75
(lp1583
S'8000'
p1584
asbasbasbag68
(g84
g70
NtRp1585
(dp1586
g73
(dp1587
sg82
g1056
sg75
(lp1588
g68
(g89
g70
NtRp1589
(dp1590
g73
(dp1591
g93
g94
ssg82
g1585
sg75
(lp1592
S'server_protocol'
p1593
asbag68
(g89
g70
NtRp1594
(dp1595
g73
(dp1596
g100
g101
ssg82
g1585
sg75
(lp1597
S':'
asbag68
(g89
g70
NtRp1598
(dp1599
g73
(dp1600
sg82
g1585
sg75
(lp1601
g68
(g69
g70
NtRp1602
(dp1603
g73
(dp1604
g81
I4
ssg82
g1598
sg75
(lp1605
S'HTTP/1.1'
p1606
asbasbasbag68
(g84
g70
NtRp1607
(dp1608
g73
(dp1609
sg82
g1056
sg75
(lp1610
g68
(g89
g70
NtRp1611
(dp1612
g73
(dp1613
g93
g94
ssg82
g1607
sg75
(lp1614
S'server_software'
p1615
asbag68
(g89
g70
NtRp1616
(dp1617
g73
(dp1618
g100
g101
ssg82
g1607
sg75
(lp1619
S':'
asbag68
(g89
g70
NtRp1620
(dp1621
g73
(dp1622
sg82
g1607
sg75
(lp1623
g68
(g69
g70
NtRp1624
(dp1625
g73
(dp1626
g81
I4
ssg82
g1620
sg75
(lp1627
S'Rocket 1.2.4'
p1628
asbasbasbag68
(g84
g70
NtRp1629
(dp1630
g73
(dp1631
sg82
g1056
sg75
(lp1632
g68
(g89
g70
NtRp1633
(dp1634
g73
(dp1635
g93
g94
ssg82
g1629
sg75
(lp1636
S'web2py_crontype'
p1637
asbag68
(g89
g70
NtRp1638
(dp1639
g73
(dp1640
g100
g101
ssg82
g1629
sg75
(lp1641
S':'
asbag68
(g89
g70
NtRp1642
(dp1643
g73
(dp1644
sg82
g1629
sg75
(lp1645
g68
(g69
g70
NtRp1646
(dp1647
g73
(dp1648
g81
I4
ssg82
g1642
sg75
(lp1649
S'hard'
p1650
asbasbasbag68
(g84
g70
NtRp1651
(dp1652
g73
(dp1653
sg82
g1056
sg75
(lp1654
g68
(g89
g70
NtRp1655
(dp1656
g73
(dp1657
g93
g94
ssg82
g1651
sg75
(lp1658
S'web2py_path'
p1659
asbag68
(g89
g70
NtRp1660
(dp1661
g73
(dp1662
g100
g101
ssg82
g1651
sg75
(lp1663
S':'
asbag68
(g89
g70
NtRp1664
(dp1665
g73
(dp1666
sg82
g1651
sg75
(lp1667
g68
(g69
g70
NtRp1668
(dp1669
g73
(dp1670
g81
I4
ssg82
g1664
sg75
(lp1671
g1103
asbasbasbag68
(g84
g70
NtRp1672
(dp1673
g73
(dp1674
sg82
g1056
sg75
(lp1675
g68
(g89
g70
NtRp1676
(dp1677
g73
(dp1678
g93
g94
ssg82
g1672
sg75
(lp1679
S'web2py_version'
p1680
asbag68
(g89
g70
NtRp1681
(dp1682
g73
(dp1683
g100
g101
ssg82
g1672
sg75
(lp1684
S':'
asbag68
(g89
g70
NtRp1685
(dp1686
g73
(dp1687
sg82
g1672
sg75
(lp1688
g68
(g69
g70
NtRp1689
(dp1690
g73
(dp1691
g81
I4
ssg82
g1685
sg75
(lp1692
g68
(g77
g70
NtRp1693
(dp1694
g73
(dp1695
g81
I3
ssg82
Nsg75
(lp1696
g68
(g84
g70
NtRp1697
(dp1698
g73
(dp1699
sg82
g1693
sg75
(lp1700
g68
(g89
g70
NtRp1701
(dp1702
g73
(dp1703
sg82
g1697
sg75
(lp1704
g68
(g69
g70
NtRp1705
(dp1706
g73
(dp1707
g81
I3
ssg82
g1701
sg75
(lp1708
S'2'
asbasbasbag68
(g84
g70
NtRp1709
(dp1710
g73
(dp1711
sg82
g1693
sg75
(lp1712
g68
(g89
g70
NtRp1713
(dp1714
g73
(dp1715
sg82
g1709
sg75
(lp1716
g68
(g69
g70
NtRp1717
(dp1718
g73
(dp1719
g81
I3
ssg82
g1713
sg75
(lp1720
S'0'
asbasbasbag68
(g84
g70
NtRp1721
(dp1722
g73
(dp1723
sg82
g1693
sg75
(lp1724
g68
(g89
g70
NtRp1725
(dp1726
g73
(dp1727
sg82
g1721
sg75
(lp1728
g68
(g69
g70
NtRp1729
(dp1730
g73
(dp1731
g81
I3
ssg82
g1725
sg75
(lp1732
S'2'
asbasbasbag68
(g84
g70
NtRp1733
(dp1734
g73
(dp1735
sg82
g1693
sg75
(lp1736
g68
(g89
g70
NtRp1737
(dp1738
g73
(dp1739
sg82
g1733
sg75
(lp1740
g68
(g69
g70
NtRp1741
(dp1742
g73
(dp1743
g81
I3
ssg82
g1737
sg75
(lp1744
S'datetime.datetime(2012, 8, 30, 4, 8, 18)'
p1745
asbasbasbag68
(g84
g70
NtRp1746
(dp1747
g73
(dp1748
sg82
g1693
sg75
(lp1749
g68
(g89
g70
NtRp1750
(dp1751
g73
(dp1752
sg82
g1746
sg75
(lp1753
g68
(g69
g70
NtRp1754
(dp1755
g73
(dp1756
g81
I3
ssg82
g1750
sg75
(lp1757
S'stable'
p1758
asbasbasbasbasbasbasbag68
(g84
g70
NtRp1759
(dp1760
g73
(dp1761
sg82
g1056
sg75
(lp1762
g68
(g89
g70
NtRp1763
(dp1764
g73
(dp1765
g93
g94
ssg82
g1759
sg75
(lp1766
S'wsgi_errors'
p1767
asbag68
(g89
g70
NtRp1768
(dp1769
g73
(dp1770
g100
g101
ssg82
g1759
sg75
(lp1771
S':'
asbag68
(g89
g70
NtRp1772
(dp1773
g73
(dp1774
sg82
g1759
sg75
(lp1775
g68
(g69
g70
NtRp1776
(dp1777
g73
(dp1778
g81
I4
ssg82
g1772
sg75
(lp1779
S"<open file '<stderr>', mode 'w' at 0xb772d0d0>"
p1780
asbasbasbag68
(g84
g70
NtRp1781
(dp1782
g73
(dp1783
sg82
g1056
sg75
(lp1784
g68
(g89
g70
NtRp1785
(dp1786
g73
(dp1787
g93
g94
ssg82
g1781
sg75
(lp1788
S'wsgi_file_wrapper'
p1789
asbag68
(g89
g70
NtRp1790
(dp1791
g73
(dp1792
g100
g101
ssg82
g1781
sg75
(lp1793
S':'
asbag68
(g89
g70
NtRp1794
(dp1795
g73
(dp1796
sg82
g1781
sg75
(lp1797
g68
(g69
g70
NtRp1798
(dp1799
g73
(dp1800
g81
I4
ssg82
g1794
sg75
(lp1801
S'<class wsgiref.util.FileWrapper at 0x8d0326c>'
p1802
asbasbasbag68
(g84
g70
NtRp1803
(dp1804
g73
(dp1805
sg82
g1056
sg75
(lp1806
g68
(g89
g70
NtRp1807
(dp1808
g73
(dp1809
g93
g94
ssg82
g1803
sg75
(lp1810
S'wsgi_input'
p1811
asbag68
(g89
g70
NtRp1812
(dp1813
g73
(dp1814
g100
g101
ssg82
g1803
sg75
(lp1815
S':'
asbag68
(g89
g70
NtRp1816
(dp1817
g73
(dp1818
sg82
g1803
sg75
(lp1819
g68
(g69
g70
NtRp1820
(dp1821
g73
(dp1822
g81
I4
ssg82
g1816
sg75
(lp1823
S'<socket._fileobject object at 0xaf02d7ec>'
p1824
asbasbasbag68
(g84
g70
NtRp1825
(dp1826
g73
(dp1827
sg82
g1056
sg75
(lp1828
g68
(g89
g70
NtRp1829
(dp1830
g73
(dp1831
g93
g94
ssg82
g1825
sg75
(lp1832
S'wsgi_multiprocess'
p1833
asbag68
(g89
g70
NtRp1834
(dp1835
g73
(dp1836
g100
g101
ssg82
g1825
sg75
(lp1837
S':'
asbag68
(g89
g70
NtRp1838
(dp1839
g73
(dp1840
sg82
g1825
sg75
(lp1841
g68
(g69
g70
NtRp1842
(dp1843
g73
(dp1844
g81
I4
ssg82
g1838
sg75
(lp1845
g111
asbasbasbag68
(g84
g70
NtRp1846
(dp1847
g73
(dp1848
sg82
g1056
sg75
(lp1849
g68
(g89
g70
NtRp1850
(dp1851
g73
(dp1852
g93
g94
ssg82
g1846
sg75
(lp1853
S'wsgi_multithread'
p1854
asbag68
(g89
g70
NtRp1855
(dp1856
g73
(dp1857
g100
g101
ssg82
g1846
sg75
(lp1858
S':'
asbag68
(g89
g70
NtRp1859
(dp1860
g73
(dp1861
sg82
g1846
sg75
(lp1862
g68
(g69
g70
NtRp1863
(dp1864
g73
(dp1865
g81
I4
ssg82
g1859
sg75
(lp1866
S'True'
p1867
asbasbasbag68
(g84
g70
NtRp1868
(dp1869
g73
(dp1870
sg82
g1056
sg75
(lp1871
g68
(g89
g70
NtRp1872
(dp1873
g73
(dp1874
g93
g94
ssg82
g1868
sg75
(lp1875
S'wsgi_run_once'
p1876
asbag68
(g89
g70
NtRp1877
(dp1878
g73
(dp1879
g100
g101
ssg82
g1868
sg75
(lp1880
S':'
asbag68
(g89
g70
NtRp1881
(dp1882
g73
(dp1883
sg82
g1868
sg75
(lp1884
g68
(g69
g70
NtRp1885
(dp1886
g73
(dp1887
g81
I4
ssg82
g1881
sg75
(lp1888
g111
asbasbasbag68
(g84
g70
NtRp1889
(dp1890
g73
(dp1891
sg82
g1056
sg75
(lp1892
g68
(g89
g70
NtRp1893
(dp1894
g73
(dp1895
g93
g94
ssg82
g1889
sg75
(lp1896
S'wsgi_url_scheme'
p1897
asbag68
(g89
g70
NtRp1898
(dp1899
g73
(dp1900
g100
g101
ssg82
g1889
sg75
(lp1901
S':'
asbag68
(g89
g70
NtRp1902
(dp1903
g73
(dp1904
sg82
g1889
sg75
(lp1905
g68
(g69
g70
NtRp1906
(dp1907
g73
(dp1908
g81
I4
ssg82
g1902
sg75
(lp1909
S'http'
p1910
asbasbasbag68
(g84
g70
NtRp1911
(dp1912
g73
(dp1913
sg82
g1056
sg75
(lp1914
g68
(g89
g70
NtRp1915
(dp1916
g73
(dp1917
g93
g94
ssg82
g1911
sg75
(lp1918
S'wsgi_version'
p1919
asbag68
(g89
g70
NtRp1920
(dp1921
g73
(dp1922
g100
g101
ssg82
g1911
sg75
(lp1923
S':'
asbag68
(g89
g70
NtRp1924
(dp1925
g73
(dp1926
sg82
g1911
sg75
(lp1927
g68
(g69
g70
NtRp1928
(dp1929
g73
(dp1930
g81
I4
ssg82
g1924
sg75
(lp1931
g68
(g77
g70
NtRp1932
(dp1933
g73
(dp1934
g81
I3
ssg82
Nsg75
(lp1935
g68
(g84
g70
NtRp1936
(dp1937
g73
(dp1938
sg82
g1932
sg75
(lp1939
g68
(g89
g70
NtRp1940
(dp1941
g73
(dp1942
sg82
g1936
sg75
(lp1943
g68
(g69
g70
NtRp1944
(dp1945
g73
(dp1946
g81
I3
ssg82
g1940
sg75
(lp1947
S'1'
asbasbasbag68
(g84
g70
NtRp1948
(dp1949
g73
(dp1950
sg82
g1932
sg75
(lp1951
g68
(g89
g70
NtRp1952
(dp1953
g73
(dp1954
sg82
g1948
sg75
(lp1955
g68
(g69
g70
NtRp1956
(dp1957
g73
(dp1958
g81
I3
ssg82
g1952
sg75
(lp1959
S'0'
asbasbasbasbasbasbasbasbasbasbasbag68
(g84
g70
NtRp1960
(dp1961
g73
(dp1962
sg82
g78
sg75
(lp1963
g68
(g89
g70
NtRp1964
(dp1965
g73
(dp1966
g93
g94
ssg82
g1960
sg75
(lp1967
S'extension'
p1968
asbag68
(g89
g70
NtRp1969
(dp1970
g73
(dp1971
g100
g101
ssg82
g1960
sg75
(lp1972
S':'
asbag68
(g89
g70
NtRp1973
(dp1974
g73
(dp1975
sg82
g1960
sg75
(lp1976
g68
(g69
g70
NtRp1977
(dp1978
g73
(dp1979
g81
I5
ssg82
g1973
sg75
(lp1980
S'html'
p1981
asbasbasbag68
(g84
g70
NtRp1982
(dp1983
g73
(dp1984
sg82
g78
sg75
(lp1985
g68
(g89
g70
NtRp1986
(dp1987
g73
(dp1988
g93
g94
ssg82
g1982
sg75
(lp1989
S'folder'
p1990
asbag68
(g89
g70
NtRp1991
(dp1992
g73
(dp1993
g100
g101
ssg82
g1982
sg75
(lp1994
S':'
asbag68
(g89
g70
NtRp1995
(dp1996
g73
(dp1997
sg82
g1982
sg75
(lp1998
g68
(g69
g70
NtRp1999
(dp2000
g73
(dp2001
g81
I5
ssg82
g1995
sg75
(lp2002
S'/home/piyush/web2py/applications/FotoBuk/'
p2003
asbasbasbag68
(g84
g70
NtRp2004
(dp2005
g73
(dp2006
sg82
g78
sg75
(lp2007
g68
(g89
g70
NtRp2008
(dp2009
g73
(dp2010
g93
g94
ssg82
g2004
sg75
(lp2011
S'function'
p2012
asbag68
(g89
g70
NtRp2013
(dp2014
g73
(dp2015
g100
g101
ssg82
g2004
sg75
(lp2016
S':'
asbag68
(g89
g70
NtRp2017
(dp2018
g73
(dp2019
sg82
g2004
sg75
(lp2020
g68
(g69
g70
NtRp2021
(dp2022
g73
(dp2023
g81
I5
ssg82
g2017
sg75
(lp2024
S'show'
p2025
asbasbasbag68
(g84
g70
NtRp2026
(dp2027
g73
(dp2028
sg82
g78
sg75
(lp2029
g68
(g89
g70
NtRp2030
(dp2031
g73
(dp2032
g93
g94
ssg82
g2026
sg75
(lp2033
S'get_vars'
p2034
asbag68
(g89
g70
NtRp2035
(dp2036
g73
(dp2037
g100
g101
ssg82
g2026
sg75
(lp2038
S':'
asbag68
(g89
g70
NtRp2039
(dp2040
g73
(dp2041
sg82
g2026
sg75
(lp2042
g68
(g69
g70
NtRp2043
(dp2044
g73
(dp2045
g81
I5
ssg82
g2039
sg75
(lp2046
g68
(g77
g70
NtRp2047
(dp2048
g73
(dp2049
g81
I4
ssg82
Nsg75
(lp2050
sbasbasbasbag68
(g84
g70
NtRp2051
(dp2052
g73
(dp2053
sg82
g78
sg75
(lp2054
g68
(g89
g70
NtRp2055
(dp2056
g73
(dp2057
g93
g94
ssg82
g2051
sg75
(lp2058
S'global_settings'
p2059
asbag68
(g89
g70
NtRp2060
(dp2061
g73
(dp2062
g100
g101
ssg82
g2051
sg75
(lp2063
S':'
asbag68
(g89
g70
NtRp2064
(dp2065
g73
(dp2066
sg82
g2051
sg75
(lp2067
g68
(g69
g70
NtRp2068
(dp2069
g73
(dp2070
g81
I5
ssg82
g2064
sg75
(lp2071
g68
(g77
g70
NtRp2072
(dp2073
g73
(dp2074
g81
I4
ssg82
Nsg75
(lp2075
g68
(g84
g70
NtRp2076
(dp2077
g73
(dp2078
sg82
g2072
sg75
(lp2079
g68
(g89
g70
NtRp2080
(dp2081
g73
(dp2082
g93
g94
ssg82
g2076
sg75
(lp2083
g1068
asbag68
(g89
g70
NtRp2084
(dp2085
g73
(dp2086
g100
g101
ssg82
g2076
sg75
(lp2087
S':'
asbag68
(g89
g70
NtRp2088
(dp2089
g73
(dp2090
sg82
g2076
sg75
(lp2091
g68
(g69
g70
NtRp2092
(dp2093
g73
(dp2094
g81
I4
ssg82
g2088
sg75
(lp2095
S"set(['/home/piyush/web2py/applications/FotoBuk/', '/home/piyush/web2py/applications/welcome/', '/home/piyush/web2py/applications/admin/'])"
p2096
asbasbasbag68
(g84
g70
NtRp2097
(dp2098
g73
(dp2099
sg82
g2072
sg75
(lp2100
g68
(g89
g70
NtRp2101
(dp2102
g73
(dp2103
g93
g94
ssg82
g2097
sg75
(lp2104
g1090
asbag68
(g89
g70
NtRp2105
(dp2106
g73
(dp2107
g100
g101
ssg82
g2097
sg75
(lp2108
S':'
asbag68
(g89
g70
NtRp2109
(dp2110
g73
(dp2111
sg82
g2097
sg75
(lp2112
g68
(g69
g70
NtRp2113
(dp2114
g73
(dp2115
g81
I4
ssg82
g2109
sg75
(lp2116
g1103
asbasbasbag68
(g84
g70
NtRp2117
(dp2118
g73
(dp2119
sg82
g2072
sg75
(lp2120
g68
(g89
g70
NtRp2121
(dp2122
g73
(dp2123
g93
g94
ssg82
g2117
sg75
(lp2124
g1112
asbag68
(g89
g70
NtRp2125
(dp2126
g73
(dp2127
g100
g101
ssg82
g2117
sg75
(lp2128
S':'
asbag68
(g89
g70
NtRp2129
(dp2130
g73
(dp2131
sg82
g2117
sg75
(lp2132
g68
(g69
g70
NtRp2133
(dp2134
g73
(dp2135
g81
I4
ssg82
g2129
sg75
(lp2136
g68
(g77
g70
NtRp2137
(dp2138
g73
(dp2139
g81
I3
ssg82
Nsg75
(lp2140
sbasbasbasbag68
(g84
g70
NtRp2141
(dp2142
g73
(dp2143
sg82
g2072
sg75
(lp2144
g68
(g89
g70
NtRp2145
(dp2146
g73
(dp2147
g93
g94
ssg82
g2141
sg75
(lp2148
g1137
asbag68
(g89
g70
NtRp2149
(dp2150
g73
(dp2151
g100
g101
ssg82
g2141
sg75
(lp2152
S':'
asbag68
(g89
g70
NtRp2153
(dp2154
g73
(dp2155
sg82
g2141
sg75
(lp2156
g68
(g69
g70
NtRp2157
(dp2158
g73
(dp2159
g81
I4
ssg82
g2153
sg75
(lp2160
S"<Values at 0x8d4130c: {'verbose': False, 'ip': '127.0.0.1', 'with_scheduler': False, 'ips': ['10.1.39.167', '10.42.0.1'], 'shutdown_timeout': 5, 'taskbar': False, 'port': 8000, 'maxthreads': None, 'softcron': False, 'server_name': 'Solo', 'bpython': False, 'nogui': False, 'nocron': False, 'extcron': False, 'run_system_tests': False, 'test': None, 'folder': '/home/piyush/web2py', 'config': '', 'import_models': False, 'winservice': '', 'shell': None, 'run': '', 'log_filename': 'httpserver.log', 'debuglevel': 30, 'args': [''], 'socket_timeout': 5, 'ssl_ca_certificate': None, 'scheduler': None, 'profiler_filename': None, 'ssl_private_key': '', 'scheduler_groups': None, 'password': '<ask>', 'request_queue_size': 5, 'ssl_certificate': '', 'cronjob': False, 'numthreads': None, 'quiet': False, 'interfaces': None, 'minthreads': None, 'timeout': 10, 'plain': False, 'nobanner': False, 'pid_filename': 'httpserver.pid'}>"
p2161
asbasbasbag68
(g84
g70
NtRp2162
(dp2163
g73
(dp2164
sg82
g2072
sg75
(lp2165
g68
(g89
g70
NtRp2166
(dp2167
g73
(dp2168
g93
g94
ssg82
g2162
sg75
(lp2169
g1159
asbag68
(g89
g70
NtRp2170
(dp2171
g73
(dp2172
g100
g101
ssg82
g2162
sg75
(lp2173
S':'
asbag68
(g89
g70
NtRp2174
(dp2175
g73
(dp2176
sg82
g2162
sg75
(lp2177
g68
(g69
g70
NtRp2178
(dp2179
g73
(dp2180
g81
I4
ssg82
g2174
sg75
(lp2181
S'set([])'
p2182
asbasbasbag68
(g84
g70
NtRp2183
(dp2184
g73
(dp2185
sg82
g2072
sg75
(lp2186
g68
(g89
g70
NtRp2187
(dp2188
g73
(dp2189
g93
g94
ssg82
g2183
sg75
(lp2190
g1181
asbag68
(g89
g70
NtRp2191
(dp2192
g73
(dp2193
g100
g101
ssg82
g2183
sg75
(lp2194
S':'
asbag68
(g89
g70
NtRp2195
(dp2196
g73
(dp2197
sg82
g2183
sg75
(lp2198
g68
(g69
g70
NtRp2199
(dp2200
g73
(dp2201
g81
I4
ssg82
g2195
sg75
(lp2202
g111
asbasbasbag68
(g84
g70
NtRp2203
(dp2204
g73
(dp2205
sg82
g2072
sg75
(lp2206
g68
(g89
g70
NtRp2207
(dp2208
g73
(dp2209
g93
g94
ssg82
g2203
sg75
(lp2210
g1202
asbag68
(g89
g70
NtRp2211
(dp2212
g73
(dp2213
g100
g101
ssg82
g2203
sg75
(lp2214
S':'
asbag68
(g89
g70
NtRp2215
(dp2216
g73
(dp2217
sg82
g2203
sg75
(lp2218
g68
(g69
g70
NtRp2219
(dp2220
g73
(dp2221
g81
I4
ssg82
g2215
sg75
(lp2222
g1215
asbasbasbag68
(g84
g70
NtRp2223
(dp2224
g73
(dp2225
sg82
g2072
sg75
(lp2226
g68
(g89
g70
NtRp2227
(dp2228
g73
(dp2229
g93
g94
ssg82
g2223
sg75
(lp2230
g1378
asbag68
(g89
g70
NtRp2231
(dp2232
g73
(dp2233
g100
g101
ssg82
g2223
sg75
(lp2234
S':'
asbag68
(g89
g70
NtRp2235
(dp2236
g73
(dp2237
sg82
g2223
sg75
(lp2238
g68
(g69
g70
NtRp2239
(dp2240
g73
(dp2241
g81
I4
ssg82
g2235
sg75
(lp2242
g111
asbasbasbag68
(g84
g70
NtRp2243
(dp2244
g73
(dp2245
sg82
g2072
sg75
(lp2246
g68
(g89
g70
NtRp2247
(dp2248
g73
(dp2249
g93
g94
ssg82
g2243
sg75
(lp2250
g1399
asbag68
(g89
g70
NtRp2251
(dp2252
g73
(dp2253
g100
g101
ssg82
g2243
sg75
(lp2254
S':'
asbag68
(g89
g70
NtRp2255
(dp2256
g73
(dp2257
sg82
g2243
sg75
(lp2258
g68
(g69
g70
NtRp2259
(dp2260
g73
(dp2261
g81
I4
ssg82
g2255
sg75
(lp2262
g111
asbasbasbag68
(g84
g70
NtRp2263
(dp2264
g73
(dp2265
sg82
g2072
sg75
(lp2266
g68
(g89
g70
NtRp2267
(dp2268
g73
(dp2269
g93
g94
ssg82
g2263
sg75
(lp2270
g1637
asbag68
(g89
g70
NtRp2271
(dp2272
g73
(dp2273
g100
g101
ssg82
g2263
sg75
(lp2274
S':'
asbag68
(g89
g70
NtRp2275
(dp2276
g73
(dp2277
sg82
g2263
sg75
(lp2278
g68
(g69
g70
NtRp2279
(dp2280
g73
(dp2281
g81
I4
ssg82
g2275
sg75
(lp2282
g1650
asbasbasbag68
(g84
g70
NtRp2283
(dp2284
g73
(dp2285
sg82
g2072
sg75
(lp2286
g68
(g89
g70
NtRp2287
(dp2288
g73
(dp2289
g93
g94
ssg82
g2283
sg75
(lp2290
g1680
asbag68
(g89
g70
NtRp2291
(dp2292
g73
(dp2293
g100
g101
ssg82
g2283
sg75
(lp2294
S':'
asbag68
(g89
g70
NtRp2295
(dp2296
g73
(dp2297
sg82
g2283
sg75
(lp2298
g68
(g69
g70
NtRp2299
(dp2300
g73
(dp2301
g81
I4
ssg82
g2295
sg75
(lp2302
g68
(g77
g70
NtRp2303
(dp2304
g73
(dp2305
g81
I3
ssg82
Nsg75
(lp2306
g68
(g84
g70
NtRp2307
(dp2308
g73
(dp2309
sg82
g2303
sg75
(lp2310
g68
(g89
g70
NtRp2311
(dp2312
g73
(dp2313
sg82
g2307
sg75
(lp2314
g68
(g69
g70
NtRp2315
(dp2316
g73
(dp2317
g81
I3
ssg82
g2311
sg75
(lp2318
S'2'
asbasbasbag68
(g84
g70
NtRp2319
(dp2320
g73
(dp2321
sg82
g2303
sg75
(lp2322
g68
(g89
g70
NtRp2323
(dp2324
g73
(dp2325
sg82
g2319
sg75
(lp2326
g68
(g69
g70
NtRp2327
(dp2328
g73
(dp2329
g81
I3
ssg82
g2323
sg75
(lp2330
S'0'
asbasbasbag68
(g84
g70
NtRp2331
(dp2332
g73
(dp2333
sg82
g2303
sg75
(lp2334
g68
(g89
g70
NtRp2335
(dp2336
g73
(dp2337
sg82
g2331
sg75
(lp2338
g68
(g69
g70
NtRp2339
(dp2340
g73
(dp2341
g81
I3
ssg82
g2335
sg75
(lp2342
S'2'
asbasbasbag68
(g84
g70
NtRp2343
(dp2344
g73
(dp2345
sg82
g2303
sg75
(lp2346
g68
(g89
g70
NtRp2347
(dp2348
g73
(dp2349
sg82
g2343
sg75
(lp2350
g68
(g69
g70
NtRp2351
(dp2352
g73
(dp2353
g81
I3
ssg82
g2347
sg75
(lp2354
S'datetime.datetime(2012, 8, 30, 4, 8, 18)'
p2355
asbasbasbag68
(g84
g70
NtRp2356
(dp2357
g73
(dp2358
sg82
g2303
sg75
(lp2359
g68
(g89
g70
NtRp2360
(dp2361
g73
(dp2362
sg82
g2356
sg75
(lp2363
g68
(g69
g70
NtRp2364
(dp2365
g73
(dp2366
g81
I3
ssg82
g2360
sg75
(lp2367
g1758
asbasbasbasbasbasbasbasbasbasbasbag68
(g84
g70
NtRp2368
(dp2369
g73
(dp2370
sg82
g78
sg75
(lp2371
g68
(g89
g70
NtRp2372
(dp2373
g73
(dp2374
g93
g94
ssg82
g2368
sg75
(lp2375
S'is_https'
p2376
asbag68
(g89
g70
NtRp2377
(dp2378
g73
(dp2379
g100
g101
ssg82
g2368
sg75
(lp2380
S':'
asbag68
(g89
g70
NtRp2381
(dp2382
g73
(dp2383
sg82
g2368
sg75
(lp2384
g68
(g69
g70
NtRp2385
(dp2386
g73
(dp2387
g81
I5
ssg82
g2381
sg75
(lp2388
g111
asbasbasbag68
(g84
g70
NtRp2389
(dp2390
g73
(dp2391
sg82
g78
sg75
(lp2392
g68
(g89
g70
NtRp2393
(dp2394
g73
(dp2395
g93
g94
ssg82
g2389
sg75
(lp2396
S'is_local'
p2397
asbag68
(g89
g70
NtRp2398
(dp2399
g73
(dp2400
g100
g101
ssg82
g2389
sg75
(lp2401
S':'
asbag68
(g89
g70
NtRp2402
(dp2403
g73
(dp2404
sg82
g2389
sg75
(lp2405
g68
(g69
g70
NtRp2406
(dp2407
g73
(dp2408
g81
I5
ssg82
g2402
sg75
(lp2409
g1867
asbasbasbag68
(g84
g70
NtRp2410
(dp2411
g73
(dp2412
sg82
g78
sg75
(lp2413
g68
(g89
g70
NtRp2414
(dp2415
g73
(dp2416
g93
g94
ssg82
g2410
sg75
(lp2417
S'is_restful'
p2418
asbag68
(g89
g70
NtRp2419
(dp2420
g73
(dp2421
g100
g101
ssg82
g2410
sg75
(lp2422
S':'
asbag68
(g89
g70
NtRp2423
(dp2424
g73
(dp2425
sg82
g2410
sg75
(lp2426
g68
(g69
g70
NtRp2427
(dp2428
g73
(dp2429
g81
I5
ssg82
g2423
sg75
(lp2430
g111
asbasbasbag68
(g84
g70
NtRp2431
(dp2432
g73
(dp2433
sg82
g78
sg75
(lp2434
g68
(g89
g70
NtRp2435
(dp2436
g73
(dp2437
g93
g94
ssg82
g2431
sg75
(lp2438
S'now'
p2439
asbag68
(g89
g70
NtRp2440
(dp2441
g73
(dp2442
g100
g101
ssg82
g2431
sg75
(lp2443
S':'
asbag68
(g89
g70
NtRp2444
(dp2445
g73
(dp2446
sg82
g2431
sg75
(lp2447
g68
(g69
g70
NtRp2448
(dp2449
g73
(dp2450
g81
I5
ssg82
g2444
sg75
(lp2451
S'datetime.datetime(2012, 8, 31, 5, 40, 10, 295644)'
p2452
asbasbasbag68
(g84
g70
NtRp2453
(dp2454
g73
(dp2455
sg82
g78
sg75
(lp2456
g68
(g89
g70
NtRp2457
(dp2458
g73
(dp2459
g93
g94
ssg82
g2453
sg75
(lp2460
S'post_vars'
p2461
asbag68
(g89
g70
NtRp2462
(dp2463
g73
(dp2464
g100
g101
ssg82
g2453
sg75
(lp2465
S':'
asbag68
(g89
g70
NtRp2466
(dp2467
g73
(dp2468
sg82
g2453
sg75
(lp2469
g68
(g69
g70
NtRp2470
(dp2471
g73
(dp2472
g81
I5
ssg82
g2466
sg75
(lp2473
g68
(g77
g70
NtRp2474
(dp2475
g73
(dp2476
g81
I4
ssg82
Nsg75
(lp2477
sbasbasbasbag68
(g84
g70
NtRp2478
(dp2479
g73
(dp2480
sg82
g78
sg75
(lp2481
g68
(g89
g70
NtRp2482
(dp2483
g73
(dp2484
g93
g94
ssg82
g2478
sg75
(lp2485
S'raw_args'
p2486
asbag68
(g89
g70
NtRp2487
(dp2488
g73
(dp2489
g100
g101
ssg82
g2478
sg75
(lp2490
S':'
asbag68
(g89
g70
NtRp2491
(dp2492
g73
(dp2493
sg82
g2478
sg75
(lp2494
g68
(g69
g70
NtRp2495
(dp2496
g73
(dp2497
g81
I5
ssg82
g2491
sg75
(lp2498
S'1'
asbasbasbag68
(g84
g70
NtRp2499
(dp2500
g73
(dp2501
sg82
g78
sg75
(lp2502
g68
(g89
g70
NtRp2503
(dp2504
g73
(dp2505
g93
g94
ssg82
g2499
sg75
(lp2506
S'raw_extension'
p2507
asbag68
(g89
g70
NtRp2508
(dp2509
g73
(dp2510
g100
g101
ssg82
g2499
sg75
(lp2511
S':'
asbag68
(g89
g70
NtRp2512
(dp2513
g73
(dp2514
sg82
g2499
sg75
(lp2515
g68
(g69
g70
NtRp2516
(dp2517
g73
(dp2518
g81
I5
ssg82
g2512
sg75
(lp2519
S'None'
p2520
asbasbasbag68
(g84
g70
NtRp2521
(dp2522
g73
(dp2523
sg82
g78
sg75
(lp2524
g68
(g89
g70
NtRp2525
(dp2526
g73
(dp2527
g93
g94
ssg82
g2521
sg75
(lp2528
S'url'
p2529
asbag68
(g89
g70
NtRp2530
(dp2531
g73
(dp2532
g100
g101
ssg82
g2521
sg75
(lp2533
S':'
asbag68
(g89
g70
NtRp2534
(dp2535
g73
(dp2536
sg82
g2521
sg75
(lp2537
g68
(g69
g70
NtRp2538
(dp2539
g73
(dp2540
g81
I5
ssg82
g2534
sg75
(lp2541
S'/FotoBuk/default/show/1'
p2542
asbasbasbag68
(g84
g70
NtRp2543
(dp2544
g73
(dp2545
sg82
g78
sg75
(lp2546
g68
(g89
g70
NtRp2547
(dp2548
g73
(dp2549
g93
g94
ssg82
g2543
sg75
(lp2550
S'utcnow'
p2551
asbag68
(g89
g70
NtRp2552
(dp2553
g73
(dp2554
g100
g101
ssg82
g2543
sg75
(lp2555
S':'
asbag68
(g89
g70
NtRp2556
(dp2557
g73
(dp2558
sg82
g2543
sg75
(lp2559
g68
(g69
g70
NtRp2560
(dp2561
g73
(dp2562
g81
I5
ssg82
g2556
sg75
(lp2563
S'datetime.datetime(2012, 8, 31, 0, 10, 10, 295673)'
p2564
asbasbasbag68
(g84
g70
NtRp2565
(dp2566
g73
(dp2567
sg82
g78
sg75
(lp2568
g68
(g89
g70
NtRp2569
(dp2570
g73
(dp2571
g93
g94
ssg82
g2565
sg75
(lp2572
S'uuid'
p2573
asbag68
(g89
g70
NtRp2574
(dp2575
g73
(dp2576
g100
g101
ssg82
g2565
sg75
(lp2577
S':'
asbag68
(g89
g70
NtRp2578
(dp2579
g73
(dp2580
sg82
g2565
sg75
(lp2581
g68
(g69
g70
NtRp2582
(dp2583
g73
(dp2584
g81
I5
ssg82
g2578
sg75
(lp2585
S'FotoBuk/127.0.0.1.2012-08-31.05-40-10.3e774337-03aa-4cda-a091-5155aba20740'
p2586
asbasbasbag68
(g84
g70
NtRp2587
(dp2588
g73
(dp2589
sg82
g78
sg75
(lp2590
g68
(g89
g70
NtRp2591
(dp2592
g73
(dp2593
g93
g94
ssg82
g2587
sg75
(lp2594
S'vars'
p2595
asbag68
(g89
g70
NtRp2596
(dp2597
g73
(dp2598
g100
g101
ssg82
g2587
sg75
(lp2599
S':'
asbag68
(g89
g70
NtRp2600
(dp2601
g73
(dp2602
sg82
g2587
sg75
(lp2603
g68
(g69
g70
NtRp2604
(dp2605
g73
(dp2606
g81
I5
ssg82
g2600
sg75
(lp2607
g68
(g77
g70
NtRp2608
(dp2609
g73
(dp2610
g81
I4
ssg82
Nsg75
(lp2611
sbasbasbasbag68
(g84
g70
NtRp2612
(dp2613
g73
(dp2614
sg82
g78
sg75
(lp2615
g68
(g89
g70
NtRp2616
(dp2617
g73
(dp2618
g93
g94
ssg82
g2612
sg75
(lp2619
S'wsgi'
p2620
asbag68
(g89
g70
NtRp2621
(dp2622
g73
(dp2623
g100
g101
ssg82
g2612
sg75
(lp2624
S':'
asbag68
(g89
g70
NtRp2625
(dp2626
g73
(dp2627
sg82
g2612
sg75
(lp2628
g68
(g69
g70
NtRp2629
(dp2630
g73
(dp2631
g81
I5
ssg82
g2625
sg75
(lp2632
g68
(g77
g70
NtRp2633
(dp2634
g73
(dp2635
g81
I4
ssg82
Nsg75
(lp2636
g68
(g84
g70
NtRp2637
(dp2638
g73
(dp2639
sg82
g2633
sg75
(lp2640
g68
(g89
g70
NtRp2641
(dp2642
g73
(dp2643
g93
g94
ssg82
g2637
sg75
(lp2644
S'environ'
p2645
asbag68
(g89
g70
NtRp2646
(dp2647
g73
(dp2648
g100
g101
ssg82
g2637
sg75
(lp2649
S':'
asbag68
(g89
g70
NtRp2650
(dp2651
g73
(dp2652
sg82
g2637
sg75
(lp2653
g68
(g69
g70
NtRp2654
(dp2655
g73
(dp2656
g81
I4
ssg82
g2650
sg75
(lp2657
g68
(g77
g70
NtRp2658
(dp2659
g73
(dp2660
g81
I3
ssg82
Nsg75
(lp2661
g68
(g84
g70
NtRp2662
(dp2663
g73
(dp2664
sg82
g2658
sg75
(lp2665
g68
(g89
g70
NtRp2666
(dp2667
g73
(dp2668
g93
g94
ssg82
g2662
sg75
(lp2669
S'HTTP_ACCEPT'
p2670
asbag68
(g89
g70
NtRp2671
(dp2672
g73
(dp2673
g100
g101
ssg82
g2662
sg75
(lp2674
S':'
asbag68
(g89
g70
NtRp2675
(dp2676
g73
(dp2677
sg82
g2662
sg75
(lp2678
g68
(g69
g70
NtRp2679
(dp2680
g73
(dp2681
g81
I3
ssg82
g2675
sg75
(lp2682
g1237
asbasbasbag68
(g84
g70
NtRp2683
(dp2684
g73
(dp2685
sg82
g2658
sg75
(lp2686
g68
(g89
g70
NtRp2687
(dp2688
g73
(dp2689
g93
g94
ssg82
g2683
sg75
(lp2690
S'HTTP_ACCEPT_ENCODING'
p2691
asbag68
(g89
g70
NtRp2692
(dp2693
g73
(dp2694
g100
g101
ssg82
g2683
sg75
(lp2695
S':'
asbag68
(g89
g70
NtRp2696
(dp2697
g73
(dp2698
sg82
g2683
sg75
(lp2699
g68
(g69
g70
NtRp2700
(dp2701
g73
(dp2702
g81
I3
ssg82
g2696
sg75
(lp2703
g1259
asbasbasbag68
(g84
g70
NtRp2704
(dp2705
g73
(dp2706
sg82
g2658
sg75
(lp2707
g68
(g89
g70
NtRp2708
(dp2709
g73
(dp2710
g93
g94
ssg82
g2704
sg75
(lp2711
S'HTTP_ACCEPT_LANGUAGE'
p2712
asbag68
(g89
g70
NtRp2713
(dp2714
g73
(dp2715
g100
g101
ssg82
g2704
sg75
(lp2716
S':'
asbag68
(g89
g70
NtRp2717
(dp2718
g73
(dp2719
sg82
g2704
sg75
(lp2720
g68
(g69
g70
NtRp2721
(dp2722
g73
(dp2723
g81
I3
ssg82
g2717
sg75
(lp2724
g1281
asbasbasbag68
(g84
g70
NtRp2725
(dp2726
g73
(dp2727
sg82
g2658
sg75
(lp2728
g68
(g89
g70
NtRp2729
(dp2730
g73
(dp2731
g93
g94
ssg82
g2725
sg75
(lp2732
S'HTTP_CONNECTION'
p2733
asbag68
(g89
g70
NtRp2734
(dp2735
g73
(dp2736
g100
g101
ssg82
g2725
sg75
(lp2737
S':'
asbag68
(g89
g70
NtRp2738
(dp2739
g73
(dp2740
sg82
g2725
sg75
(lp2741
g68
(g69
g70
NtRp2742
(dp2743
g73
(dp2744
g81
I3
ssg82
g2738
sg75
(lp2745
g1303
asbasbasbag68
(g84
g70
NtRp2746
(dp2747
g73
(dp2748
sg82
g2658
sg75
(lp2749
g68
(g89
g70
NtRp2750
(dp2751
g73
(dp2752
g93
g94
ssg82
g2746
sg75
(lp2753
S'HTTP_COOKIE'
p2754
asbag68
(g89
g70
NtRp2755
(dp2756
g73
(dp2757
g100
g101
ssg82
g2746
sg75
(lp2758
S':'
asbag68
(g89
g70
NtRp2759
(dp2760
g73
(dp2761
sg82
g2746
sg75
(lp2762
g68
(g69
g70
NtRp2763
(dp2764
g73
(dp2765
g81
I3
ssg82
g2759
sg75
(lp2766
g1325
asbasbasbag68
(g84
g70
NtRp2767
(dp2768
g73
(dp2769
sg82
g2658
sg75
(lp2770
g68
(g89
g70
NtRp2771
(dp2772
g73
(dp2773
g93
g94
ssg82
g2767
sg75
(lp2774
S'HTTP_HOST'
p2775
asbag68
(g89
g70
NtRp2776
(dp2777
g73
(dp2778
g100
g101
ssg82
g2767
sg75
(lp2779
S':'
asbag68
(g89
g70
NtRp2780
(dp2781
g73
(dp2782
sg82
g2767
sg75
(lp2783
g68
(g69
g70
NtRp2784
(dp2785
g73
(dp2786
g81
I3
ssg82
g2780
sg75
(lp2787
g1347
asbasbasbag68
(g84
g70
NtRp2788
(dp2789
g73
(dp2790
sg82
g2658
sg75
(lp2791
g68
(g89
g70
NtRp2792
(dp2793
g73
(dp2794
g93
g94
ssg82
g2788
sg75
(lp2795
S'HTTP_USER_AGENT'
p2796
asbag68
(g89
g70
NtRp2797
(dp2798
g73
(dp2799
g100
g101
ssg82
g2788
sg75
(lp2800
S':'
asbag68
(g89
g70
NtRp2801
(dp2802
g73
(dp2803
sg82
g2788
sg75
(lp2804
g68
(g69
g70
NtRp2805
(dp2806
g73
(dp2807
g81
I3
ssg82
g2801
sg75
(lp2808
g1369
asbasbasbag68
(g84
g70
NtRp2809
(dp2810
g73
(dp2811
sg82
g2658
sg75
(lp2812
g68
(g89
g70
NtRp2813
(dp2814
g73
(dp2815
g93
g94
ssg82
g2809
sg75
(lp2816
S'PATH_INFO'
p2817
asbag68
(g89
g70
NtRp2818
(dp2819
g73
(dp2820
g100
g101
ssg82
g2809
sg75
(lp2821
S':'
asbag68
(g89
g70
NtRp2822
(dp2823
g73
(dp2824
sg82
g2809
sg75
(lp2825
g68
(g69
g70
NtRp2826
(dp2827
g73
(dp2828
g81
I3
ssg82
g2822
sg75
(lp2829
g1433
asbasbasbag68
(g84
g70
NtRp2830
(dp2831
g73
(dp2832
sg82
g2658
sg75
(lp2833
g68
(g89
g70
NtRp2834
(dp2835
g73
(dp2836
g93
g94
ssg82
g2830
sg75
(lp2837
S'QUERY_STRING'
p2838
asbag68
(g89
g70
NtRp2839
(dp2840
g73
(dp2841
g100
g101
ssg82
g2830
sg75
(lp2842
S':'
asbag68
(g89
g70
NtRp2843
(dp2844
g73
(dp2845
sg82
g2830
sg75
(lp2846
g68
(g69
g70
NtRp2847
(dp2848
g73
(dp2849
g81
I3
ssg82
g2843
sg75
(lp2850
S''
asbasbasbag68
(g84
g70
NtRp2851
(dp2852
g73
(dp2853
sg82
g2658
sg75
(lp2854
g68
(g89
g70
NtRp2855
(dp2856
g73
(dp2857
g93
g94
ssg82
g2851
sg75
(lp2858
S'REMOTE_ADDR'
p2859
asbag68
(g89
g70
NtRp2860
(dp2861
g73
(dp2862
g100
g101
ssg82
g2851
sg75
(lp2863
S':'
asbag68
(g89
g70
NtRp2864
(dp2865
g73
(dp2866
sg82
g2851
sg75
(lp2867
g68
(g69
g70
NtRp2868
(dp2869
g73
(dp2870
g81
I3
ssg82
g2864
sg75
(lp2871
g235
asbasbasbag68
(g84
g70
NtRp2872
(dp2873
g73
(dp2874
sg82
g2658
sg75
(lp2875
g68
(g89
g70
NtRp2876
(dp2877
g73
(dp2878
g93
g94
ssg82
g2872
sg75
(lp2879
S'REMOTE_PORT'
p2880
asbag68
(g89
g70
NtRp2881
(dp2882
g73
(dp2883
g100
g101
ssg82
g2872
sg75
(lp2884
S':'
asbag68
(g89
g70
NtRp2885
(dp2886
g73
(dp2887
sg82
g2872
sg75
(lp2888
g68
(g69
g70
NtRp2889
(dp2890
g73
(dp2891
g81
I3
ssg82
g2885
sg75
(lp2892
g1497
asbasbasbag68
(g84
g70
NtRp2893
(dp2894
g73
(dp2895
sg82
g2658
sg75
(lp2896
g68
(g89
g70
NtRp2897
(dp2898
g73
(dp2899
g93
g94
ssg82
g2893
sg75
(lp2900
S'REQUEST_METHOD'
p2901
asbag68
(g89
g70
NtRp2902
(dp2903
g73
(dp2904
g100
g101
ssg82
g2893
sg75
(lp2905
S':'
asbag68
(g89
g70
NtRp2906
(dp2907
g73
(dp2908
sg82
g2893
sg75
(lp2909
g68
(g69
g70
NtRp2910
(dp2911
g73
(dp2912
g81
I3
ssg82
g2906
sg75
(lp2913
g1519
asbasbasbag68
(g84
g70
NtRp2914
(dp2915
g73
(dp2916
sg82
g2658
sg75
(lp2917
g68
(g89
g70
NtRp2918
(dp2919
g73
(dp2920
g93
g94
ssg82
g2914
sg75
(lp2921
S'SCRIPT_NAME'
p2922
asbag68
(g89
g70
NtRp2923
(dp2924
g73
(dp2925
g100
g101
ssg82
g2914
sg75
(lp2926
S':'
asbag68
(g89
g70
NtRp2927
(dp2928
g73
(dp2929
sg82
g2914
sg75
(lp2930
g68
(g69
g70
NtRp2931
(dp2932
g73
(dp2933
g81
I3
ssg82
g2927
sg75
(lp2934
S''
asbasbasbag68
(g84
g70
NtRp2935
(dp2936
g73
(dp2937
sg82
g2658
sg75
(lp2938
g68
(g89
g70
NtRp2939
(dp2940
g73
(dp2941
g93
g94
ssg82
g2935
sg75
(lp2942
S'SERVER_NAME'
p2943
asbag68
(g89
g70
NtRp2944
(dp2945
g73
(dp2946
g100
g101
ssg82
g2935
sg75
(lp2947
S':'
asbag68
(g89
g70
NtRp2948
(dp2949
g73
(dp2950
sg82
g2935
sg75
(lp2951
g68
(g69
g70
NtRp2952
(dp2953
g73
(dp2954
g81
I3
ssg82
g2948
sg75
(lp2955
g1562
asbasbasbag68
(g84
g70
NtRp2956
(dp2957
g73
(dp2958
sg82
g2658
sg75
(lp2959
g68
(g89
g70
NtRp2960
(dp2961
g73
(dp2962
g93
g94
ssg82
g2956
sg75
(lp2963
S'SERVER_PORT'
p2964
asbag68
(g89
g70
NtRp2965
(dp2966
g73
(dp2967
g100
g101
ssg82
g2956
sg75
(lp2968
S':'
asbag68
(g89
g70
NtRp2969
(dp2970
g73
(dp2971
sg82
g2956
sg75
(lp2972
g68
(g69
g70
NtRp2973
(dp2974
g73
(dp2975
g81
I3
ssg82
g2969
sg75
(lp2976
g1584
asbasbasbag68
(g84
g70
NtRp2977
(dp2978
g73
(dp2979
sg82
g2658
sg75
(lp2980
g68
(g89
g70
NtRp2981
(dp2982
g73
(dp2983
g93
g94
ssg82
g2977
sg75
(lp2984
S'SERVER_PROTOCOL'
p2985
asbag68
(g89
g70
NtRp2986
(dp2987
g73
(dp2988
g100
g101
ssg82
g2977
sg75
(lp2989
S':'
asbag68
(g89
g70
NtRp2990
(dp2991
g73
(dp2992
sg82
g2977
sg75
(lp2993
g68
(g69
g70
NtRp2994
(dp2995
g73
(dp2996
g81
I3
ssg82
g2990
sg75
(lp2997
g1606
asbasbasbag68
(g84
g70
NtRp2998
(dp2999
g73
(dp3000
sg82
g2658
sg75
(lp3001
g68
(g89
g70
NtRp3002
(dp3003
g73
(dp3004
g93
g94
ssg82
g2998
sg75
(lp3005
S'SERVER_SOFTWARE'
p3006
asbag68
(g89
g70
NtRp3007
(dp3008
g73
(dp3009
g100
g101
ssg82
g2998
sg75
(lp3010
S':'
asbag68
(g89
g70
NtRp3011
(dp3012
g73
(dp3013
sg82
g2998
sg75
(lp3014
g68
(g69
g70
NtRp3015
(dp3016
g73
(dp3017
g81
I3
ssg82
g3011
sg75
(lp3018
g1628
asbasbasbag68
(g84
g70
NtRp3019
(dp3020
g73
(dp3021
sg82
g2658
sg75
(lp3022
g68
(g89
g70
NtRp3023
(dp3024
g73
(dp3025
g93
g94
ssg82
g3019
sg75
(lp3026
S'wsgi.errors'
p3027
asbag68
(g89
g70
NtRp3028
(dp3029
g73
(dp3030
g100
g101
ssg82
g3019
sg75
(lp3031
S':'
asbag68
(g89
g70
NtRp3032
(dp3033
g73
(dp3034
sg82
g3019
sg75
(lp3035
g68
(g69
g70
NtRp3036
(dp3037
g73
(dp3038
g81
I3
ssg82
g3032
sg75
(lp3039
S"<open file '<stderr>', mode 'w' at 0xb772d0d0>"
p3040
asbasbasbag68
(g84
g70
NtRp3041
(dp3042
g73
(dp3043
sg82
g2658
sg75
(lp3044
g68
(g89
g70
NtRp3045
(dp3046
g73
(dp3047
g93
g94
ssg82
g3041
sg75
(lp3048
S'wsgi.file_wrapper'
p3049
asbag68
(g89
g70
NtRp3050
(dp3051
g73
(dp3052
g100
g101
ssg82
g3041
sg75
(lp3053
S':'
asbag68
(g89
g70
NtRp3054
(dp3055
g73
(dp3056
sg82
g3041
sg75
(lp3057
g68
(g69
g70
NtRp3058
(dp3059
g73
(dp3060
g81
I3
ssg82
g3054
sg75
(lp3061
S'<class wsgiref.util.FileWrapper at 0x8d0326c>'
p3062
asbasbasbag68
(g84
g70
NtRp3063
(dp3064
g73
(dp3065
sg82
g2658
sg75
(lp3066
g68
(g89
g70
NtRp3067
(dp3068
g73
(dp3069
g93
g94
ssg82
g3063
sg75
(lp3070
S'wsgi.input'
p3071
asbag68
(g89
g70
NtRp3072
(dp3073
g73
(dp3074
g100
g101
ssg82
g3063
sg75
(lp3075
S':'
asbag68
(g89
g70
NtRp3076
(dp3077
g73
(dp3078
sg82
g3063
sg75
(lp3079
g68
(g69
g70
NtRp3080
(dp3081
g73
(dp3082
g81
I3
ssg82
g3076
sg75
(lp3083
S'<cStringIO.StringO object at 0xb2f5b660>'
p3084
asbasbasbag68
(g84
g70
NtRp3085
(dp3086
g73
(dp3087
sg82
g2658
sg75
(lp3088
g68
(g89
g70
NtRp3089
(dp3090
g73
(dp3091
g93
g94
ssg82
g3085
sg75
(lp3092
S'wsgi.multiprocess'
p3093
asbag68
(g89
g70
NtRp3094
(dp3095
g73
(dp3096
g100
g101
ssg82
g3085
sg75
(lp3097
S':'
asbag68
(g89
g70
NtRp3098
(dp3099
g73
(dp3100
sg82
g3085
sg75
(lp3101
g68
(g69
g70
NtRp3102
(dp3103
g73
(dp3104
g81
I3
ssg82
g3098
sg75
(lp3105
g111
asbasbasbag68
(g84
g70
NtRp3106
(dp3107
g73
(dp3108
sg82
g2658
sg75
(lp3109
g68
(g89
g70
NtRp3110
(dp3111
g73
(dp3112
g93
g94
ssg82
g3106
sg75
(lp3113
S'wsgi.multithread'
p3114
asbag68
(g89
g70
NtRp3115
(dp3116
g73
(dp3117
g100
g101
ssg82
g3106
sg75
(lp3118
S':'
asbag68
(g89
g70
NtRp3119
(dp3120
g73
(dp3121
sg82
g3106
sg75
(lp3122
g68
(g69
g70
NtRp3123
(dp3124
g73
(dp3125
g81
I3
ssg82
g3119
sg75
(lp3126
g1867
asbasbasbag68
(g84
g70
NtRp3127
(dp3128
g73
(dp3129
sg82
g2658
sg75
(lp3130
g68
(g89
g70
NtRp3131
(dp3132
g73
(dp3133
g93
g94
ssg82
g3127
sg75
(lp3134
S'wsgi.run_once'
p3135
asbag68
(g89
g70
NtRp3136
(dp3137
g73
(dp3138
g100
g101
ssg82
g3127
sg75
(lp3139
S':'
asbag68
(g89
g70
NtRp3140
(dp3141
g73
(dp3142
sg82
g3127
sg75
(lp3143
g68
(g69
g70
NtRp3144
(dp3145
g73
(dp3146
g81
I3
ssg82
g3140
sg75
(lp3147
g111
asbasbasbag68
(g84
g70
NtRp3148
(dp3149
g73
(dp3150
sg82
g2658
sg75
(lp3151
g68
(g89
g70
NtRp3152
(dp3153
g73
(dp3154
g93
g94
ssg82
g3148
sg75
(lp3155
S'wsgi.url_scheme'
p3156
asbag68
(g89
g70
NtRp3157
(dp3158
g73
(dp3159
g100
g101
ssg82
g3148
sg75
(lp3160
S':'
asbag68
(g89
g70
NtRp3161
(dp3162
g73
(dp3163
sg82
g3148
sg75
(lp3164
g68
(g69
g70
NtRp3165
(dp3166
g73
(dp3167
g81
I3
ssg82
g3161
sg75
(lp3168
g1910
asbasbasbag68
(g84
g70
NtRp3169
(dp3170
g73
(dp3171
sg82
g2658
sg75
(lp3172
g68
(g89
g70
NtRp3173
(dp3174
g73
(dp3175
g93
g94
ssg82
g3169
sg75
(lp3176
S'wsgi.version'
p3177
asbag68
(g89
g70
NtRp3178
(dp3179
g73
(dp3180
g100
g101
ssg82
g3169
sg75
(lp3181
S':'
asbag68
(g89
g70
NtRp3182
(dp3183
g73
(dp3184
sg82
g3169
sg75
(lp3185
g68
(g69
g70
NtRp3186
(dp3187
g73
(dp3188
g81
I3
ssg82
g3182
sg75
(lp3189
S'1'
asbasbasbasbasbasbasbasbasbasbasbasbasbsS'frames'
p3190
(lp3191
(dp3192
S'file'
p3193
S'/home/piyush/web2py/gluon/restricted.py'
p3194
sS'dump'
p3195
(dp3196
S'code'
p3197
S'r"response.write(\'<!DOCTYPE html>\\r\\n<!-- pauliris...ript>  \\r\\n</body>\\r\\n</html>\\r\\n\', escape=False)"'
p3198
sS'layer'
p3199
S"'/home/piyush/web2py/applications/FotoBuk/views/default/show.html'"
p3200
sS'global compile2'
p3201
S'<function compile2>'
p3202
sS'ccode'
p3203
S'undefined'
p3204
ssS'lnum'
p3205
I208
sS'lines'
p3206
(dp3207
I203
S"    environment['__name__'] = '__restricted__'"
p3208
sI204
S'    try:'
p3209
sI205
S'        if type(code) == types.CodeType:'
p3210
sI206
S'            ccode = code'
p3211
sI207
S'        else:'
p3212
sI208
S'            ccode = compile2(code,layer)'
p3213
sI209
S'        exec ccode in environment'
p3214
sI210
S'    except HTTP:'
p3215
sI211
S'        raise'
p3216
sI212
S'    except RestrictedError:'
p3217
ssS'call'
p3218
S'(code=r"response.write(\'<!DOCTYPE html>\\r\\n<!-- pauliris...ript>  \\r\\n</body>\\r\\n</html>\\r\\n\', escape=False)", environment={\'A\': <class \'gluon.html.A\'>, \'Auth\': <class \'gluon.tools.Auth\'>, \'B\': <class \'gluon.html.B\'>, \'BEAUTIFY\': <class \'gluon.html.BEAUTIFY\'>, \'BODY\': <class \'gluon.html.BODY\'>, \'BR\': <class \'gluon.html.BR\'>, \'BUTTON\': <class \'gluon.html.BUTTON\'>, \'CAT\': <class \'gluon.html.CAT\'>, \'CENTER\': <class \'gluon.html.CENTER\'>, \'CLEANUP\': <class \'gluon.validators.CLEANUP\'>, ...}, layer=\'/home/piyush/web2py/applications/FotoBuk/views/default/show.html\')'
p3219
sS'func'
p3220
S'restricted'
p3221
sa(dp3222
g3193
S'/home/piyush/web2py/gluon/restricted.py'
p3223
sg3195
(dp3224
S'builtincompile'
p3225
S'<built-in function compile>'
p3226
sS'code'
p3227
S'r"response.write(\'<!DOCTYPE html>\\r\\n<!-- pauliris...ript>  \\r\\n</body>\\r\\n</html>\\r\\n\', escape=False)"'
p3228
sS'code.rstrip'
p3229
S'<built-in method rstrip of str object>'
p3230
sS').replace'
p3231
g3204
sS'layer'
p3232
S"'/home/piyush/web2py/applications/FotoBuk/views/default/show.html'"
p3233
ssg3205
I193
sg3206
(dp3234
I192
S'    """'
p3235
sI193
S"    return compile(code.rstrip().replace('\\r\\n','\\n')+'\\n', layer, 'exec')"
p3236
sI194
S''
sI195
S"def restricted(code, environment=None, layer='Unknown'):"
p3237
sI196
S'    """'
p3238
sI197
S'    runs code in environment and returns the output. if an exception occurs'
p3239
sI188
S''
sI189
S'def compile2(code,layer):'
p3240
sI190
S'    """'
p3241
sI191
S"    The +'\\n' is necessary else compile fails when code ends in a comment."
p3242
ssg3218
S'(code=r"response.write(\'<!DOCTYPE html>\\r\\n<!-- pauliris...ript>  \\r\\n</body>\\r\\n</html>\\r\\n\', escape=False)", layer=\'/home/piyush/web2py/applications/FotoBuk/views/default/show.html\')'
p3243
sg3220
S'compile2'
p3244
sasS'pyver'
p3245
S'Python 2.7.2: /usr/bin/python'
p3246
sS'session'
p3247
g68
(g69
g70
NtRp3248
(dp3249
g73
(dp3250
sg75
(lp3251
g68
(g77
g70
NtRp3252
(dp3253
g73
(dp3254
g81
I5
ssg82
Nsg75
(lp3255
g68
(g84
g70
NtRp3256
(dp3257
g73
(dp3258
sg82
g3252
sg75
(lp3259
g68
(g89
g70
NtRp3260
(dp3261
g73
(dp3262
g93
g94
ssg82
g3256
sg75
(lp3263
S'auth'
p3264
asbag68
(g89
g70
NtRp3265
(dp3266
g73
(dp3267
g100
g101
ssg82
g3256
sg75
(lp3268
S':'
asbag68
(g89
g70
NtRp3269
(dp3270
g73
(dp3271
sg82
g3256
sg75
(lp3272
g68
(g69
g70
NtRp3273
(dp3274
g73
(dp3275
g81
I5
ssg82
g3269
sg75
(lp3276
g68
(g77
g70
NtRp3277
(dp3278
g73
(dp3279
g81
I4
ssg82
Nsg75
(lp3280
g68
(g84
g70
NtRp3281
(dp3282
g73
(dp3283
sg82
g3277
sg75
(lp3284
g68
(g89
g70
NtRp3285
(dp3286
g73
(dp3287
g93
g94
ssg82
g3281
sg75
(lp3288
S'expiration'
p3289
asbag68
(g89
g70
NtRp3290
(dp3291
g73
(dp3292
g100
g101
ssg82
g3281
sg75
(lp3293
S':'
asbag68
(g89
g70
NtRp3294
(dp3295
g73
(dp3296
sg82
g3281
sg75
(lp3297
g68
(g69
g70
NtRp3298
(dp3299
g73
(dp3300
g81
I4
ssg82
g3294
sg75
(lp3301
S'3600'
p3302
asbasbasbag68
(g84
g70
NtRp3303
(dp3304
g73
(dp3305
sg82
g3277
sg75
(lp3306
g68
(g89
g70
NtRp3307
(dp3308
g73
(dp3309
g93
g94
ssg82
g3303
sg75
(lp3310
S'hmac_key'
p3311
asbag68
(g89
g70
NtRp3312
(dp3313
g73
(dp3314
g100
g101
ssg82
g3303
sg75
(lp3315
S':'
asbag68
(g89
g70
NtRp3316
(dp3317
g73
(dp3318
sg82
g3303
sg75
(lp3319
g68
(g69
g70
NtRp3320
(dp3321
g73
(dp3322
g81
I4
ssg82
g3316
sg75
(lp3323
S'ea9c65d4-000b-4376-8475-e7312297b731'
p3324
asbasbasbag68
(g84
g70
NtRp3325
(dp3326
g73
(dp3327
sg82
g3277
sg75
(lp3328
g68
(g89
g70
NtRp3329
(dp3330
g73
(dp3331
g93
g94
ssg82
g3325
sg75
(lp3332
S'last_visit'
p3333
asbag68
(g89
g70
NtRp3334
(dp3335
g73
(dp3336
g100
g101
ssg82
g3325
sg75
(lp3337
S':'
asbag68
(g89
g70
NtRp3338
(dp3339
g73
(dp3340
sg82
g3325
sg75
(lp3341
g68
(g69
g70
NtRp3342
(dp3343
g73
(dp3344
g81
I4
ssg82
g3338
sg75
(lp3345
S'datetime.datetime(2012, 8, 31, 5, 36, 4, 601603)'
p3346
asbasbasbag68
(g84
g70
NtRp3347
(dp3348
g73
(dp3349
sg82
g3277
sg75
(lp3350
g68
(g89
g70
NtRp3351
(dp3352
g73
(dp3353
g93
g94
ssg82
g3347
sg75
(lp3354
S'remember'
p3355
asbag68
(g89
g70
NtRp3356
(dp3357
g73
(dp3358
g100
g101
ssg82
g3347
sg75
(lp3359
S':'
asbag68
(g89
g70
NtRp3360
(dp3361
g73
(dp3362
sg82
g3347
sg75
(lp3363
g68
(g69
g70
NtRp3364
(dp3365
g73
(dp3366
g81
I4
ssg82
g3360
sg75
(lp3367
g111
asbasbasbag68
(g84
g70
NtRp3368
(dp3369
g73
(dp3370
sg82
g3277
sg75
(lp3371
g68
(g89
g70
NtRp3372
(dp3373
g73
(dp3374
g93
g94
ssg82
g3368
sg75
(lp3375
S'user'
p3376
asbag68
(g89
g70
NtRp3377
(dp3378
g73
(dp3379
g100
g101
ssg82
g3368
sg75
(lp3380
S':'
asbag68
(g89
g70
NtRp3381
(dp3382
g73
(dp3383
sg82
g3368
sg75
(lp3384
g68
(g69
g70
NtRp3385
(dp3386
g73
(dp3387
g81
I4
ssg82
g3381
sg75
(lp3388
g68
(g77
g70
NtRp3389
(dp3390
g73
(dp3391
g81
I3
ssg82
Nsg75
(lp3392
g68
(g84
g70
NtRp3393
(dp3394
g73
(dp3395
sg82
g3389
sg75
(lp3396
g68
(g89
g70
NtRp3397
(dp3398
g73
(dp3399
g93
g94
ssg82
g3393
sg75
(lp3400
S'email'
p3401
asbag68
(g89
g70
NtRp3402
(dp3403
g73
(dp3404
g100
g101
ssg82
g3393
sg75
(lp3405
S':'
asbag68
(g89
g70
NtRp3406
(dp3407
g73
(dp3408
sg82
g3393
sg75
(lp3409
g68
(g69
g70
NtRp3410
(dp3411
g73
(dp3412
g81
I3
ssg82
g3406
sg75
(lp3413
S'piyush.bansal@students.iiit.ac.in'
p3414
asbasbasbag68
(g84
g70
NtRp3415
(dp3416
g73
(dp3417
sg82
g3389
sg75
(lp3418
g68
(g89
g70
NtRp3419
(dp3420
g73
(dp3421
g93
g94
ssg82
g3415
sg75
(lp3422
S'first_name'
p3423
asbag68
(g89
g70
NtRp3424
(dp3425
g73
(dp3426
g100
g101
ssg82
g3415
sg75
(lp3427
S':'
asbag68
(g89
g70
NtRp3428
(dp3429
g73
(dp3430
sg82
g3415
sg75
(lp3431
g68
(g69
g70
NtRp3432
(dp3433
g73
(dp3434
g81
I3
ssg82
g3428
sg75
(lp3435
S'piyush'
p3436
asbasbasbag68
(g84
g70
NtRp3437
(dp3438
g73
(dp3439
sg82
g3389
sg75
(lp3440
g68
(g89
g70
NtRp3441
(dp3442
g73
(dp3443
g93
g94
ssg82
g3437
sg75
(lp3444
S'id'
p3445
asbag68
(g89
g70
NtRp3446
(dp3447
g73
(dp3448
g100
g101
ssg82
g3437
sg75
(lp3449
S':'
asbag68
(g89
g70
NtRp3450
(dp3451
g73
(dp3452
sg82
g3437
sg75
(lp3453
g68
(g69
g70
NtRp3454
(dp3455
g73
(dp3456
g81
I3
ssg82
g3450
sg75
(lp3457
S'1'
asbasbasbag68
(g84
g70
NtRp3458
(dp3459
g73
(dp3460
sg82
g3389
sg75
(lp3461
g68
(g89
g70
NtRp3462
(dp3463
g73
(dp3464
g93
g94
ssg82
g3458
sg75
(lp3465
S'last_name'
p3466
asbag68
(g89
g70
NtRp3467
(dp3468
g73
(dp3469
g100
g101
ssg82
g3458
sg75
(lp3470
S':'
asbag68
(g89
g70
NtRp3471
(dp3472
g73
(dp3473
sg82
g3458
sg75
(lp3474
g68
(g69
g70
NtRp3475
(dp3476
g73
(dp3477
g81
I3
ssg82
g3471
sg75
(lp3478
S'bansal'
p3479
asbasbasbag68
(g84
g70
NtRp3480
(dp3481
g73
(dp3482
sg82
g3389
sg75
(lp3483
g68
(g89
g70
NtRp3484
(dp3485
g73
(dp3486
g93
g94
ssg82
g3480
sg75
(lp3487
S'password'
p3488
asbag68
(g89
g70
NtRp3489
(dp3490
g73
(dp3491
g100
g101
ssg82
g3480
sg75
(lp3492
S':'
asbag68
(g89
g70
NtRp3493
(dp3494
g73
(dp3495
sg82
g3480
sg75
(lp3496
g68
(g69
g70
NtRp3497
(dp3498
g73
(dp3499
g81
I3
ssg82
g3493
sg75
(lp3500
S'pbkdf2(1000,20,sha512)$913ba6c957a64f30$d4b59e0f074c5a6d9fd585309ed33902fece40a6'
p3501
asbasbasbag68
(g84
g70
NtRp3502
(dp3503
g73
(dp3504
sg82
g3389
sg75
(lp3505
g68
(g89
g70
NtRp3506
(dp3507
g73
(dp3508
g93
g94
ssg82
g3502
sg75
(lp3509
S'registration_id'
p3510
asbag68
(g89
g70
NtRp3511
(dp3512
g73
(dp3513
g100
g101
ssg82
g3502
sg75
(lp3514
S':'
asbag68
(g89
g70
NtRp3515
(dp3516
g73
(dp3517
sg82
g3502
sg75
(lp3518
g68
(g69
g70
NtRp3519
(dp3520
g73
(dp3521
g81
I3
ssg82
g3515
sg75
(lp3522
S''
asbasbasbag68
(g84
g70
NtRp3523
(dp3524
g73
(dp3525
sg82
g3389
sg75
(lp3526
g68
(g89
g70
NtRp3527
(dp3528
g73
(dp3529
g93
g94
ssg82
g3523
sg75
(lp3530
S'registration_key'
p3531
asbag68
(g89
g70
NtRp3532
(dp3533
g73
(dp3534
g100
g101
ssg82
g3523
sg75
(lp3535
S':'
asbag68
(g89
g70
NtRp3536
(dp3537
g73
(dp3538
sg82
g3523
sg75
(lp3539
g68
(g69
g70
NtRp3540
(dp3541
g73
(dp3542
g81
I3
ssg82
g3536
sg75
(lp3543
S''
asbasbasbag68
(g84
g70
NtRp3544
(dp3545
g73
(dp3546
sg82
g3389
sg75
(lp3547
g68
(g89
g70
NtRp3548
(dp3549
g73
(dp3550
g93
g94
ssg82
g3544
sg75
(lp3551
S'reset_password_key'
p3552
asbag68
(g89
g70
NtRp3553
(dp3554
g73
(dp3555
g100
g101
ssg82
g3544
sg75
(lp3556
S':'
asbag68
(g89
g70
NtRp3557
(dp3558
g73
(dp3559
sg82
g3544
sg75
(lp3560
g68
(g69
g70
NtRp3561
(dp3562
g73
(dp3563
g81
I3
ssg82
g3557
sg75
(lp3564
S''
asbasbasbasbasbasbasbag68
(g84
g70
NtRp3565
(dp3566
g73
(dp3567
sg82
g3277
sg75
(lp3568
g68
(g89
g70
NtRp3569
(dp3570
g73
(dp3571
g93
g94
ssg82
g3565
sg75
(lp3572
S'user_groups'
p3573
asbag68
(g89
g70
NtRp3574
(dp3575
g73
(dp3576
g100
g101
ssg82
g3565
sg75
(lp3577
S':'
asbag68
(g89
g70
NtRp3578
(dp3579
g73
(dp3580
sg82
g3565
sg75
(lp3581
g68
(g69
g70
NtRp3582
(dp3583
g73
(dp3584
g81
I4
ssg82
g3578
sg75
(lp3585
g68
(g77
g70
NtRp3586
(dp3587
g73
(dp3588
g81
I3
ssg82
Nsg75
(lp3589
g68
(g84
g70
NtRp3590
(dp3591
g73
(dp3592
sg82
g3586
sg75
(lp3593
g68
(g89
g70
NtRp3594
(dp3595
g73
(dp3596
g93
g94
ssg82
g3590
sg75
(lp3597
S'1'
asbag68
(g89
g70
NtRp3598
(dp3599
g73
(dp3600
g100
g101
ssg82
g3590
sg75
(lp3601
S':'
asbag68
(g89
g70
NtRp3602
(dp3603
g73
(dp3604
sg82
g3590
sg75
(lp3605
g68
(g69
g70
NtRp3606
(dp3607
g73
(dp3608
g81
I3
ssg82
g3602
sg75
(lp3609
S'user_1'
p3610
asbasbasbasbasbasbasbasbasbasbasbag68
(g84
g70
NtRp3611
(dp3612
g73
(dp3613
sg82
g3252
sg75
(lp3614
g68
(g89
g70
NtRp3615
(dp3616
g73
(dp3617
g93
g94
ssg82
g3611
sg75
(lp3618
S'flash'
p3619
asbag68
(g89
g70
NtRp3620
(dp3621
g73
(dp3622
g100
g101
ssg82
g3611
sg75
(lp3623
S':'
asbag68
(g89
g70
NtRp3624
(dp3625
g73
(dp3626
sg82
g3611
sg75
(lp3627
g68
(g69
g70
NtRp3628
(dp3629
g73
(dp3630
g81
I5
ssg82
g3624
sg75
(lp3631
S'None'
p3632
asbasbasbag68
(g84
g70
NtRp3633
(dp3634
g73
(dp3635
sg82
g3252
sg75
(lp3636
g68
(g89
g70
NtRp3637
(dp3638
g73
(dp3639
g93
g94
ssg82
g3633
sg75
(lp3640
S'last_orderby'
p3641
asbag68
(g89
g70
NtRp3642
(dp3643
g73
(dp3644
g100
g101
ssg82
g3633
sg75
(lp3645
S':'
asbag68
(g89
g70
NtRp3646
(dp3647
g73
(dp3648
sg82
g3633
sg75
(lp3649
g68
(g69
g70
NtRp3650
(dp3651
g73
(dp3652
g81
I5
ssg82
g3646
sg75
(lp3653
S'None'
p3654
asbasbasbag68
(g84
g70
NtRp3655
(dp3656
g73
(dp3657
sg82
g3252
sg75
(lp3658
g68
(g89
g70
NtRp3659
(dp3660
g73
(dp3661
g93
g94
ssg82
g3655
sg75
(lp3662
S'last_query'
p3663
asbag68
(g89
g70
NtRp3664
(dp3665
g73
(dp3666
g100
g101
ssg82
g3655
sg75
(lp3667
S':'
asbag68
(g89
g70
NtRp3668
(dp3669
g73
(dp3670
sg82
g3655
sg75
(lp3671
g68
(g69
g70
NtRp3672
(dp3673
g73
(dp3674
g81
I5
ssg82
g3668
sg75
(lp3675
S'db.image.id>0'
p3676
asbasbasbasbasbsS'etype'
p3677
S"<type 'exceptions.SyntaxError'>"
p3678
sS'date'
p3679
S'Fri Aug 31 05:40:10 2012'
p3680
sS'response'
p3681
g68
(g69
g70
NtRp3682
(dp3683
g73
(dp3684
sg75
(lp3685
g68
(g77
g70
NtRp3686
(dp3687
g73
(dp3688
g81
I5
ssg82
Nsg75
(lp3689
g68
(g84
g70
NtRp3690
(dp3691
g73
(dp3692
sg82
g3686
sg75
(lp3693
g68
(g89
g70
NtRp3694
(dp3695
g73
(dp3696
g93
g94
ssg82
g3690
sg75
(lp3697
g178
asbag68
(g89
g70
NtRp3698
(dp3699
g73
(dp3700
g100
g101
ssg82
g3690
sg75
(lp3701
S':'
asbag68
(g89
g70
NtRp3702
(dp3703
g73
(dp3704
sg82
g3690
sg75
(lp3705
g68
(g69
g70
NtRp3706
(dp3707
g73
(dp3708
g81
I5
ssg82
g3702
sg75
(lp3709
S'<cStringIO.StringO object at 0xaf3224e0>'
p3710
asbasbasbag68
(g84
g70
NtRp3711
(dp3712
g73
(dp3713
sg82
g3686
sg75
(lp3714
g68
(g89
g70
NtRp3715
(dp3716
g73
(dp3717
g93
g94
ssg82
g3711
sg75
(lp3718
g266
asbag68
(g89
g70
NtRp3719
(dp3720
g73
(dp3721
g100
g101
ssg82
g3711
sg75
(lp3722
S':'
asbag68
(g89
g70
NtRp3723
(dp3724
g73
(dp3725
sg82
g3711
sg75
(lp3726
g68
(g69
g70
NtRp3727
(dp3728
g73
(dp3729
g81
I5
ssg82
g3723
sg75
(lp3730
g68
(g77
g70
NtRp3731
(dp3732
g73
(dp3733
g81
I4
ssg82
Nsg75
(lp3734
g68
(g84
g70
NtRp3735
(dp3736
g73
(dp3737
sg82
g3731
sg75
(lp3738
g68
(g89
g70
NtRp3739
(dp3740
g73
(dp3741
g93
g94
ssg82
g3735
sg75
(lp3742
S'session_id_fotobuk'
p3743
asbag68
(g89
g70
NtRp3744
(dp3745
g73
(dp3746
g100
g101
ssg82
g3735
sg75
(lp3747
S':'
asbag68
(g89
g70
NtRp3748
(dp3749
g73
(dp3750
sg82
g3735
sg75
(lp3751
g68
(g69
g70
NtRp3752
(dp3753
g73
(dp3754
g81
I4
ssg82
g3748
sg75
(lp3755
g498
ag68
(g77
g70
NtRp3756
(dp3757
g73
(dp3758
g81
I3
ssg82
Nsg75
(lp3759
g68
(g84
g70
NtRp3760
(dp3761
g73
(dp3762
sg82
g3756
sg75
(lp3763
g68
(g89
g70
NtRp3764
(dp3765
g73
(dp3766
g93
g94
ssg82
g3760
sg75
(lp3767
g317
asbag68
(g89
g70
NtRp3768
(dp3769
g73
(dp3770
g100
g101
ssg82
g3760
sg75
(lp3771
S':'
asbag68
(g89
g70
NtRp3772
(dp3773
g73
(dp3774
sg82
g3760
sg75
(lp3775
g68
(g69
g70
NtRp3776
(dp3777
g73
(dp3778
g81
I3
ssg82
g3772
sg75
(lp3779
S''
asbasbasbag68
(g84
g70
NtRp3780
(dp3781
g73
(dp3782
sg82
g3756
sg75
(lp3783
g68
(g89
g70
NtRp3784
(dp3785
g73
(dp3786
g93
g94
ssg82
g3780
sg75
(lp3787
g338
asbag68
(g89
g70
NtRp3788
(dp3789
g73
(dp3790
g100
g101
ssg82
g3780
sg75
(lp3791
S':'
asbag68
(g89
g70
NtRp3792
(dp3793
g73
(dp3794
sg82
g3780
sg75
(lp3795
g68
(g69
g70
NtRp3796
(dp3797
g73
(dp3798
g81
I3
ssg82
g3792
sg75
(lp3799
S''
asbasbasbag68
(g84
g70
NtRp3800
(dp3801
g73
(dp3802
sg82
g3756
sg75
(lp3803
g68
(g89
g70
NtRp3804
(dp3805
g73
(dp3806
g93
g94
ssg82
g3800
sg75
(lp3807
g359
asbag68
(g89
g70
NtRp3808
(dp3809
g73
(dp3810
g100
g101
ssg82
g3800
sg75
(lp3811
S':'
asbag68
(g89
g70
NtRp3812
(dp3813
g73
(dp3814
sg82
g3800
sg75
(lp3815
g68
(g69
g70
NtRp3816
(dp3817
g73
(dp3818
g81
I3
ssg82
g3812
sg75
(lp3819
S''
asbasbasbag68
(g84
g70
NtRp3820
(dp3821
g73
(dp3822
sg82
g3756
sg75
(lp3823
g68
(g89
g70
NtRp3824
(dp3825
g73
(dp3826
g93
g94
ssg82
g3820
sg75
(lp3827
g380
asbag68
(g89
g70
NtRp3828
(dp3829
g73
(dp3830
g100
g101
ssg82
g3820
sg75
(lp3831
S':'
asbag68
(g89
g70
NtRp3832
(dp3833
g73
(dp3834
sg82
g3820
sg75
(lp3835
g68
(g69
g70
NtRp3836
(dp3837
g73
(dp3838
g81
I3
ssg82
g3832
sg75
(lp3839
S''
asbasbasbag68
(g84
g70
NtRp3840
(dp3841
g73
(dp3842
sg82
g3756
sg75
(lp3843
g68
(g89
g70
NtRp3844
(dp3845
g73
(dp3846
g93
g94
ssg82
g3840
sg75
(lp3847
g401
asbag68
(g89
g70
NtRp3848
(dp3849
g73
(dp3850
g100
g101
ssg82
g3840
sg75
(lp3851
S':'
asbag68
(g89
g70
NtRp3852
(dp3853
g73
(dp3854
sg82
g3840
sg75
(lp3855
g68
(g69
g70
NtRp3856
(dp3857
g73
(dp3858
g81
I3
ssg82
g3852
sg75
(lp3859
S''
asbasbasbag68
(g84
g70
NtRp3860
(dp3861
g73
(dp3862
sg82
g3756
sg75
(lp3863
g68
(g89
g70
NtRp3864
(dp3865
g73
(dp3866
g93
g94
ssg82
g3860
sg75
(lp3867
g422
asbag68
(g89
g70
NtRp3868
(dp3869
g73
(dp3870
g100
g101
ssg82
g3860
sg75
(lp3871
S':'
asbag68
(g89
g70
NtRp3872
(dp3873
g73
(dp3874
sg82
g3860
sg75
(lp3875
g68
(g69
g70
NtRp3876
(dp3877
g73
(dp3878
g81
I3
ssg82
g3872
sg75
(lp3879
S'/'
asbasbasbag68
(g84
g70
NtRp3880
(dp3881
g73
(dp3882
sg82
g3756
sg75
(lp3883
g68
(g89
g70
NtRp3884
(dp3885
g73
(dp3886
g93
g94
ssg82
g3880
sg75
(lp3887
g443
asbag68
(g89
g70
NtRp3888
(dp3889
g73
(dp3890
g100
g101
ssg82
g3880
sg75
(lp3891
S':'
asbag68
(g89
g70
NtRp3892
(dp3893
g73
(dp3894
sg82
g3880
sg75
(lp3895
g68
(g69
g70
NtRp3896
(dp3897
g73
(dp3898
g81
I3
ssg82
g3892
sg75
(lp3899
S''
asbasbasbag68
(g84
g70
NtRp3900
(dp3901
g73
(dp3902
sg82
g3756
sg75
(lp3903
g68
(g89
g70
NtRp3904
(dp3905
g73
(dp3906
g93
g94
ssg82
g3900
sg75
(lp3907
g464
asbag68
(g89
g70
NtRp3908
(dp3909
g73
(dp3910
g100
g101
ssg82
g3900
sg75
(lp3911
S':'
asbag68
(g89
g70
NtRp3912
(dp3913
g73
(dp3914
sg82
g3900
sg75
(lp3915
g68
(g69
g70
NtRp3916
(dp3917
g73
(dp3918
g81
I3
ssg82
g3912
sg75
(lp3919
S''
asbasbasbasbasbasbasbasbasbasbasbag68
(g84
g70
NtRp3920
(dp3921
g73
(dp3922
sg82
g3686
sg75
(lp3923
g68
(g89
g70
NtRp3924
(dp3925
g73
(dp3926
g93
g94
ssg82
g3920
sg75
(lp3927
S'delimiters'
p3928
asbag68
(g89
g70
NtRp3929
(dp3930
g73
(dp3931
g100
g101
ssg82
g3920
sg75
(lp3932
S':'
asbag68
(g89
g70
NtRp3933
(dp3934
g73
(dp3935
sg82
g3920
sg75
(lp3936
g68
(g69
g70
NtRp3937
(dp3938
g73
(dp3939
g81
I5
ssg82
g3933
sg75
(lp3940
g68
(g77
g70
NtRp3941
(dp3942
g73
(dp3943
g81
I4
ssg82
Nsg75
(lp3944
g68
(g84
g70
NtRp3945
(dp3946
g73
(dp3947
sg82
g3941
sg75
(lp3948
g68
(g89
g70
NtRp3949
(dp3950
g73
(dp3951
sg82
g3945
sg75
(lp3952
g68
(g69
g70
NtRp3953
(dp3954
g73
(dp3955
g81
I4
ssg82
g3949
sg75
(lp3956
S'{{'
p3957
asbasbasbag68
(g84
g70
NtRp3958
(dp3959
g73
(dp3960
sg82
g3941
sg75
(lp3961
g68
(g89
g70
NtRp3962
(dp3963
g73
(dp3964
sg82
g3958
sg75
(lp3965
g68
(g69
g70
NtRp3966
(dp3967
g73
(dp3968
g81
I4
ssg82
g3962
sg75
(lp3969
S'}}'
p3970
asbasbasbasbasbasbasbag68
(g84
g70
NtRp3971
(dp3972
g73
(dp3973
sg82
g3686
sg75
(lp3974
g68
(g89
g70
NtRp3975
(dp3976
g73
(dp3977
g93
g94
ssg82
g3971
sg75
(lp3978
S'files'
p3979
asbag68
(g89
g70
NtRp3980
(dp3981
g73
(dp3982
g100
g101
ssg82
g3971
sg75
(lp3983
S':'
asbag68
(g89
g70
NtRp3984
(dp3985
g73
(dp3986
sg82
g3971
sg75
(lp3987
g68
(g69
g70
NtRp3988
(dp3989
g73
(dp3990
g81
I5
ssg82
g3984
sg75
(lp3991
g68
(g77
g70
NtRp3992
(dp3993
g73
(dp3994
g81
I4
ssg82
Nsg75
(lp3995
sbasbasbasbag68
(g84
g70
NtRp3996
(dp3997
g73
(dp3998
sg82
g3686
sg75
(lp3999
g68
(g89
g70
NtRp4000
(dp4001
g73
(dp4002
g93
g94
ssg82
g3996
sg75
(lp4003
S'flash'
p4004
asbag68
(g89
g70
NtRp4005
(dp4006
g73
(dp4007
g100
g101
ssg82
g3996
sg75
(lp4008
S':'
asbag68
(g89
g70
NtRp4009
(dp4010
g73
(dp4011
sg82
g3996
sg75
(lp4012
g68
(g69
g70
NtRp4013
(dp4014
g73
(dp4015
g81
I5
ssg82
g4009
sg75
(lp4016
S''
asbasbasbag68
(g84
g70
NtRp4017
(dp4018
g73
(dp4019
sg82
g3686
sg75
(lp4020
g68
(g89
g70
NtRp4021
(dp4022
g73
(dp4023
g93
g94
ssg82
g4017
sg75
(lp4024
S'generic_patterns'
p4025
asbag68
(g89
g70
NtRp4026
(dp4027
g73
(dp4028
g100
g101
ssg82
g4017
sg75
(lp4029
S':'
asbag68
(g89
g70
NtRp4030
(dp4031
g73
(dp4032
sg82
g4017
sg75
(lp4033
g68
(g69
g70
NtRp4034
(dp4035
g73
(dp4036
g81
I5
ssg82
g4030
sg75
(lp4037
g68
(g77
g70
NtRp4038
(dp4039
g73
(dp4040
g81
I4
ssg82
Nsg75
(lp4041
sbasbasbasbag68
(g84
g70
NtRp4042
(dp4043
g73
(dp4044
sg82
g3686
sg75
(lp4045
g68
(g89
g70
NtRp4046
(dp4047
g73
(dp4048
g93
g94
ssg82
g4042
sg75
(lp4049
S'google_analytics_id'
p4050
asbag68
(g89
g70
NtRp4051
(dp4052
g73
(dp4053
g100
g101
ssg82
g4042
sg75
(lp4054
S':'
asbag68
(g89
g70
NtRp4055
(dp4056
g73
(dp4057
sg82
g4042
sg75
(lp4058
g68
(g69
g70
NtRp4059
(dp4060
g73
(dp4061
g81
I5
ssg82
g4055
sg75
(lp4062
S'None'
p4063
asbasbasbag68
(g84
g70
NtRp4064
(dp4065
g73
(dp4066
sg82
g3686
sg75
(lp4067
g68
(g89
g70
NtRp4068
(dp4069
g73
(dp4070
g93
g94
ssg82
g4064
sg75
(lp4071
S'headers'
p4072
asbag68
(g89
g70
NtRp4073
(dp4074
g73
(dp4075
g100
g101
ssg82
g4064
sg75
(lp4076
S':'
asbag68
(g89
g70
NtRp4077
(dp4078
g73
(dp4079
sg82
g4064
sg75
(lp4080
g68
(g69
g70
NtRp4081
(dp4082
g73
(dp4083
g81
I5
ssg82
g4077
sg75
(lp4084
g68
(g77
g70
NtRp4085
(dp4086
g73
(dp4087
g81
I4
ssg82
Nsg75
(lp4088
g68
(g84
g70
NtRp4089
(dp4090
g73
(dp4091
sg82
g4085
sg75
(lp4092
g68
(g89
g70
NtRp4093
(dp4094
g73
(dp4095
g93
g94
ssg82
g4089
sg75
(lp4096
S'Cache-Control'
p4097
asbag68
(g89
g70
NtRp4098
(dp4099
g73
(dp4100
g100
g101
ssg82
g4089
sg75
(lp4101
S':'
asbag68
(g89
g70
NtRp4102
(dp4103
g73
(dp4104
sg82
g4089
sg75
(lp4105
g68
(g69
g70
NtRp4106
(dp4107
g73
(dp4108
g81
I4
ssg82
g4102
sg75
(lp4109
S'no-store, no-cache, must-revalidate, post-check=0, pre-check=0'
p4110
asbasbasbag68
(g84
g70
NtRp4111
(dp4112
g73
(dp4113
sg82
g4085
sg75
(lp4114
g68
(g89
g70
NtRp4115
(dp4116
g73
(dp4117
g93
g94
ssg82
g4111
sg75
(lp4118
S'Content-Type'
p4119
asbag68
(g89
g70
NtRp4120
(dp4121
g73
(dp4122
g100
g101
ssg82
g4111
sg75
(lp4123
S':'
asbag68
(g89
g70
NtRp4124
(dp4125
g73
(dp4126
sg82
g4111
sg75
(lp4127
g68
(g69
g70
NtRp4128
(dp4129
g73
(dp4130
g81
I4
ssg82
g4124
sg75
(lp4131
S'text/html; charset=utf-8'
p4132
asbasbasbag68
(g84
g70
NtRp4133
(dp4134
g73
(dp4135
sg82
g4085
sg75
(lp4136
g68
(g89
g70
NtRp4137
(dp4138
g73
(dp4139
g93
g94
ssg82
g4133
sg75
(lp4140
S'Expires'
p4141
asbag68
(g89
g70
NtRp4142
(dp4143
g73
(dp4144
g100
g101
ssg82
g4133
sg75
(lp4145
S':'
asbag68
(g89
g70
NtRp4146
(dp4147
g73
(dp4148
sg82
g4133
sg75
(lp4149
g68
(g69
g70
NtRp4150
(dp4151
g73
(dp4152
g81
I4
ssg82
g4146
sg75
(lp4153
S'Fri, 31 Aug 2012 00:10:10 GMT'
p4154
asbasbasbag68
(g84
g70
NtRp4155
(dp4156
g73
(dp4157
sg82
g4085
sg75
(lp4158
g68
(g89
g70
NtRp4159
(dp4160
g73
(dp4161
g93
g94
ssg82
g4155
sg75
(lp4162
S'Pragma'
p4163
asbag68
(g89
g70
NtRp4164
(dp4165
g73
(dp4166
g100
g101
ssg82
g4155
sg75
(lp4167
S':'
asbag68
(g89
g70
NtRp4168
(dp4169
g73
(dp4170
sg82
g4155
sg75
(lp4171
g68
(g69
g70
NtRp4172
(dp4173
g73
(dp4174
g81
I4
ssg82
g4168
sg75
(lp4175
S'no-cache'
p4176
asbasbasbag68
(g84
g70
NtRp4177
(dp4178
g73
(dp4179
sg82
g4085
sg75
(lp4180
g68
(g89
g70
NtRp4181
(dp4182
g73
(dp4183
g93
g94
ssg82
g4177
sg75
(lp4184
S'X-Powered-By'
p4185
asbag68
(g89
g70
NtRp4186
(dp4187
g73
(dp4188
g100
g101
ssg82
g4177
sg75
(lp4189
S':'
asbag68
(g89
g70
NtRp4190
(dp4191
g73
(dp4192
sg82
g4177
sg75
(lp4193
g68
(g69
g70
NtRp4194
(dp4195
g73
(dp4196
g81
I4
ssg82
g4190
sg75
(lp4197
S'web2py'
p4198
asbasbasbasbasbasbasbag68
(g84
g70
NtRp4199
(dp4200
g73
(dp4201
sg82
g3686
sg75
(lp4202
g68
(g89
g70
NtRp4203
(dp4204
g73
(dp4205
g93
g94
ssg82
g4199
sg75
(lp4206
S'menu'
p4207
asbag68
(g89
g70
NtRp4208
(dp4209
g73
(dp4210
g100
g101
ssg82
g4199
sg75
(lp4211
S':'
asbag68
(g89
g70
NtRp4212
(dp4213
g73
(dp4214
sg82
g4199
sg75
(lp4215
g68
(g69
g70
NtRp4216
(dp4217
g73
(dp4218
g81
I5
ssg82
g4212
sg75
(lp4219
g68
(g77
g70
NtRp4220
(dp4221
g73
(dp4222
g81
I4
ssg82
Nsg75
(lp4223
g68
(g84
g70
NtRp4224
(dp4225
g73
(dp4226
sg82
g4220
sg75
(lp4227
g68
(g89
g70
NtRp4228
(dp4229
g73
(dp4230
sg82
g4224
sg75
(lp4231
g68
(g69
g70
NtRp4232
(dp4233
g73
(dp4234
g81
I4
ssg82
g4228
sg75
(lp4235
g68
(g77
g70
NtRp4236
(dp4237
g73
(dp4238
g81
I3
ssg82
Nsg75
(lp4239
g68
(g84
g70
NtRp4240
(dp4241
g73
(dp4242
sg82
g4236
sg75
(lp4243
g68
(g89
g70
NtRp4244
(dp4245
g73
(dp4246
sg82
g4240
sg75
(lp4247
g68
(g69
g70
NtRp4248
(dp4249
g73
(dp4250
g81
I3
ssg82
g4244
sg75
(lp4251
cgluon.languages
lazyT_unpickle
p4252
(S's\x04\x00\x00\x00Home'
tRp4253
asbasbasbag68
(g84
g70
NtRp4254
(dp4255
g73
(dp4256
sg82
g4236
sg75
(lp4257
g68
(g89
g70
NtRp4258
(dp4259
g73
(dp4260
sg82
g4254
sg75
(lp4261
g68
(g69
g70
NtRp4262
(dp4263
g73
(dp4264
g81
I3
ssg82
g4258
sg75
(lp4265
g111
asbasbasbag68
(g84
g70
NtRp4266
(dp4267
g73
(dp4268
sg82
g4236
sg75
(lp4269
g68
(g89
g70
NtRp4270
(dp4271
g73
(dp4272
sg82
g4266
sg75
(lp4273
g68
(g69
g70
NtRp4274
(dp4275
g73
(dp4276
g81
I3
ssg82
g4270
sg75
(lp4277
S'/FotoBuk/default/index'
p4278
asbasbasbag68
(g84
g70
NtRp4279
(dp4280
g73
(dp4281
sg82
g4236
sg75
(lp4282
g68
(g89
g70
NtRp4283
(dp4284
g73
(dp4285
sg82
g4279
sg75
(lp4286
g68
(g69
g70
NtRp4287
(dp4288
g73
(dp4289
g81
I3
ssg82
g4283
sg75
(lp4290
g68
(g77
g70
NtRp4291
(dp4292
g73
(dp4293
g81
I2
ssg82
Nsg75
(lp4294
sbasbasbasbasbasbasbasbag68
(g84
g70
NtRp4295
(dp4296
g73
(dp4297
sg82
g4220
sg75
(lp4298
g68
(g89
g70
NtRp4299
(dp4300
g73
(dp4301
sg82
g4295
sg75
(lp4302
g68
(g69
g70
NtRp4303
(dp4304
g73
(dp4305
g81
I4
ssg82
g4299
sg75
(lp4306
g68
(g77
g70
NtRp4307
(dp4308
g73
(dp4309
g81
I3
ssg82
Nsg75
(lp4310
g68
(g84
g70
NtRp4311
(dp4312
g73
(dp4313
sg82
g4307
sg75
(lp4314
g68
(g89
g70
NtRp4315
(dp4316
g73
(dp4317
sg82
g4311
sg75
(lp4318
g68
(g69
g70
NtRp4319
(dp4320
g73
(dp4321
g81
I3
ssg82
g4315
sg75
(lp4322
g68
(cgluon.html
SPAN
p4323
g70
NtRp4324
(dp4325
g73
(dp4326
g93
S'color:yellow'
p4327
ssg82
Nsg75
(lp4328
g4198
asbasbasbasbag68
(g84
g70
NtRp4329
(dp4330
g73
(dp4331
sg82
g4307
sg75
(lp4332
g68
(g89
g70
NtRp4333
(dp4334
g73
(dp4335
sg82
g4329
sg75
(lp4336
g68
(g69
g70
NtRp4337
(dp4338
g73
(dp4339
g81
I3
ssg82
g4333
sg75
(lp4340
g111
asbasbasbag68
(g84
g70
NtRp4341
(dp4342
g73
(dp4343
sg82
g4307
sg75
(lp4344
g68
(g89
g70
NtRp4345
(dp4346
g73
(dp4347
sg82
g4341
sg75
(lp4348
g68
(g69
g70
NtRp4349
(dp4350
g73
(dp4351
g81
I3
ssg82
g4345
sg75
(lp4352
S'http://web2py.com'
p4353
asbasbasbag68
(g84
g70
NtRp4354
(dp4355
g73
(dp4356
sg82
g4307
sg75
(lp4357
g68
(g89
g70
NtRp4358
(dp4359
g73
(dp4360
sg82
g4354
sg75
(lp4361
g68
(g69
g70
NtRp4362
(dp4363
g73
(dp4364
g81
I3
ssg82
g4358
sg75
(lp4365
g68
(g77
g70
NtRp4366
(dp4367
g73
(dp4368
g81
I2
ssg82
Nsg75
(lp4369
g68
(g84
g70
NtRp4370
(dp4371
g73
(dp4372
sg82
g4366
sg75
(lp4373
g68
(g89
g70
NtRp4374
(dp4375
g73
(dp4376
sg82
g4370
sg75
(lp4377
g68
(g69
g70
NtRp4378
(dp4379
g73
(dp4380
g81
I2
ssg82
g4374
sg75
(lp4381
g68
(g77
g70
NtRp4382
(dp4383
g73
(dp4384
g81
I1
ssg82
Nsg75
(lp4385
g68
(g84
g70
NtRp4386
(dp4387
g73
(dp4388
sg82
g4382
sg75
(lp4389
g68
(g89
g70
NtRp4390
(dp4391
g73
(dp4392
sg82
g4386
sg75
(lp4393
g68
(g69
g70
NtRp4394
(dp4395
g73
(dp4396
g81
I1
ssg82
g4390
sg75
(lp4397
g4252
(S's\x08\x00\x00\x00My Sites'
tRp4398
asbasbasbag68
(g84
g70
NtRp4399
(dp4400
g73
(dp4401
sg82
g4382
sg75
(lp4402
g68
(g89
g70
NtRp4403
(dp4404
g73
(dp4405
sg82
g4399
sg75
(lp4406
g68
(g69
g70
NtRp4407
(dp4408
g73
(dp4409
g81
I1
ssg82
g4403
sg75
(lp4410
I00
asbasbasbag68
(g84
g70
NtRp4411
(dp4412
g73
(dp4413
sg82
g4382
sg75
(lp4414
g68
(g89
g70
NtRp4415
(dp4416
g73
(dp4417
sg82
g4411
sg75
(lp4418
g68
(g69
g70
NtRp4419
(dp4420
g73
(dp4421
g81
I1
ssg82
g4415
sg75
(lp4422
S'/admin/default/site'
p4423
asbasbasbasbasbasbasbag68
(g84
g70
NtRp4424
(dp4425
g73
(dp4426
sg82
g4366
sg75
(lp4427
g68
(g89
g70
NtRp4428
(dp4429
g73
(dp4430
sg82
g4424
sg75
(lp4431
g68
(g69
g70
NtRp4432
(dp4433
g73
(dp4434
g81
I2
ssg82
g4428
sg75
(lp4435
g68
(g77
g70
NtRp4436
(dp4437
g73
(dp4438
g81
I1
ssg82
Nsg75
(lp4439
g68
(g84
g70
NtRp4440
(dp4441
g73
(dp4442
sg82
g4436
sg75
(lp4443
g68
(g89
g70
NtRp4444
(dp4445
g73
(dp4446
sg82
g4440
sg75
(lp4447
g68
(g69
g70
NtRp4448
(dp4449
g73
(dp4450
g81
I1
ssg82
g4444
sg75
(lp4451
g4252
(S's\x08\x00\x00\x00This App'
tRp4452
asbasbasbag68
(g84
g70
NtRp4453
(dp4454
g73
(dp4455
sg82
g4436
sg75
(lp4456
g68
(g89
g70
NtRp4457
(dp4458
g73
(dp4459
sg82
g4453
sg75
(lp4460
g68
(g69
g70
NtRp4461
(dp4462
g73
(dp4463
g81
I1
ssg82
g4457
sg75
(lp4464
I00
asbasbasbag68
(g84
g70
NtRp4465
(dp4466
g73
(dp4467
sg82
g4436
sg75
(lp4468
g68
(g89
g70
NtRp4469
(dp4470
g73
(dp4471
sg82
g4465
sg75
(lp4472
g68
(g69
g70
NtRp4473
(dp4474
g73
(dp4475
g81
I1
ssg82
g4469
sg75
(lp4476
S'/admin/default/design/FotoBuk'
p4477
asbasbasbag68
(g84
g70
NtRp4478
(dp4479
g73
(dp4480
sg82
g4436
sg75
(lp4481
g68
(g89
g70
NtRp4482
(dp4483
g73
(dp4484
sg82
g4478
sg75
(lp4485
g68
(g69
g70
NtRp4486
(dp4487
g73
(dp4488
g81
I1
ssg82
g4482
sg75
(lp4489
(lp4490
(g4252
(S's\n\x00\x00\x00Controller'
tRp4491
I00
S'/admin/default/edit/FotoBuk/controllers/default.py'
tp4492
a(g4252
(S's\x04\x00\x00\x00View'
tRp4493
I00
S'/admin/default/edit/FotoBuk/views/default/show.html'
tp4494
a(g4252
(S's\x06\x00\x00\x00Layout'
tRp4495
I00
S'/admin/default/edit/FotoBuk/views/layout.html'
tp4496
a(g4252
(S's\n\x00\x00\x00Stylesheet'
tRp4497
I00
S'/admin/default/edit/FotoBuk/static/css/web2py.css'
tp4498
a(g4252
(S's\x08\x00\x00\x00DB Model'
tRp4499
I00
S'/admin/default/edit/FotoBuk/models/db.py'
tp4500
a(g4252
(S's\n\x00\x00\x00Menu Model'
tRp4501
I00
S'/admin/default/edit/FotoBuk/models/menu.py'
tp4502
a(g4252
(S's\x08\x00\x00\x00Database'
tRp4503
I00
S'/FotoBuk/appadmin/index'
tp4504
a(g4252
(S's\x06\x00\x00\x00Errors'
tRp4505
I00
S'/admin/default/errors/FotoBuk'
tp4506
a(g4252
(S's\x05\x00\x00\x00About'
tRp4507
I00
S'/admin/default/about/FotoBuk'
tp4508
aasbasbasbasbasbasbasbag68
(g84
g70
NtRp4509
(dp4510
g73
(dp4511
sg82
g4366
sg75
(lp4512
g68
(g89
g70
NtRp4513
(dp4514
g73
(dp4515
sg82
g4509
sg75
(lp4516
g68
(g69
g70
NtRp4517
(dp4518
g73
(dp4519
g81
I2
ssg82
g4513
sg75
(lp4520
g68
(g77
g70
NtRp4521
(dp4522
g73
(dp4523
g81
I1
ssg82
Nsg75
(lp4524
g68
(g84
g70
NtRp4525
(dp4526
g73
(dp4527
sg82
g4521
sg75
(lp4528
g68
(g89
g70
NtRp4529
(dp4530
g73
(dp4531
sg82
g4525
sg75
(lp4532
g68
(g69
g70
NtRp4533
(dp4534
g73
(dp4535
g81
I1
ssg82
g4529
sg75
(lp4536
S'web2py.com'
p4537
asbasbasbag68
(g84
g70
NtRp4538
(dp4539
g73
(dp4540
sg82
g4521
sg75
(lp4541
g68
(g89
g70
NtRp4542
(dp4543
g73
(dp4544
sg82
g4538
sg75
(lp4545
g68
(g69
g70
NtRp4546
(dp4547
g73
(dp4548
g81
I1
ssg82
g4542
sg75
(lp4549
I00
asbasbasbag68
(g84
g70
NtRp4550
(dp4551
g73
(dp4552
sg82
g4521
sg75
(lp4553
g68
(g89
g70
NtRp4554
(dp4555
g73
(dp4556
sg82
g4550
sg75
(lp4557
g68
(g69
g70
NtRp4558
(dp4559
g73
(dp4560
g81
I1
ssg82
g4554
sg75
(lp4561
S'http://www.web2py.com'
p4562
asbasbasbag68
(g84
g70
NtRp4563
(dp4564
g73
(dp4565
sg82
g4521
sg75
(lp4566
g68
(g89
g70
NtRp4567
(dp4568
g73
(dp4569
sg82
g4563
sg75
(lp4570
g68
(g69
g70
NtRp4571
(dp4572
g73
(dp4573
g81
I1
ssg82
g4567
sg75
(lp4574
(lp4575
(g4252
(S's\x08\x00\x00\x00Download'
tRp4576
I00
S'http://www.web2py.com/examples/default/download'
p4577
tp4578
a(g4252
(S's\x07\x00\x00\x00Support'
tRp4579
I00
S'http://www.web2py.com/examples/default/support'
p4580
tp4581
a(g4252
(S's\x04\x00\x00\x00Demo'
tRp4582
I00
S'http://web2py.com/demo_admin'
p4583
tp4584
a(g4252
(S's\x0e\x00\x00\x00Quick Examples'
tRp4585
I00
S'http://web2py.com/examples/default/examples'
p4586
tp4587
a(g4252
(S's\x03\x00\x00\x00FAQ'
tRp4588
I00
S'http://web2py.com/AlterEgo'
p4589
tp4590
a(g4252
(S's\x06\x00\x00\x00Videos'
tRp4591
I00
S'http://www.web2py.com/examples/default/videos/'
p4592
tp4593
a(g4252
(S's\x11\x00\x00\x00Free Applications'
tRp4594
I00
S'http://web2py.com/appliances'
p4595
tp4596
a(g4252
(S's\x07\x00\x00\x00Plugins'
tRp4597
I00
S'http://web2py.com/plugins'
p4598
tp4599
a(g4252
(S's\x07\x00\x00\x00Layouts'
tRp4600
I00
S'http://web2py.com/layouts'
p4601
tp4602
a(g4252
(S's\x07\x00\x00\x00Recipes'
tRp4603
I00
S'http://web2pyslices.com/'
p4604
tp4605
a(g4252
(S's\x08\x00\x00\x00Semantic'
tRp4606
I00
S'http://web2py.com/semantic'
p4607
tp4608
aasbasbasbasbasbasbasbag68
(g84
g70
NtRp4609
(dp4610
g73
(dp4611
sg82
g4366
sg75
(lp4612
g68
(g89
g70
NtRp4613
(dp4614
g73
(dp4615
sg82
g4609
sg75
(lp4616
g68
(g69
g70
NtRp4617
(dp4618
g73
(dp4619
g81
I2
ssg82
g4613
sg75
(lp4620
g68
(g77
g70
NtRp4621
(dp4622
g73
(dp4623
g81
I1
ssg82
Nsg75
(lp4624
g68
(g84
g70
NtRp4625
(dp4626
g73
(dp4627
sg82
g4621
sg75
(lp4628
g68
(g89
g70
NtRp4629
(dp4630
g73
(dp4631
sg82
g4625
sg75
(lp4632
g68
(g69
g70
NtRp4633
(dp4634
g73
(dp4635
g81
I1
ssg82
g4629
sg75
(lp4636
g4252
(S's\r\x00\x00\x00Documentation'
tRp4637
asbasbasbag68
(g84
g70
NtRp4638
(dp4639
g73
(dp4640
sg82
g4621
sg75
(lp4641
g68
(g89
g70
NtRp4642
(dp4643
g73
(dp4644
sg82
g4638
sg75
(lp4645
g68
(g69
g70
NtRp4646
(dp4647
g73
(dp4648
g81
I1
ssg82
g4642
sg75
(lp4649
I00
asbasbasbag68
(g84
g70
NtRp4650
(dp4651
g73
(dp4652
sg82
g4621
sg75
(lp4653
g68
(g89
g70
NtRp4654
(dp4655
g73
(dp4656
sg82
g4650
sg75
(lp4657
g68
(g69
g70
NtRp4658
(dp4659
g73
(dp4660
g81
I1
ssg82
g4654
sg75
(lp4661
S'http://www.web2py.com/book'
p4662
asbasbasbag68
(g84
g70
NtRp4663
(dp4664
g73
(dp4665
sg82
g4621
sg75
(lp4666
g68
(g89
g70
NtRp4667
(dp4668
g73
(dp4669
sg82
g4663
sg75
(lp4670
g68
(g69
g70
NtRp4671
(dp4672
g73
(dp4673
g81
I1
ssg82
g4667
sg75
(lp4674
(lp4675
(g4252
(S's\x07\x00\x00\x00Preface'
tRp4676
I00
S'http://www.web2py.com/book/default/chapter/00'
p4677
tp4678
a(g4252
(S's\x0c\x00\x00\x00Introduction'
tRp4679
I00
S'http://www.web2py.com/book/default/chapter/01'
p4680
tp4681
a(g4252
(S's\x06\x00\x00\x00Python'
tRp4682
I00
S'http://www.web2py.com/book/default/chapter/02'
p4683
tp4684
a(g4252
(S's\x08\x00\x00\x00Overview'
tRp4685
I00
S'http://www.web2py.com/book/default/chapter/03'
p4686
tp4687
a(g4252
(S's\x08\x00\x00\x00The Core'
tRp4688
I00
S'http://www.web2py.com/book/default/chapter/04'
p4689
tp4690
a(g4252
(S's\t\x00\x00\x00The Views'
tRp4691
I00
S'http://www.web2py.com/book/default/chapter/05'
p4692
tp4693
a(g4252
(S's\x08\x00\x00\x00Database'
tRp4694
I00
S'http://www.web2py.com/book/default/chapter/06'
p4695
tp4696
a(g4252
(S's\x14\x00\x00\x00Forms and Validators'
tRp4697
I00
S'http://www.web2py.com/book/default/chapter/07'
p4698
tp4699
a(g4252
(S's\r\x00\x00\x00Email and SMS'
tRp4700
I00
S'http://www.web2py.com/book/default/chapter/08'
p4701
tp4702
a(g4252
(S's\x0e\x00\x00\x00Access Control'
tRp4703
I00
S'http://www.web2py.com/book/default/chapter/09'
p4704
tp4705
a(g4252
(S's\x08\x00\x00\x00Services'
tRp4706
I00
S'http://www.web2py.com/book/default/chapter/10'
p4707
tp4708
a(g4252
(S's\x0c\x00\x00\x00Ajax Recipes'
tRp4709
I00
S'http://www.web2py.com/book/default/chapter/11'
p4710
tp4711
a(g4252
(S's\x16\x00\x00\x00Components and Plugins'
tRp4712
I00
S'http://www.web2py.com/book/default/chapter/12'
p4713
tp4714
a(g4252
(S's\x12\x00\x00\x00Deployment Recipes'
tRp4715
I00
S'http://www.web2py.com/book/default/chapter/13'
p4716
tp4717
a(g4252
(S's\r\x00\x00\x00Other Recipes'
tRp4718
I00
S'http://www.web2py.com/book/default/chapter/14'
p4719
tp4720
a(g4252
(S's\r\x00\x00\x00Buy this book'
tRp4721
I00
S'http://stores.lulu.com/web2py'
p4722
tp4723
aasbasbasbasbasbasbasbag68
(g84
g70
NtRp4724
(dp4725
g73
(dp4726
sg82
g4366
sg75
(lp4727
g68
(g89
g70
NtRp4728
(dp4729
g73
(dp4730
sg82
g4724
sg75
(lp4731
g68
(g69
g70
NtRp4732
(dp4733
g73
(dp4734
g81
I2
ssg82
g4728
sg75
(lp4735
g68
(g77
g70
NtRp4736
(dp4737
g73
(dp4738
g81
I1
ssg82
Nsg75
(lp4739
g68
(g84
g70
NtRp4740
(dp4741
g73
(dp4742
sg82
g4736
sg75
(lp4743
g68
(g89
g70
NtRp4744
(dp4745
g73
(dp4746
sg82
g4740
sg75
(lp4747
g68
(g69
g70
NtRp4748
(dp4749
g73
(dp4750
g81
I1
ssg82
g4744
sg75
(lp4751
g4252
(S's\t\x00\x00\x00Community'
tRp4752
asbasbasbag68
(g84
g70
NtRp4753
(dp4754
g73
(dp4755
sg82
g4736
sg75
(lp4756
g68
(g89
g70
NtRp4757
(dp4758
g73
(dp4759
sg82
g4753
sg75
(lp4760
g68
(g69
g70
NtRp4761
(dp4762
g73
(dp4763
g81
I1
ssg82
g4757
sg75
(lp4764
I00
asbasbasbag68
(g84
g70
NtRp4765
(dp4766
g73
(dp4767
sg82
g4736
sg75
(lp4768
g68
(g89
g70
NtRp4769
(dp4770
g73
(dp4771
sg82
g4765
sg75
(lp4772
g68
(g69
g70
NtRp4773
(dp4774
g73
(dp4775
g81
I1
ssg82
g4769
sg75
(lp4776
Nasbasbasbag68
(g84
g70
NtRp4777
(dp4778
g73
(dp4779
sg82
g4736
sg75
(lp4780
g68
(g89
g70
NtRp4781
(dp4782
g73
(dp4783
sg82
g4777
sg75
(lp4784
g68
(g69
g70
NtRp4785
(dp4786
g73
(dp4787
g81
I1
ssg82
g4781
sg75
(lp4788
(lp4789
(g4252
(S's\x06\x00\x00\x00Groups'
tRp4790
I00
S'http://www.web2py.com/examples/default/usergroups'
p4791
tp4792
a(g4252
(S's\x07\x00\x00\x00Twitter'
tRp4793
I00
S'http://twitter.com/web2py'
p4794
tp4795
a(g4252
(S's\t\x00\x00\x00Live Chat'
tRp4796
I00
S'http://webchat.freenode.net/?channels=web2py'
p4797
tp4798
aasbasbasbasbasbasbasbag68
(g84
g70
NtRp4799
(dp4800
g73
(dp4801
sg82
g4366
sg75
(lp4802
g68
(g89
g70
NtRp4803
(dp4804
g73
(dp4805
sg82
g4799
sg75
(lp4806
g68
(g69
g70
NtRp4807
(dp4808
g73
(dp4809
g81
I2
ssg82
g4803
sg75
(lp4810
g68
(g77
g70
NtRp4811
(dp4812
g73
(dp4813
g81
I1
ssg82
Nsg75
(lp4814
g68
(g84
g70
NtRp4815
(dp4816
g73
(dp4817
sg82
g4811
sg75
(lp4818
g68
(g89
g70
NtRp4819
(dp4820
g73
(dp4821
sg82
g4815
sg75
(lp4822
g68
(g69
g70
NtRp4823
(dp4824
g73
(dp4825
g81
I1
ssg82
g4819
sg75
(lp4826
g4252
(S's\x07\x00\x00\x00Plugins'
tRp4827
asbasbasbag68
(g84
g70
NtRp4828
(dp4829
g73
(dp4830
sg82
g4811
sg75
(lp4831
g68
(g89
g70
NtRp4832
(dp4833
g73
(dp4834
sg82
g4828
sg75
(lp4835
g68
(g69
g70
NtRp4836
(dp4837
g73
(dp4838
g81
I1
ssg82
g4832
sg75
(lp4839
I00
asbasbasbag68
(g84
g70
NtRp4840
(dp4841
g73
(dp4842
sg82
g4811
sg75
(lp4843
g68
(g89
g70
NtRp4844
(dp4845
g73
(dp4846
sg82
g4840
sg75
(lp4847
g68
(g69
g70
NtRp4848
(dp4849
g73
(dp4850
g81
I1
ssg82
g4844
sg75
(lp4851
Nasbasbasbag68
(g84
g70
NtRp4852
(dp4853
g73
(dp4854
sg82
g4811
sg75
(lp4855
g68
(g89
g70
NtRp4856
(dp4857
g73
(dp4858
sg82
g4852
sg75
(lp4859
g68
(g69
g70
NtRp4860
(dp4861
g73
(dp4862
g81
I1
ssg82
g4856
sg75
(lp4863
(lp4864
(S'plugin_wiki'
p4865
I00
S'http://web2py.com/examples/default/download'
p4866
tp4867
a(g4252
(S's\r\x00\x00\x00Other Plugins'
tRp4868
I00
g4598
tp4869
a(g4252
(S's\x0e\x00\x00\x00Layout Plugins'
tRp4870
I00
g4601
tp4871
aasbasbasbasbasbasbasbasbasbasbasbasbasbasbasbasbasbasbasbag68
(g84
g70
NtRp4872
(dp4873
g73
(dp4874
sg82
g3686
sg75
(lp4875
g68
(g89
g70
NtRp4876
(dp4877
g73
(dp4878
g93
g94
ssg82
g4872
sg75
(lp4879
S'meta'
p4880
asbag68
(g89
g70
NtRp4881
(dp4882
g73
(dp4883
g100
g101
ssg82
g4872
sg75
(lp4884
S':'
asbag68
(g89
g70
NtRp4885
(dp4886
g73
(dp4887
sg82
g4872
sg75
(lp4888
g68
(g69
g70
NtRp4889
(dp4890
g73
(dp4891
g81
I5
ssg82
g4885
sg75
(lp4892
g68
(g77
g70
NtRp4893
(dp4894
g73
(dp4895
g81
I4
ssg82
Nsg75
(lp4896
g68
(g84
g70
NtRp4897
(dp4898
g73
(dp4899
sg82
g4893
sg75
(lp4900
g68
(g89
g70
NtRp4901
(dp4902
g73
(dp4903
g93
g94
ssg82
g4897
sg75
(lp4904
S'author'
p4905
asbag68
(g89
g70
NtRp4906
(dp4907
g73
(dp4908
g100
g101
ssg82
g4897
sg75
(lp4909
S':'
asbag68
(g89
g70
NtRp4910
(dp4911
g73
(dp4912
sg82
g4897
sg75
(lp4913
g68
(g69
g70
NtRp4914
(dp4915
g73
(dp4916
g81
I4
ssg82
g4910
sg75
(lp4917
S'Your Name <you@example.com>'
p4918
asbasbasbag68
(g84
g70
NtRp4919
(dp4920
g73
(dp4921
sg82
g4893
sg75
(lp4922
g68
(g89
g70
NtRp4923
(dp4924
g73
(dp4925
g93
g94
ssg82
g4919
sg75
(lp4926
S'description'
p4927
asbag68
(g89
g70
NtRp4928
(dp4929
g73
(dp4930
g100
g101
ssg82
g4919
sg75
(lp4931
S':'
asbag68
(g89
g70
NtRp4932
(dp4933
g73
(dp4934
sg82
g4919
sg75
(lp4935
g68
(g69
g70
NtRp4936
(dp4937
g73
(dp4938
g81
I4
ssg82
g4932
sg75
(lp4939
S'a cool new app'
p4940
asbasbasbag68
(g84
g70
NtRp4941
(dp4942
g73
(dp4943
sg82
g4893
sg75
(lp4944
g68
(g89
g70
NtRp4945
(dp4946
g73
(dp4947
g93
g94
ssg82
g4941
sg75
(lp4948
S'generator'
p4949
asbag68
(g89
g70
NtRp4950
(dp4951
g73
(dp4952
g100
g101
ssg82
g4941
sg75
(lp4953
S':'
asbag68
(g89
g70
NtRp4954
(dp4955
g73
(dp4956
sg82
g4941
sg75
(lp4957
g68
(g69
g70
NtRp4958
(dp4959
g73
(dp4960
g81
I4
ssg82
g4954
sg75
(lp4961
S'Web2py Web Framework'
p4962
asbasbasbag68
(g84
g70
NtRp4963
(dp4964
g73
(dp4965
sg82
g4893
sg75
(lp4966
g68
(g89
g70
NtRp4967
(dp4968
g73
(dp4969
g93
g94
ssg82
g4963
sg75
(lp4970
S'keywords'
p4971
asbag68
(g89
g70
NtRp4972
(dp4973
g73
(dp4974
g100
g101
ssg82
g4963
sg75
(lp4975
S':'
asbag68
(g89
g70
NtRp4976
(dp4977
g73
(dp4978
sg82
g4963
sg75
(lp4979
g68
(g69
g70
NtRp4980
(dp4981
g73
(dp4982
g81
I4
ssg82
g4976
sg75
(lp4983
S'web2py, python, framework'
p4984
asbasbasbasbasbasbasbag68
(g84
g70
NtRp4985
(dp4986
g73
(dp4987
sg82
g3686
sg75
(lp4988
g68
(g89
g70
NtRp4989
(dp4990
g73
(dp4991
g93
g94
ssg82
g4985
sg75
(lp4992
S'postprocessing'
p4993
asbag68
(g89
g70
NtRp4994
(dp4995
g73
(dp4996
g100
g101
ssg82
g4985
sg75
(lp4997
S':'
asbag68
(g89
g70
NtRp4998
(dp4999
g73
(dp5000
sg82
g4985
sg75
(lp5001
g68
(g69
g70
NtRp5002
(dp5003
g73
(dp5004
g81
I5
ssg82
g4998
sg75
(lp5005
g68
(g77
g70
NtRp5006
(dp5007
g73
(dp5008
g81
I4
ssg82
Nsg75
(lp5009
sbasbasbasbag68
(g84
g70
NtRp5010
(dp5011
g73
(dp5012
sg82
g3686
sg75
(lp5013
g68
(g89
g70
NtRp5014
(dp5015
g73
(dp5016
g93
g94
ssg82
g5010
sg75
(lp5017
S'session_file'
p5018
asbag68
(g89
g70
NtRp5019
(dp5020
g73
(dp5021
g100
g101
ssg82
g5010
sg75
(lp5022
S':'
asbag68
(g89
g70
NtRp5023
(dp5024
g73
(dp5025
sg82
g5010
sg75
(lp5026
g68
(g69
g70
NtRp5027
(dp5028
g73
(dp5029
g81
I5
ssg82
g5023
sg75
(lp5030
S"<open file '/home/piyush/web2py/applications/FotoBuk/sessions/127.0.0.1-961e4bc4-dc07-4e6c-b9f7-52a46e56ffd5', mode 'rb+' at 0x8fc0338>"
p5031
asbasbasbag68
(g84
g70
NtRp5032
(dp5033
g73
(dp5034
sg82
g3686
sg75
(lp5035
g68
(g89
g70
NtRp5036
(dp5037
g73
(dp5038
g93
g94
ssg82
g5032
sg75
(lp5039
S'session_filename'
p5040
asbag68
(g89
g70
NtRp5041
(dp5042
g73
(dp5043
g100
g101
ssg82
g5032
sg75
(lp5044
S':'
asbag68
(g89
g70
NtRp5045
(dp5046
g73
(dp5047
sg82
g5032
sg75
(lp5048
g68
(g69
g70
NtRp5049
(dp5050
g73
(dp5051
g81
I5
ssg82
g5045
sg75
(lp5052
S'/home/piyush/web2py/applications/FotoBuk/sessions/127.0.0.1-961e4bc4-dc07-4e6c-b9f7-52a46e56ffd5'
p5053
asbasbasbag68
(g84
g70
NtRp5054
(dp5055
g73
(dp5056
sg82
g3686
sg75
(lp5057
g68
(g89
g70
NtRp5058
(dp5059
g73
(dp5060
g93
g94
ssg82
g5054
sg75
(lp5061
S'session_id'
p5062
asbag68
(g89
g70
NtRp5063
(dp5064
g73
(dp5065
g100
g101
ssg82
g5054
sg75
(lp5066
S':'
asbag68
(g89
g70
NtRp5067
(dp5068
g73
(dp5069
sg82
g5054
sg75
(lp5070
g68
(g69
g70
NtRp5071
(dp5072
g73
(dp5073
g81
I5
ssg82
g5067
sg75
(lp5074
g498
asbasbasbag68
(g84
g70
NtRp5075
(dp5076
g73
(dp5077
sg82
g3686
sg75
(lp5078
g68
(g89
g70
NtRp5079
(dp5080
g73
(dp5081
g93
g94
ssg82
g5075
sg75
(lp5082
S'session_id_name'
p5083
asbag68
(g89
g70
NtRp5084
(dp5085
g73
(dp5086
g100
g101
ssg82
g5075
sg75
(lp5087
S':'
asbag68
(g89
g70
NtRp5088
(dp5089
g73
(dp5090
sg82
g5075
sg75
(lp5091
g68
(g69
g70
NtRp5092
(dp5093
g73
(dp5094
g81
I5
ssg82
g5088
sg75
(lp5095
g3743
asbasbasbag68
(g84
g70
NtRp5096
(dp5097
g73
(dp5098
sg82
g3686
sg75
(lp5099
g68
(g89
g70
NtRp5100
(dp5101
g73
(dp5102
g93
g94
ssg82
g5096
sg75
(lp5103
S'session_locked'
p5104
asbag68
(g89
g70
NtRp5105
(dp5106
g73
(dp5107
g100
g101
ssg82
g5096
sg75
(lp5108
S':'
asbag68
(g89
g70
NtRp5109
(dp5110
g73
(dp5111
sg82
g5096
sg75
(lp5112
g68
(g69
g70
NtRp5113
(dp5114
g73
(dp5115
g81
I5
ssg82
g5109
sg75
(lp5116
g1867
asbasbasbag68
(g84
g70
NtRp5117
(dp5118
g73
(dp5119
sg82
g3686
sg75
(lp5120
g68
(g89
g70
NtRp5121
(dp5122
g73
(dp5123
g93
g94
ssg82
g5117
sg75
(lp5124
S'session_new'
p5125
asbag68
(g89
g70
NtRp5126
(dp5127
g73
(dp5128
g100
g101
ssg82
g5117
sg75
(lp5129
S':'
asbag68
(g89
g70
NtRp5130
(dp5131
g73
(dp5132
sg82
g5117
sg75
(lp5133
g68
(g69
g70
NtRp5134
(dp5135
g73
(dp5136
g81
I5
ssg82
g5130
sg75
(lp5137
g111
asbasbasbag68
(g84
g70
NtRp5138
(dp5139
g73
(dp5140
sg82
g3686
sg75
(lp5141
g68
(g89
g70
NtRp5142
(dp5143
g73
(dp5144
g93
g94
ssg82
g5138
sg75
(lp5145
S'status'
p5146
asbag68
(g89
g70
NtRp5147
(dp5148
g73
(dp5149
g100
g101
ssg82
g5138
sg75
(lp5150
S':'
asbag68
(g89
g70
NtRp5151
(dp5152
g73
(dp5153
sg82
g5138
sg75
(lp5154
g68
(g69
g70
NtRp5155
(dp5156
g73
(dp5157
g81
I5
ssg82
g5151
sg75
(lp5158
S'200'
p5159
asbasbasbag68
(g84
g70
NtRp5160
(dp5161
g73
(dp5162
sg82
g3686
sg75
(lp5163
g68
(g89
g70
NtRp5164
(dp5165
g73
(dp5166
g93
g94
ssg82
g5160
sg75
(lp5167
S'subtitle'
p5168
asbag68
(g89
g70
NtRp5169
(dp5170
g73
(dp5171
g100
g101
ssg82
g5160
sg75
(lp5172
S':'
asbag68
(g89
g70
NtRp5173
(dp5174
g73
(dp5175
sg82
g5160
sg75
(lp5176
g68
(g69
g70
NtRp5177
(dp5178
g73
(dp5179
g81
I5
ssg82
g5173
sg75
(lp5180
g4252
(S's\r\x00\x00\x00customize me!'
tRp5181
asbasbasbag68
(g84
g70
NtRp5182
(dp5183
g73
(dp5184
sg82
g3686
sg75
(lp5185
g68
(g89
g70
NtRp5186
(dp5187
g73
(dp5188
g93
g94
ssg82
g5182
sg75
(lp5189
S'title'
p5190
asbag68
(g89
g70
NtRp5191
(dp5192
g73
(dp5193
g100
g101
ssg82
g5182
sg75
(lp5194
S':'
asbag68
(g89
g70
NtRp5195
(dp5196
g73
(dp5197
sg82
g5182
sg75
(lp5198
g68
(g69
g70
NtRp5199
(dp5200
g73
(dp5201
g81
I5
ssg82
g5195
sg75
(lp5202
S'Fotobuk'
p5203
asbasbasbag68
(g84
g70
NtRp5204
(dp5205
g73
(dp5206
sg82
g3686
sg75
(lp5207
g68
(g89
g70
NtRp5208
(dp5209
g73
(dp5210
g93
g94
ssg82
g5204
sg75
(lp5211
S'view'
p5212
asbag68
(g89
g70
NtRp5213
(dp5214
g73
(dp5215
g100
g101
ssg82
g5204
sg75
(lp5216
S':'
asbag68
(g89
g70
NtRp5217
(dp5218
g73
(dp5219
sg82
g5204
sg75
(lp5220
g68
(g69
g70
NtRp5221
(dp5222
g73
(dp5223
g81
I5
ssg82
g5217
sg75
(lp5224
S'default/show.html'
p5225
asbasbasbasbasbsS'locals'
p5226
(dp5227
g4
S"'/home/piyush/web2py/applications/FotoBuk/views/default/show.html'"
p5228
sg6
S'r"response.write(\'<!DOCTYPE html>\\r\\n<!-- pauliris...ript>  \\r\\n</body>\\r\\n</html>\\r\\n\', escape=False)"'
p5229
sssS'traceback'
p5230
S'Traceback (most recent call last):\n  File "/home/piyush/web2py/gluon/restricted.py", line 208, in restricted\n    ccode = compile2(code,layer)\n  File "/home/piyush/web2py/gluon/restricted.py", line 193, in compile2\n    return compile(code.rstrip().replace(\'\\r\\n\',\'\\n\')+\'\\n\', layer, \'exec\')\n  File "/home/piyush/web2py/applications/FotoBuk/views/default/show.html", line 95\n    if !flag :\n       ^\nSyntaxError: invalid syntax\n'
p5231
s.