(dp1
S'output'
p2
S'<class \'sqlite3.OperationalError\'> near ")": syntax error'
p3
sS'layer'
p4
S'/home/piyush/web2py/applications/FotoBuk/controllers/default.py'
p5
sS'code'
p6
S"@auth.requires_login()\ndef index():\n\tli=db(db.image).select()\n\treturn dict(li=li)\n\n@auth.requires_login()\ndef insert():\n    db.image.author.default=auth.user.first_name\n    db.image.author_id=auth.user_id\n    form=SQLFORM(db.image)\n    if form.process().accepted:\n        response.flash = 'your image is posted'\n    return dict(form=form)\n\n@auth.requires_login()\ndef show():\n    flag=0\n    image = db(db.image.id==request.args(0)).select().first()\n    db.comment.image_id.default = image.id\n    cur_user=auth.user_id\n    form = SQLFORM(db.comment)\n    likes =db(db.like.like_id==image.id).select()\n    for lik in likes:\n\t    if int(cur_user) == int(lik.liker):\n\t\t    flag=1\n    print flag\n    form2 = SQLFORM(db.like)\n    if form2.process().accepted and flag==0:\n\t#response.flash = 'You have liked the image'\n    \tdb.like.insert(likername=auth.user.first_name,liker=auth.user_id,like_id=image.id)\n    if form.process().accepted:\n        response.flash = 'your comment is posted'\n    comments = db(db.comment.image_id==image.id).select()\n    return dict(cur_user=cur_user,flag=flag,image=image, comments=comments, likes=likes, form=form, form2=form2)\n\ndef delete():\n    image = db(db.image.id==request.args(0)).select()\n\ndef user():\n\treturn dict(form=auth())\n\ndef download():\n\treturn response.download(request,db)\n\nresponse._vars=response._caller(show)\n"
p7
sS'snapshot'
p8
(dp9
S'exception'
p10
(dp11
S'__module__'
p12
S"'sqlite3'"
p13
sS'__getslice__'
p14
S"<method-wrapper '__getslice__' of OperationalError object>"
p15
sS'__str__'
p16
S"<method-wrapper '__str__' of OperationalError object>"
p17
sS'__reduce__'
p18
S'<built-in method __reduce__ of OperationalError object>'
p19
sS'__dict__'
p20
S'{}'
p21
sS'__sizeof__'
p22
S'<built-in method __sizeof__ of OperationalError object>'
p23
sS'__weakref__'
p24
S'None'
p25
sS'__init__'
p26
S"<method-wrapper '__init__' of OperationalError object>"
p27
sS'__setattr__'
p28
S"<method-wrapper '__setattr__' of OperationalError object>"
p29
sS'__reduce_ex__'
p30
S'<built-in method __reduce_ex__ of OperationalError object>'
p31
sS'__new__'
p32
S'<built-in method __new__ of type object>'
p33
sS'__format__'
p34
S'<built-in method __format__ of OperationalError object>'
p35
sS'__class__'
p36
S"<class 'sqlite3.OperationalError'>"
p37
sS'__doc__'
p38
S'None'
p39
sS'__getitem__'
p40
S"<method-wrapper '__getitem__' of OperationalError object>"
p41
sS'__setstate__'
p42
S'<built-in method __setstate__ of OperationalError object>'
p43
sS'__getattribute__'
p44
S"<method-wrapper '__getattribute__' of OperationalError object>"
p45
sS'args'
p46
S'(\'near ")": syntax error\',)'
p47
sS'__subclasshook__'
p48
S'<built-in method __subclasshook__ of type object>'
p49
sS'__unicode__'
p50
S'<built-in method __unicode__ of OperationalError object>'
p51
sS'__delattr__'
p52
S"<method-wrapper '__delattr__' of OperationalError object>"
p53
sS'__repr__'
p54
S"<method-wrapper '__repr__' of OperationalError object>"
p55
sS'__hash__'
p56
S"<method-wrapper '__hash__' of OperationalError object>"
p57
ssS'evalue'
p58
S'near ")": syntax error'
p59
sS'request'
p60
ccopy_reg
_reconstructor
p61
(cgluon.html
BEAUTIFY
p62
c__builtin__
object
p63
NtRp64
(dp65
S'attributes'
p66
(dp67
sS'components'
p68
(lp69
g61
(cgluon.html
TABLE
p70
g63
NtRp71
(dp72
g66
(dp73
S'level'
p74
I5
ssS'parent'
p75
Nsg68
(lp76
g61
(cgluon.html
TR
p77
g63
NtRp78
(dp79
g66
(dp80
sg75
g71
sg68
(lp81
g61
(cgluon.html
TD
p82
g63
NtRp83
(dp84
g66
(dp85
S'_style'
p86
S'font-weight:bold;vertical-align:top'
p87
ssg75
g78
sg68
(lp88
S'ajax'
p89
asbag61
(g82
g63
NtRp90
(dp91
g66
(dp92
S'_valign'
p93
S'top'
p94
ssg75
g78
sg68
(lp95
S':'
asbag61
(g82
g63
NtRp96
(dp97
g66
(dp98
sg75
g78
sg68
(lp99
g61
(g62
g63
NtRp100
(dp101
g66
(dp102
g74
I5
ssg75
g96
sg68
(lp103
S'False'
p104
asbasbasbag61
(g77
g63
NtRp105
(dp106
g66
(dp107
sg75
g71
sg68
(lp108
g61
(g82
g63
NtRp109
(dp110
g66
(dp111
g86
g87
ssg75
g105
sg68
(lp112
S'application'
p113
asbag61
(g82
g63
NtRp114
(dp115
g66
(dp116
g93
g94
ssg75
g105
sg68
(lp117
S':'
asbag61
(g82
g63
NtRp118
(dp119
g66
(dp120
sg75
g105
sg68
(lp121
g61
(g62
g63
NtRp122
(dp123
g66
(dp124
g74
I5
ssg75
g118
sg68
(lp125
S'FotoBuk'
p126
asbasbasbag61
(g77
g63
NtRp127
(dp128
g66
(dp129
sg75
g71
sg68
(lp130
g61
(g82
g63
NtRp131
(dp132
g66
(dp133
g86
g87
ssg75
g127
sg68
(lp134
g46
asbag61
(g82
g63
NtRp135
(dp136
g66
(dp137
g93
g94
ssg75
g127
sg68
(lp138
S':'
asbag61
(g82
g63
NtRp139
(dp140
g66
(dp141
sg75
g127
sg68
(lp142
g61
(g62
g63
NtRp143
(dp144
g66
(dp145
g74
I5
ssg75
g139
sg68
(lp146
g61
(g70
g63
NtRp147
(dp148
g66
(dp149
g74
I4
ssg75
Nsg68
(lp150
g61
(g77
g63
NtRp151
(dp152
g66
(dp153
sg75
g147
sg68
(lp154
g61
(g82
g63
NtRp155
(dp156
g66
(dp157
sg75
g151
sg68
(lp158
g61
(g62
g63
NtRp159
(dp160
g66
(dp161
g74
I4
ssg75
g155
sg68
(lp162
S'6'
asbasbasbasbasbasbasbag61
(g77
g63
NtRp163
(dp164
g66
(dp165
sg75
g71
sg68
(lp166
g61
(g82
g63
NtRp167
(dp168
g66
(dp169
g86
g87
ssg75
g163
sg68
(lp170
S'body'
p171
asbag61
(g82
g63
NtRp172
(dp173
g66
(dp174
g93
g94
ssg75
g163
sg68
(lp175
S':'
asbag61
(g82
g63
NtRp176
(dp177
g66
(dp178
sg75
g163
sg68
(lp179
g61
(g62
g63
NtRp180
(dp181
g66
(dp182
g74
I5
ssg75
g176
sg68
(lp183
S"<open file '<fdopen>', mode 'w+b' at 0xaf024548>"
p184
asbasbasbag61
(g77
g63
NtRp185
(dp186
g66
(dp187
sg75
g71
sg68
(lp188
g61
(g82
g63
NtRp189
(dp190
g66
(dp191
g86
g87
ssg75
g185
sg68
(lp192
S'cid'
p193
asbag61
(g82
g63
NtRp194
(dp195
g66
(dp196
g93
g94
ssg75
g185
sg68
(lp197
S':'
asbag61
(g82
g63
NtRp198
(dp199
g66
(dp200
sg75
g185
sg68
(lp201
g61
(g62
g63
NtRp202
(dp203
g66
(dp204
g74
I5
ssg75
g198
sg68
(lp205
S'None'
p206
asbasbasbag61
(g77
g63
NtRp207
(dp208
g66
(dp209
sg75
g71
sg68
(lp210
g61
(g82
g63
NtRp211
(dp212
g66
(dp213
g86
g87
ssg75
g207
sg68
(lp214
S'client'
p215
asbag61
(g82
g63
NtRp216
(dp217
g66
(dp218
g93
g94
ssg75
g207
sg68
(lp219
S':'
asbag61
(g82
g63
NtRp220
(dp221
g66
(dp222
sg75
g207
sg68
(lp223
g61
(g62
g63
NtRp224
(dp225
g66
(dp226
g74
I5
ssg75
g220
sg68
(lp227
S'127.0.0.1'
p228
asbasbasbag61
(g77
g63
NtRp229
(dp230
g66
(dp231
sg75
g71
sg68
(lp232
g61
(g82
g63
NtRp233
(dp234
g66
(dp235
g86
g87
ssg75
g229
sg68
(lp236
S'controller'
p237
asbag61
(g82
g63
NtRp238
(dp239
g66
(dp240
g93
g94
ssg75
g229
sg68
(lp241
S':'
asbag61
(g82
g63
NtRp242
(dp243
g66
(dp244
sg75
g229
sg68
(lp245
g61
(g62
g63
NtRp246
(dp247
g66
(dp248
g74
I5
ssg75
g242
sg68
(lp249
S'default'
p250
asbasbasbag61
(g77
g63
NtRp251
(dp252
g66
(dp253
sg75
g71
sg68
(lp254
g61
(g82
g63
NtRp255
(dp256
g66
(dp257
g86
g87
ssg75
g251
sg68
(lp258
S'cookies'
p259
asbag61
(g82
g63
NtRp260
(dp261
g66
(dp262
g93
g94
ssg75
g251
sg68
(lp263
S':'
asbag61
(g82
g63
NtRp264
(dp265
g66
(dp266
sg75
g251
sg68
(lp267
g61
(g62
g63
NtRp268
(dp269
g66
(dp270
g74
I5
ssg75
g264
sg68
(lp271
g61
(g70
g63
NtRp272
(dp273
g66
(dp274
g74
I4
ssg75
Nsg68
(lp275
g61
(g77
g63
NtRp276
(dp277
g66
(dp278
sg75
g272
sg68
(lp279
g61
(g82
g63
NtRp280
(dp281
g66
(dp282
g86
g87
ssg75
g276
sg68
(lp283
S'session_id_admin'
p284
asbag61
(g82
g63
NtRp285
(dp286
g66
(dp287
g93
g94
ssg75
g276
sg68
(lp288
S':'
asbag61
(g82
g63
NtRp289
(dp290
g66
(dp291
sg75
g276
sg68
(lp292
g61
(g62
g63
NtRp293
(dp294
g66
(dp295
g74
I4
ssg75
g289
sg68
(lp296
S'127.0.0.1-f31a16a6-2f0e-474e-b0b5-7ca781ebd64d'
p297
ag61
(g70
g63
NtRp298
(dp299
g66
(dp300
g74
I3
ssg75
Nsg68
(lp301
g61
(g77
g63
NtRp302
(dp303
g66
(dp304
sg75
g298
sg68
(lp305
g61
(g82
g63
NtRp306
(dp307
g66
(dp308
g86
g87
ssg75
g302
sg68
(lp309
S'comment'
p310
asbag61
(g82
g63
NtRp311
(dp312
g66
(dp313
g93
g94
ssg75
g302
sg68
(lp314
S':'
asbag61
(g82
g63
NtRp315
(dp316
g66
(dp317
sg75
g302
sg68
(lp318
g61
(g62
g63
NtRp319
(dp320
g66
(dp321
g74
I3
ssg75
g315
sg68
(lp322
S''
asbasbasbag61
(g77
g63
NtRp323
(dp324
g66
(dp325
sg75
g298
sg68
(lp326
g61
(g82
g63
NtRp327
(dp328
g66
(dp329
g86
g87
ssg75
g323
sg68
(lp330
S'domain'
p331
asbag61
(g82
g63
NtRp332
(dp333
g66
(dp334
g93
g94
ssg75
g323
sg68
(lp335
S':'
asbag61
(g82
g63
NtRp336
(dp337
g66
(dp338
sg75
g323
sg68
(lp339
g61
(g62
g63
NtRp340
(dp341
g66
(dp342
g74
I3
ssg75
g336
sg68
(lp343
S''
asbasbasbag61
(g77
g63
NtRp344
(dp345
g66
(dp346
sg75
g298
sg68
(lp347
g61
(g82
g63
NtRp348
(dp349
g66
(dp350
g86
g87
ssg75
g344
sg68
(lp351
S'expires'
p352
asbag61
(g82
g63
NtRp353
(dp354
g66
(dp355
g93
g94
ssg75
g344
sg68
(lp356
S':'
asbag61
(g82
g63
NtRp357
(dp358
g66
(dp359
sg75
g344
sg68
(lp360
g61
(g62
g63
NtRp361
(dp362
g66
(dp363
g74
I3
ssg75
g357
sg68
(lp364
S''
asbasbasbag61
(g77
g63
NtRp365
(dp366
g66
(dp367
sg75
g298
sg68
(lp368
g61
(g82
g63
NtRp369
(dp370
g66
(dp371
g86
g87
ssg75
g365
sg68
(lp372
S'httponly'
p373
asbag61
(g82
g63
NtRp374
(dp375
g66
(dp376
g93
g94
ssg75
g365
sg68
(lp377
S':'
asbag61
(g82
g63
NtRp378
(dp379
g66
(dp380
sg75
g365
sg68
(lp381
g61
(g62
g63
NtRp382
(dp383
g66
(dp384
g74
I3
ssg75
g378
sg68
(lp385
S''
asbasbasbag61
(g77
g63
NtRp386
(dp387
g66
(dp388
sg75
g298
sg68
(lp389
g61
(g82
g63
NtRp390
(dp391
g66
(dp392
g86
g87
ssg75
g386
sg68
(lp393
S'max-age'
p394
asbag61
(g82
g63
NtRp395
(dp396
g66
(dp397
g93
g94
ssg75
g386
sg68
(lp398
S':'
asbag61
(g82
g63
NtRp399
(dp400
g66
(dp401
sg75
g386
sg68
(lp402
g61
(g62
g63
NtRp403
(dp404
g66
(dp405
g74
I3
ssg75
g399
sg68
(lp406
S''
asbasbasbag61
(g77
g63
NtRp407
(dp408
g66
(dp409
sg75
g298
sg68
(lp410
g61
(g82
g63
NtRp411
(dp412
g66
(dp413
g86
g87
ssg75
g407
sg68
(lp414
S'path'
p415
asbag61
(g82
g63
NtRp416
(dp417
g66
(dp418
g93
g94
ssg75
g407
sg68
(lp419
S':'
asbag61
(g82
g63
NtRp420
(dp421
g66
(dp422
sg75
g407
sg68
(lp423
g61
(g62
g63
NtRp424
(dp425
g66
(dp426
g74
I3
ssg75
g420
sg68
(lp427
S''
asbasbasbag61
(g77
g63
NtRp428
(dp429
g66
(dp430
sg75
g298
sg68
(lp431
g61
(g82
g63
NtRp432
(dp433
g66
(dp434
g86
g87
ssg75
g428
sg68
(lp435
S'secure'
p436
asbag61
(g82
g63
NtRp437
(dp438
g66
(dp439
g93
g94
ssg75
g428
sg68
(lp440
S':'
asbag61
(g82
g63
NtRp441
(dp442
g66
(dp443
sg75
g428
sg68
(lp444
g61
(g62
g63
NtRp445
(dp446
g66
(dp447
g74
I3
ssg75
g441
sg68
(lp448
S''
asbasbasbag61
(g77
g63
NtRp449
(dp450
g66
(dp451
sg75
g298
sg68
(lp452
g61
(g82
g63
NtRp453
(dp454
g66
(dp455
g86
g87
ssg75
g449
sg68
(lp456
S'version'
p457
asbag61
(g82
g63
NtRp458
(dp459
g66
(dp460
g93
g94
ssg75
g449
sg68
(lp461
S':'
asbag61
(g82
g63
NtRp462
(dp463
g66
(dp464
sg75
g449
sg68
(lp465
g61
(g62
g63
NtRp466
(dp467
g66
(dp468
g74
I3
ssg75
g462
sg68
(lp469
S''
asbasbasbasbasbasbasbag61
(g77
g63
NtRp470
(dp471
g66
(dp472
sg75
g272
sg68
(lp473
g61
(g82
g63
NtRp474
(dp475
g66
(dp476
g86
g87
ssg75
g470
sg68
(lp477
S'session_id_fotobuk'
p478
asbag61
(g82
g63
NtRp479
(dp480
g66
(dp481
g93
g94
ssg75
g470
sg68
(lp482
S':'
asbag61
(g82
g63
NtRp483
(dp484
g66
(dp485
sg75
g470
sg68
(lp486
g61
(g62
g63
NtRp487
(dp488
g66
(dp489
g74
I4
ssg75
g483
sg68
(lp490
S'127.0.0.1-961e4bc4-dc07-4e6c-b9f7-52a46e56ffd5'
p491
ag61
(g70
g63
NtRp492
(dp493
g66
(dp494
g74
I3
ssg75
Nsg68
(lp495
g61
(g77
g63
NtRp496
(dp497
g66
(dp498
sg75
g492
sg68
(lp499
g61
(g82
g63
NtRp500
(dp501
g66
(dp502
g86
g87
ssg75
g496
sg68
(lp503
g310
asbag61
(g82
g63
NtRp504
(dp505
g66
(dp506
g93
g94
ssg75
g496
sg68
(lp507
S':'
asbag61
(g82
g63
NtRp508
(dp509
g66
(dp510
sg75
g496
sg68
(lp511
g61
(g62
g63
NtRp512
(dp513
g66
(dp514
g74
I3
ssg75
g508
sg68
(lp515
S''
asbasbasbag61
(g77
g63
NtRp516
(dp517
g66
(dp518
sg75
g492
sg68
(lp519
g61
(g82
g63
NtRp520
(dp521
g66
(dp522
g86
g87
ssg75
g516
sg68
(lp523
g331
asbag61
(g82
g63
NtRp524
(dp525
g66
(dp526
g93
g94
ssg75
g516
sg68
(lp527
S':'
asbag61
(g82
g63
NtRp528
(dp529
g66
(dp530
sg75
g516
sg68
(lp531
g61
(g62
g63
NtRp532
(dp533
g66
(dp534
g74
I3
ssg75
g528
sg68
(lp535
S''
asbasbasbag61
(g77
g63
NtRp536
(dp537
g66
(dp538
sg75
g492
sg68
(lp539
g61
(g82
g63
NtRp540
(dp541
g66
(dp542
g86
g87
ssg75
g536
sg68
(lp543
g352
asbag61
(g82
g63
NtRp544
(dp545
g66
(dp546
g93
g94
ssg75
g536
sg68
(lp547
S':'
asbag61
(g82
g63
NtRp548
(dp549
g66
(dp550
sg75
g536
sg68
(lp551
g61
(g62
g63
NtRp552
(dp553
g66
(dp554
g74
I3
ssg75
g548
sg68
(lp555
S''
asbasbasbag61
(g77
g63
NtRp556
(dp557
g66
(dp558
sg75
g492
sg68
(lp559
g61
(g82
g63
NtRp560
(dp561
g66
(dp562
g86
g87
ssg75
g556
sg68
(lp563
g373
asbag61
(g82
g63
NtRp564
(dp565
g66
(dp566
g93
g94
ssg75
g556
sg68
(lp567
S':'
asbag61
(g82
g63
NtRp568
(dp569
g66
(dp570
sg75
g556
sg68
(lp571
g61
(g62
g63
NtRp572
(dp573
g66
(dp574
g74
I3
ssg75
g568
sg68
(lp575
S''
asbasbasbag61
(g77
g63
NtRp576
(dp577
g66
(dp578
sg75
g492
sg68
(lp579
g61
(g82
g63
NtRp580
(dp581
g66
(dp582
g86
g87
ssg75
g576
sg68
(lp583
g394
asbag61
(g82
g63
NtRp584
(dp585
g66
(dp586
g93
g94
ssg75
g576
sg68
(lp587
S':'
asbag61
(g82
g63
NtRp588
(dp589
g66
(dp590
sg75
g576
sg68
(lp591
g61
(g62
g63
NtRp592
(dp593
g66
(dp594
g74
I3
ssg75
g588
sg68
(lp595
S''
asbasbasbag61
(g77
g63
NtRp596
(dp597
g66
(dp598
sg75
g492
sg68
(lp599
g61
(g82
g63
NtRp600
(dp601
g66
(dp602
g86
g87
ssg75
g596
sg68
(lp603
g415
asbag61
(g82
g63
NtRp604
(dp605
g66
(dp606
g93
g94
ssg75
g596
sg68
(lp607
S':'
asbag61
(g82
g63
NtRp608
(dp609
g66
(dp610
sg75
g596
sg68
(lp611
g61
(g62
g63
NtRp612
(dp613
g66
(dp614
g74
I3
ssg75
g608
sg68
(lp615
S''
asbasbasbag61
(g77
g63
NtRp616
(dp617
g66
(dp618
sg75
g492
sg68
(lp619
g61
(g82
g63
NtRp620
(dp621
g66
(dp622
g86
g87
ssg75
g616
sg68
(lp623
g436
asbag61
(g82
g63
NtRp624
(dp625
g66
(dp626
g93
g94
ssg75
g616
sg68
(lp627
S':'
asbag61
(g82
g63
NtRp628
(dp629
g66
(dp630
sg75
g616
sg68
(lp631
g61
(g62
g63
NtRp632
(dp633
g66
(dp634
g74
I3
ssg75
g628
sg68
(lp635
S''
asbasbasbag61
(g77
g63
NtRp636
(dp637
g66
(dp638
sg75
g492
sg68
(lp639
g61
(g82
g63
NtRp640
(dp641
g66
(dp642
g86
g87
ssg75
g636
sg68
(lp643
g457
asbag61
(g82
g63
NtRp644
(dp645
g66
(dp646
g93
g94
ssg75
g636
sg68
(lp647
S':'
asbag61
(g82
g63
NtRp648
(dp649
g66
(dp650
sg75
g636
sg68
(lp651
g61
(g62
g63
NtRp652
(dp653
g66
(dp654
g74
I3
ssg75
g648
sg68
(lp655
S''
asbasbasbasbasbasbasbag61
(g77
g63
NtRp656
(dp657
g66
(dp658
sg75
g272
sg68
(lp659
g61
(g82
g63
NtRp660
(dp661
g66
(dp662
g86
g87
ssg75
g656
sg68
(lp663
S'session_id_ialbum'
p664
asbag61
(g82
g63
NtRp665
(dp666
g66
(dp667
g93
g94
ssg75
g656
sg68
(lp668
S':'
asbag61
(g82
g63
NtRp669
(dp670
g66
(dp671
sg75
g656
sg68
(lp672
g61
(g62
g63
NtRp673
(dp674
g66
(dp675
g74
I4
ssg75
g669
sg68
(lp676
S'127.0.0.1-8bab57f4-8655-4ca4-8b5d-11fde04576c5'
p677
ag61
(g70
g63
NtRp678
(dp679
g66
(dp680
g74
I3
ssg75
Nsg68
(lp681
g61
(g77
g63
NtRp682
(dp683
g66
(dp684
sg75
g678
sg68
(lp685
g61
(g82
g63
NtRp686
(dp687
g66
(dp688
g86
g87
ssg75
g682
sg68
(lp689
g310
asbag61
(g82
g63
NtRp690
(dp691
g66
(dp692
g93
g94
ssg75
g682
sg68
(lp693
S':'
asbag61
(g82
g63
NtRp694
(dp695
g66
(dp696
sg75
g682
sg68
(lp697
g61
(g62
g63
NtRp698
(dp699
g66
(dp700
g74
I3
ssg75
g694
sg68
(lp701
S''
asbasbasbag61
(g77
g63
NtRp702
(dp703
g66
(dp704
sg75
g678
sg68
(lp705
g61
(g82
g63
NtRp706
(dp707
g66
(dp708
g86
g87
ssg75
g702
sg68
(lp709
g331
asbag61
(g82
g63
NtRp710
(dp711
g66
(dp712
g93
g94
ssg75
g702
sg68
(lp713
S':'
asbag61
(g82
g63
NtRp714
(dp715
g66
(dp716
sg75
g702
sg68
(lp717
g61
(g62
g63
NtRp718
(dp719
g66
(dp720
g74
I3
ssg75
g714
sg68
(lp721
S''
asbasbasbag61
(g77
g63
NtRp722
(dp723
g66
(dp724
sg75
g678
sg68
(lp725
g61
(g82
g63
NtRp726
(dp727
g66
(dp728
g86
g87
ssg75
g722
sg68
(lp729
g352
asbag61
(g82
g63
NtRp730
(dp731
g66
(dp732
g93
g94
ssg75
g722
sg68
(lp733
S':'
asbag61
(g82
g63
NtRp734
(dp735
g66
(dp736
sg75
g722
sg68
(lp737
g61
(g62
g63
NtRp738
(dp739
g66
(dp740
g74
I3
ssg75
g734
sg68
(lp741
S''
asbasbasbag61
(g77
g63
NtRp742
(dp743
g66
(dp744
sg75
g678
sg68
(lp745
g61
(g82
g63
NtRp746
(dp747
g66
(dp748
g86
g87
ssg75
g742
sg68
(lp749
g373
asbag61
(g82
g63
NtRp750
(dp751
g66
(dp752
g93
g94
ssg75
g742
sg68
(lp753
S':'
asbag61
(g82
g63
NtRp754
(dp755
g66
(dp756
sg75
g742
sg68
(lp757
g61
(g62
g63
NtRp758
(dp759
g66
(dp760
g74
I3
ssg75
g754
sg68
(lp761
S''
asbasbasbag61
(g77
g63
NtRp762
(dp763
g66
(dp764
sg75
g678
sg68
(lp765
g61
(g82
g63
NtRp766
(dp767
g66
(dp768
g86
g87
ssg75
g762
sg68
(lp769
g394
asbag61
(g82
g63
NtRp770
(dp771
g66
(dp772
g93
g94
ssg75
g762
sg68
(lp773
S':'
asbag61
(g82
g63
NtRp774
(dp775
g66
(dp776
sg75
g762
sg68
(lp777
g61
(g62
g63
NtRp778
(dp779
g66
(dp780
g74
I3
ssg75
g774
sg68
(lp781
S''
asbasbasbag61
(g77
g63
NtRp782
(dp783
g66
(dp784
sg75
g678
sg68
(lp785
g61
(g82
g63
NtRp786
(dp787
g66
(dp788
g86
g87
ssg75
g782
sg68
(lp789
g415
asbag61
(g82
g63
NtRp790
(dp791
g66
(dp792
g93
g94
ssg75
g782
sg68
(lp793
S':'
asbag61
(g82
g63
NtRp794
(dp795
g66
(dp796
sg75
g782
sg68
(lp797
g61
(g62
g63
NtRp798
(dp799
g66
(dp800
g74
I3
ssg75
g794
sg68
(lp801
S''
asbasbasbag61
(g77
g63
NtRp802
(dp803
g66
(dp804
sg75
g678
sg68
(lp805
g61
(g82
g63
NtRp806
(dp807
g66
(dp808
g86
g87
ssg75
g802
sg68
(lp809
g436
asbag61
(g82
g63
NtRp810
(dp811
g66
(dp812
g93
g94
ssg75
g802
sg68
(lp813
S':'
asbag61
(g82
g63
NtRp814
(dp815
g66
(dp816
sg75
g802
sg68
(lp817
g61
(g62
g63
NtRp818
(dp819
g66
(dp820
g74
I3
ssg75
g814
sg68
(lp821
S''
asbasbasbag61
(g77
g63
NtRp822
(dp823
g66
(dp824
sg75
g678
sg68
(lp825
g61
(g82
g63
NtRp826
(dp827
g66
(dp828
g86
g87
ssg75
g822
sg68
(lp829
g457
asbag61
(g82
g63
NtRp830
(dp831
g66
(dp832
g93
g94
ssg75
g822
sg68
(lp833
S':'
asbag61
(g82
g63
NtRp834
(dp835
g66
(dp836
sg75
g822
sg68
(lp837
g61
(g62
g63
NtRp838
(dp839
g66
(dp840
g74
I3
ssg75
g834
sg68
(lp841
S''
asbasbasbasbasbasbasbag61
(g77
g63
NtRp842
(dp843
g66
(dp844
sg75
g272
sg68
(lp845
g61
(g82
g63
NtRp846
(dp847
g66
(dp848
g86
g87
ssg75
g842
sg68
(lp849
S'session_id_welcome'
p850
asbag61
(g82
g63
NtRp851
(dp852
g66
(dp853
g93
g94
ssg75
g842
sg68
(lp854
S':'
asbag61
(g82
g63
NtRp855
(dp856
g66
(dp857
sg75
g842
sg68
(lp858
g61
(g62
g63
NtRp859
(dp860
g66
(dp861
g74
I4
ssg75
g855
sg68
(lp862
S'127.0.0.1-3299e4b7-9181-4336-a2b6-d67ebc8bfe8e'
p863
ag61
(g70
g63
NtRp864
(dp865
g66
(dp866
g74
I3
ssg75
Nsg68
(lp867
g61
(g77
g63
NtRp868
(dp869
g66
(dp870
sg75
g864
sg68
(lp871
g61
(g82
g63
NtRp872
(dp873
g66
(dp874
g86
g87
ssg75
g868
sg68
(lp875
g310
asbag61
(g82
g63
NtRp876
(dp877
g66
(dp878
g93
g94
ssg75
g868
sg68
(lp879
S':'
asbag61
(g82
g63
NtRp880
(dp881
g66
(dp882
sg75
g868
sg68
(lp883
g61
(g62
g63
NtRp884
(dp885
g66
(dp886
g74
I3
ssg75
g880
sg68
(lp887
S''
asbasbasbag61
(g77
g63
NtRp888
(dp889
g66
(dp890
sg75
g864
sg68
(lp891
g61
(g82
g63
NtRp892
(dp893
g66
(dp894
g86
g87
ssg75
g888
sg68
(lp895
g331
asbag61
(g82
g63
NtRp896
(dp897
g66
(dp898
g93
g94
ssg75
g888
sg68
(lp899
S':'
asbag61
(g82
g63
NtRp900
(dp901
g66
(dp902
sg75
g888
sg68
(lp903
g61
(g62
g63
NtRp904
(dp905
g66
(dp906
g74
I3
ssg75
g900
sg68
(lp907
S''
asbasbasbag61
(g77
g63
NtRp908
(dp909
g66
(dp910
sg75
g864
sg68
(lp911
g61
(g82
g63
NtRp912
(dp913
g66
(dp914
g86
g87
ssg75
g908
sg68
(lp915
g352
asbag61
(g82
g63
NtRp916
(dp917
g66
(dp918
g93
g94
ssg75
g908
sg68
(lp919
S':'
asbag61
(g82
g63
NtRp920
(dp921
g66
(dp922
sg75
g908
sg68
(lp923
g61
(g62
g63
NtRp924
(dp925
g66
(dp926
g74
I3
ssg75
g920
sg68
(lp927
S''
asbasbasbag61
(g77
g63
NtRp928
(dp929
g66
(dp930
sg75
g864
sg68
(lp931
g61
(g82
g63
NtRp932
(dp933
g66
(dp934
g86
g87
ssg75
g928
sg68
(lp935
g373
asbag61
(g82
g63
NtRp936
(dp937
g66
(dp938
g93
g94
ssg75
g928
sg68
(lp939
S':'
asbag61
(g82
g63
NtRp940
(dp941
g66
(dp942
sg75
g928
sg68
(lp943
g61
(g62
g63
NtRp944
(dp945
g66
(dp946
g74
I3
ssg75
g940
sg68
(lp947
S''
asbasbasbag61
(g77
g63
NtRp948
(dp949
g66
(dp950
sg75
g864
sg68
(lp951
g61
(g82
g63
NtRp952
(dp953
g66
(dp954
g86
g87
ssg75
g948
sg68
(lp955
g394
asbag61
(g82
g63
NtRp956
(dp957
g66
(dp958
g93
g94
ssg75
g948
sg68
(lp959
S':'
asbag61
(g82
g63
NtRp960
(dp961
g66
(dp962
sg75
g948
sg68
(lp963
g61
(g62
g63
NtRp964
(dp965
g66
(dp966
g74
I3
ssg75
g960
sg68
(lp967
S''
asbasbasbag61
(g77
g63
NtRp968
(dp969
g66
(dp970
sg75
g864
sg68
(lp971
g61
(g82
g63
NtRp972
(dp973
g66
(dp974
g86
g87
ssg75
g968
sg68
(lp975
g415
asbag61
(g82
g63
NtRp976
(dp977
g66
(dp978
g93
g94
ssg75
g968
sg68
(lp979
S':'
asbag61
(g82
g63
NtRp980
(dp981
g66
(dp982
sg75
g968
sg68
(lp983
g61
(g62
g63
NtRp984
(dp985
g66
(dp986
g74
I3
ssg75
g980
sg68
(lp987
S''
asbasbasbag61
(g77
g63
NtRp988
(dp989
g66
(dp990
sg75
g864
sg68
(lp991
g61
(g82
g63
NtRp992
(dp993
g66
(dp994
g86
g87
ssg75
g988
sg68
(lp995
g436
asbag61
(g82
g63
NtRp996
(dp997
g66
(dp998
g93
g94
ssg75
g988
sg68
(lp999
S':'
asbag61
(g82
g63
NtRp1000
(dp1001
g66
(dp1002
sg75
g988
sg68
(lp1003
g61
(g62
g63
NtRp1004
(dp1005
g66
(dp1006
g74
I3
ssg75
g1000
sg68
(lp1007
S''
asbasbasbag61
(g77
g63
NtRp1008
(dp1009
g66
(dp1010
sg75
g864
sg68
(lp1011
g61
(g82
g63
NtRp1012
(dp1013
g66
(dp1014
g86
g87
ssg75
g1008
sg68
(lp1015
g457
asbag61
(g82
g63
NtRp1016
(dp1017
g66
(dp1018
g93
g94
ssg75
g1008
sg68
(lp1019
S':'
asbag61
(g82
g63
NtRp1020
(dp1021
g66
(dp1022
sg75
g1008
sg68
(lp1023
g61
(g62
g63
NtRp1024
(dp1025
g66
(dp1026
g74
I3
ssg75
g1020
sg68
(lp1027
S''
asbasbasbasbasbasbasbasbasbasbasbag61
(g77
g63
NtRp1028
(dp1029
g66
(dp1030
sg75
g71
sg68
(lp1031
g61
(g82
g63
NtRp1032
(dp1033
g66
(dp1034
g86
g87
ssg75
g1028
sg68
(lp1035
S'env'
p1036
asbag61
(g82
g63
NtRp1037
(dp1038
g66
(dp1039
g93
g94
ssg75
g1028
sg68
(lp1040
S':'
asbag61
(g82
g63
NtRp1041
(dp1042
g66
(dp1043
sg75
g1028
sg68
(lp1044
g61
(g62
g63
NtRp1045
(dp1046
g66
(dp1047
g74
I5
ssg75
g1041
sg68
(lp1048
g61
(g70
g63
NtRp1049
(dp1050
g66
(dp1051
g74
I4
ssg75
Nsg68
(lp1052
g61
(g77
g63
NtRp1053
(dp1054
g66
(dp1055
sg75
g1049
sg68
(lp1056
g61
(g82
g63
NtRp1057
(dp1058
g66
(dp1059
g86
g87
ssg75
g1053
sg68
(lp1060
S'app_folders'
p1061
asbag61
(g82
g63
NtRp1062
(dp1063
g66
(dp1064
g93
g94
ssg75
g1053
sg68
(lp1065
S':'
asbag61
(g82
g63
NtRp1066
(dp1067
g66
(dp1068
sg75
g1053
sg68
(lp1069
g61
(g62
g63
NtRp1070
(dp1071
g66
(dp1072
g74
I4
ssg75
g1066
sg68
(lp1073
S"set(['/home/piyush/web2py/applications/FotoBuk/', '/home/piyush/web2py/applications/welcome/', '/home/piyush/web2py/applications/admin/'])"
p1074
asbasbasbag61
(g77
g63
NtRp1075
(dp1076
g66
(dp1077
sg75
g1049
sg68
(lp1078
g61
(g82
g63
NtRp1079
(dp1080
g66
(dp1081
g86
g87
ssg75
g1075
sg68
(lp1082
S'applications_parent'
p1083
asbag61
(g82
g63
NtRp1084
(dp1085
g66
(dp1086
g93
g94
ssg75
g1075
sg68
(lp1087
S':'
asbag61
(g82
g63
NtRp1088
(dp1089
g66
(dp1090
sg75
g1075
sg68
(lp1091
g61
(g62
g63
NtRp1092
(dp1093
g66
(dp1094
g74
I4
ssg75
g1088
sg68
(lp1095
S'/home/piyush/web2py'
p1096
asbasbasbag61
(g77
g63
NtRp1097
(dp1098
g66
(dp1099
sg75
g1049
sg68
(lp1100
g61
(g82
g63
NtRp1101
(dp1102
g66
(dp1103
g86
g87
ssg75
g1097
sg68
(lp1104
S'cmd_args'
p1105
asbag61
(g82
g63
NtRp1106
(dp1107
g66
(dp1108
g93
g94
ssg75
g1097
sg68
(lp1109
S':'
asbag61
(g82
g63
NtRp1110
(dp1111
g66
(dp1112
sg75
g1097
sg68
(lp1113
g61
(g62
g63
NtRp1114
(dp1115
g66
(dp1116
g74
I4
ssg75
g1110
sg68
(lp1117
g61
(g70
g63
NtRp1118
(dp1119
g66
(dp1120
g74
I3
ssg75
Nsg68
(lp1121
sbasbasbasbag61
(g77
g63
NtRp1122
(dp1123
g66
(dp1124
sg75
g1049
sg68
(lp1125
g61
(g82
g63
NtRp1126
(dp1127
g66
(dp1128
g86
g87
ssg75
g1122
sg68
(lp1129
S'cmd_options'
p1130
asbag61
(g82
g63
NtRp1131
(dp1132
g66
(dp1133
g93
g94
ssg75
g1122
sg68
(lp1134
S':'
asbag61
(g82
g63
NtRp1135
(dp1136
g66
(dp1137
sg75
g1122
sg68
(lp1138
g61
(g62
g63
NtRp1139
(dp1140
g66
(dp1141
g74
I4
ssg75
g1135
sg68
(lp1142
S"<Values at 0x8d4130c: {'verbose': False, 'ip': '127.0.0.1', 'with_scheduler': False, 'ips': ['10.1.39.167', '10.42.0.1'], 'shutdown_timeout': 5, 'taskbar': False, 'port': 8000, 'maxthreads': None, 'softcron': False, 'server_name': 'Solo', 'bpython': False, 'nogui': False, 'nocron': False, 'extcron': False, 'run_system_tests': False, 'test': None, 'folder': '/home/piyush/web2py', 'config': '', 'import_models': False, 'winservice': '', 'shell': None, 'run': '', 'log_filename': 'httpserver.log', 'debuglevel': 30, 'args': [''], 'socket_timeout': 5, 'ssl_ca_certificate': None, 'scheduler': None, 'profiler_filename': None, 'ssl_private_key': '', 'scheduler_groups': None, 'password': '<ask>', 'request_queue_size': 5, 'ssl_certificate': '', 'cronjob': False, 'numthreads': None, 'quiet': False, 'interfaces': None, 'minthreads': None, 'timeout': 10, 'plain': False, 'nobanner': False, 'pid_filename': 'httpserver.pid'}>"
p1143
asbasbasbag61
(g77
g63
NtRp1144
(dp1145
g66
(dp1146
sg75
g1049
sg68
(lp1147
g61
(g82
g63
NtRp1148
(dp1149
g66
(dp1150
g86
g87
ssg75
g1144
sg68
(lp1151
S'content_length'
p1152
asbag61
(g82
g63
NtRp1153
(dp1154
g66
(dp1155
g93
g94
ssg75
g1144
sg68
(lp1156
S':'
asbag61
(g82
g63
NtRp1157
(dp1158
g66
(dp1159
sg75
g1144
sg68
(lp1160
g61
(g62
g63
NtRp1161
(dp1162
g66
(dp1163
g74
I4
ssg75
g1157
sg68
(lp1164
S'336'
p1165
asbasbasbag61
(g77
g63
NtRp1166
(dp1167
g66
(dp1168
sg75
g1049
sg68
(lp1169
g61
(g82
g63
NtRp1170
(dp1171
g66
(dp1172
g86
g87
ssg75
g1166
sg68
(lp1173
S'content_type'
p1174
asbag61
(g82
g63
NtRp1175
(dp1176
g66
(dp1177
g93
g94
ssg75
g1166
sg68
(lp1178
S':'
asbag61
(g82
g63
NtRp1179
(dp1180
g66
(dp1181
sg75
g1166
sg68
(lp1182
g61
(g62
g63
NtRp1183
(dp1184
g66
(dp1185
g74
I4
ssg75
g1179
sg68
(lp1186
S'multipart/form-data; boundary=---------------------------16888141810062492512034789649'
p1187
asbasbasbag61
(g77
g63
NtRp1188
(dp1189
g66
(dp1190
sg75
g1049
sg68
(lp1191
g61
(g82
g63
NtRp1192
(dp1193
g66
(dp1194
g86
g87
ssg75
g1188
sg68
(lp1195
S'db_sessions'
p1196
asbag61
(g82
g63
NtRp1197
(dp1198
g66
(dp1199
g93
g94
ssg75
g1188
sg68
(lp1200
S':'
asbag61
(g82
g63
NtRp1201
(dp1202
g66
(dp1203
sg75
g1188
sg68
(lp1204
g61
(g62
g63
NtRp1205
(dp1206
g66
(dp1207
g74
I4
ssg75
g1201
sg68
(lp1208
S'set([])'
p1209
asbasbasbag61
(g77
g63
NtRp1210
(dp1211
g66
(dp1212
sg75
g1049
sg68
(lp1213
g61
(g82
g63
NtRp1214
(dp1215
g66
(dp1216
g86
g87
ssg75
g1210
sg68
(lp1217
S'debugging'
p1218
asbag61
(g82
g63
NtRp1219
(dp1220
g66
(dp1221
g93
g94
ssg75
g1210
sg68
(lp1222
S':'
asbag61
(g82
g63
NtRp1223
(dp1224
g66
(dp1225
sg75
g1210
sg68
(lp1226
g61
(g62
g63
NtRp1227
(dp1228
g66
(dp1229
g74
I4
ssg75
g1223
sg68
(lp1230
g104
asbasbasbag61
(g77
g63
NtRp1231
(dp1232
g66
(dp1233
sg75
g1049
sg68
(lp1234
g61
(g82
g63
NtRp1235
(dp1236
g66
(dp1237
g86
g87
ssg75
g1231
sg68
(lp1238
S'gluon_parent'
p1239
asbag61
(g82
g63
NtRp1240
(dp1241
g66
(dp1242
g93
g94
ssg75
g1231
sg68
(lp1243
S':'
asbag61
(g82
g63
NtRp1244
(dp1245
g66
(dp1246
sg75
g1231
sg68
(lp1247
g61
(g62
g63
NtRp1248
(dp1249
g66
(dp1250
g74
I4
ssg75
g1244
sg68
(lp1251
S'/home/piyush/web2py'
p1252
asbasbasbag61
(g77
g63
NtRp1253
(dp1254
g66
(dp1255
sg75
g1049
sg68
(lp1256
g61
(g82
g63
NtRp1257
(dp1258
g66
(dp1259
g86
g87
ssg75
g1253
sg68
(lp1260
S'http_accept'
p1261
asbag61
(g82
g63
NtRp1262
(dp1263
g66
(dp1264
g93
g94
ssg75
g1253
sg68
(lp1265
S':'
asbag61
(g82
g63
NtRp1266
(dp1267
g66
(dp1268
sg75
g1253
sg68
(lp1269
g61
(g62
g63
NtRp1270
(dp1271
g66
(dp1272
g74
I4
ssg75
g1266
sg68
(lp1273
S'text/html,application/xhtml+xml,application/xml;q=0.9,*/*;q=0.8'
p1274
asbasbasbag61
(g77
g63
NtRp1275
(dp1276
g66
(dp1277
sg75
g1049
sg68
(lp1278
g61
(g82
g63
NtRp1279
(dp1280
g66
(dp1281
g86
g87
ssg75
g1275
sg68
(lp1282
S'http_accept_encoding'
p1283
asbag61
(g82
g63
NtRp1284
(dp1285
g66
(dp1286
g93
g94
ssg75
g1275
sg68
(lp1287
S':'
asbag61
(g82
g63
NtRp1288
(dp1289
g66
(dp1290
sg75
g1275
sg68
(lp1291
g61
(g62
g63
NtRp1292
(dp1293
g66
(dp1294
g74
I4
ssg75
g1288
sg68
(lp1295
S'gzip, deflate'
p1296
asbasbasbag61
(g77
g63
NtRp1297
(dp1298
g66
(dp1299
sg75
g1049
sg68
(lp1300
g61
(g82
g63
NtRp1301
(dp1302
g66
(dp1303
g86
g87
ssg75
g1297
sg68
(lp1304
S'http_accept_language'
p1305
asbag61
(g82
g63
NtRp1306
(dp1307
g66
(dp1308
g93
g94
ssg75
g1297
sg68
(lp1309
S':'
asbag61
(g82
g63
NtRp1310
(dp1311
g66
(dp1312
sg75
g1297
sg68
(lp1313
g61
(g62
g63
NtRp1314
(dp1315
g66
(dp1316
g74
I4
ssg75
g1310
sg68
(lp1317
S'en-us,en;q=0.5'
p1318
asbasbasbag61
(g77
g63
NtRp1319
(dp1320
g66
(dp1321
sg75
g1049
sg68
(lp1322
g61
(g82
g63
NtRp1323
(dp1324
g66
(dp1325
g86
g87
ssg75
g1319
sg68
(lp1326
S'http_connection'
p1327
asbag61
(g82
g63
NtRp1328
(dp1329
g66
(dp1330
g93
g94
ssg75
g1319
sg68
(lp1331
S':'
asbag61
(g82
g63
NtRp1332
(dp1333
g66
(dp1334
sg75
g1319
sg68
(lp1335
g61
(g62
g63
NtRp1336
(dp1337
g66
(dp1338
g74
I4
ssg75
g1332
sg68
(lp1339
S'keep-alive'
p1340
asbasbasbag61
(g77
g63
NtRp1341
(dp1342
g66
(dp1343
sg75
g1049
sg68
(lp1344
g61
(g82
g63
NtRp1345
(dp1346
g66
(dp1347
g86
g87
ssg75
g1341
sg68
(lp1348
S'http_content_length'
p1349
asbag61
(g82
g63
NtRp1350
(dp1351
g66
(dp1352
g93
g94
ssg75
g1341
sg68
(lp1353
S':'
asbag61
(g82
g63
NtRp1354
(dp1355
g66
(dp1356
sg75
g1341
sg68
(lp1357
g61
(g62
g63
NtRp1358
(dp1359
g66
(dp1360
g74
I4
ssg75
g1354
sg68
(lp1361
g1165
asbasbasbag61
(g77
g63
NtRp1362
(dp1363
g66
(dp1364
sg75
g1049
sg68
(lp1365
g61
(g82
g63
NtRp1366
(dp1367
g66
(dp1368
g86
g87
ssg75
g1362
sg68
(lp1369
S'http_content_type'
p1370
asbag61
(g82
g63
NtRp1371
(dp1372
g66
(dp1373
g93
g94
ssg75
g1362
sg68
(lp1374
S':'
asbag61
(g82
g63
NtRp1375
(dp1376
g66
(dp1377
sg75
g1362
sg68
(lp1378
g61
(g62
g63
NtRp1379
(dp1380
g66
(dp1381
g74
I4
ssg75
g1375
sg68
(lp1382
g1187
asbasbasbag61
(g77
g63
NtRp1383
(dp1384
g66
(dp1385
sg75
g1049
sg68
(lp1386
g61
(g82
g63
NtRp1387
(dp1388
g66
(dp1389
g86
g87
ssg75
g1383
sg68
(lp1390
S'http_cookie'
p1391
asbag61
(g82
g63
NtRp1392
(dp1393
g66
(dp1394
g93
g94
ssg75
g1383
sg68
(lp1395
S':'
asbag61
(g82
g63
NtRp1396
(dp1397
g66
(dp1398
sg75
g1383
sg68
(lp1399
g61
(g62
g63
NtRp1400
(dp1401
g66
(dp1402
g74
I4
ssg75
g1396
sg68
(lp1403
S'session_id_welcome=127.0.0.1-3299e4b7-9181-4336-a2b6-d67ebc8bfe8e; session_id_admin=127.0.0.1-f31a16a6-2f0e-474e-b0b5-7ca781ebd64d; session_id_ialbum=127.0.0.1-8bab57f4-8655-4ca4-8b5d-11fde04576c5; session_id_fotobuk=127.0.0.1-961e4bc4-dc07-4e6c-b9f7-52a46e56ffd5'
p1404
asbasbasbag61
(g77
g63
NtRp1405
(dp1406
g66
(dp1407
sg75
g1049
sg68
(lp1408
g61
(g82
g63
NtRp1409
(dp1410
g66
(dp1411
g86
g87
ssg75
g1405
sg68
(lp1412
S'http_host'
p1413
asbag61
(g82
g63
NtRp1414
(dp1415
g66
(dp1416
g93
g94
ssg75
g1405
sg68
(lp1417
S':'
asbag61
(g82
g63
NtRp1418
(dp1419
g66
(dp1420
sg75
g1405
sg68
(lp1421
g61
(g62
g63
NtRp1422
(dp1423
g66
(dp1424
g74
I4
ssg75
g1418
sg68
(lp1425
S'localhost:8000'
p1426
asbasbasbag61
(g77
g63
NtRp1427
(dp1428
g66
(dp1429
sg75
g1049
sg68
(lp1430
g61
(g82
g63
NtRp1431
(dp1432
g66
(dp1433
g86
g87
ssg75
g1427
sg68
(lp1434
S'http_referer'
p1435
asbag61
(g82
g63
NtRp1436
(dp1437
g66
(dp1438
g93
g94
ssg75
g1427
sg68
(lp1439
S':'
asbag61
(g82
g63
NtRp1440
(dp1441
g66
(dp1442
sg75
g1427
sg68
(lp1443
g61
(g62
g63
NtRp1444
(dp1445
g66
(dp1446
g74
I4
ssg75
g1440
sg68
(lp1447
S'http://localhost:8000/FotoBuk/default/show/6'
p1448
asbasbasbag61
(g77
g63
NtRp1449
(dp1450
g66
(dp1451
sg75
g1049
sg68
(lp1452
g61
(g82
g63
NtRp1453
(dp1454
g66
(dp1455
g86
g87
ssg75
g1449
sg68
(lp1456
S'http_user_agent'
p1457
asbag61
(g82
g63
NtRp1458
(dp1459
g66
(dp1460
g93
g94
ssg75
g1449
sg68
(lp1461
S':'
asbag61
(g82
g63
NtRp1462
(dp1463
g66
(dp1464
sg75
g1449
sg68
(lp1465
g61
(g62
g63
NtRp1466
(dp1467
g66
(dp1468
g74
I4
ssg75
g1462
sg68
(lp1469
S'Mozilla/5.0 (X11; Linux i686; rv:11.0) Gecko/20100101 Firefox/11.0'
p1470
asbasbasbag61
(g77
g63
NtRp1471
(dp1472
g66
(dp1473
sg75
g1049
sg68
(lp1474
g61
(g82
g63
NtRp1475
(dp1476
g66
(dp1477
g86
g87
ssg75
g1471
sg68
(lp1478
S'is_jython'
p1479
asbag61
(g82
g63
NtRp1480
(dp1481
g66
(dp1482
g93
g94
ssg75
g1471
sg68
(lp1483
S':'
asbag61
(g82
g63
NtRp1484
(dp1485
g66
(dp1486
sg75
g1471
sg68
(lp1487
g61
(g62
g63
NtRp1488
(dp1489
g66
(dp1490
g74
I4
ssg75
g1484
sg68
(lp1491
g104
asbasbasbag61
(g77
g63
NtRp1492
(dp1493
g66
(dp1494
sg75
g1049
sg68
(lp1495
g61
(g82
g63
NtRp1496
(dp1497
g66
(dp1498
g86
g87
ssg75
g1492
sg68
(lp1499
S'is_pypy'
p1500
asbag61
(g82
g63
NtRp1501
(dp1502
g66
(dp1503
g93
g94
ssg75
g1492
sg68
(lp1504
S':'
asbag61
(g82
g63
NtRp1505
(dp1506
g66
(dp1507
sg75
g1492
sg68
(lp1508
g61
(g62
g63
NtRp1509
(dp1510
g66
(dp1511
g74
I4
ssg75
g1505
sg68
(lp1512
g104
asbasbasbag61
(g77
g63
NtRp1513
(dp1514
g66
(dp1515
sg75
g1049
sg68
(lp1516
g61
(g82
g63
NtRp1517
(dp1518
g66
(dp1519
g86
g87
ssg75
g1513
sg68
(lp1520
S'path_info'
p1521
asbag61
(g82
g63
NtRp1522
(dp1523
g66
(dp1524
g93
g94
ssg75
g1513
sg68
(lp1525
S':'
asbag61
(g82
g63
NtRp1526
(dp1527
g66
(dp1528
sg75
g1513
sg68
(lp1529
g61
(g62
g63
NtRp1530
(dp1531
g66
(dp1532
g74
I4
ssg75
g1526
sg68
(lp1533
S'/FotoBuk/default/show/6'
p1534
asbasbasbag61
(g77
g63
NtRp1535
(dp1536
g66
(dp1537
sg75
g1049
sg68
(lp1538
g61
(g82
g63
NtRp1539
(dp1540
g66
(dp1541
g86
g87
ssg75
g1535
sg68
(lp1542
S'query_string'
p1543
asbag61
(g82
g63
NtRp1544
(dp1545
g66
(dp1546
g93
g94
ssg75
g1535
sg68
(lp1547
S':'
asbag61
(g82
g63
NtRp1548
(dp1549
g66
(dp1550
sg75
g1535
sg68
(lp1551
g61
(g62
g63
NtRp1552
(dp1553
g66
(dp1554
g74
I4
ssg75
g1548
sg68
(lp1555
S''
asbasbasbag61
(g77
g63
NtRp1556
(dp1557
g66
(dp1558
sg75
g1049
sg68
(lp1559
g61
(g82
g63
NtRp1560
(dp1561
g66
(dp1562
g86
g87
ssg75
g1556
sg68
(lp1563
S'remote_addr'
p1564
asbag61
(g82
g63
NtRp1565
(dp1566
g66
(dp1567
g93
g94
ssg75
g1556
sg68
(lp1568
S':'
asbag61
(g82
g63
NtRp1569
(dp1570
g66
(dp1571
sg75
g1556
sg68
(lp1572
g61
(g62
g63
NtRp1573
(dp1574
g66
(dp1575
g74
I4
ssg75
g1569
sg68
(lp1576
g228
asbasbasbag61
(g77
g63
NtRp1577
(dp1578
g66
(dp1579
sg75
g1049
sg68
(lp1580
g61
(g82
g63
NtRp1581
(dp1582
g66
(dp1583
g86
g87
ssg75
g1577
sg68
(lp1584
S'remote_port'
p1585
asbag61
(g82
g63
NtRp1586
(dp1587
g66
(dp1588
g93
g94
ssg75
g1577
sg68
(lp1589
S':'
asbag61
(g82
g63
NtRp1590
(dp1591
g66
(dp1592
sg75
g1577
sg68
(lp1593
g61
(g62
g63
NtRp1594
(dp1595
g66
(dp1596
g74
I4
ssg75
g1590
sg68
(lp1597
S'52994'
p1598
asbasbasbag61
(g77
g63
NtRp1599
(dp1600
g66
(dp1601
sg75
g1049
sg68
(lp1602
g61
(g82
g63
NtRp1603
(dp1604
g66
(dp1605
g86
g87
ssg75
g1599
sg68
(lp1606
S'request_method'
p1607
asbag61
(g82
g63
NtRp1608
(dp1609
g66
(dp1610
g93
g94
ssg75
g1599
sg68
(lp1611
S':'
asbag61
(g82
g63
NtRp1612
(dp1613
g66
(dp1614
sg75
g1599
sg68
(lp1615
g61
(g62
g63
NtRp1616
(dp1617
g66
(dp1618
g74
I4
ssg75
g1612
sg68
(lp1619
S'POST'
p1620
asbasbasbag61
(g77
g63
NtRp1621
(dp1622
g66
(dp1623
sg75
g1049
sg68
(lp1624
g61
(g82
g63
NtRp1625
(dp1626
g66
(dp1627
g86
g87
ssg75
g1621
sg68
(lp1628
S'script_name'
p1629
asbag61
(g82
g63
NtRp1630
(dp1631
g66
(dp1632
g93
g94
ssg75
g1621
sg68
(lp1633
S':'
asbag61
(g82
g63
NtRp1634
(dp1635
g66
(dp1636
sg75
g1621
sg68
(lp1637
g61
(g62
g63
NtRp1638
(dp1639
g66
(dp1640
g74
I4
ssg75
g1634
sg68
(lp1641
S''
asbasbasbag61
(g77
g63
NtRp1642
(dp1643
g66
(dp1644
sg75
g1049
sg68
(lp1645
g61
(g82
g63
NtRp1646
(dp1647
g66
(dp1648
g86
g87
ssg75
g1642
sg68
(lp1649
S'server_name'
p1650
asbag61
(g82
g63
NtRp1651
(dp1652
g66
(dp1653
g93
g94
ssg75
g1642
sg68
(lp1654
S':'
asbag61
(g82
g63
NtRp1655
(dp1656
g66
(dp1657
sg75
g1642
sg68
(lp1658
g61
(g62
g63
NtRp1659
(dp1660
g66
(dp1661
g74
I4
ssg75
g1655
sg68
(lp1662
S'Solo'
p1663
asbasbasbag61
(g77
g63
NtRp1664
(dp1665
g66
(dp1666
sg75
g1049
sg68
(lp1667
g61
(g82
g63
NtRp1668
(dp1669
g66
(dp1670
g86
g87
ssg75
g1664
sg68
(lp1671
S'server_port'
p1672
asbag61
(g82
g63
NtRp1673
(dp1674
g66
(dp1675
g93
g94
ssg75
g1664
sg68
(lp1676
S':'
asbag61
(g82
g63
NtRp1677
(dp1678
g66
(dp1679
sg75
g1664
sg68
(lp1680
g61
(g62
g63
NtRp1681
(dp1682
g66
(dp1683
g74
I4
ssg75
g1677
sg68
(lp1684
S'8000'
p1685
asbasbasbag61
(g77
g63
NtRp1686
(dp1687
g66
(dp1688
sg75
g1049
sg68
(lp1689
g61
(g82
g63
NtRp1690
(dp1691
g66
(dp1692
g86
g87
ssg75
g1686
sg68
(lp1693
S'server_protocol'
p1694
asbag61
(g82
g63
NtRp1695
(dp1696
g66
(dp1697
g93
g94
ssg75
g1686
sg68
(lp1698
S':'
asbag61
(g82
g63
NtRp1699
(dp1700
g66
(dp1701
sg75
g1686
sg68
(lp1702
g61
(g62
g63
NtRp1703
(dp1704
g66
(dp1705
g74
I4
ssg75
g1699
sg68
(lp1706
S'HTTP/1.1'
p1707
asbasbasbag61
(g77
g63
NtRp1708
(dp1709
g66
(dp1710
sg75
g1049
sg68
(lp1711
g61
(g82
g63
NtRp1712
(dp1713
g66
(dp1714
g86
g87
ssg75
g1708
sg68
(lp1715
S'server_software'
p1716
asbag61
(g82
g63
NtRp1717
(dp1718
g66
(dp1719
g93
g94
ssg75
g1708
sg68
(lp1720
S':'
asbag61
(g82
g63
NtRp1721
(dp1722
g66
(dp1723
sg75
g1708
sg68
(lp1724
g61
(g62
g63
NtRp1725
(dp1726
g66
(dp1727
g74
I4
ssg75
g1721
sg68
(lp1728
S'Rocket 1.2.4'
p1729
asbasbasbag61
(g77
g63
NtRp1730
(dp1731
g66
(dp1732
sg75
g1049
sg68
(lp1733
g61
(g82
g63
NtRp1734
(dp1735
g66
(dp1736
g86
g87
ssg75
g1730
sg68
(lp1737
S'web2py_crontype'
p1738
asbag61
(g82
g63
NtRp1739
(dp1740
g66
(dp1741
g93
g94
ssg75
g1730
sg68
(lp1742
S':'
asbag61
(g82
g63
NtRp1743
(dp1744
g66
(dp1745
sg75
g1730
sg68
(lp1746
g61
(g62
g63
NtRp1747
(dp1748
g66
(dp1749
g74
I4
ssg75
g1743
sg68
(lp1750
S'hard'
p1751
asbasbasbag61
(g77
g63
NtRp1752
(dp1753
g66
(dp1754
sg75
g1049
sg68
(lp1755
g61
(g82
g63
NtRp1756
(dp1757
g66
(dp1758
g86
g87
ssg75
g1752
sg68
(lp1759
S'web2py_path'
p1760
asbag61
(g82
g63
NtRp1761
(dp1762
g66
(dp1763
g93
g94
ssg75
g1752
sg68
(lp1764
S':'
asbag61
(g82
g63
NtRp1765
(dp1766
g66
(dp1767
sg75
g1752
sg68
(lp1768
g61
(g62
g63
NtRp1769
(dp1770
g66
(dp1771
g74
I4
ssg75
g1765
sg68
(lp1772
g1096
asbasbasbag61
(g77
g63
NtRp1773
(dp1774
g66
(dp1775
sg75
g1049
sg68
(lp1776
g61
(g82
g63
NtRp1777
(dp1778
g66
(dp1779
g86
g87
ssg75
g1773
sg68
(lp1780
S'web2py_version'
p1781
asbag61
(g82
g63
NtRp1782
(dp1783
g66
(dp1784
g93
g94
ssg75
g1773
sg68
(lp1785
S':'
asbag61
(g82
g63
NtRp1786
(dp1787
g66
(dp1788
sg75
g1773
sg68
(lp1789
g61
(g62
g63
NtRp1790
(dp1791
g66
(dp1792
g74
I4
ssg75
g1786
sg68
(lp1793
g61
(g70
g63
NtRp1794
(dp1795
g66
(dp1796
g74
I3
ssg75
Nsg68
(lp1797
g61
(g77
g63
NtRp1798
(dp1799
g66
(dp1800
sg75
g1794
sg68
(lp1801
g61
(g82
g63
NtRp1802
(dp1803
g66
(dp1804
sg75
g1798
sg68
(lp1805
g61
(g62
g63
NtRp1806
(dp1807
g66
(dp1808
g74
I3
ssg75
g1802
sg68
(lp1809
S'2'
asbasbasbag61
(g77
g63
NtRp1810
(dp1811
g66
(dp1812
sg75
g1794
sg68
(lp1813
g61
(g82
g63
NtRp1814
(dp1815
g66
(dp1816
sg75
g1810
sg68
(lp1817
g61
(g62
g63
NtRp1818
(dp1819
g66
(dp1820
g74
I3
ssg75
g1814
sg68
(lp1821
S'0'
asbasbasbag61
(g77
g63
NtRp1822
(dp1823
g66
(dp1824
sg75
g1794
sg68
(lp1825
g61
(g82
g63
NtRp1826
(dp1827
g66
(dp1828
sg75
g1822
sg68
(lp1829
g61
(g62
g63
NtRp1830
(dp1831
g66
(dp1832
g74
I3
ssg75
g1826
sg68
(lp1833
S'2'
asbasbasbag61
(g77
g63
NtRp1834
(dp1835
g66
(dp1836
sg75
g1794
sg68
(lp1837
g61
(g82
g63
NtRp1838
(dp1839
g66
(dp1840
sg75
g1834
sg68
(lp1841
g61
(g62
g63
NtRp1842
(dp1843
g66
(dp1844
g74
I3
ssg75
g1838
sg68
(lp1845
S'datetime.datetime(2012, 8, 30, 4, 8, 18)'
p1846
asbasbasbag61
(g77
g63
NtRp1847
(dp1848
g66
(dp1849
sg75
g1794
sg68
(lp1850
g61
(g82
g63
NtRp1851
(dp1852
g66
(dp1853
sg75
g1847
sg68
(lp1854
g61
(g62
g63
NtRp1855
(dp1856
g66
(dp1857
g74
I3
ssg75
g1851
sg68
(lp1858
S'stable'
p1859
asbasbasbasbasbasbasbag61
(g77
g63
NtRp1860
(dp1861
g66
(dp1862
sg75
g1049
sg68
(lp1863
g61
(g82
g63
NtRp1864
(dp1865
g66
(dp1866
g86
g87
ssg75
g1860
sg68
(lp1867
S'wsgi_errors'
p1868
asbag61
(g82
g63
NtRp1869
(dp1870
g66
(dp1871
g93
g94
ssg75
g1860
sg68
(lp1872
S':'
asbag61
(g82
g63
NtRp1873
(dp1874
g66
(dp1875
sg75
g1860
sg68
(lp1876
g61
(g62
g63
NtRp1877
(dp1878
g66
(dp1879
g74
I4
ssg75
g1873
sg68
(lp1880
S"<open file '<stderr>', mode 'w' at 0xb772d0d0>"
p1881
asbasbasbag61
(g77
g63
NtRp1882
(dp1883
g66
(dp1884
sg75
g1049
sg68
(lp1885
g61
(g82
g63
NtRp1886
(dp1887
g66
(dp1888
g86
g87
ssg75
g1882
sg68
(lp1889
S'wsgi_file_wrapper'
p1890
asbag61
(g82
g63
NtRp1891
(dp1892
g66
(dp1893
g93
g94
ssg75
g1882
sg68
(lp1894
S':'
asbag61
(g82
g63
NtRp1895
(dp1896
g66
(dp1897
sg75
g1882
sg68
(lp1898
g61
(g62
g63
NtRp1899
(dp1900
g66
(dp1901
g74
I4
ssg75
g1895
sg68
(lp1902
S'<class wsgiref.util.FileWrapper at 0x8d0326c>'
p1903
asbasbasbag61
(g77
g63
NtRp1904
(dp1905
g66
(dp1906
sg75
g1049
sg68
(lp1907
g61
(g82
g63
NtRp1908
(dp1909
g66
(dp1910
g86
g87
ssg75
g1904
sg68
(lp1911
S'wsgi_input'
p1912
asbag61
(g82
g63
NtRp1913
(dp1914
g66
(dp1915
g93
g94
ssg75
g1904
sg68
(lp1916
S':'
asbag61
(g82
g63
NtRp1917
(dp1918
g66
(dp1919
sg75
g1904
sg68
(lp1920
g61
(g62
g63
NtRp1921
(dp1922
g66
(dp1923
g74
I4
ssg75
g1917
sg68
(lp1924
S'<socket._fileobject object at 0x8fbc26c>'
p1925
asbasbasbag61
(g77
g63
NtRp1926
(dp1927
g66
(dp1928
sg75
g1049
sg68
(lp1929
g61
(g82
g63
NtRp1930
(dp1931
g66
(dp1932
g86
g87
ssg75
g1926
sg68
(lp1933
S'wsgi_multiprocess'
p1934
asbag61
(g82
g63
NtRp1935
(dp1936
g66
(dp1937
g93
g94
ssg75
g1926
sg68
(lp1938
S':'
asbag61
(g82
g63
NtRp1939
(dp1940
g66
(dp1941
sg75
g1926
sg68
(lp1942
g61
(g62
g63
NtRp1943
(dp1944
g66
(dp1945
g74
I4
ssg75
g1939
sg68
(lp1946
g104
asbasbasbag61
(g77
g63
NtRp1947
(dp1948
g66
(dp1949
sg75
g1049
sg68
(lp1950
g61
(g82
g63
NtRp1951
(dp1952
g66
(dp1953
g86
g87
ssg75
g1947
sg68
(lp1954
S'wsgi_multithread'
p1955
asbag61
(g82
g63
NtRp1956
(dp1957
g66
(dp1958
g93
g94
ssg75
g1947
sg68
(lp1959
S':'
asbag61
(g82
g63
NtRp1960
(dp1961
g66
(dp1962
sg75
g1947
sg68
(lp1963
g61
(g62
g63
NtRp1964
(dp1965
g66
(dp1966
g74
I4
ssg75
g1960
sg68
(lp1967
S'True'
p1968
asbasbasbag61
(g77
g63
NtRp1969
(dp1970
g66
(dp1971
sg75
g1049
sg68
(lp1972
g61
(g82
g63
NtRp1973
(dp1974
g66
(dp1975
g86
g87
ssg75
g1969
sg68
(lp1976
S'wsgi_run_once'
p1977
asbag61
(g82
g63
NtRp1978
(dp1979
g66
(dp1980
g93
g94
ssg75
g1969
sg68
(lp1981
S':'
asbag61
(g82
g63
NtRp1982
(dp1983
g66
(dp1984
sg75
g1969
sg68
(lp1985
g61
(g62
g63
NtRp1986
(dp1987
g66
(dp1988
g74
I4
ssg75
g1982
sg68
(lp1989
g104
asbasbasbag61
(g77
g63
NtRp1990
(dp1991
g66
(dp1992
sg75
g1049
sg68
(lp1993
g61
(g82
g63
NtRp1994
(dp1995
g66
(dp1996
g86
g87
ssg75
g1990
sg68
(lp1997
S'wsgi_url_scheme'
p1998
asbag61
(g82
g63
NtRp1999
(dp2000
g66
(dp2001
g93
g94
ssg75
g1990
sg68
(lp2002
S':'
asbag61
(g82
g63
NtRp2003
(dp2004
g66
(dp2005
sg75
g1990
sg68
(lp2006
g61
(g62
g63
NtRp2007
(dp2008
g66
(dp2009
g74
I4
ssg75
g2003
sg68
(lp2010
S'http'
p2011
asbasbasbag61
(g77
g63
NtRp2012
(dp2013
g66
(dp2014
sg75
g1049
sg68
(lp2015
g61
(g82
g63
NtRp2016
(dp2017
g66
(dp2018
g86
g87
ssg75
g2012
sg68
(lp2019
S'wsgi_version'
p2020
asbag61
(g82
g63
NtRp2021
(dp2022
g66
(dp2023
g93
g94
ssg75
g2012
sg68
(lp2024
S':'
asbag61
(g82
g63
NtRp2025
(dp2026
g66
(dp2027
sg75
g2012
sg68
(lp2028
g61
(g62
g63
NtRp2029
(dp2030
g66
(dp2031
g74
I4
ssg75
g2025
sg68
(lp2032
g61
(g70
g63
NtRp2033
(dp2034
g66
(dp2035
g74
I3
ssg75
Nsg68
(lp2036
g61
(g77
g63
NtRp2037
(dp2038
g66
(dp2039
sg75
g2033
sg68
(lp2040
g61
(g82
g63
NtRp2041
(dp2042
g66
(dp2043
sg75
g2037
sg68
(lp2044
g61
(g62
g63
NtRp2045
(dp2046
g66
(dp2047
g74
I3
ssg75
g2041
sg68
(lp2048
S'1'
asbasbasbag61
(g77
g63
NtRp2049
(dp2050
g66
(dp2051
sg75
g2033
sg68
(lp2052
g61
(g82
g63
NtRp2053
(dp2054
g66
(dp2055
sg75
g2049
sg68
(lp2056
g61
(g62
g63
NtRp2057
(dp2058
g66
(dp2059
g74
I3
ssg75
g2053
sg68
(lp2060
S'0'
asbasbasbasbasbasbasbasbasbasbasbag61
(g77
g63
NtRp2061
(dp2062
g66
(dp2063
sg75
g71
sg68
(lp2064
g61
(g82
g63
NtRp2065
(dp2066
g66
(dp2067
g86
g87
ssg75
g2061
sg68
(lp2068
S'extension'
p2069
asbag61
(g82
g63
NtRp2070
(dp2071
g66
(dp2072
g93
g94
ssg75
g2061
sg68
(lp2073
S':'
asbag61
(g82
g63
NtRp2074
(dp2075
g66
(dp2076
sg75
g2061
sg68
(lp2077
g61
(g62
g63
NtRp2078
(dp2079
g66
(dp2080
g74
I5
ssg75
g2074
sg68
(lp2081
S'html'
p2082
asbasbasbag61
(g77
g63
NtRp2083
(dp2084
g66
(dp2085
sg75
g71
sg68
(lp2086
g61
(g82
g63
NtRp2087
(dp2088
g66
(dp2089
g86
g87
ssg75
g2083
sg68
(lp2090
S'folder'
p2091
asbag61
(g82
g63
NtRp2092
(dp2093
g66
(dp2094
g93
g94
ssg75
g2083
sg68
(lp2095
S':'
asbag61
(g82
g63
NtRp2096
(dp2097
g66
(dp2098
sg75
g2083
sg68
(lp2099
g61
(g62
g63
NtRp2100
(dp2101
g66
(dp2102
g74
I5
ssg75
g2096
sg68
(lp2103
S'/home/piyush/web2py/applications/FotoBuk/'
p2104
asbasbasbag61
(g77
g63
NtRp2105
(dp2106
g66
(dp2107
sg75
g71
sg68
(lp2108
g61
(g82
g63
NtRp2109
(dp2110
g66
(dp2111
g86
g87
ssg75
g2105
sg68
(lp2112
S'function'
p2113
asbag61
(g82
g63
NtRp2114
(dp2115
g66
(dp2116
g93
g94
ssg75
g2105
sg68
(lp2117
S':'
asbag61
(g82
g63
NtRp2118
(dp2119
g66
(dp2120
sg75
g2105
sg68
(lp2121
g61
(g62
g63
NtRp2122
(dp2123
g66
(dp2124
g74
I5
ssg75
g2118
sg68
(lp2125
S'show'
p2126
asbasbasbag61
(g77
g63
NtRp2127
(dp2128
g66
(dp2129
sg75
g71
sg68
(lp2130
g61
(g82
g63
NtRp2131
(dp2132
g66
(dp2133
g86
g87
ssg75
g2127
sg68
(lp2134
S'get_vars'
p2135
asbag61
(g82
g63
NtRp2136
(dp2137
g66
(dp2138
g93
g94
ssg75
g2127
sg68
(lp2139
S':'
asbag61
(g82
g63
NtRp2140
(dp2141
g66
(dp2142
sg75
g2127
sg68
(lp2143
g61
(g62
g63
NtRp2144
(dp2145
g66
(dp2146
g74
I5
ssg75
g2140
sg68
(lp2147
g61
(g70
g63
NtRp2148
(dp2149
g66
(dp2150
g74
I4
ssg75
Nsg68
(lp2151
sbasbasbasbag61
(g77
g63
NtRp2152
(dp2153
g66
(dp2154
sg75
g71
sg68
(lp2155
g61
(g82
g63
NtRp2156
(dp2157
g66
(dp2158
g86
g87
ssg75
g2152
sg68
(lp2159
S'global_settings'
p2160
asbag61
(g82
g63
NtRp2161
(dp2162
g66
(dp2163
g93
g94
ssg75
g2152
sg68
(lp2164
S':'
asbag61
(g82
g63
NtRp2165
(dp2166
g66
(dp2167
sg75
g2152
sg68
(lp2168
g61
(g62
g63
NtRp2169
(dp2170
g66
(dp2171
g74
I5
ssg75
g2165
sg68
(lp2172
g61
(g70
g63
NtRp2173
(dp2174
g66
(dp2175
g74
I4
ssg75
Nsg68
(lp2176
g61
(g77
g63
NtRp2177
(dp2178
g66
(dp2179
sg75
g2173
sg68
(lp2180
g61
(g82
g63
NtRp2181
(dp2182
g66
(dp2183
g86
g87
ssg75
g2177
sg68
(lp2184
g1061
asbag61
(g82
g63
NtRp2185
(dp2186
g66
(dp2187
g93
g94
ssg75
g2177
sg68
(lp2188
S':'
asbag61
(g82
g63
NtRp2189
(dp2190
g66
(dp2191
sg75
g2177
sg68
(lp2192
g61
(g62
g63
NtRp2193
(dp2194
g66
(dp2195
g74
I4
ssg75
g2189
sg68
(lp2196
S"set(['/home/piyush/web2py/applications/FotoBuk/', '/home/piyush/web2py/applications/welcome/', '/home/piyush/web2py/applications/admin/'])"
p2197
asbasbasbag61
(g77
g63
NtRp2198
(dp2199
g66
(dp2200
sg75
g2173
sg68
(lp2201
g61
(g82
g63
NtRp2202
(dp2203
g66
(dp2204
g86
g87
ssg75
g2198
sg68
(lp2205
g1083
asbag61
(g82
g63
NtRp2206
(dp2207
g66
(dp2208
g93
g94
ssg75
g2198
sg68
(lp2209
S':'
asbag61
(g82
g63
NtRp2210
(dp2211
g66
(dp2212
sg75
g2198
sg68
(lp2213
g61
(g62
g63
NtRp2214
(dp2215
g66
(dp2216
g74
I4
ssg75
g2210
sg68
(lp2217
g1096
asbasbasbag61
(g77
g63
NtRp2218
(dp2219
g66
(dp2220
sg75
g2173
sg68
(lp2221
g61
(g82
g63
NtRp2222
(dp2223
g66
(dp2224
g86
g87
ssg75
g2218
sg68
(lp2225
g1105
asbag61
(g82
g63
NtRp2226
(dp2227
g66
(dp2228
g93
g94
ssg75
g2218
sg68
(lp2229
S':'
asbag61
(g82
g63
NtRp2230
(dp2231
g66
(dp2232
sg75
g2218
sg68
(lp2233
g61
(g62
g63
NtRp2234
(dp2235
g66
(dp2236
g74
I4
ssg75
g2230
sg68
(lp2237
g61
(g70
g63
NtRp2238
(dp2239
g66
(dp2240
g74
I3
ssg75
Nsg68
(lp2241
sbasbasbasbag61
(g77
g63
NtRp2242
(dp2243
g66
(dp2244
sg75
g2173
sg68
(lp2245
g61
(g82
g63
NtRp2246
(dp2247
g66
(dp2248
g86
g87
ssg75
g2242
sg68
(lp2249
g1130
asbag61
(g82
g63
NtRp2250
(dp2251
g66
(dp2252
g93
g94
ssg75
g2242
sg68
(lp2253
S':'
asbag61
(g82
g63
NtRp2254
(dp2255
g66
(dp2256
sg75
g2242
sg68
(lp2257
g61
(g62
g63
NtRp2258
(dp2259
g66
(dp2260
g74
I4
ssg75
g2254
sg68
(lp2261
S"<Values at 0x8d4130c: {'verbose': False, 'ip': '127.0.0.1', 'with_scheduler': False, 'ips': ['10.1.39.167', '10.42.0.1'], 'shutdown_timeout': 5, 'taskbar': False, 'port': 8000, 'maxthreads': None, 'softcron': False, 'server_name': 'Solo', 'bpython': False, 'nogui': False, 'nocron': False, 'extcron': False, 'run_system_tests': False, 'test': None, 'folder': '/home/piyush/web2py', 'config': '', 'import_models': False, 'winservice': '', 'shell': None, 'run': '', 'log_filename': 'httpserver.log', 'debuglevel': 30, 'args': [''], 'socket_timeout': 5, 'ssl_ca_certificate': None, 'scheduler': None, 'profiler_filename': None, 'ssl_private_key': '', 'scheduler_groups': None, 'password': '<ask>', 'request_queue_size': 5, 'ssl_certificate': '', 'cronjob': False, 'numthreads': None, 'quiet': False, 'interfaces': None, 'minthreads': None, 'timeout': 10, 'plain': False, 'nobanner': False, 'pid_filename': 'httpserver.pid'}>"
p2262
asbasbasbag61
(g77
g63
NtRp2263
(dp2264
g66
(dp2265
sg75
g2173
sg68
(lp2266
g61
(g82
g63
NtRp2267
(dp2268
g66
(dp2269
g86
g87
ssg75
g2263
sg68
(lp2270
g1196
asbag61
(g82
g63
NtRp2271
(dp2272
g66
(dp2273
g93
g94
ssg75
g2263
sg68
(lp2274
S':'
asbag61
(g82
g63
NtRp2275
(dp2276
g66
(dp2277
sg75
g2263
sg68
(lp2278
g61
(g62
g63
NtRp2279
(dp2280
g66
(dp2281
g74
I4
ssg75
g2275
sg68
(lp2282
S'set([])'
p2283
asbasbasbag61
(g77
g63
NtRp2284
(dp2285
g66
(dp2286
sg75
g2173
sg68
(lp2287
g61
(g82
g63
NtRp2288
(dp2289
g66
(dp2290
g86
g87
ssg75
g2284
sg68
(lp2291
g1218
asbag61
(g82
g63
NtRp2292
(dp2293
g66
(dp2294
g93
g94
ssg75
g2284
sg68
(lp2295
S':'
asbag61
(g82
g63
NtRp2296
(dp2297
g66
(dp2298
sg75
g2284
sg68
(lp2299
g61
(g62
g63
NtRp2300
(dp2301
g66
(dp2302
g74
I4
ssg75
g2296
sg68
(lp2303
g104
asbasbasbag61
(g77
g63
NtRp2304
(dp2305
g66
(dp2306
sg75
g2173
sg68
(lp2307
g61
(g82
g63
NtRp2308
(dp2309
g66
(dp2310
g86
g87
ssg75
g2304
sg68
(lp2311
g1239
asbag61
(g82
g63
NtRp2312
(dp2313
g66
(dp2314
g93
g94
ssg75
g2304
sg68
(lp2315
S':'
asbag61
(g82
g63
NtRp2316
(dp2317
g66
(dp2318
sg75
g2304
sg68
(lp2319
g61
(g62
g63
NtRp2320
(dp2321
g66
(dp2322
g74
I4
ssg75
g2316
sg68
(lp2323
g1252
asbasbasbag61
(g77
g63
NtRp2324
(dp2325
g66
(dp2326
sg75
g2173
sg68
(lp2327
g61
(g82
g63
NtRp2328
(dp2329
g66
(dp2330
g86
g87
ssg75
g2324
sg68
(lp2331
g1479
asbag61
(g82
g63
NtRp2332
(dp2333
g66
(dp2334
g93
g94
ssg75
g2324
sg68
(lp2335
S':'
asbag61
(g82
g63
NtRp2336
(dp2337
g66
(dp2338
sg75
g2324
sg68
(lp2339
g61
(g62
g63
NtRp2340
(dp2341
g66
(dp2342
g74
I4
ssg75
g2336
sg68
(lp2343
g104
asbasbasbag61
(g77
g63
NtRp2344
(dp2345
g66
(dp2346
sg75
g2173
sg68
(lp2347
g61
(g82
g63
NtRp2348
(dp2349
g66
(dp2350
g86
g87
ssg75
g2344
sg68
(lp2351
g1500
asbag61
(g82
g63
NtRp2352
(dp2353
g66
(dp2354
g93
g94
ssg75
g2344
sg68
(lp2355
S':'
asbag61
(g82
g63
NtRp2356
(dp2357
g66
(dp2358
sg75
g2344
sg68
(lp2359
g61
(g62
g63
NtRp2360
(dp2361
g66
(dp2362
g74
I4
ssg75
g2356
sg68
(lp2363
g104
asbasbasbag61
(g77
g63
NtRp2364
(dp2365
g66
(dp2366
sg75
g2173
sg68
(lp2367
g61
(g82
g63
NtRp2368
(dp2369
g66
(dp2370
g86
g87
ssg75
g2364
sg68
(lp2371
g1738
asbag61
(g82
g63
NtRp2372
(dp2373
g66
(dp2374
g93
g94
ssg75
g2364
sg68
(lp2375
S':'
asbag61
(g82
g63
NtRp2376
(dp2377
g66
(dp2378
sg75
g2364
sg68
(lp2379
g61
(g62
g63
NtRp2380
(dp2381
g66
(dp2382
g74
I4
ssg75
g2376
sg68
(lp2383
g1751
asbasbasbag61
(g77
g63
NtRp2384
(dp2385
g66
(dp2386
sg75
g2173
sg68
(lp2387
g61
(g82
g63
NtRp2388
(dp2389
g66
(dp2390
g86
g87
ssg75
g2384
sg68
(lp2391
g1781
asbag61
(g82
g63
NtRp2392
(dp2393
g66
(dp2394
g93
g94
ssg75
g2384
sg68
(lp2395
S':'
asbag61
(g82
g63
NtRp2396
(dp2397
g66
(dp2398
sg75
g2384
sg68
(lp2399
g61
(g62
g63
NtRp2400
(dp2401
g66
(dp2402
g74
I4
ssg75
g2396
sg68
(lp2403
g61
(g70
g63
NtRp2404
(dp2405
g66
(dp2406
g74
I3
ssg75
Nsg68
(lp2407
g61
(g77
g63
NtRp2408
(dp2409
g66
(dp2410
sg75
g2404
sg68
(lp2411
g61
(g82
g63
NtRp2412
(dp2413
g66
(dp2414
sg75
g2408
sg68
(lp2415
g61
(g62
g63
NtRp2416
(dp2417
g66
(dp2418
g74
I3
ssg75
g2412
sg68
(lp2419
S'2'
asbasbasbag61
(g77
g63
NtRp2420
(dp2421
g66
(dp2422
sg75
g2404
sg68
(lp2423
g61
(g82
g63
NtRp2424
(dp2425
g66
(dp2426
sg75
g2420
sg68
(lp2427
g61
(g62
g63
NtRp2428
(dp2429
g66
(dp2430
g74
I3
ssg75
g2424
sg68
(lp2431
S'0'
asbasbasbag61
(g77
g63
NtRp2432
(dp2433
g66
(dp2434
sg75
g2404
sg68
(lp2435
g61
(g82
g63
NtRp2436
(dp2437
g66
(dp2438
sg75
g2432
sg68
(lp2439
g61
(g62
g63
NtRp2440
(dp2441
g66
(dp2442
g74
I3
ssg75
g2436
sg68
(lp2443
S'2'
asbasbasbag61
(g77
g63
NtRp2444
(dp2445
g66
(dp2446
sg75
g2404
sg68
(lp2447
g61
(g82
g63
NtRp2448
(dp2449
g66
(dp2450
sg75
g2444
sg68
(lp2451
g61
(g62
g63
NtRp2452
(dp2453
g66
(dp2454
g74
I3
ssg75
g2448
sg68
(lp2455
S'datetime.datetime(2012, 8, 30, 4, 8, 18)'
p2456
asbasbasbag61
(g77
g63
NtRp2457
(dp2458
g66
(dp2459
sg75
g2404
sg68
(lp2460
g61
(g82
g63
NtRp2461
(dp2462
g66
(dp2463
sg75
g2457
sg68
(lp2464
g61
(g62
g63
NtRp2465
(dp2466
g66
(dp2467
g74
I3
ssg75
g2461
sg68
(lp2468
g1859
asbasbasbasbasbasbasbasbasbasbasbag61
(g77
g63
NtRp2469
(dp2470
g66
(dp2471
sg75
g71
sg68
(lp2472
g61
(g82
g63
NtRp2473
(dp2474
g66
(dp2475
g86
g87
ssg75
g2469
sg68
(lp2476
S'is_https'
p2477
asbag61
(g82
g63
NtRp2478
(dp2479
g66
(dp2480
g93
g94
ssg75
g2469
sg68
(lp2481
S':'
asbag61
(g82
g63
NtRp2482
(dp2483
g66
(dp2484
sg75
g2469
sg68
(lp2485
g61
(g62
g63
NtRp2486
(dp2487
g66
(dp2488
g74
I5
ssg75
g2482
sg68
(lp2489
g104
asbasbasbag61
(g77
g63
NtRp2490
(dp2491
g66
(dp2492
sg75
g71
sg68
(lp2493
g61
(g82
g63
NtRp2494
(dp2495
g66
(dp2496
g86
g87
ssg75
g2490
sg68
(lp2497
S'is_local'
p2498
asbag61
(g82
g63
NtRp2499
(dp2500
g66
(dp2501
g93
g94
ssg75
g2490
sg68
(lp2502
S':'
asbag61
(g82
g63
NtRp2503
(dp2504
g66
(dp2505
sg75
g2490
sg68
(lp2506
g61
(g62
g63
NtRp2507
(dp2508
g66
(dp2509
g74
I5
ssg75
g2503
sg68
(lp2510
g1968
asbasbasbag61
(g77
g63
NtRp2511
(dp2512
g66
(dp2513
sg75
g71
sg68
(lp2514
g61
(g82
g63
NtRp2515
(dp2516
g66
(dp2517
g86
g87
ssg75
g2511
sg68
(lp2518
S'is_restful'
p2519
asbag61
(g82
g63
NtRp2520
(dp2521
g66
(dp2522
g93
g94
ssg75
g2511
sg68
(lp2523
S':'
asbag61
(g82
g63
NtRp2524
(dp2525
g66
(dp2526
sg75
g2511
sg68
(lp2527
g61
(g62
g63
NtRp2528
(dp2529
g66
(dp2530
g74
I5
ssg75
g2524
sg68
(lp2531
g104
asbasbasbag61
(g77
g63
NtRp2532
(dp2533
g66
(dp2534
sg75
g71
sg68
(lp2535
g61
(g82
g63
NtRp2536
(dp2537
g66
(dp2538
g86
g87
ssg75
g2532
sg68
(lp2539
S'now'
p2540
asbag61
(g82
g63
NtRp2541
(dp2542
g66
(dp2543
g93
g94
ssg75
g2532
sg68
(lp2544
S':'
asbag61
(g82
g63
NtRp2545
(dp2546
g66
(dp2547
sg75
g2532
sg68
(lp2548
g61
(g62
g63
NtRp2549
(dp2550
g66
(dp2551
g74
I5
ssg75
g2545
sg68
(lp2552
S'datetime.datetime(2012, 8, 31, 10, 11, 12, 70895)'
p2553
asbasbasbag61
(g77
g63
NtRp2554
(dp2555
g66
(dp2556
sg75
g71
sg68
(lp2557
g61
(g82
g63
NtRp2558
(dp2559
g66
(dp2560
g86
g87
ssg75
g2554
sg68
(lp2561
S'post_vars'
p2562
asbag61
(g82
g63
NtRp2563
(dp2564
g66
(dp2565
g93
g94
ssg75
g2554
sg68
(lp2566
S':'
asbag61
(g82
g63
NtRp2567
(dp2568
g66
(dp2569
sg75
g2554
sg68
(lp2570
g61
(g62
g63
NtRp2571
(dp2572
g66
(dp2573
g74
I5
ssg75
g2567
sg68
(lp2574
g61
(g70
g63
NtRp2575
(dp2576
g66
(dp2577
g74
I4
ssg75
Nsg68
(lp2578
sbasbasbasbag61
(g77
g63
NtRp2579
(dp2580
g66
(dp2581
sg75
g71
sg68
(lp2582
g61
(g82
g63
NtRp2583
(dp2584
g66
(dp2585
g86
g87
ssg75
g2579
sg68
(lp2586
S'raw_args'
p2587
asbag61
(g82
g63
NtRp2588
(dp2589
g66
(dp2590
g93
g94
ssg75
g2579
sg68
(lp2591
S':'
asbag61
(g82
g63
NtRp2592
(dp2593
g66
(dp2594
sg75
g2579
sg68
(lp2595
g61
(g62
g63
NtRp2596
(dp2597
g66
(dp2598
g74
I5
ssg75
g2592
sg68
(lp2599
S'6'
asbasbasbag61
(g77
g63
NtRp2600
(dp2601
g66
(dp2602
sg75
g71
sg68
(lp2603
g61
(g82
g63
NtRp2604
(dp2605
g66
(dp2606
g86
g87
ssg75
g2600
sg68
(lp2607
S'raw_extension'
p2608
asbag61
(g82
g63
NtRp2609
(dp2610
g66
(dp2611
g93
g94
ssg75
g2600
sg68
(lp2612
S':'
asbag61
(g82
g63
NtRp2613
(dp2614
g66
(dp2615
sg75
g2600
sg68
(lp2616
g61
(g62
g63
NtRp2617
(dp2618
g66
(dp2619
g74
I5
ssg75
g2613
sg68
(lp2620
S'None'
p2621
asbasbasbag61
(g77
g63
NtRp2622
(dp2623
g66
(dp2624
sg75
g71
sg68
(lp2625
g61
(g82
g63
NtRp2626
(dp2627
g66
(dp2628
g86
g87
ssg75
g2622
sg68
(lp2629
S'url'
p2630
asbag61
(g82
g63
NtRp2631
(dp2632
g66
(dp2633
g93
g94
ssg75
g2622
sg68
(lp2634
S':'
asbag61
(g82
g63
NtRp2635
(dp2636
g66
(dp2637
sg75
g2622
sg68
(lp2638
g61
(g62
g63
NtRp2639
(dp2640
g66
(dp2641
g74
I5
ssg75
g2635
sg68
(lp2642
S'/FotoBuk/default/show/6'
p2643
asbasbasbag61
(g77
g63
NtRp2644
(dp2645
g66
(dp2646
sg75
g71
sg68
(lp2647
g61
(g82
g63
NtRp2648
(dp2649
g66
(dp2650
g86
g87
ssg75
g2644
sg68
(lp2651
S'utcnow'
p2652
asbag61
(g82
g63
NtRp2653
(dp2654
g66
(dp2655
g93
g94
ssg75
g2644
sg68
(lp2656
S':'
asbag61
(g82
g63
NtRp2657
(dp2658
g66
(dp2659
sg75
g2644
sg68
(lp2660
g61
(g62
g63
NtRp2661
(dp2662
g66
(dp2663
g74
I5
ssg75
g2657
sg68
(lp2664
S'datetime.datetime(2012, 8, 31, 4, 41, 12, 70924)'
p2665
asbasbasbag61
(g77
g63
NtRp2666
(dp2667
g66
(dp2668
sg75
g71
sg68
(lp2669
g61
(g82
g63
NtRp2670
(dp2671
g66
(dp2672
g86
g87
ssg75
g2666
sg68
(lp2673
S'uuid'
p2674
asbag61
(g82
g63
NtRp2675
(dp2676
g66
(dp2677
g93
g94
ssg75
g2666
sg68
(lp2678
S':'
asbag61
(g82
g63
NtRp2679
(dp2680
g66
(dp2681
sg75
g2666
sg68
(lp2682
g61
(g62
g63
NtRp2683
(dp2684
g66
(dp2685
g74
I5
ssg75
g2679
sg68
(lp2686
S'FotoBuk/127.0.0.1.2012-08-31.10-11-12.a635d2b1-69e3-42bb-bb72-e0ccfb3a60da'
p2687
asbasbasbag61
(g77
g63
NtRp2688
(dp2689
g66
(dp2690
sg75
g71
sg68
(lp2691
g61
(g82
g63
NtRp2692
(dp2693
g66
(dp2694
g86
g87
ssg75
g2688
sg68
(lp2695
S'vars'
p2696
asbag61
(g82
g63
NtRp2697
(dp2698
g66
(dp2699
g93
g94
ssg75
g2688
sg68
(lp2700
S':'
asbag61
(g82
g63
NtRp2701
(dp2702
g66
(dp2703
sg75
g2688
sg68
(lp2704
g61
(g62
g63
NtRp2705
(dp2706
g66
(dp2707
g74
I5
ssg75
g2701
sg68
(lp2708
g61
(g70
g63
NtRp2709
(dp2710
g66
(dp2711
g74
I4
ssg75
Nsg68
(lp2712
sbasbasbasbag61
(g77
g63
NtRp2713
(dp2714
g66
(dp2715
sg75
g71
sg68
(lp2716
g61
(g82
g63
NtRp2717
(dp2718
g66
(dp2719
g86
g87
ssg75
g2713
sg68
(lp2720
S'wsgi'
p2721
asbag61
(g82
g63
NtRp2722
(dp2723
g66
(dp2724
g93
g94
ssg75
g2713
sg68
(lp2725
S':'
asbag61
(g82
g63
NtRp2726
(dp2727
g66
(dp2728
sg75
g2713
sg68
(lp2729
g61
(g62
g63
NtRp2730
(dp2731
g66
(dp2732
g74
I5
ssg75
g2726
sg68
(lp2733
g61
(g70
g63
NtRp2734
(dp2735
g66
(dp2736
g74
I4
ssg75
Nsg68
(lp2737
g61
(g77
g63
NtRp2738
(dp2739
g66
(dp2740
sg75
g2734
sg68
(lp2741
g61
(g82
g63
NtRp2742
(dp2743
g66
(dp2744
g86
g87
ssg75
g2738
sg68
(lp2745
S'environ'
p2746
asbag61
(g82
g63
NtRp2747
(dp2748
g66
(dp2749
g93
g94
ssg75
g2738
sg68
(lp2750
S':'
asbag61
(g82
g63
NtRp2751
(dp2752
g66
(dp2753
sg75
g2738
sg68
(lp2754
g61
(g62
g63
NtRp2755
(dp2756
g66
(dp2757
g74
I4
ssg75
g2751
sg68
(lp2758
g61
(g70
g63
NtRp2759
(dp2760
g66
(dp2761
g74
I3
ssg75
Nsg68
(lp2762
g61
(g77
g63
NtRp2763
(dp2764
g66
(dp2765
sg75
g2759
sg68
(lp2766
g61
(g82
g63
NtRp2767
(dp2768
g66
(dp2769
g86
g87
ssg75
g2763
sg68
(lp2770
S'CONTENT_LENGTH'
p2771
asbag61
(g82
g63
NtRp2772
(dp2773
g66
(dp2774
g93
g94
ssg75
g2763
sg68
(lp2775
S':'
asbag61
(g82
g63
NtRp2776
(dp2777
g66
(dp2778
sg75
g2763
sg68
(lp2779
g61
(g62
g63
NtRp2780
(dp2781
g66
(dp2782
g74
I3
ssg75
g2776
sg68
(lp2783
g1165
asbasbasbag61
(g77
g63
NtRp2784
(dp2785
g66
(dp2786
sg75
g2759
sg68
(lp2787
g61
(g82
g63
NtRp2788
(dp2789
g66
(dp2790
g86
g87
ssg75
g2784
sg68
(lp2791
S'CONTENT_TYPE'
p2792
asbag61
(g82
g63
NtRp2793
(dp2794
g66
(dp2795
g93
g94
ssg75
g2784
sg68
(lp2796
S':'
asbag61
(g82
g63
NtRp2797
(dp2798
g66
(dp2799
sg75
g2784
sg68
(lp2800
g61
(g62
g63
NtRp2801
(dp2802
g66
(dp2803
g74
I3
ssg75
g2797
sg68
(lp2804
g1187
asbasbasbag61
(g77
g63
NtRp2805
(dp2806
g66
(dp2807
sg75
g2759
sg68
(lp2808
g61
(g82
g63
NtRp2809
(dp2810
g66
(dp2811
g86
g87
ssg75
g2805
sg68
(lp2812
S'HTTP_ACCEPT'
p2813
asbag61
(g82
g63
NtRp2814
(dp2815
g66
(dp2816
g93
g94
ssg75
g2805
sg68
(lp2817
S':'
asbag61
(g82
g63
NtRp2818
(dp2819
g66
(dp2820
sg75
g2805
sg68
(lp2821
g61
(g62
g63
NtRp2822
(dp2823
g66
(dp2824
g74
I3
ssg75
g2818
sg68
(lp2825
g1274
asbasbasbag61
(g77
g63
NtRp2826
(dp2827
g66
(dp2828
sg75
g2759
sg68
(lp2829
g61
(g82
g63
NtRp2830
(dp2831
g66
(dp2832
g86
g87
ssg75
g2826
sg68
(lp2833
S'HTTP_ACCEPT_ENCODING'
p2834
asbag61
(g82
g63
NtRp2835
(dp2836
g66
(dp2837
g93
g94
ssg75
g2826
sg68
(lp2838
S':'
asbag61
(g82
g63
NtRp2839
(dp2840
g66
(dp2841
sg75
g2826
sg68
(lp2842
g61
(g62
g63
NtRp2843
(dp2844
g66
(dp2845
g74
I3
ssg75
g2839
sg68
(lp2846
g1296
asbasbasbag61
(g77
g63
NtRp2847
(dp2848
g66
(dp2849
sg75
g2759
sg68
(lp2850
g61
(g82
g63
NtRp2851
(dp2852
g66
(dp2853
g86
g87
ssg75
g2847
sg68
(lp2854
S'HTTP_ACCEPT_LANGUAGE'
p2855
asbag61
(g82
g63
NtRp2856
(dp2857
g66
(dp2858
g93
g94
ssg75
g2847
sg68
(lp2859
S':'
asbag61
(g82
g63
NtRp2860
(dp2861
g66
(dp2862
sg75
g2847
sg68
(lp2863
g61
(g62
g63
NtRp2864
(dp2865
g66
(dp2866
g74
I3
ssg75
g2860
sg68
(lp2867
g1318
asbasbasbag61
(g77
g63
NtRp2868
(dp2869
g66
(dp2870
sg75
g2759
sg68
(lp2871
g61
(g82
g63
NtRp2872
(dp2873
g66
(dp2874
g86
g87
ssg75
g2868
sg68
(lp2875
S'HTTP_CONNECTION'
p2876
asbag61
(g82
g63
NtRp2877
(dp2878
g66
(dp2879
g93
g94
ssg75
g2868
sg68
(lp2880
S':'
asbag61
(g82
g63
NtRp2881
(dp2882
g66
(dp2883
sg75
g2868
sg68
(lp2884
g61
(g62
g63
NtRp2885
(dp2886
g66
(dp2887
g74
I3
ssg75
g2881
sg68
(lp2888
g1340
asbasbasbag61
(g77
g63
NtRp2889
(dp2890
g66
(dp2891
sg75
g2759
sg68
(lp2892
g61
(g82
g63
NtRp2893
(dp2894
g66
(dp2895
g86
g87
ssg75
g2889
sg68
(lp2896
S'HTTP_CONTENT_LENGTH'
p2897
asbag61
(g82
g63
NtRp2898
(dp2899
g66
(dp2900
g93
g94
ssg75
g2889
sg68
(lp2901
S':'
asbag61
(g82
g63
NtRp2902
(dp2903
g66
(dp2904
sg75
g2889
sg68
(lp2905
g61
(g62
g63
NtRp2906
(dp2907
g66
(dp2908
g74
I3
ssg75
g2902
sg68
(lp2909
g1165
asbasbasbag61
(g77
g63
NtRp2910
(dp2911
g66
(dp2912
sg75
g2759
sg68
(lp2913
g61
(g82
g63
NtRp2914
(dp2915
g66
(dp2916
g86
g87
ssg75
g2910
sg68
(lp2917
S'HTTP_CONTENT_TYPE'
p2918
asbag61
(g82
g63
NtRp2919
(dp2920
g66
(dp2921
g93
g94
ssg75
g2910
sg68
(lp2922
S':'
asbag61
(g82
g63
NtRp2923
(dp2924
g66
(dp2925
sg75
g2910
sg68
(lp2926
g61
(g62
g63
NtRp2927
(dp2928
g66
(dp2929
g74
I3
ssg75
g2923
sg68
(lp2930
g1187
asbasbasbag61
(g77
g63
NtRp2931
(dp2932
g66
(dp2933
sg75
g2759
sg68
(lp2934
g61
(g82
g63
NtRp2935
(dp2936
g66
(dp2937
g86
g87
ssg75
g2931
sg68
(lp2938
S'HTTP_COOKIE'
p2939
asbag61
(g82
g63
NtRp2940
(dp2941
g66
(dp2942
g93
g94
ssg75
g2931
sg68
(lp2943
S':'
asbag61
(g82
g63
NtRp2944
(dp2945
g66
(dp2946
sg75
g2931
sg68
(lp2947
g61
(g62
g63
NtRp2948
(dp2949
g66
(dp2950
g74
I3
ssg75
g2944
sg68
(lp2951
g1404
asbasbasbag61
(g77
g63
NtRp2952
(dp2953
g66
(dp2954
sg75
g2759
sg68
(lp2955
g61
(g82
g63
NtRp2956
(dp2957
g66
(dp2958
g86
g87
ssg75
g2952
sg68
(lp2959
S'HTTP_HOST'
p2960
asbag61
(g82
g63
NtRp2961
(dp2962
g66
(dp2963
g93
g94
ssg75
g2952
sg68
(lp2964
S':'
asbag61
(g82
g63
NtRp2965
(dp2966
g66
(dp2967
sg75
g2952
sg68
(lp2968
g61
(g62
g63
NtRp2969
(dp2970
g66
(dp2971
g74
I3
ssg75
g2965
sg68
(lp2972
g1426
asbasbasbag61
(g77
g63
NtRp2973
(dp2974
g66
(dp2975
sg75
g2759
sg68
(lp2976
g61
(g82
g63
NtRp2977
(dp2978
g66
(dp2979
g86
g87
ssg75
g2973
sg68
(lp2980
S'HTTP_REFERER'
p2981
asbag61
(g82
g63
NtRp2982
(dp2983
g66
(dp2984
g93
g94
ssg75
g2973
sg68
(lp2985
S':'
asbag61
(g82
g63
NtRp2986
(dp2987
g66
(dp2988
sg75
g2973
sg68
(lp2989
g61
(g62
g63
NtRp2990
(dp2991
g66
(dp2992
g74
I3
ssg75
g2986
sg68
(lp2993
g1448
asbasbasbag61
(g77
g63
NtRp2994
(dp2995
g66
(dp2996
sg75
g2759
sg68
(lp2997
g61
(g82
g63
NtRp2998
(dp2999
g66
(dp3000
g86
g87
ssg75
g2994
sg68
(lp3001
S'HTTP_USER_AGENT'
p3002
asbag61
(g82
g63
NtRp3003
(dp3004
g66
(dp3005
g93
g94
ssg75
g2994
sg68
(lp3006
S':'
asbag61
(g82
g63
NtRp3007
(dp3008
g66
(dp3009
sg75
g2994
sg68
(lp3010
g61
(g62
g63
NtRp3011
(dp3012
g66
(dp3013
g74
I3
ssg75
g3007
sg68
(lp3014
g1470
asbasbasbag61
(g77
g63
NtRp3015
(dp3016
g66
(dp3017
sg75
g2759
sg68
(lp3018
g61
(g82
g63
NtRp3019
(dp3020
g66
(dp3021
g86
g87
ssg75
g3015
sg68
(lp3022
S'PATH_INFO'
p3023
asbag61
(g82
g63
NtRp3024
(dp3025
g66
(dp3026
g93
g94
ssg75
g3015
sg68
(lp3027
S':'
asbag61
(g82
g63
NtRp3028
(dp3029
g66
(dp3030
sg75
g3015
sg68
(lp3031
g61
(g62
g63
NtRp3032
(dp3033
g66
(dp3034
g74
I3
ssg75
g3028
sg68
(lp3035
g1534
asbasbasbag61
(g77
g63
NtRp3036
(dp3037
g66
(dp3038
sg75
g2759
sg68
(lp3039
g61
(g82
g63
NtRp3040
(dp3041
g66
(dp3042
g86
g87
ssg75
g3036
sg68
(lp3043
S'QUERY_STRING'
p3044
asbag61
(g82
g63
NtRp3045
(dp3046
g66
(dp3047
g93
g94
ssg75
g3036
sg68
(lp3048
S':'
asbag61
(g82
g63
NtRp3049
(dp3050
g66
(dp3051
sg75
g3036
sg68
(lp3052
g61
(g62
g63
NtRp3053
(dp3054
g66
(dp3055
g74
I3
ssg75
g3049
sg68
(lp3056
S''
asbasbasbag61
(g77
g63
NtRp3057
(dp3058
g66
(dp3059
sg75
g2759
sg68
(lp3060
g61
(g82
g63
NtRp3061
(dp3062
g66
(dp3063
g86
g87
ssg75
g3057
sg68
(lp3064
S'REMOTE_ADDR'
p3065
asbag61
(g82
g63
NtRp3066
(dp3067
g66
(dp3068
g93
g94
ssg75
g3057
sg68
(lp3069
S':'
asbag61
(g82
g63
NtRp3070
(dp3071
g66
(dp3072
sg75
g3057
sg68
(lp3073
g61
(g62
g63
NtRp3074
(dp3075
g66
(dp3076
g74
I3
ssg75
g3070
sg68
(lp3077
g228
asbasbasbag61
(g77
g63
NtRp3078
(dp3079
g66
(dp3080
sg75
g2759
sg68
(lp3081
g61
(g82
g63
NtRp3082
(dp3083
g66
(dp3084
g86
g87
ssg75
g3078
sg68
(lp3085
S'REMOTE_PORT'
p3086
asbag61
(g82
g63
NtRp3087
(dp3088
g66
(dp3089
g93
g94
ssg75
g3078
sg68
(lp3090
S':'
asbag61
(g82
g63
NtRp3091
(dp3092
g66
(dp3093
sg75
g3078
sg68
(lp3094
g61
(g62
g63
NtRp3095
(dp3096
g66
(dp3097
g74
I3
ssg75
g3091
sg68
(lp3098
g1598
asbasbasbag61
(g77
g63
NtRp3099
(dp3100
g66
(dp3101
sg75
g2759
sg68
(lp3102
g61
(g82
g63
NtRp3103
(dp3104
g66
(dp3105
g86
g87
ssg75
g3099
sg68
(lp3106
S'REQUEST_METHOD'
p3107
asbag61
(g82
g63
NtRp3108
(dp3109
g66
(dp3110
g93
g94
ssg75
g3099
sg68
(lp3111
S':'
asbag61
(g82
g63
NtRp3112
(dp3113
g66
(dp3114
sg75
g3099
sg68
(lp3115
g61
(g62
g63
NtRp3116
(dp3117
g66
(dp3118
g74
I3
ssg75
g3112
sg68
(lp3119
g1620
asbasbasbag61
(g77
g63
NtRp3120
(dp3121
g66
(dp3122
sg75
g2759
sg68
(lp3123
g61
(g82
g63
NtRp3124
(dp3125
g66
(dp3126
g86
g87
ssg75
g3120
sg68
(lp3127
S'SCRIPT_NAME'
p3128
asbag61
(g82
g63
NtRp3129
(dp3130
g66
(dp3131
g93
g94
ssg75
g3120
sg68
(lp3132
S':'
asbag61
(g82
g63
NtRp3133
(dp3134
g66
(dp3135
sg75
g3120
sg68
(lp3136
g61
(g62
g63
NtRp3137
(dp3138
g66
(dp3139
g74
I3
ssg75
g3133
sg68
(lp3140
S''
asbasbasbag61
(g77
g63
NtRp3141
(dp3142
g66
(dp3143
sg75
g2759
sg68
(lp3144
g61
(g82
g63
NtRp3145
(dp3146
g66
(dp3147
g86
g87
ssg75
g3141
sg68
(lp3148
S'SERVER_NAME'
p3149
asbag61
(g82
g63
NtRp3150
(dp3151
g66
(dp3152
g93
g94
ssg75
g3141
sg68
(lp3153
S':'
asbag61
(g82
g63
NtRp3154
(dp3155
g66
(dp3156
sg75
g3141
sg68
(lp3157
g61
(g62
g63
NtRp3158
(dp3159
g66
(dp3160
g74
I3
ssg75
g3154
sg68
(lp3161
g1663
asbasbasbag61
(g77
g63
NtRp3162
(dp3163
g66
(dp3164
sg75
g2759
sg68
(lp3165
g61
(g82
g63
NtRp3166
(dp3167
g66
(dp3168
g86
g87
ssg75
g3162
sg68
(lp3169
S'SERVER_PORT'
p3170
asbag61
(g82
g63
NtRp3171
(dp3172
g66
(dp3173
g93
g94
ssg75
g3162
sg68
(lp3174
S':'
asbag61
(g82
g63
NtRp3175
(dp3176
g66
(dp3177
sg75
g3162
sg68
(lp3178
g61
(g62
g63
NtRp3179
(dp3180
g66
(dp3181
g74
I3
ssg75
g3175
sg68
(lp3182
g1685
asbasbasbag61
(g77
g63
NtRp3183
(dp3184
g66
(dp3185
sg75
g2759
sg68
(lp3186
g61
(g82
g63
NtRp3187
(dp3188
g66
(dp3189
g86
g87
ssg75
g3183
sg68
(lp3190
S'SERVER_PROTOCOL'
p3191
asbag61
(g82
g63
NtRp3192
(dp3193
g66
(dp3194
g93
g94
ssg75
g3183
sg68
(lp3195
S':'
asbag61
(g82
g63
NtRp3196
(dp3197
g66
(dp3198
sg75
g3183
sg68
(lp3199
g61
(g62
g63
NtRp3200
(dp3201
g66
(dp3202
g74
I3
ssg75
g3196
sg68
(lp3203
g1707
asbasbasbag61
(g77
g63
NtRp3204
(dp3205
g66
(dp3206
sg75
g2759
sg68
(lp3207
g61
(g82
g63
NtRp3208
(dp3209
g66
(dp3210
g86
g87
ssg75
g3204
sg68
(lp3211
S'SERVER_SOFTWARE'
p3212
asbag61
(g82
g63
NtRp3213
(dp3214
g66
(dp3215
g93
g94
ssg75
g3204
sg68
(lp3216
S':'
asbag61
(g82
g63
NtRp3217
(dp3218
g66
(dp3219
sg75
g3204
sg68
(lp3220
g61
(g62
g63
NtRp3221
(dp3222
g66
(dp3223
g74
I3
ssg75
g3217
sg68
(lp3224
g1729
asbasbasbag61
(g77
g63
NtRp3225
(dp3226
g66
(dp3227
sg75
g2759
sg68
(lp3228
g61
(g82
g63
NtRp3229
(dp3230
g66
(dp3231
g86
g87
ssg75
g3225
sg68
(lp3232
S'wsgi.errors'
p3233
asbag61
(g82
g63
NtRp3234
(dp3235
g66
(dp3236
g93
g94
ssg75
g3225
sg68
(lp3237
S':'
asbag61
(g82
g63
NtRp3238
(dp3239
g66
(dp3240
sg75
g3225
sg68
(lp3241
g61
(g62
g63
NtRp3242
(dp3243
g66
(dp3244
g74
I3
ssg75
g3238
sg68
(lp3245
S"<open file '<stderr>', mode 'w' at 0xb772d0d0>"
p3246
asbasbasbag61
(g77
g63
NtRp3247
(dp3248
g66
(dp3249
sg75
g2759
sg68
(lp3250
g61
(g82
g63
NtRp3251
(dp3252
g66
(dp3253
g86
g87
ssg75
g3247
sg68
(lp3254
S'wsgi.file_wrapper'
p3255
asbag61
(g82
g63
NtRp3256
(dp3257
g66
(dp3258
g93
g94
ssg75
g3247
sg68
(lp3259
S':'
asbag61
(g82
g63
NtRp3260
(dp3261
g66
(dp3262
sg75
g3247
sg68
(lp3263
g61
(g62
g63
NtRp3264
(dp3265
g66
(dp3266
g74
I3
ssg75
g3260
sg68
(lp3267
S'<class wsgiref.util.FileWrapper at 0x8d0326c>'
p3268
asbasbasbag61
(g77
g63
NtRp3269
(dp3270
g66
(dp3271
sg75
g2759
sg68
(lp3272
g61
(g82
g63
NtRp3273
(dp3274
g66
(dp3275
g86
g87
ssg75
g3269
sg68
(lp3276
S'wsgi.input'
p3277
asbag61
(g82
g63
NtRp3278
(dp3279
g66
(dp3280
g93
g94
ssg75
g3269
sg68
(lp3281
S':'
asbag61
(g82
g63
NtRp3282
(dp3283
g66
(dp3284
sg75
g3269
sg68
(lp3285
g61
(g62
g63
NtRp3286
(dp3287
g66
(dp3288
g74
I3
ssg75
g3282
sg68
(lp3289
S"<open file '<fdopen>', mode 'w+b' at 0xaf024548>"
p3290
asbasbasbag61
(g77
g63
NtRp3291
(dp3292
g66
(dp3293
sg75
g2759
sg68
(lp3294
g61
(g82
g63
NtRp3295
(dp3296
g66
(dp3297
g86
g87
ssg75
g3291
sg68
(lp3298
S'wsgi.multiprocess'
p3299
asbag61
(g82
g63
NtRp3300
(dp3301
g66
(dp3302
g93
g94
ssg75
g3291
sg68
(lp3303
S':'
asbag61
(g82
g63
NtRp3304
(dp3305
g66
(dp3306
sg75
g3291
sg68
(lp3307
g61
(g62
g63
NtRp3308
(dp3309
g66
(dp3310
g74
I3
ssg75
g3304
sg68
(lp3311
g104
asbasbasbag61
(g77
g63
NtRp3312
(dp3313
g66
(dp3314
sg75
g2759
sg68
(lp3315
g61
(g82
g63
NtRp3316
(dp3317
g66
(dp3318
g86
g87
ssg75
g3312
sg68
(lp3319
S'wsgi.multithread'
p3320
asbag61
(g82
g63
NtRp3321
(dp3322
g66
(dp3323
g93
g94
ssg75
g3312
sg68
(lp3324
S':'
asbag61
(g82
g63
NtRp3325
(dp3326
g66
(dp3327
sg75
g3312
sg68
(lp3328
g61
(g62
g63
NtRp3329
(dp3330
g66
(dp3331
g74
I3
ssg75
g3325
sg68
(lp3332
g1968
asbasbasbag61
(g77
g63
NtRp3333
(dp3334
g66
(dp3335
sg75
g2759
sg68
(lp3336
g61
(g82
g63
NtRp3337
(dp3338
g66
(dp3339
g86
g87
ssg75
g3333
sg68
(lp3340
S'wsgi.run_once'
p3341
asbag61
(g82
g63
NtRp3342
(dp3343
g66
(dp3344
g93
g94
ssg75
g3333
sg68
(lp3345
S':'
asbag61
(g82
g63
NtRp3346
(dp3347
g66
(dp3348
sg75
g3333
sg68
(lp3349
g61
(g62
g63
NtRp3350
(dp3351
g66
(dp3352
g74
I3
ssg75
g3346
sg68
(lp3353
g104
asbasbasbag61
(g77
g63
NtRp3354
(dp3355
g66
(dp3356
sg75
g2759
sg68
(lp3357
g61
(g82
g63
NtRp3358
(dp3359
g66
(dp3360
g86
g87
ssg75
g3354
sg68
(lp3361
S'wsgi.url_scheme'
p3362
asbag61
(g82
g63
NtRp3363
(dp3364
g66
(dp3365
g93
g94
ssg75
g3354
sg68
(lp3366
S':'
asbag61
(g82
g63
NtRp3367
(dp3368
g66
(dp3369
sg75
g3354
sg68
(lp3370
g61
(g62
g63
NtRp3371
(dp3372
g66
(dp3373
g74
I3
ssg75
g3367
sg68
(lp3374
g2011
asbasbasbag61
(g77
g63
NtRp3375
(dp3376
g66
(dp3377
sg75
g2759
sg68
(lp3378
g61
(g82
g63
NtRp3379
(dp3380
g66
(dp3381
g86
g87
ssg75
g3375
sg68
(lp3382
S'wsgi.version'
p3383
asbag61
(g82
g63
NtRp3384
(dp3385
g66
(dp3386
g93
g94
ssg75
g3375
sg68
(lp3387
S':'
asbag61
(g82
g63
NtRp3388
(dp3389
g66
(dp3390
sg75
g3375
sg68
(lp3391
g61
(g62
g63
NtRp3392
(dp3393
g66
(dp3394
g74
I3
ssg75
g3388
sg68
(lp3395
S'1'
asbasbasbasbasbasbasbasbasbasbasbasbasbsS'frames'
p3396
(lp3397
(dp3398
S'file'
p3399
S'/home/piyush/web2py/gluon/restricted.py'
p3400
sS'dump'
p3401
(dp3402
S'environment'
p3403
S"{'A': <class 'gluon.html.A'>, 'Auth': <class 'gluon.tools.Auth'>, 'B': <class 'gluon.html.B'>, 'BEAUTIFY': <class 'gluon.html.BEAUTIFY'>, 'BODY': <class 'gluon.html.BODY'>, 'BR': <class 'gluon.html.BR'>, 'BUTTON': <class 'gluon.html.BUTTON'>, 'CAT': <class 'gluon.html.CAT'>, 'CENTER': <class 'gluon.html.CENTER'>, 'CLEANUP': <class 'gluon.validators.CLEANUP'>, ...}"
p3404
sS'ccode'
p3405
S'<code object <module> at 0xae887f50, file "/home...ications/FotoBuk/controllers/default.py", line 1>'
p3406
ssS'lnum'
p3407
I209
sS'lines'
p3408
(dp3409
I204
S'    try:'
p3410
sI205
S'        if type(code) == types.CodeType:'
p3411
sI206
S'            ccode = code'
p3412
sI207
S'        else:'
p3413
sI208
S'            ccode = compile2(code,layer)'
p3414
sI209
S'        exec ccode in environment'
p3415
sI210
S'    except HTTP:'
p3416
sI211
S'        raise'
p3417
sI212
S'    except RestrictedError:'
p3418
sI213
S'        # do not encapsulate (obfuscate) the original RestrictedError'
p3419
ssS'call'
p3420
S"(code='@auth.requires_login()\\ndef index():\\n\\tli=db(db.im...quest,db)\\n\\nresponse._vars=response._caller(show)\\n', environment={'A': <class 'gluon.html.A'>, 'Auth': <class 'gluon.tools.Auth'>, 'B': <class 'gluon.html.B'>, 'BEAUTIFY': <class 'gluon.html.BEAUTIFY'>, 'BODY': <class 'gluon.html.BODY'>, 'BR': <class 'gluon.html.BR'>, 'BUTTON': <class 'gluon.html.BUTTON'>, 'CAT': <class 'gluon.html.CAT'>, 'CENTER': <class 'gluon.html.CENTER'>, 'CLEANUP': <class 'gluon.validators.CLEANUP'>, ...}, layer='/home/piyush/web2py/applications/FotoBuk/controllers/default.py')"
p3421
sS'func'
p3422
S'restricted'
p3423
sa(dp3424
g3399
S'/home/piyush/web2py/applications/FotoBuk/controllers/default.py'
p3425
sg3401
(dp3426
sg3407
I45
sg3408
(dp3427
I34
S'    return dict(cur_user=cur_user,flag=flag,image=image, comments=comments, likes=likes, form=form, form2=form2)'
p3428
sI35
S''
sI36
S'def delete():'
p3429
sI37
S'    image = db(db.image.id==request.args(0)).select()'
p3430
sI38
S''
sI39
S'def user():'
p3431
sI40
S'\treturn dict(form=auth())'
p3432
sI41
S''
sI42
S'def download():'
p3433
sI43
S'\treturn response.download(request,db)'
p3434
ssg3420
S'()'
p3435
sg3422
S'<module>'
p3436
sa(dp3437
g3399
S'/home/piyush/web2py/gluon/globals.py'
p3438
sg3401
(dp3439
S'self'
p3440
S'undefined'
p3441
sS'f'
S'<function show>'
p3442
ssg3407
I185
sg3408
(dp3443
I180
S'        self.menu = []             # used by the default view layout'
p3444
sI181
S'        self.files = []            # used by web2py_ajax.html'
p3445
sI182
S'        self.generic_patterns = [] # patterns to allow generic views'
p3446
sI183
S"        self.delimiters = ('{{','}}')"
p3447
sI184
S'        self._vars = None'
p3448
sI185
S'        self._caller = lambda f: f()'
p3449
sI186
S'        self._view_environment = None'
p3450
sI187
S'        self._custom_commit = None'
p3451
sI188
S'        self._custom_rollback = None'
p3452
sI189
S''
ssg3420
S'(f=<function show>)'
p3453
sg3422
S'<lambda>'
p3454
sa(dp3455
g3399
S'/home/piyush/web2py/gluon/tools.py'
p3456
sg3401
(dp3457
S'action'
p3458
S'<function show>'
p3459
sS'a'
S'()'
p3460
sS'b'
g21
ssg3407
I2776
sg3408
(dp3461
I2771
S'                    flag = condition'
p3462
sI2772
S'                if not flag:'
p3463
sI2773
S'                    current.session.flash = self.messages.access_denied'
p3464
sI2774
S'                    return call_or_redirect('
p3465
sI2775
S'                        self.settings.on_failed_authorization)'
p3466
sI2776
S'                return action(*a, **b)'
p3467
sI2777
S'            f.__doc__ = action.__doc__'
p3468
sI2778
S'            f.__name__ = action.__name__'
p3469
sI2779
S'            f.__dict__.update(action.__dict__)'
p3470
sI2780
S'            return f'
p3471
ssg3420
S'(*a=(), **b={})'
p3472
sg3422
S'f'
sa(dp3473
g3399
S'/home/piyush/web2py/applications/FotoBuk/controllers/default.py'
p3474
sg3401
(dp3475
S'form2'
p3476
S'<gluon.sqlhtml.SQLFORM object>'
p3477
sS'flag'
p3478
S'0'
sS'form2.process'
p3479
S'<bound method SQLFORM.process of <gluon.sqlhtml.SQLFORM object>>'
p3480
sS').accepted'
p3481
g3441
ssg3407
I28
sg3408
(dp3482
I32
S"        response.flash = 'your comment is posted'"
p3483
sI23
S'    for lik in likes:'
p3484
sI24
S'\t    if int(cur_user) == int(lik.liker):'
p3485
sI25
S'\t\t    flag=1'
p3486
sI26
S'    print flag'
p3487
sI27
S'    form2 = SQLFORM(db.like)'
p3488
sI28
S'    if form2.process().accepted and flag==0:'
p3489
sI29
S"\t#response.flash = 'You have liked the image'"
p3490
sI30
S'    \tdb.like.insert(likername=auth.user.first_name,liker=auth.user_id,like_id=image.id)'
p3491
sI31
S'    if form.process().accepted:'
p3492
ssg3420
S'()'
p3493
sg3422
S'show'
p3494
sa(dp3495
g3399
S'/home/piyush/web2py/gluon/html.py'
p3496
sg3401
(dp3497
S'self'
p3498
S'<gluon.sqlhtml.SQLFORM object>'
p3499
sS'self.validate'
p3500
S'<bound method SQLFORM.validate of <gluon.sqlhtml.SQLFORM object>>'
p3501
sS'kwargs'
p3502
S"{'dbio': True}"
p3503
ssg3407
I2106
sg3408
(dp3504
I2101
S'        # or a function name to use as callback or None to do nothing.'
p3505
sI2102
S'        def action():'
p3506
sI2103
S'            return dict(form=SQLFORM(db.table).process(onsuccess=my_callback)'
p3507
sI2104
S'        """'
p3508
sI2105
S"        kwargs['dbio'] = kwargs.get('dbio',True) # necessary for SQLHTML forms"
p3509
sI2106
S'        self.validate(**kwargs)'
p3510
sI2107
S'        return self'
p3511
sI2108
S''
sI2109
S'    REDIRECT_JS = "window.location=\'%s\';return false"'
p3512
sI2110
S''
ssg3420
S"(self=<gluon.sqlhtml.SQLFORM object>, **kwargs={'dbio': True})"
p3513
sg3422
S'process'
p3514
sa(dp3515
g3399
S'/home/piyush/web2py/gluon/html.py'
p3516
sg3401
(dp3517
S'self'
p3518
S'<gluon.sqlhtml.SQLFORM object>'
p3519
sS'self.accepts'
p3520
S'<bound method SQLFORM.accepts of <gluon.sqlhtml.SQLFORM object>>'
p3521
sS'kwargs'
p3522
S"{'dbio': True, 'request_vars': <Storage {'_formkey': '4fd755c2-bf9e-4c39-a132-e9c2f89e8812', '_formname': 'like/create'}>, 'session': <Storage {'_formkey[comment/create]': 'bcdefb8e-...login]': '9e8228a6-3689-4272-bc5c-59d40c4fc0e0'}>}"
p3523
ssg3407
I2053
sg3408
(dp3524
I2048
S"        for key in ('message_onsuccess','message_onfailure','onsuccess',"
p3525
sI2049
S"                    'onfailure','next'):"
p3526
sI2050
S'            if key in kwargs:'
p3527
sI2051
S'                del kwargs[key]'
p3528
sI2052
S''
sI2053
S'        if self.accepts(**kwargs):'
p3529
sI2054
S"            if onsuccess == 'flash':"
p3530
sI2055
S'                if next:'
p3531
sI2056
S'                    current.session.flash = message_onsuccess'
p3532
sI2057
S'                else:'
p3533
ssg3420
S"(self=<gluon.sqlhtml.SQLFORM object>, **kwargs={'dbio': True, 'request_vars': <Storage {'_formkey': '4fd755c2-bf9e-4c39-a132-e9c2f89e8812', '_formname': 'like/create'}>, 'session': <Storage {'_formkey[comment/create]': 'bcdefb8e-...login]': '9e8228a6-3689-4272-bc5c-59d40c4fc0e0'}>})"
p3534
sg3422
S'validate'
p3535
sa(dp3536
g3399
S'/home/piyush/web2py/gluon/sqlhtml.py'
p3537
sg3401
(dp3538
S'self.vars.id'
p3539
S'None'
p3540
sS'fields'
p3541
g21
sS'self'
p3542
S'<gluon.sqlhtml.SQLFORM object>'
p3543
sS'self.vars'
p3544
S'<Storage {}>'
p3545
sS'self.table.insert'
p3546
S'<bound method Table.insert of <Table like (id,like_id,liker,likername)>>'
p3547
sS'self.table'
p3548
S'<Table like (id,like_id,liker,likername)>'
p3549
ssg3407
I1403
sg3408
(dp3550
I1398
S'                if record_id:'
p3551
sI1399
S'                    self.vars.id = self.record[self.id_field_name]'
p3552
sI1400
S'                    if fields:'
p3553
sI1401
S'                        self.table._db(self.table._id == self.record[self.id_field_name]).update(**fields)'
p3554
sI1402
S'                else:'
p3555
sI1403
S'                    self.vars.id = self.table.insert(**fields)'
p3556
sI1404
S'        self.accepted = ret'
p3557
sI1405
S'        return ret'
p3558
sI1406
S''
sI1407
S'    AUTOTYPES = {'
p3559
ssg3420
S"(self=<gluon.sqlhtml.SQLFORM object>, request_vars=<Storage {'_formkey': '4fd755c2-bf9e-4c39-a132-e9c2f89e8812', '_formname': 'like/create'}>, session=<Storage {'_formkey[comment/create]': 'bcdefb8e-...login]': '9e8228a6-3689-4272-bc5c-59d40c4fc0e0'}>, formname='like/create', keepvalues=False, onvalidation=None, dbio=True, hideerror=False, detect_record_change=False)"
p3560
sg3422
S'accepts'
p3561
sa(dp3562
g3399
S'/home/piyush/web2py/gluon/dal.py'
p3563
sg3401
(dp3564
S'self._listify'
p3565
S'<bound method Table._listify of <Table like (id,like_id,liker,likername)>>'
p3566
sS'fields'
p3567
g21
sS'self'
p3568
S'<Table like (id,like_id,liker,likername)>'
p3569
sS'ret'
p3570
g3441
sS'self._db._adapter'
p3571
S'<gluon.dal.SQLiteAdapter object>'
p3572
sS'self._db._adapter.insert'
p3573
S'<bound method SQLiteAdapter.insert of <gluon.dal.SQLiteAdapter object>>'
p3574
sS'self._db'
p3575
S'<DAL sqlite://storage.sqlite>'
p3576
ssg3407
I7720
sg3408
(dp3577
I7715
S'        return self._db._adapter._insert(self,self._listify(fields))'
p3578
sI7716
S''
sI7717
S'    def insert(self, **fields):'
p3579
sI7718
S'        self._attempt_upload(fields)'
p3580
sI7719
S'        if any(f(fields) for f in self._before_insert): return 0'
p3581
sI7720
S'        ret =  self._db._adapter.insert(self,self._listify(fields))'
p3582
sI7721
S'        if ret and self._after_insert:'
p3583
sI7722
S'            fields = Row(fields)'
p3584
sI7723
S'            [f(fields,ret) for f in self._after_insert]'
p3585
sI7724
S'        return ret'
p3586
ssg3420
S'(self=<Table like (id,like_id,liker,likername)>, **fields={})'
p3587
sg3422
S'insert'
p3588
sa(dp3589
g3399
S'/home/piyush/web2py/gluon/dal.py'
p3590
sg3401
(dp3591
S'e'
S'OperationalError(\'near ")": syntax error\',)'
p3592
ssg3407
I1080
sg3408
(dp3593
I1075
S'        try:'
p3594
sI1076
S'            self.execute(query)'
p3595
sI1077
S'        except Exception, e:'
p3596
sI1078
S'            if isinstance(e,self.integrity_error_class()):'
p3597
sI1079
S'                return None'
p3598
sI1080
S'            raise e'
p3599
sI1081
S"        if hasattr(table,'_primarykey'):"
p3600
sI1082
S'            return dict([(k[0].name, k[1]) for k in fields \\'
p3601
sI1083
S'                             if k[0].name in table._primarykey])'
p3602
sI1084
S'        id = self.lastrowid(table)'
p3603
ssg3420
S'(self=<gluon.dal.SQLiteAdapter object>, table=<Table like (id,like_id,liker,likername)>, fields=[])'
p3604
sg3422
g3588
sasS'pyver'
p3605
S'Python 2.7.2: /usr/bin/python'
p3606
sS'session'
p3607
g61
(g62
g63
NtRp3608
(dp3609
g66
(dp3610
sg68
(lp3611
g61
(g70
g63
NtRp3612
(dp3613
g66
(dp3614
g74
I5
ssg75
Nsg68
(lp3615
g61
(g77
g63
NtRp3616
(dp3617
g66
(dp3618
sg75
g3612
sg68
(lp3619
g61
(g82
g63
NtRp3620
(dp3621
g66
(dp3622
g86
g87
ssg75
g3616
sg68
(lp3623
S'auth'
p3624
asbag61
(g82
g63
NtRp3625
(dp3626
g66
(dp3627
g93
g94
ssg75
g3616
sg68
(lp3628
S':'
asbag61
(g82
g63
NtRp3629
(dp3630
g66
(dp3631
sg75
g3616
sg68
(lp3632
g61
(g62
g63
NtRp3633
(dp3634
g66
(dp3635
g74
I5
ssg75
g3629
sg68
(lp3636
g61
(g70
g63
NtRp3637
(dp3638
g66
(dp3639
g74
I4
ssg75
Nsg68
(lp3640
g61
(g77
g63
NtRp3641
(dp3642
g66
(dp3643
sg75
g3637
sg68
(lp3644
g61
(g82
g63
NtRp3645
(dp3646
g66
(dp3647
g86
g87
ssg75
g3641
sg68
(lp3648
S'expiration'
p3649
asbag61
(g82
g63
NtRp3650
(dp3651
g66
(dp3652
g93
g94
ssg75
g3641
sg68
(lp3653
S':'
asbag61
(g82
g63
NtRp3654
(dp3655
g66
(dp3656
sg75
g3641
sg68
(lp3657
g61
(g62
g63
NtRp3658
(dp3659
g66
(dp3660
g74
I4
ssg75
g3654
sg68
(lp3661
S'3600'
p3662
asbasbasbag61
(g77
g63
NtRp3663
(dp3664
g66
(dp3665
sg75
g3637
sg68
(lp3666
g61
(g82
g63
NtRp3667
(dp3668
g66
(dp3669
g86
g87
ssg75
g3663
sg68
(lp3670
S'hmac_key'
p3671
asbag61
(g82
g63
NtRp3672
(dp3673
g66
(dp3674
g93
g94
ssg75
g3663
sg68
(lp3675
S':'
asbag61
(g82
g63
NtRp3676
(dp3677
g66
(dp3678
sg75
g3663
sg68
(lp3679
g61
(g62
g63
NtRp3680
(dp3681
g66
(dp3682
g74
I4
ssg75
g3676
sg68
(lp3683
S'b651b504-02b8-43bc-bebc-1e7ada2c3fd8'
p3684
asbasbasbag61
(g77
g63
NtRp3685
(dp3686
g66
(dp3687
sg75
g3637
sg68
(lp3688
g61
(g82
g63
NtRp3689
(dp3690
g66
(dp3691
g86
g87
ssg75
g3685
sg68
(lp3692
S'last_visit'
p3693
asbag61
(g82
g63
NtRp3694
(dp3695
g66
(dp3696
g93
g94
ssg75
g3685
sg68
(lp3697
S':'
asbag61
(g82
g63
NtRp3698
(dp3699
g66
(dp3700
sg75
g3685
sg68
(lp3701
g61
(g62
g63
NtRp3702
(dp3703
g66
(dp3704
g74
I4
ssg75
g3698
sg68
(lp3705
S'datetime.datetime(2012, 8, 31, 10, 6, 4, 370621)'
p3706
asbasbasbag61
(g77
g63
NtRp3707
(dp3708
g66
(dp3709
sg75
g3637
sg68
(lp3710
g61
(g82
g63
NtRp3711
(dp3712
g66
(dp3713
g86
g87
ssg75
g3707
sg68
(lp3714
S'user'
p3715
asbag61
(g82
g63
NtRp3716
(dp3717
g66
(dp3718
g93
g94
ssg75
g3707
sg68
(lp3719
S':'
asbag61
(g82
g63
NtRp3720
(dp3721
g66
(dp3722
sg75
g3707
sg68
(lp3723
g61
(g62
g63
NtRp3724
(dp3725
g66
(dp3726
g74
I4
ssg75
g3720
sg68
(lp3727
g61
(g70
g63
NtRp3728
(dp3729
g66
(dp3730
g74
I3
ssg75
Nsg68
(lp3731
g61
(g77
g63
NtRp3732
(dp3733
g66
(dp3734
sg75
g3728
sg68
(lp3735
g61
(g82
g63
NtRp3736
(dp3737
g66
(dp3738
g86
g87
ssg75
g3732
sg68
(lp3739
S'email'
p3740
asbag61
(g82
g63
NtRp3741
(dp3742
g66
(dp3743
g93
g94
ssg75
g3732
sg68
(lp3744
S':'
asbag61
(g82
g63
NtRp3745
(dp3746
g66
(dp3747
sg75
g3732
sg68
(lp3748
g61
(g62
g63
NtRp3749
(dp3750
g66
(dp3751
g74
I3
ssg75
g3745
sg68
(lp3752
S'test@test.com'
p3753
asbasbasbag61
(g77
g63
NtRp3754
(dp3755
g66
(dp3756
sg75
g3728
sg68
(lp3757
g61
(g82
g63
NtRp3758
(dp3759
g66
(dp3760
g86
g87
ssg75
g3754
sg68
(lp3761
S'first_name'
p3762
asbag61
(g82
g63
NtRp3763
(dp3764
g66
(dp3765
g93
g94
ssg75
g3754
sg68
(lp3766
S':'
asbag61
(g82
g63
NtRp3767
(dp3768
g66
(dp3769
sg75
g3754
sg68
(lp3770
g61
(g62
g63
NtRp3771
(dp3772
g66
(dp3773
g74
I3
ssg75
g3767
sg68
(lp3774
S'test1'
p3775
asbasbasbag61
(g77
g63
NtRp3776
(dp3777
g66
(dp3778
sg75
g3728
sg68
(lp3779
g61
(g82
g63
NtRp3780
(dp3781
g66
(dp3782
g86
g87
ssg75
g3776
sg68
(lp3783
S'id'
p3784
asbag61
(g82
g63
NtRp3785
(dp3786
g66
(dp3787
g93
g94
ssg75
g3776
sg68
(lp3788
S':'
asbag61
(g82
g63
NtRp3789
(dp3790
g66
(dp3791
sg75
g3776
sg68
(lp3792
g61
(g62
g63
NtRp3793
(dp3794
g66
(dp3795
g74
I3
ssg75
g3789
sg68
(lp3796
S'2'
asbasbasbag61
(g77
g63
NtRp3797
(dp3798
g66
(dp3799
sg75
g3728
sg68
(lp3800
g61
(g82
g63
NtRp3801
(dp3802
g66
(dp3803
g86
g87
ssg75
g3797
sg68
(lp3804
S'last_name'
p3805
asbag61
(g82
g63
NtRp3806
(dp3807
g66
(dp3808
g93
g94
ssg75
g3797
sg68
(lp3809
S':'
asbag61
(g82
g63
NtRp3810
(dp3811
g66
(dp3812
sg75
g3797
sg68
(lp3813
g61
(g62
g63
NtRp3814
(dp3815
g66
(dp3816
g74
I3
ssg75
g3810
sg68
(lp3817
S'test2'
p3818
asbasbasbag61
(g77
g63
NtRp3819
(dp3820
g66
(dp3821
sg75
g3728
sg68
(lp3822
g61
(g82
g63
NtRp3823
(dp3824
g66
(dp3825
g86
g87
ssg75
g3819
sg68
(lp3826
S'password'
p3827
asbag61
(g82
g63
NtRp3828
(dp3829
g66
(dp3830
g93
g94
ssg75
g3819
sg68
(lp3831
S':'
asbag61
(g82
g63
NtRp3832
(dp3833
g66
(dp3834
sg75
g3819
sg68
(lp3835
g61
(g62
g63
NtRp3836
(dp3837
g66
(dp3838
g74
I3
ssg75
g3832
sg68
(lp3839
S'pbkdf2(1000,20,sha512)$bf1b0cd5effc57ad$cd5a5dc22ea4c46296a9202ea5ffd2563ba2f85c'
p3840
asbasbasbag61
(g77
g63
NtRp3841
(dp3842
g66
(dp3843
sg75
g3728
sg68
(lp3844
g61
(g82
g63
NtRp3845
(dp3846
g66
(dp3847
g86
g87
ssg75
g3841
sg68
(lp3848
S'registration_id'
p3849
asbag61
(g82
g63
NtRp3850
(dp3851
g66
(dp3852
g93
g94
ssg75
g3841
sg68
(lp3853
S':'
asbag61
(g82
g63
NtRp3854
(dp3855
g66
(dp3856
sg75
g3841
sg68
(lp3857
g61
(g62
g63
NtRp3858
(dp3859
g66
(dp3860
g74
I3
ssg75
g3854
sg68
(lp3861
S''
asbasbasbag61
(g77
g63
NtRp3862
(dp3863
g66
(dp3864
sg75
g3728
sg68
(lp3865
g61
(g82
g63
NtRp3866
(dp3867
g66
(dp3868
g86
g87
ssg75
g3862
sg68
(lp3869
S'registration_key'
p3870
asbag61
(g82
g63
NtRp3871
(dp3872
g66
(dp3873
g93
g94
ssg75
g3862
sg68
(lp3874
S':'
asbag61
(g82
g63
NtRp3875
(dp3876
g66
(dp3877
sg75
g3862
sg68
(lp3878
g61
(g62
g63
NtRp3879
(dp3880
g66
(dp3881
g74
I3
ssg75
g3875
sg68
(lp3882
S''
asbasbasbag61
(g77
g63
NtRp3883
(dp3884
g66
(dp3885
sg75
g3728
sg68
(lp3886
g61
(g82
g63
NtRp3887
(dp3888
g66
(dp3889
g86
g87
ssg75
g3883
sg68
(lp3890
S'reset_password_key'
p3891
asbag61
(g82
g63
NtRp3892
(dp3893
g66
(dp3894
g93
g94
ssg75
g3883
sg68
(lp3895
S':'
asbag61
(g82
g63
NtRp3896
(dp3897
g66
(dp3898
sg75
g3883
sg68
(lp3899
g61
(g62
g63
NtRp3900
(dp3901
g66
(dp3902
g74
I3
ssg75
g3896
sg68
(lp3903
S''
asbasbasbasbasbasbasbag61
(g77
g63
NtRp3904
(dp3905
g66
(dp3906
sg75
g3637
sg68
(lp3907
g61
(g82
g63
NtRp3908
(dp3909
g66
(dp3910
g86
g87
ssg75
g3904
sg68
(lp3911
S'user_groups'
p3912
asbag61
(g82
g63
NtRp3913
(dp3914
g66
(dp3915
g93
g94
ssg75
g3904
sg68
(lp3916
S':'
asbag61
(g82
g63
NtRp3917
(dp3918
g66
(dp3919
sg75
g3904
sg68
(lp3920
g61
(g62
g63
NtRp3921
(dp3922
g66
(dp3923
g74
I4
ssg75
g3917
sg68
(lp3924
g61
(g70
g63
NtRp3925
(dp3926
g66
(dp3927
g74
I3
ssg75
Nsg68
(lp3928
g61
(g77
g63
NtRp3929
(dp3930
g66
(dp3931
sg75
g3925
sg68
(lp3932
g61
(g82
g63
NtRp3933
(dp3934
g66
(dp3935
g86
g87
ssg75
g3929
sg68
(lp3936
S'2'
asbag61
(g82
g63
NtRp3937
(dp3938
g66
(dp3939
g93
g94
ssg75
g3929
sg68
(lp3940
S':'
asbag61
(g82
g63
NtRp3941
(dp3942
g66
(dp3943
sg75
g3929
sg68
(lp3944
g61
(g62
g63
NtRp3945
(dp3946
g66
(dp3947
g74
I3
ssg75
g3941
sg68
(lp3948
S'user_2'
p3949
asbasbasbasbasbasbasbasbasbasbasbag61
(g77
g63
NtRp3950
(dp3951
g66
(dp3952
sg75
g3612
sg68
(lp3953
g61
(g82
g63
NtRp3954
(dp3955
g66
(dp3956
g86
g87
ssg75
g3950
sg68
(lp3957
S'flash'
p3958
asbag61
(g82
g63
NtRp3959
(dp3960
g66
(dp3961
g93
g94
ssg75
g3950
sg68
(lp3962
S':'
asbag61
(g82
g63
NtRp3963
(dp3964
g66
(dp3965
sg75
g3950
sg68
(lp3966
g61
(g62
g63
NtRp3967
(dp3968
g66
(dp3969
g74
I5
ssg75
g3963
sg68
(lp3970
S'None'
p3971
asbasbasbag61
(g77
g63
NtRp3972
(dp3973
g66
(dp3974
sg75
g3612
sg68
(lp3975
g61
(g82
g63
NtRp3976
(dp3977
g66
(dp3978
g86
g87
ssg75
g3972
sg68
(lp3979
S'last_orderby'
p3980
asbag61
(g82
g63
NtRp3981
(dp3982
g66
(dp3983
g93
g94
ssg75
g3972
sg68
(lp3984
S':'
asbag61
(g82
g63
NtRp3985
(dp3986
g66
(dp3987
sg75
g3972
sg68
(lp3988
g61
(g62
g63
NtRp3989
(dp3990
g66
(dp3991
g74
I5
ssg75
g3985
sg68
(lp3992
S'None'
p3993
asbasbasbag61
(g77
g63
NtRp3994
(dp3995
g66
(dp3996
sg75
g3612
sg68
(lp3997
g61
(g82
g63
NtRp3998
(dp3999
g66
(dp4000
g86
g87
ssg75
g3994
sg68
(lp4001
S'last_query'
p4002
asbag61
(g82
g63
NtRp4003
(dp4004
g66
(dp4005
g93
g94
ssg75
g3994
sg68
(lp4006
S':'
asbag61
(g82
g63
NtRp4007
(dp4008
g66
(dp4009
sg75
g3994
sg68
(lp4010
g61
(g62
g63
NtRp4011
(dp4012
g66
(dp4013
g74
I5
ssg75
g4007
sg68
(lp4014
S'db.image.id>0'
p4015
asbasbasbasbasbsS'etype'
p4016
S"<class 'sqlite3.OperationalError'>"
p4017
sS'date'
p4018
S'Fri Aug 31 10:11:12 2012'
p4019
sS'response'
p4020
g61
(g62
g63
NtRp4021
(dp4022
g66
(dp4023
sg68
(lp4024
g61
(g70
g63
NtRp4025
(dp4026
g66
(dp4027
g74
I5
ssg75
Nsg68
(lp4028
g61
(g77
g63
NtRp4029
(dp4030
g66
(dp4031
sg75
g4025
sg68
(lp4032
g61
(g82
g63
NtRp4033
(dp4034
g66
(dp4035
g86
g87
ssg75
g4029
sg68
(lp4036
g171
asbag61
(g82
g63
NtRp4037
(dp4038
g66
(dp4039
g93
g94
ssg75
g4029
sg68
(lp4040
S':'
asbag61
(g82
g63
NtRp4041
(dp4042
g66
(dp4043
sg75
g4029
sg68
(lp4044
g61
(g62
g63
NtRp4045
(dp4046
g66
(dp4047
g74
I5
ssg75
g4041
sg68
(lp4048
S'<cStringIO.StringO object at 0xaee702c0>'
p4049
asbasbasbag61
(g77
g63
NtRp4050
(dp4051
g66
(dp4052
sg75
g4025
sg68
(lp4053
g61
(g82
g63
NtRp4054
(dp4055
g66
(dp4056
g86
g87
ssg75
g4050
sg68
(lp4057
g259
asbag61
(g82
g63
NtRp4058
(dp4059
g66
(dp4060
g93
g94
ssg75
g4050
sg68
(lp4061
S':'
asbag61
(g82
g63
NtRp4062
(dp4063
g66
(dp4064
sg75
g4050
sg68
(lp4065
g61
(g62
g63
NtRp4066
(dp4067
g66
(dp4068
g74
I5
ssg75
g4062
sg68
(lp4069
g61
(g70
g63
NtRp4070
(dp4071
g66
(dp4072
g74
I4
ssg75
Nsg68
(lp4073
g61
(g77
g63
NtRp4074
(dp4075
g66
(dp4076
sg75
g4070
sg68
(lp4077
g61
(g82
g63
NtRp4078
(dp4079
g66
(dp4080
g86
g87
ssg75
g4074
sg68
(lp4081
S'session_id_fotobuk'
p4082
asbag61
(g82
g63
NtRp4083
(dp4084
g66
(dp4085
g93
g94
ssg75
g4074
sg68
(lp4086
S':'
asbag61
(g82
g63
NtRp4087
(dp4088
g66
(dp4089
sg75
g4074
sg68
(lp4090
g61
(g62
g63
NtRp4091
(dp4092
g66
(dp4093
g74
I4
ssg75
g4087
sg68
(lp4094
g491
ag61
(g70
g63
NtRp4095
(dp4096
g66
(dp4097
g74
I3
ssg75
Nsg68
(lp4098
g61
(g77
g63
NtRp4099
(dp4100
g66
(dp4101
sg75
g4095
sg68
(lp4102
g61
(g82
g63
NtRp4103
(dp4104
g66
(dp4105
g86
g87
ssg75
g4099
sg68
(lp4106
g310
asbag61
(g82
g63
NtRp4107
(dp4108
g66
(dp4109
g93
g94
ssg75
g4099
sg68
(lp4110
S':'
asbag61
(g82
g63
NtRp4111
(dp4112
g66
(dp4113
sg75
g4099
sg68
(lp4114
g61
(g62
g63
NtRp4115
(dp4116
g66
(dp4117
g74
I3
ssg75
g4111
sg68
(lp4118
S''
asbasbasbag61
(g77
g63
NtRp4119
(dp4120
g66
(dp4121
sg75
g4095
sg68
(lp4122
g61
(g82
g63
NtRp4123
(dp4124
g66
(dp4125
g86
g87
ssg75
g4119
sg68
(lp4126
g331
asbag61
(g82
g63
NtRp4127
(dp4128
g66
(dp4129
g93
g94
ssg75
g4119
sg68
(lp4130
S':'
asbag61
(g82
g63
NtRp4131
(dp4132
g66
(dp4133
sg75
g4119
sg68
(lp4134
g61
(g62
g63
NtRp4135
(dp4136
g66
(dp4137
g74
I3
ssg75
g4131
sg68
(lp4138
S''
asbasbasbag61
(g77
g63
NtRp4139
(dp4140
g66
(dp4141
sg75
g4095
sg68
(lp4142
g61
(g82
g63
NtRp4143
(dp4144
g66
(dp4145
g86
g87
ssg75
g4139
sg68
(lp4146
g352
asbag61
(g82
g63
NtRp4147
(dp4148
g66
(dp4149
g93
g94
ssg75
g4139
sg68
(lp4150
S':'
asbag61
(g82
g63
NtRp4151
(dp4152
g66
(dp4153
sg75
g4139
sg68
(lp4154
g61
(g62
g63
NtRp4155
(dp4156
g66
(dp4157
g74
I3
ssg75
g4151
sg68
(lp4158
S''
asbasbasbag61
(g77
g63
NtRp4159
(dp4160
g66
(dp4161
sg75
g4095
sg68
(lp4162
g61
(g82
g63
NtRp4163
(dp4164
g66
(dp4165
g86
g87
ssg75
g4159
sg68
(lp4166
g373
asbag61
(g82
g63
NtRp4167
(dp4168
g66
(dp4169
g93
g94
ssg75
g4159
sg68
(lp4170
S':'
asbag61
(g82
g63
NtRp4171
(dp4172
g66
(dp4173
sg75
g4159
sg68
(lp4174
g61
(g62
g63
NtRp4175
(dp4176
g66
(dp4177
g74
I3
ssg75
g4171
sg68
(lp4178
S''
asbasbasbag61
(g77
g63
NtRp4179
(dp4180
g66
(dp4181
sg75
g4095
sg68
(lp4182
g61
(g82
g63
NtRp4183
(dp4184
g66
(dp4185
g86
g87
ssg75
g4179
sg68
(lp4186
g394
asbag61
(g82
g63
NtRp4187
(dp4188
g66
(dp4189
g93
g94
ssg75
g4179
sg68
(lp4190
S':'
asbag61
(g82
g63
NtRp4191
(dp4192
g66
(dp4193
sg75
g4179
sg68
(lp4194
g61
(g62
g63
NtRp4195
(dp4196
g66
(dp4197
g74
I3
ssg75
g4191
sg68
(lp4198
S''
asbasbasbag61
(g77
g63
NtRp4199
(dp4200
g66
(dp4201
sg75
g4095
sg68
(lp4202
g61
(g82
g63
NtRp4203
(dp4204
g66
(dp4205
g86
g87
ssg75
g4199
sg68
(lp4206
g415
asbag61
(g82
g63
NtRp4207
(dp4208
g66
(dp4209
g93
g94
ssg75
g4199
sg68
(lp4210
S':'
asbag61
(g82
g63
NtRp4211
(dp4212
g66
(dp4213
sg75
g4199
sg68
(lp4214
g61
(g62
g63
NtRp4215
(dp4216
g66
(dp4217
g74
I3
ssg75
g4211
sg68
(lp4218
S'/'
asbasbasbag61
(g77
g63
NtRp4219
(dp4220
g66
(dp4221
sg75
g4095
sg68
(lp4222
g61
(g82
g63
NtRp4223
(dp4224
g66
(dp4225
g86
g87
ssg75
g4219
sg68
(lp4226
g436
asbag61
(g82
g63
NtRp4227
(dp4228
g66
(dp4229
g93
g94
ssg75
g4219
sg68
(lp4230
S':'
asbag61
(g82
g63
NtRp4231
(dp4232
g66
(dp4233
sg75
g4219
sg68
(lp4234
g61
(g62
g63
NtRp4235
(dp4236
g66
(dp4237
g74
I3
ssg75
g4231
sg68
(lp4238
S''
asbasbasbag61
(g77
g63
NtRp4239
(dp4240
g66
(dp4241
sg75
g4095
sg68
(lp4242
g61
(g82
g63
NtRp4243
(dp4244
g66
(dp4245
g86
g87
ssg75
g4239
sg68
(lp4246
g457
asbag61
(g82
g63
NtRp4247
(dp4248
g66
(dp4249
g93
g94
ssg75
g4239
sg68
(lp4250
S':'
asbag61
(g82
g63
NtRp4251
(dp4252
g66
(dp4253
sg75
g4239
sg68
(lp4254
g61
(g62
g63
NtRp4255
(dp4256
g66
(dp4257
g74
I3
ssg75
g4251
sg68
(lp4258
S''
asbasbasbasbasbasbasbasbasbasbasbag61
(g77
g63
NtRp4259
(dp4260
g66
(dp4261
sg75
g4025
sg68
(lp4262
g61
(g82
g63
NtRp4263
(dp4264
g66
(dp4265
g86
g87
ssg75
g4259
sg68
(lp4266
S'delimiters'
p4267
asbag61
(g82
g63
NtRp4268
(dp4269
g66
(dp4270
g93
g94
ssg75
g4259
sg68
(lp4271
S':'
asbag61
(g82
g63
NtRp4272
(dp4273
g66
(dp4274
sg75
g4259
sg68
(lp4275
g61
(g62
g63
NtRp4276
(dp4277
g66
(dp4278
g74
I5
ssg75
g4272
sg68
(lp4279
g61
(g70
g63
NtRp4280
(dp4281
g66
(dp4282
g74
I4
ssg75
Nsg68
(lp4283
g61
(g77
g63
NtRp4284
(dp4285
g66
(dp4286
sg75
g4280
sg68
(lp4287
g61
(g82
g63
NtRp4288
(dp4289
g66
(dp4290
sg75
g4284
sg68
(lp4291
g61
(g62
g63
NtRp4292
(dp4293
g66
(dp4294
g74
I4
ssg75
g4288
sg68
(lp4295
S'{{'
p4296
asbasbasbag61
(g77
g63
NtRp4297
(dp4298
g66
(dp4299
sg75
g4280
sg68
(lp4300
g61
(g82
g63
NtRp4301
(dp4302
g66
(dp4303
sg75
g4297
sg68
(lp4304
g61
(g62
g63
NtRp4305
(dp4306
g66
(dp4307
g74
I4
ssg75
g4301
sg68
(lp4308
S'}}'
p4309
asbasbasbasbasbasbasbag61
(g77
g63
NtRp4310
(dp4311
g66
(dp4312
sg75
g4025
sg68
(lp4313
g61
(g82
g63
NtRp4314
(dp4315
g66
(dp4316
g86
g87
ssg75
g4310
sg68
(lp4317
S'files'
p4318
asbag61
(g82
g63
NtRp4319
(dp4320
g66
(dp4321
g93
g94
ssg75
g4310
sg68
(lp4322
S':'
asbag61
(g82
g63
NtRp4323
(dp4324
g66
(dp4325
sg75
g4310
sg68
(lp4326
g61
(g62
g63
NtRp4327
(dp4328
g66
(dp4329
g74
I5
ssg75
g4323
sg68
(lp4330
g61
(g70
g63
NtRp4331
(dp4332
g66
(dp4333
g74
I4
ssg75
Nsg68
(lp4334
sbasbasbasbag61
(g77
g63
NtRp4335
(dp4336
g66
(dp4337
sg75
g4025
sg68
(lp4338
g61
(g82
g63
NtRp4339
(dp4340
g66
(dp4341
g86
g87
ssg75
g4335
sg68
(lp4342
S'flash'
p4343
asbag61
(g82
g63
NtRp4344
(dp4345
g66
(dp4346
g93
g94
ssg75
g4335
sg68
(lp4347
S':'
asbag61
(g82
g63
NtRp4348
(dp4349
g66
(dp4350
sg75
g4335
sg68
(lp4351
g61
(g62
g63
NtRp4352
(dp4353
g66
(dp4354
g74
I5
ssg75
g4348
sg68
(lp4355
S''
asbasbasbag61
(g77
g63
NtRp4356
(dp4357
g66
(dp4358
sg75
g4025
sg68
(lp4359
g61
(g82
g63
NtRp4360
(dp4361
g66
(dp4362
g86
g87
ssg75
g4356
sg68
(lp4363
S'generic_patterns'
p4364
asbag61
(g82
g63
NtRp4365
(dp4366
g66
(dp4367
g93
g94
ssg75
g4356
sg68
(lp4368
S':'
asbag61
(g82
g63
NtRp4369
(dp4370
g66
(dp4371
sg75
g4356
sg68
(lp4372
g61
(g62
g63
NtRp4373
(dp4374
g66
(dp4375
g74
I5
ssg75
g4369
sg68
(lp4376
g61
(g70
g63
NtRp4377
(dp4378
g66
(dp4379
g74
I4
ssg75
Nsg68
(lp4380
sbasbasbasbag61
(g77
g63
NtRp4381
(dp4382
g66
(dp4383
sg75
g4025
sg68
(lp4384
g61
(g82
g63
NtRp4385
(dp4386
g66
(dp4387
g86
g87
ssg75
g4381
sg68
(lp4388
S'google_analytics_id'
p4389
asbag61
(g82
g63
NtRp4390
(dp4391
g66
(dp4392
g93
g94
ssg75
g4381
sg68
(lp4393
S':'
asbag61
(g82
g63
NtRp4394
(dp4395
g66
(dp4396
sg75
g4381
sg68
(lp4397
g61
(g62
g63
NtRp4398
(dp4399
g66
(dp4400
g74
I5
ssg75
g4394
sg68
(lp4401
S'None'
p4402
asbasbasbag61
(g77
g63
NtRp4403
(dp4404
g66
(dp4405
sg75
g4025
sg68
(lp4406
g61
(g82
g63
NtRp4407
(dp4408
g66
(dp4409
g86
g87
ssg75
g4403
sg68
(lp4410
S'headers'
p4411
asbag61
(g82
g63
NtRp4412
(dp4413
g66
(dp4414
g93
g94
ssg75
g4403
sg68
(lp4415
S':'
asbag61
(g82
g63
NtRp4416
(dp4417
g66
(dp4418
sg75
g4403
sg68
(lp4419
g61
(g62
g63
NtRp4420
(dp4421
g66
(dp4422
g74
I5
ssg75
g4416
sg68
(lp4423
g61
(g70
g63
NtRp4424
(dp4425
g66
(dp4426
g74
I4
ssg75
Nsg68
(lp4427
g61
(g77
g63
NtRp4428
(dp4429
g66
(dp4430
sg75
g4424
sg68
(lp4431
g61
(g82
g63
NtRp4432
(dp4433
g66
(dp4434
g86
g87
ssg75
g4428
sg68
(lp4435
S'Cache-Control'
p4436
asbag61
(g82
g63
NtRp4437
(dp4438
g66
(dp4439
g93
g94
ssg75
g4428
sg68
(lp4440
S':'
asbag61
(g82
g63
NtRp4441
(dp4442
g66
(dp4443
sg75
g4428
sg68
(lp4444
g61
(g62
g63
NtRp4445
(dp4446
g66
(dp4447
g74
I4
ssg75
g4441
sg68
(lp4448
S'no-store, no-cache, must-revalidate, post-check=0, pre-check=0'
p4449
asbasbasbag61
(g77
g63
NtRp4450
(dp4451
g66
(dp4452
sg75
g4424
sg68
(lp4453
g61
(g82
g63
NtRp4454
(dp4455
g66
(dp4456
g86
g87
ssg75
g4450
sg68
(lp4457
S'Content-Type'
p4458
asbag61
(g82
g63
NtRp4459
(dp4460
g66
(dp4461
g93
g94
ssg75
g4450
sg68
(lp4462
S':'
asbag61
(g82
g63
NtRp4463
(dp4464
g66
(dp4465
sg75
g4450
sg68
(lp4466
g61
(g62
g63
NtRp4467
(dp4468
g66
(dp4469
g74
I4
ssg75
g4463
sg68
(lp4470
S'text/html; charset=utf-8'
p4471
asbasbasbag61
(g77
g63
NtRp4472
(dp4473
g66
(dp4474
sg75
g4424
sg68
(lp4475
g61
(g82
g63
NtRp4476
(dp4477
g66
(dp4478
g86
g87
ssg75
g4472
sg68
(lp4479
S'Expires'
p4480
asbag61
(g82
g63
NtRp4481
(dp4482
g66
(dp4483
g93
g94
ssg75
g4472
sg68
(lp4484
S':'
asbag61
(g82
g63
NtRp4485
(dp4486
g66
(dp4487
sg75
g4472
sg68
(lp4488
g61
(g62
g63
NtRp4489
(dp4490
g66
(dp4491
g74
I4
ssg75
g4485
sg68
(lp4492
S'Fri, 31 Aug 2012 04:41:12 GMT'
p4493
asbasbasbag61
(g77
g63
NtRp4494
(dp4495
g66
(dp4496
sg75
g4424
sg68
(lp4497
g61
(g82
g63
NtRp4498
(dp4499
g66
(dp4500
g86
g87
ssg75
g4494
sg68
(lp4501
S'Pragma'
p4502
asbag61
(g82
g63
NtRp4503
(dp4504
g66
(dp4505
g93
g94
ssg75
g4494
sg68
(lp4506
S':'
asbag61
(g82
g63
NtRp4507
(dp4508
g66
(dp4509
sg75
g4494
sg68
(lp4510
g61
(g62
g63
NtRp4511
(dp4512
g66
(dp4513
g74
I4
ssg75
g4507
sg68
(lp4514
S'no-cache'
p4515
asbasbasbag61
(g77
g63
NtRp4516
(dp4517
g66
(dp4518
sg75
g4424
sg68
(lp4519
g61
(g82
g63
NtRp4520
(dp4521
g66
(dp4522
g86
g87
ssg75
g4516
sg68
(lp4523
S'X-Powered-By'
p4524
asbag61
(g82
g63
NtRp4525
(dp4526
g66
(dp4527
g93
g94
ssg75
g4516
sg68
(lp4528
S':'
asbag61
(g82
g63
NtRp4529
(dp4530
g66
(dp4531
sg75
g4516
sg68
(lp4532
g61
(g62
g63
NtRp4533
(dp4534
g66
(dp4535
g74
I4
ssg75
g4529
sg68
(lp4536
S'web2py'
p4537
asbasbasbasbasbasbasbag61
(g77
g63
NtRp4538
(dp4539
g66
(dp4540
sg75
g4025
sg68
(lp4541
g61
(g82
g63
NtRp4542
(dp4543
g66
(dp4544
g86
g87
ssg75
g4538
sg68
(lp4545
S'menu'
p4546
asbag61
(g82
g63
NtRp4547
(dp4548
g66
(dp4549
g93
g94
ssg75
g4538
sg68
(lp4550
S':'
asbag61
(g82
g63
NtRp4551
(dp4552
g66
(dp4553
sg75
g4538
sg68
(lp4554
g61
(g62
g63
NtRp4555
(dp4556
g66
(dp4557
g74
I5
ssg75
g4551
sg68
(lp4558
g61
(g70
g63
NtRp4559
(dp4560
g66
(dp4561
g74
I4
ssg75
Nsg68
(lp4562
g61
(g77
g63
NtRp4563
(dp4564
g66
(dp4565
sg75
g4559
sg68
(lp4566
g61
(g82
g63
NtRp4567
(dp4568
g66
(dp4569
sg75
g4563
sg68
(lp4570
g61
(g62
g63
NtRp4571
(dp4572
g66
(dp4573
g74
I4
ssg75
g4567
sg68
(lp4574
g61
(g70
g63
NtRp4575
(dp4576
g66
(dp4577
g74
I3
ssg75
Nsg68
(lp4578
g61
(g77
g63
NtRp4579
(dp4580
g66
(dp4581
sg75
g4575
sg68
(lp4582
g61
(g82
g63
NtRp4583
(dp4584
g66
(dp4585
sg75
g4579
sg68
(lp4586
g61
(g62
g63
NtRp4587
(dp4588
g66
(dp4589
g74
I3
ssg75
g4583
sg68
(lp4590
cgluon.languages
lazyT_unpickle
p4591
(S's\x04\x00\x00\x00Home'
tRp4592
asbasbasbag61
(g77
g63
NtRp4593
(dp4594
g66
(dp4595
sg75
g4575
sg68
(lp4596
g61
(g82
g63
NtRp4597
(dp4598
g66
(dp4599
sg75
g4593
sg68
(lp4600
g61
(g62
g63
NtRp4601
(dp4602
g66
(dp4603
g74
I3
ssg75
g4597
sg68
(lp4604
g104
asbasbasbag61
(g77
g63
NtRp4605
(dp4606
g66
(dp4607
sg75
g4575
sg68
(lp4608
g61
(g82
g63
NtRp4609
(dp4610
g66
(dp4611
sg75
g4605
sg68
(lp4612
g61
(g62
g63
NtRp4613
(dp4614
g66
(dp4615
g74
I3
ssg75
g4609
sg68
(lp4616
S'/FotoBuk/default/index'
p4617
asbasbasbag61
(g77
g63
NtRp4618
(dp4619
g66
(dp4620
sg75
g4575
sg68
(lp4621
g61
(g82
g63
NtRp4622
(dp4623
g66
(dp4624
sg75
g4618
sg68
(lp4625
g61
(g62
g63
NtRp4626
(dp4627
g66
(dp4628
g74
I3
ssg75
g4622
sg68
(lp4629
g61
(g70
g63
NtRp4630
(dp4631
g66
(dp4632
g74
I2
ssg75
Nsg68
(lp4633
sbasbasbasbasbasbasbasbag61
(g77
g63
NtRp4634
(dp4635
g66
(dp4636
sg75
g4559
sg68
(lp4637
g61
(g82
g63
NtRp4638
(dp4639
g66
(dp4640
sg75
g4634
sg68
(lp4641
g61
(g62
g63
NtRp4642
(dp4643
g66
(dp4644
g74
I4
ssg75
g4638
sg68
(lp4645
g61
(g70
g63
NtRp4646
(dp4647
g66
(dp4648
g74
I3
ssg75
Nsg68
(lp4649
g61
(g77
g63
NtRp4650
(dp4651
g66
(dp4652
sg75
g4646
sg68
(lp4653
g61
(g82
g63
NtRp4654
(dp4655
g66
(dp4656
sg75
g4650
sg68
(lp4657
g61
(g62
g63
NtRp4658
(dp4659
g66
(dp4660
g74
I3
ssg75
g4654
sg68
(lp4661
g61
(cgluon.html
SPAN
p4662
g63
NtRp4663
(dp4664
g66
(dp4665
g86
S'color:yellow'
p4666
ssg75
Nsg68
(lp4667
g4537
asbasbasbasbag61
(g77
g63
NtRp4668
(dp4669
g66
(dp4670
sg75
g4646
sg68
(lp4671
g61
(g82
g63
NtRp4672
(dp4673
g66
(dp4674
sg75
g4668
sg68
(lp4675
g61
(g62
g63
NtRp4676
(dp4677
g66
(dp4678
g74
I3
ssg75
g4672
sg68
(lp4679
g104
asbasbasbag61
(g77
g63
NtRp4680
(dp4681
g66
(dp4682
sg75
g4646
sg68
(lp4683
g61
(g82
g63
NtRp4684
(dp4685
g66
(dp4686
sg75
g4680
sg68
(lp4687
g61
(g62
g63
NtRp4688
(dp4689
g66
(dp4690
g74
I3
ssg75
g4684
sg68
(lp4691
S'http://web2py.com'
p4692
asbasbasbag61
(g77
g63
NtRp4693
(dp4694
g66
(dp4695
sg75
g4646
sg68
(lp4696
g61
(g82
g63
NtRp4697
(dp4698
g66
(dp4699
sg75
g4693
sg68
(lp4700
g61
(g62
g63
NtRp4701
(dp4702
g66
(dp4703
g74
I3
ssg75
g4697
sg68
(lp4704
g61
(g70
g63
NtRp4705
(dp4706
g66
(dp4707
g74
I2
ssg75
Nsg68
(lp4708
g61
(g77
g63
NtRp4709
(dp4710
g66
(dp4711
sg75
g4705
sg68
(lp4712
g61
(g82
g63
NtRp4713
(dp4714
g66
(dp4715
sg75
g4709
sg68
(lp4716
g61
(g62
g63
NtRp4717
(dp4718
g66
(dp4719
g74
I2
ssg75
g4713
sg68
(lp4720
g61
(g70
g63
NtRp4721
(dp4722
g66
(dp4723
g74
I1
ssg75
Nsg68
(lp4724
g61
(g77
g63
NtRp4725
(dp4726
g66
(dp4727
sg75
g4721
sg68
(lp4728
g61
(g82
g63
NtRp4729
(dp4730
g66
(dp4731
sg75
g4725
sg68
(lp4732
g61
(g62
g63
NtRp4733
(dp4734
g66
(dp4735
g74
I1
ssg75
g4729
sg68
(lp4736
g4591
(S's\x08\x00\x00\x00My Sites'
tRp4737
asbasbasbag61
(g77
g63
NtRp4738
(dp4739
g66
(dp4740
sg75
g4721
sg68
(lp4741
g61
(g82
g63
NtRp4742
(dp4743
g66
(dp4744
sg75
g4738
sg68
(lp4745
g61
(g62
g63
NtRp4746
(dp4747
g66
(dp4748
g74
I1
ssg75
g4742
sg68
(lp4749
I00
asbasbasbag61
(g77
g63
NtRp4750
(dp4751
g66
(dp4752
sg75
g4721
sg68
(lp4753
g61
(g82
g63
NtRp4754
(dp4755
g66
(dp4756
sg75
g4750
sg68
(lp4757
g61
(g62
g63
NtRp4758
(dp4759
g66
(dp4760
g74
I1
ssg75
g4754
sg68
(lp4761
S'/admin/default/site'
p4762
asbasbasbasbasbasbasbag61
(g77
g63
NtRp4763
(dp4764
g66
(dp4765
sg75
g4705
sg68
(lp4766
g61
(g82
g63
NtRp4767
(dp4768
g66
(dp4769
sg75
g4763
sg68
(lp4770
g61
(g62
g63
NtRp4771
(dp4772
g66
(dp4773
g74
I2
ssg75
g4767
sg68
(lp4774
g61
(g70
g63
NtRp4775
(dp4776
g66
(dp4777
g74
I1
ssg75
Nsg68
(lp4778
g61
(g77
g63
NtRp4779
(dp4780
g66
(dp4781
sg75
g4775
sg68
(lp4782
g61
(g82
g63
NtRp4783
(dp4784
g66
(dp4785
sg75
g4779
sg68
(lp4786
g61
(g62
g63
NtRp4787
(dp4788
g66
(dp4789
g74
I1
ssg75
g4783
sg68
(lp4790
g4591
(S's\x08\x00\x00\x00This App'
tRp4791
asbasbasbag61
(g77
g63
NtRp4792
(dp4793
g66
(dp4794
sg75
g4775
sg68
(lp4795
g61
(g82
g63
NtRp4796
(dp4797
g66
(dp4798
sg75
g4792
sg68
(lp4799
g61
(g62
g63
NtRp4800
(dp4801
g66
(dp4802
g74
I1
ssg75
g4796
sg68
(lp4803
I00
asbasbasbag61
(g77
g63
NtRp4804
(dp4805
g66
(dp4806
sg75
g4775
sg68
(lp4807
g61
(g82
g63
NtRp4808
(dp4809
g66
(dp4810
sg75
g4804
sg68
(lp4811
g61
(g62
g63
NtRp4812
(dp4813
g66
(dp4814
g74
I1
ssg75
g4808
sg68
(lp4815
S'/admin/default/design/FotoBuk'
p4816
asbasbasbag61
(g77
g63
NtRp4817
(dp4818
g66
(dp4819
sg75
g4775
sg68
(lp4820
g61
(g82
g63
NtRp4821
(dp4822
g66
(dp4823
sg75
g4817
sg68
(lp4824
g61
(g62
g63
NtRp4825
(dp4826
g66
(dp4827
g74
I1
ssg75
g4821
sg68
(lp4828
(lp4829
(g4591
(S's\n\x00\x00\x00Controller'
tRp4830
I00
S'/admin/default/edit/FotoBuk/controllers/default.py'
tp4831
a(g4591
(S's\x04\x00\x00\x00View'
tRp4832
I00
S'/admin/default/edit/FotoBuk/views/default/show.html'
tp4833
a(g4591
(S's\x06\x00\x00\x00Layout'
tRp4834
I00
S'/admin/default/edit/FotoBuk/views/layout.html'
tp4835
a(g4591
(S's\n\x00\x00\x00Stylesheet'
tRp4836
I00
S'/admin/default/edit/FotoBuk/static/css/web2py.css'
tp4837
a(g4591
(S's\x08\x00\x00\x00DB Model'
tRp4838
I00
S'/admin/default/edit/FotoBuk/models/db.py'
tp4839
a(g4591
(S's\n\x00\x00\x00Menu Model'
tRp4840
I00
S'/admin/default/edit/FotoBuk/models/menu.py'
tp4841
a(g4591
(S's\x08\x00\x00\x00Database'
tRp4842
I00
S'/FotoBuk/appadmin/index'
tp4843
a(g4591
(S's\x06\x00\x00\x00Errors'
tRp4844
I00
S'/admin/default/errors/FotoBuk'
tp4845
a(g4591
(S's\x05\x00\x00\x00About'
tRp4846
I00
S'/admin/default/about/FotoBuk'
tp4847
aasbasbasbasbasbasbasbag61
(g77
g63
NtRp4848
(dp4849
g66
(dp4850
sg75
g4705
sg68
(lp4851
g61
(g82
g63
NtRp4852
(dp4853
g66
(dp4854
sg75
g4848
sg68
(lp4855
g61
(g62
g63
NtRp4856
(dp4857
g66
(dp4858
g74
I2
ssg75
g4852
sg68
(lp4859
g61
(g70
g63
NtRp4860
(dp4861
g66
(dp4862
g74
I1
ssg75
Nsg68
(lp4863
g61
(g77
g63
NtRp4864
(dp4865
g66
(dp4866
sg75
g4860
sg68
(lp4867
g61
(g82
g63
NtRp4868
(dp4869
g66
(dp4870
sg75
g4864
sg68
(lp4871
g61
(g62
g63
NtRp4872
(dp4873
g66
(dp4874
g74
I1
ssg75
g4868
sg68
(lp4875
S'web2py.com'
p4876
asbasbasbag61
(g77
g63
NtRp4877
(dp4878
g66
(dp4879
sg75
g4860
sg68
(lp4880
g61
(g82
g63
NtRp4881
(dp4882
g66
(dp4883
sg75
g4877
sg68
(lp4884
g61
(g62
g63
NtRp4885
(dp4886
g66
(dp4887
g74
I1
ssg75
g4881
sg68
(lp4888
I00
asbasbasbag61
(g77
g63
NtRp4889
(dp4890
g66
(dp4891
sg75
g4860
sg68
(lp4892
g61
(g82
g63
NtRp4893
(dp4894
g66
(dp4895
sg75
g4889
sg68
(lp4896
g61
(g62
g63
NtRp4897
(dp4898
g66
(dp4899
g74
I1
ssg75
g4893
sg68
(lp4900
S'http://www.web2py.com'
p4901
asbasbasbag61
(g77
g63
NtRp4902
(dp4903
g66
(dp4904
sg75
g4860
sg68
(lp4905
g61
(g82
g63
NtRp4906
(dp4907
g66
(dp4908
sg75
g4902
sg68
(lp4909
g61
(g62
g63
NtRp4910
(dp4911
g66
(dp4912
g74
I1
ssg75
g4906
sg68
(lp4913
(lp4914
(g4591
(S's\x08\x00\x00\x00Download'
tRp4915
I00
S'http://www.web2py.com/examples/default/download'
p4916
tp4917
a(g4591
(S's\x07\x00\x00\x00Support'
tRp4918
I00
S'http://www.web2py.com/examples/default/support'
p4919
tp4920
a(g4591
(S's\x04\x00\x00\x00Demo'
tRp4921
I00
S'http://web2py.com/demo_admin'
p4922
tp4923
a(g4591
(S's\x0e\x00\x00\x00Quick Examples'
tRp4924
I00
S'http://web2py.com/examples/default/examples'
p4925
tp4926
a(g4591
(S's\x03\x00\x00\x00FAQ'
tRp4927
I00
S'http://web2py.com/AlterEgo'
p4928
tp4929
a(g4591
(S's\x06\x00\x00\x00Videos'
tRp4930
I00
S'http://www.web2py.com/examples/default/videos/'
p4931
tp4932
a(g4591
(S's\x11\x00\x00\x00Free Applications'
tRp4933
I00
S'http://web2py.com/appliances'
p4934
tp4935
a(g4591
(S's\x07\x00\x00\x00Plugins'
tRp4936
I00
S'http://web2py.com/plugins'
p4937
tp4938
a(g4591
(S's\x07\x00\x00\x00Layouts'
tRp4939
I00
S'http://web2py.com/layouts'
p4940
tp4941
a(g4591
(S's\x07\x00\x00\x00Recipes'
tRp4942
I00
S'http://web2pyslices.com/'
p4943
tp4944
a(g4591
(S's\x08\x00\x00\x00Semantic'
tRp4945
I00
S'http://web2py.com/semantic'
p4946
tp4947
aasbasbasbasbasbasbasbag61
(g77
g63
NtRp4948
(dp4949
g66
(dp4950
sg75
g4705
sg68
(lp4951
g61
(g82
g63
NtRp4952
(dp4953
g66
(dp4954
sg75
g4948
sg68
(lp4955
g61
(g62
g63
NtRp4956
(dp4957
g66
(dp4958
g74
I2
ssg75
g4952
sg68
(lp4959
g61
(g70
g63
NtRp4960
(dp4961
g66
(dp4962
g74
I1
ssg75
Nsg68
(lp4963
g61
(g77
g63
NtRp4964
(dp4965
g66
(dp4966
sg75
g4960
sg68
(lp4967
g61
(g82
g63
NtRp4968
(dp4969
g66
(dp4970
sg75
g4964
sg68
(lp4971
g61
(g62
g63
NtRp4972
(dp4973
g66
(dp4974
g74
I1
ssg75
g4968
sg68
(lp4975
g4591
(S's\r\x00\x00\x00Documentation'
tRp4976
asbasbasbag61
(g77
g63
NtRp4977
(dp4978
g66
(dp4979
sg75
g4960
sg68
(lp4980
g61
(g82
g63
NtRp4981
(dp4982
g66
(dp4983
sg75
g4977
sg68
(lp4984
g61
(g62
g63
NtRp4985
(dp4986
g66
(dp4987
g74
I1
ssg75
g4981
sg68
(lp4988
I00
asbasbasbag61
(g77
g63
NtRp4989
(dp4990
g66
(dp4991
sg75
g4960
sg68
(lp4992
g61
(g82
g63
NtRp4993
(dp4994
g66
(dp4995
sg75
g4989
sg68
(lp4996
g61
(g62
g63
NtRp4997
(dp4998
g66
(dp4999
g74
I1
ssg75
g4993
sg68
(lp5000
S'http://www.web2py.com/book'
p5001
asbasbasbag61
(g77
g63
NtRp5002
(dp5003
g66
(dp5004
sg75
g4960
sg68
(lp5005
g61
(g82
g63
NtRp5006
(dp5007
g66
(dp5008
sg75
g5002
sg68
(lp5009
g61
(g62
g63
NtRp5010
(dp5011
g66
(dp5012
g74
I1
ssg75
g5006
sg68
(lp5013
(lp5014
(g4591
(S's\x07\x00\x00\x00Preface'
tRp5015
I00
S'http://www.web2py.com/book/default/chapter/00'
p5016
tp5017
a(g4591
(S's\x0c\x00\x00\x00Introduction'
tRp5018
I00
S'http://www.web2py.com/book/default/chapter/01'
p5019
tp5020
a(g4591
(S's\x06\x00\x00\x00Python'
tRp5021
I00
S'http://www.web2py.com/book/default/chapter/02'
p5022
tp5023
a(g4591
(S's\x08\x00\x00\x00Overview'
tRp5024
I00
S'http://www.web2py.com/book/default/chapter/03'
p5025
tp5026
a(g4591
(S's\x08\x00\x00\x00The Core'
tRp5027
I00
S'http://www.web2py.com/book/default/chapter/04'
p5028
tp5029
a(g4591
(S's\t\x00\x00\x00The Views'
tRp5030
I00
S'http://www.web2py.com/book/default/chapter/05'
p5031
tp5032
a(g4591
(S's\x08\x00\x00\x00Database'
tRp5033
I00
S'http://www.web2py.com/book/default/chapter/06'
p5034
tp5035
a(g4591
(S's\x14\x00\x00\x00Forms and Validators'
tRp5036
I00
S'http://www.web2py.com/book/default/chapter/07'
p5037
tp5038
a(g4591
(S's\r\x00\x00\x00Email and SMS'
tRp5039
I00
S'http://www.web2py.com/book/default/chapter/08'
p5040
tp5041
a(g4591
(S's\x0e\x00\x00\x00Access Control'
tRp5042
I00
S'http://www.web2py.com/book/default/chapter/09'
p5043
tp5044
a(g4591
(S's\x08\x00\x00\x00Services'
tRp5045
I00
S'http://www.web2py.com/book/default/chapter/10'
p5046
tp5047
a(g4591
(S's\x0c\x00\x00\x00Ajax Recipes'
tRp5048
I00
S'http://www.web2py.com/book/default/chapter/11'
p5049
tp5050
a(g4591
(S's\x16\x00\x00\x00Components and Plugins'
tRp5051
I00
S'http://www.web2py.com/book/default/chapter/12'
p5052
tp5053
a(g4591
(S's\x12\x00\x00\x00Deployment Recipes'
tRp5054
I00
S'http://www.web2py.com/book/default/chapter/13'
p5055
tp5056
a(g4591
(S's\r\x00\x00\x00Other Recipes'
tRp5057
I00
S'http://www.web2py.com/book/default/chapter/14'
p5058
tp5059
a(g4591
(S's\r\x00\x00\x00Buy this book'
tRp5060
I00
S'http://stores.lulu.com/web2py'
p5061
tp5062
aasbasbasbasbasbasbasbag61
(g77
g63
NtRp5063
(dp5064
g66
(dp5065
sg75
g4705
sg68
(lp5066
g61
(g82
g63
NtRp5067
(dp5068
g66
(dp5069
sg75
g5063
sg68
(lp5070
g61
(g62
g63
NtRp5071
(dp5072
g66
(dp5073
g74
I2
ssg75
g5067
sg68
(lp5074
g61
(g70
g63
NtRp5075
(dp5076
g66
(dp5077
g74
I1
ssg75
Nsg68
(lp5078
g61
(g77
g63
NtRp5079
(dp5080
g66
(dp5081
sg75
g5075
sg68
(lp5082
g61
(g82
g63
NtRp5083
(dp5084
g66
(dp5085
sg75
g5079
sg68
(lp5086
g61
(g62
g63
NtRp5087
(dp5088
g66
(dp5089
g74
I1
ssg75
g5083
sg68
(lp5090
g4591
(S's\t\x00\x00\x00Community'
tRp5091
asbasbasbag61
(g77
g63
NtRp5092
(dp5093
g66
(dp5094
sg75
g5075
sg68
(lp5095
g61
(g82
g63
NtRp5096
(dp5097
g66
(dp5098
sg75
g5092
sg68
(lp5099
g61
(g62
g63
NtRp5100
(dp5101
g66
(dp5102
g74
I1
ssg75
g5096
sg68
(lp5103
I00
asbasbasbag61
(g77
g63
NtRp5104
(dp5105
g66
(dp5106
sg75
g5075
sg68
(lp5107
g61
(g82
g63
NtRp5108
(dp5109
g66
(dp5110
sg75
g5104
sg68
(lp5111
g61
(g62
g63
NtRp5112
(dp5113
g66
(dp5114
g74
I1
ssg75
g5108
sg68
(lp5115
Nasbasbasbag61
(g77
g63
NtRp5116
(dp5117
g66
(dp5118
sg75
g5075
sg68
(lp5119
g61
(g82
g63
NtRp5120
(dp5121
g66
(dp5122
sg75
g5116
sg68
(lp5123
g61
(g62
g63
NtRp5124
(dp5125
g66
(dp5126
g74
I1
ssg75
g5120
sg68
(lp5127
(lp5128
(g4591
(S's\x06\x00\x00\x00Groups'
tRp5129
I00
S'http://www.web2py.com/examples/default/usergroups'
p5130
tp5131
a(g4591
(S's\x07\x00\x00\x00Twitter'
tRp5132
I00
S'http://twitter.com/web2py'
p5133
tp5134
a(g4591
(S's\t\x00\x00\x00Live Chat'
tRp5135
I00
S'http://webchat.freenode.net/?channels=web2py'
p5136
tp5137
aasbasbasbasbasbasbasbag61
(g77
g63
NtRp5138
(dp5139
g66
(dp5140
sg75
g4705
sg68
(lp5141
g61
(g82
g63
NtRp5142
(dp5143
g66
(dp5144
sg75
g5138
sg68
(lp5145
g61
(g62
g63
NtRp5146
(dp5147
g66
(dp5148
g74
I2
ssg75
g5142
sg68
(lp5149
g61
(g70
g63
NtRp5150
(dp5151
g66
(dp5152
g74
I1
ssg75
Nsg68
(lp5153
g61
(g77
g63
NtRp5154
(dp5155
g66
(dp5156
sg75
g5150
sg68
(lp5157
g61
(g82
g63
NtRp5158
(dp5159
g66
(dp5160
sg75
g5154
sg68
(lp5161
g61
(g62
g63
NtRp5162
(dp5163
g66
(dp5164
g74
I1
ssg75
g5158
sg68
(lp5165
g4591
(S's\x07\x00\x00\x00Plugins'
tRp5166
asbasbasbag61
(g77
g63
NtRp5167
(dp5168
g66
(dp5169
sg75
g5150
sg68
(lp5170
g61
(g82
g63
NtRp5171
(dp5172
g66
(dp5173
sg75
g5167
sg68
(lp5174
g61
(g62
g63
NtRp5175
(dp5176
g66
(dp5177
g74
I1
ssg75
g5171
sg68
(lp5178
I00
asbasbasbag61
(g77
g63
NtRp5179
(dp5180
g66
(dp5181
sg75
g5150
sg68
(lp5182
g61
(g82
g63
NtRp5183
(dp5184
g66
(dp5185
sg75
g5179
sg68
(lp5186
g61
(g62
g63
NtRp5187
(dp5188
g66
(dp5189
g74
I1
ssg75
g5183
sg68
(lp5190
Nasbasbasbag61
(g77
g63
NtRp5191
(dp5192
g66
(dp5193
sg75
g5150
sg68
(lp5194
g61
(g82
g63
NtRp5195
(dp5196
g66
(dp5197
sg75
g5191
sg68
(lp5198
g61
(g62
g63
NtRp5199
(dp5200
g66
(dp5201
g74
I1
ssg75
g5195
sg68
(lp5202
(lp5203
(S'plugin_wiki'
p5204
I00
S'http://web2py.com/examples/default/download'
p5205
tp5206
a(g4591
(S's\r\x00\x00\x00Other Plugins'
tRp5207
I00
g4937
tp5208
a(g4591
(S's\x0e\x00\x00\x00Layout Plugins'
tRp5209
I00
g4940
tp5210
aasbasbasbasbasbasbasbasbasbasbasbasbasbasbasbasbasbasbasbag61
(g77
g63
NtRp5211
(dp5212
g66
(dp5213
sg75
g4025
sg68
(lp5214
g61
(g82
g63
NtRp5215
(dp5216
g66
(dp5217
g86
g87
ssg75
g5211
sg68
(lp5218
S'meta'
p5219
asbag61
(g82
g63
NtRp5220
(dp5221
g66
(dp5222
g93
g94
ssg75
g5211
sg68
(lp5223
S':'
asbag61
(g82
g63
NtRp5224
(dp5225
g66
(dp5226
sg75
g5211
sg68
(lp5227
g61
(g62
g63
NtRp5228
(dp5229
g66
(dp5230
g74
I5
ssg75
g5224
sg68
(lp5231
g61
(g70
g63
NtRp5232
(dp5233
g66
(dp5234
g74
I4
ssg75
Nsg68
(lp5235
g61
(g77
g63
NtRp5236
(dp5237
g66
(dp5238
sg75
g5232
sg68
(lp5239
g61
(g82
g63
NtRp5240
(dp5241
g66
(dp5242
g86
g87
ssg75
g5236
sg68
(lp5243
S'author'
p5244
asbag61
(g82
g63
NtRp5245
(dp5246
g66
(dp5247
g93
g94
ssg75
g5236
sg68
(lp5248
S':'
asbag61
(g82
g63
NtRp5249
(dp5250
g66
(dp5251
sg75
g5236
sg68
(lp5252
g61
(g62
g63
NtRp5253
(dp5254
g66
(dp5255
g74
I4
ssg75
g5249
sg68
(lp5256
S'Your Name <you@example.com>'
p5257
asbasbasbag61
(g77
g63
NtRp5258
(dp5259
g66
(dp5260
sg75
g5232
sg68
(lp5261
g61
(g82
g63
NtRp5262
(dp5263
g66
(dp5264
g86
g87
ssg75
g5258
sg68
(lp5265
S'description'
p5266
asbag61
(g82
g63
NtRp5267
(dp5268
g66
(dp5269
g93
g94
ssg75
g5258
sg68
(lp5270
S':'
asbag61
(g82
g63
NtRp5271
(dp5272
g66
(dp5273
sg75
g5258
sg68
(lp5274
g61
(g62
g63
NtRp5275
(dp5276
g66
(dp5277
g74
I4
ssg75
g5271
sg68
(lp5278
S'a cool new app'
p5279
asbasbasbag61
(g77
g63
NtRp5280
(dp5281
g66
(dp5282
sg75
g5232
sg68
(lp5283
g61
(g82
g63
NtRp5284
(dp5285
g66
(dp5286
g86
g87
ssg75
g5280
sg68
(lp5287
S'generator'
p5288
asbag61
(g82
g63
NtRp5289
(dp5290
g66
(dp5291
g93
g94
ssg75
g5280
sg68
(lp5292
S':'
asbag61
(g82
g63
NtRp5293
(dp5294
g66
(dp5295
sg75
g5280
sg68
(lp5296
g61
(g62
g63
NtRp5297
(dp5298
g66
(dp5299
g74
I4
ssg75
g5293
sg68
(lp5300
S'Web2py Web Framework'
p5301
asbasbasbag61
(g77
g63
NtRp5302
(dp5303
g66
(dp5304
sg75
g5232
sg68
(lp5305
g61
(g82
g63
NtRp5306
(dp5307
g66
(dp5308
g86
g87
ssg75
g5302
sg68
(lp5309
S'keywords'
p5310
asbag61
(g82
g63
NtRp5311
(dp5312
g66
(dp5313
g93
g94
ssg75
g5302
sg68
(lp5314
S':'
asbag61
(g82
g63
NtRp5315
(dp5316
g66
(dp5317
sg75
g5302
sg68
(lp5318
g61
(g62
g63
NtRp5319
(dp5320
g66
(dp5321
g74
I4
ssg75
g5315
sg68
(lp5322
S'web2py, python, framework'
p5323
asbasbasbasbasbasbasbag61
(g77
g63
NtRp5324
(dp5325
g66
(dp5326
sg75
g4025
sg68
(lp5327
g61
(g82
g63
NtRp5328
(dp5329
g66
(dp5330
g86
g87
ssg75
g5324
sg68
(lp5331
S'postprocessing'
p5332
asbag61
(g82
g63
NtRp5333
(dp5334
g66
(dp5335
g93
g94
ssg75
g5324
sg68
(lp5336
S':'
asbag61
(g82
g63
NtRp5337
(dp5338
g66
(dp5339
sg75
g5324
sg68
(lp5340
g61
(g62
g63
NtRp5341
(dp5342
g66
(dp5343
g74
I5
ssg75
g5337
sg68
(lp5344
g61
(g70
g63
NtRp5345
(dp5346
g66
(dp5347
g74
I4
ssg75
Nsg68
(lp5348
sbasbasbasbag61
(g77
g63
NtRp5349
(dp5350
g66
(dp5351
sg75
g4025
sg68
(lp5352
g61
(g82
g63
NtRp5353
(dp5354
g66
(dp5355
g86
g87
ssg75
g5349
sg68
(lp5356
S'session_file'
p5357
asbag61
(g82
g63
NtRp5358
(dp5359
g66
(dp5360
g93
g94
ssg75
g5349
sg68
(lp5361
S':'
asbag61
(g82
g63
NtRp5362
(dp5363
g66
(dp5364
sg75
g5349
sg68
(lp5365
g61
(g62
g63
NtRp5366
(dp5367
g66
(dp5368
g74
I5
ssg75
g5362
sg68
(lp5369
S"<open file '/home/piyush/web2py/applications/FotoBuk/sessions/127.0.0.1-961e4bc4-dc07-4e6c-b9f7-52a46e56ffd5', mode 'rb+' at 0xaf024f98>"
p5370
asbasbasbag61
(g77
g63
NtRp5371
(dp5372
g66
(dp5373
sg75
g4025
sg68
(lp5374
g61
(g82
g63
NtRp5375
(dp5376
g66
(dp5377
g86
g87
ssg75
g5371
sg68
(lp5378
S'session_filename'
p5379
asbag61
(g82
g63
NtRp5380
(dp5381
g66
(dp5382
g93
g94
ssg75
g5371
sg68
(lp5383
S':'
asbag61
(g82
g63
NtRp5384
(dp5385
g66
(dp5386
sg75
g5371
sg68
(lp5387
g61
(g62
g63
NtRp5388
(dp5389
g66
(dp5390
g74
I5
ssg75
g5384
sg68
(lp5391
S'/home/piyush/web2py/applications/FotoBuk/sessions/127.0.0.1-961e4bc4-dc07-4e6c-b9f7-52a46e56ffd5'
p5392
asbasbasbag61
(g77
g63
NtRp5393
(dp5394
g66
(dp5395
sg75
g4025
sg68
(lp5396
g61
(g82
g63
NtRp5397
(dp5398
g66
(dp5399
g86
g87
ssg75
g5393
sg68
(lp5400
S'session_id'
p5401
asbag61
(g82
g63
NtRp5402
(dp5403
g66
(dp5404
g93
g94
ssg75
g5393
sg68
(lp5405
S':'
asbag61
(g82
g63
NtRp5406
(dp5407
g66
(dp5408
sg75
g5393
sg68
(lp5409
g61
(g62
g63
NtRp5410
(dp5411
g66
(dp5412
g74
I5
ssg75
g5406
sg68
(lp5413
g491
asbasbasbag61
(g77
g63
NtRp5414
(dp5415
g66
(dp5416
sg75
g4025
sg68
(lp5417
g61
(g82
g63
NtRp5418
(dp5419
g66
(dp5420
g86
g87
ssg75
g5414
sg68
(lp5421
S'session_id_name'
p5422
asbag61
(g82
g63
NtRp5423
(dp5424
g66
(dp5425
g93
g94
ssg75
g5414
sg68
(lp5426
S':'
asbag61
(g82
g63
NtRp5427
(dp5428
g66
(dp5429
sg75
g5414
sg68
(lp5430
g61
(g62
g63
NtRp5431
(dp5432
g66
(dp5433
g74
I5
ssg75
g5427
sg68
(lp5434
g4082
asbasbasbag61
(g77
g63
NtRp5435
(dp5436
g66
(dp5437
sg75
g4025
sg68
(lp5438
g61
(g82
g63
NtRp5439
(dp5440
g66
(dp5441
g86
g87
ssg75
g5435
sg68
(lp5442
S'session_locked'
p5443
asbag61
(g82
g63
NtRp5444
(dp5445
g66
(dp5446
g93
g94
ssg75
g5435
sg68
(lp5447
S':'
asbag61
(g82
g63
NtRp5448
(dp5449
g66
(dp5450
sg75
g5435
sg68
(lp5451
g61
(g62
g63
NtRp5452
(dp5453
g66
(dp5454
g74
I5
ssg75
g5448
sg68
(lp5455
g1968
asbasbasbag61
(g77
g63
NtRp5456
(dp5457
g66
(dp5458
sg75
g4025
sg68
(lp5459
g61
(g82
g63
NtRp5460
(dp5461
g66
(dp5462
g86
g87
ssg75
g5456
sg68
(lp5463
S'session_new'
p5464
asbag61
(g82
g63
NtRp5465
(dp5466
g66
(dp5467
g93
g94
ssg75
g5456
sg68
(lp5468
S':'
asbag61
(g82
g63
NtRp5469
(dp5470
g66
(dp5471
sg75
g5456
sg68
(lp5472
g61
(g62
g63
NtRp5473
(dp5474
g66
(dp5475
g74
I5
ssg75
g5469
sg68
(lp5476
g104
asbasbasbag61
(g77
g63
NtRp5477
(dp5478
g66
(dp5479
sg75
g4025
sg68
(lp5480
g61
(g82
g63
NtRp5481
(dp5482
g66
(dp5483
g86
g87
ssg75
g5477
sg68
(lp5484
S'status'
p5485
asbag61
(g82
g63
NtRp5486
(dp5487
g66
(dp5488
g93
g94
ssg75
g5477
sg68
(lp5489
S':'
asbag61
(g82
g63
NtRp5490
(dp5491
g66
(dp5492
sg75
g5477
sg68
(lp5493
g61
(g62
g63
NtRp5494
(dp5495
g66
(dp5496
g74
I5
ssg75
g5490
sg68
(lp5497
S'200'
p5498
asbasbasbag61
(g77
g63
NtRp5499
(dp5500
g66
(dp5501
sg75
g4025
sg68
(lp5502
g61
(g82
g63
NtRp5503
(dp5504
g66
(dp5505
g86
g87
ssg75
g5499
sg68
(lp5506
S'subtitle'
p5507
asbag61
(g82
g63
NtRp5508
(dp5509
g66
(dp5510
g93
g94
ssg75
g5499
sg68
(lp5511
S':'
asbag61
(g82
g63
NtRp5512
(dp5513
g66
(dp5514
sg75
g5499
sg68
(lp5515
g61
(g62
g63
NtRp5516
(dp5517
g66
(dp5518
g74
I5
ssg75
g5512
sg68
(lp5519
g4591
(S's\r\x00\x00\x00customize me!'
tRp5520
asbasbasbag61
(g77
g63
NtRp5521
(dp5522
g66
(dp5523
sg75
g4025
sg68
(lp5524
g61
(g82
g63
NtRp5525
(dp5526
g66
(dp5527
g86
g87
ssg75
g5521
sg68
(lp5528
S'title'
p5529
asbag61
(g82
g63
NtRp5530
(dp5531
g66
(dp5532
g93
g94
ssg75
g5521
sg68
(lp5533
S':'
asbag61
(g82
g63
NtRp5534
(dp5535
g66
(dp5536
sg75
g5521
sg68
(lp5537
g61
(g62
g63
NtRp5538
(dp5539
g66
(dp5540
g74
I5
ssg75
g5534
sg68
(lp5541
S'Fotobuk'
p5542
asbasbasbag61
(g77
g63
NtRp5543
(dp5544
g66
(dp5545
sg75
g4025
sg68
(lp5546
g61
(g82
g63
NtRp5547
(dp5548
g66
(dp5549
g86
g87
ssg75
g5543
sg68
(lp5550
S'view'
p5551
asbag61
(g82
g63
NtRp5552
(dp5553
g66
(dp5554
g93
g94
ssg75
g5543
sg68
(lp5555
S':'
asbag61
(g82
g63
NtRp5556
(dp5557
g66
(dp5558
sg75
g5543
sg68
(lp5559
g61
(g62
g63
NtRp5560
(dp5561
g66
(dp5562
g74
I5
ssg75
g5556
sg68
(lp5563
S'default/show.html'
p5564
asbasbasbasbasbsS'locals'
p5565
(dp5566
S'query'
p5567
S"'INSERT INTO like() VALUES ();'"
p5568
sS'self'
p5569
S'<gluon.dal.SQLiteAdapter object>'
p5570
sS'e'
S'OperationalError(\'near ")": syntax error\',)'
p5571
sS'fields'
p5572
S'[]'
p5573
sS'table'
p5574
S'<Table like (id,like_id,liker,likername)>'
p5575
sssS'traceback'
p5576
S'Traceback (most recent call last):\n  File "/home/piyush/web2py/gluon/restricted.py", line 209, in restricted\n    exec ccode in environment\n  File "/home/piyush/web2py/applications/FotoBuk/controllers/default.py", line 45, in <module>\n  File "/home/piyush/web2py/gluon/globals.py", line 185, in <lambda>\n    self._caller = lambda f: f()\n  File "/home/piyush/web2py/gluon/tools.py", line 2776, in f\n    return action(*a, **b)\n  File "/home/piyush/web2py/applications/FotoBuk/controllers/default.py", line 28, in show\n    if form2.process().accepted and flag==0:\n  File "/home/piyush/web2py/gluon/html.py", line 2106, in process\n    self.validate(**kwargs)\n  File "/home/piyush/web2py/gluon/html.py", line 2053, in validate\n    if self.accepts(**kwargs):\n  File "/home/piyush/web2py/gluon/sqlhtml.py", line 1403, in accepts\n    self.vars.id = self.table.insert(**fields)\n  File "/home/piyush/web2py/gluon/dal.py", line 7720, in insert\n    ret =  self._db._adapter.insert(self,self._listify(fields))\n  File "/home/piyush/web2py/gluon/dal.py", line 1080, in insert\n    raise e\nOperationalError: near ")": syntax error\n'
p5577
s.