(dp1
S'output'
p2
S'<class \'sqlite3.OperationalError\'> near ")": syntax error'
p3
sS'layer'
p4
S'/home/piyush/web2py/applications/FotoBuk/controllers/default.py'
p5
sS'code'
p6
S"@auth.requires_login()\ndef index():\n\tli=db(db.image).select()\n\treturn dict(li=li)\n\n@auth.requires_login()\ndef insert():\n    db.image.author.default=auth.user.first_name\n    db.image.author_id=auth.user_id\n    form=SQLFORM(db.image)\n    if form.process().accepted:\n        response.flash = 'your image is posted'\n    return dict(form=form)\n\n@auth.requires_login()\ndef show():\n    flag=0\n    image = db(db.image.id==request.args(0)).select().first()\n    db.comment.image_id.default = image.id\n    cur_user=auth.user_id\n    form = SQLFORM(db.comment)\n    likes = (db)(db.like.like_id==image.id).select()\n    #query = (db.like.like_id==image.id and db.like.liker==cur_user)\n    #if db(query).count>0:\n    if (db(db.like.like_id==image.id)(db.like.liker==cur_user)).count()> 0:\n\t    flag=1;\n    else:\n\t    flag=0;\n    print likes\n#    for lik in likes:\n#\t    if cur\n#\t    if int(cur_user) == int(lik.liker):\n#\t\t    flag=1\n    print flag\n    form2 = SQLFORM(db.like)\n    if form2.process().accepted and flag==0:\n\tprint 'yes'\n\tresponse.flash = 'You have liked the image'\n    \tdb.like.insert(likername=auth.user.first_name)\n\tdb.like.insert(liker=auth.user_id)\n\tdb.like.insert(like_id=image.id)\n    else:\n\tresponse.flash = 'You already like this image'\n\n    if form.process().accepted:\n        response.flash = 'your comment is posted'\n\n    comments = db(db.comment.image_id==image.id).select()\n    return dict(cur_user=cur_user,flag=flag,image=image, comments=comments, likes=likes, form=form, form2=form2)\n\ndef delete():\n    db(db.image.id==request.args(0)).delete()\n    image = db(db.image.id==request.args(0)).select()\n\ndef user():\n\treturn dict(form=auth())\n\ndef download():\n\treturn response.download(request,db)\n\nresponse._vars=response._caller(show)\n"
p7
sS'snapshot'
p8
(dp9
S'exception'
p10
(dp11
S'__module__'
p12
S"'sqlite3'"
p13
sS'__getslice__'
p14
S"<method-wrapper '__getslice__' of OperationalError object>"
p15
sS'__str__'
p16
S"<method-wrapper '__str__' of OperationalError object>"
p17
sS'__reduce__'
p18
S'<built-in method __reduce__ of OperationalError object>'
p19
sS'__dict__'
p20
S'{}'
p21
sS'__sizeof__'
p22
S'<built-in method __sizeof__ of OperationalError object>'
p23
sS'__weakref__'
p24
S'None'
p25
sS'__init__'
p26
S"<method-wrapper '__init__' of OperationalError object>"
p27
sS'__setattr__'
p28
S"<method-wrapper '__setattr__' of OperationalError object>"
p29
sS'__reduce_ex__'
p30
S'<built-in method __reduce_ex__ of OperationalError object>'
p31
sS'__new__'
p32
S'<built-in method __new__ of type object>'
p33
sS'__format__'
p34
S'<built-in method __format__ of OperationalError object>'
p35
sS'__class__'
p36
S"<class 'sqlite3.OperationalError'>"
p37
sS'__doc__'
p38
S'None'
p39
sS'__getitem__'
p40
S"<method-wrapper '__getitem__' of OperationalError object>"
p41
sS'__setstate__'
p42
S'<built-in method __setstate__ of OperationalError object>'
p43
sS'__getattribute__'
p44
S"<method-wrapper '__getattribute__' of OperationalError object>"
p45
sS'args'
p46
S'(\'near ")": syntax error\',)'
p47
sS'__subclasshook__'
p48
S'<built-in method __subclasshook__ of type object>'
p49
sS'__unicode__'
p50
S'<built-in method __unicode__ of OperationalError object>'
p51
sS'__delattr__'
p52
S"<method-wrapper '__delattr__' of OperationalError object>"
p53
sS'__repr__'
p54
S"<method-wrapper '__repr__' of OperationalError object>"
p55
sS'__hash__'
p56
S"<method-wrapper '__hash__' of OperationalError object>"
p57
ssS'evalue'
p58
S'near ")": syntax error'
p59
sS'request'
p60
ccopy_reg
_reconstructor
p61
(cgluon.html
BEAUTIFY
p62
c__builtin__
object
p63
NtRp64
(dp65
S'attributes'
p66
(dp67
sS'components'
p68
(lp69
g61
(cgluon.html
TABLE
p70
g63
NtRp71
(dp72
g66
(dp73
S'level'
p74
I5
ssS'parent'
p75
Nsg68
(lp76
g61
(cgluon.html
TR
p77
g63
NtRp78
(dp79
g66
(dp80
sg75
g71
sg68
(lp81
g61
(cgluon.html
TD
p82
g63
NtRp83
(dp84
g66
(dp85
S'_style'
p86
S'font-weight:bold;vertical-align:top'
p87
ssg75
g78
sg68
(lp88
S'ajax'
p89
asbag61
(g82
g63
NtRp90
(dp91
g66
(dp92
S'_valign'
p93
S'top'
p94
ssg75
g78
sg68
(lp95
S':'
asbag61
(g82
g63
NtRp96
(dp97
g66
(dp98
sg75
g78
sg68
(lp99
g61
(g62
g63
NtRp100
(dp101
g66
(dp102
g74
I5
ssg75
g96
sg68
(lp103
S'False'
p104
asbasbasbag61
(g77
g63
NtRp105
(dp106
g66
(dp107
sg75
g71
sg68
(lp108
g61
(g82
g63
NtRp109
(dp110
g66
(dp111
g86
g87
ssg75
g105
sg68
(lp112
S'application'
p113
asbag61
(g82
g63
NtRp114
(dp115
g66
(dp116
g93
g94
ssg75
g105
sg68
(lp117
S':'
asbag61
(g82
g63
NtRp118
(dp119
g66
(dp120
sg75
g105
sg68
(lp121
g61
(g62
g63
NtRp122
(dp123
g66
(dp124
g74
I5
ssg75
g118
sg68
(lp125
S'FotoBuk'
p126
asbasbasbag61
(g77
g63
NtRp127
(dp128
g66
(dp129
sg75
g71
sg68
(lp130
g61
(g82
g63
NtRp131
(dp132
g66
(dp133
g86
g87
ssg75
g127
sg68
(lp134
g46
asbag61
(g82
g63
NtRp135
(dp136
g66
(dp137
g93
g94
ssg75
g127
sg68
(lp138
S':'
asbag61
(g82
g63
NtRp139
(dp140
g66
(dp141
sg75
g127
sg68
(lp142
g61
(g62
g63
NtRp143
(dp144
g66
(dp145
g74
I5
ssg75
g139
sg68
(lp146
g61
(g70
g63
NtRp147
(dp148
g66
(dp149
g74
I4
ssg75
Nsg68
(lp150
g61
(g77
g63
NtRp151
(dp152
g66
(dp153
sg75
g147
sg68
(lp154
g61
(g82
g63
NtRp155
(dp156
g66
(dp157
sg75
g151
sg68
(lp158
g61
(g62
g63
NtRp159
(dp160
g66
(dp161
g74
I4
ssg75
g155
sg68
(lp162
S'6'
asbasbasbasbasbasbasbag61
(g77
g63
NtRp163
(dp164
g66
(dp165
sg75
g71
sg68
(lp166
g61
(g82
g63
NtRp167
(dp168
g66
(dp169
g86
g87
ssg75
g163
sg68
(lp170
S'body'
p171
asbag61
(g82
g63
NtRp172
(dp173
g66
(dp174
g93
g94
ssg75
g163
sg68
(lp175
S':'
asbag61
(g82
g63
NtRp176
(dp177
g66
(dp178
sg75
g163
sg68
(lp179
g61
(g62
g63
NtRp180
(dp181
g66
(dp182
g74
I5
ssg75
g176
sg68
(lp183
S"<open file '<fdopen>', mode 'w+b' at 0xb39be700>"
p184
asbasbasbag61
(g77
g63
NtRp185
(dp186
g66
(dp187
sg75
g71
sg68
(lp188
g61
(g82
g63
NtRp189
(dp190
g66
(dp191
g86
g87
ssg75
g185
sg68
(lp192
S'cid'
p193
asbag61
(g82
g63
NtRp194
(dp195
g66
(dp196
g93
g94
ssg75
g185
sg68
(lp197
S':'
asbag61
(g82
g63
NtRp198
(dp199
g66
(dp200
sg75
g185
sg68
(lp201
g61
(g62
g63
NtRp202
(dp203
g66
(dp204
g74
I5
ssg75
g198
sg68
(lp205
S'None'
p206
asbasbasbag61
(g77
g63
NtRp207
(dp208
g66
(dp209
sg75
g71
sg68
(lp210
g61
(g82
g63
NtRp211
(dp212
g66
(dp213
g86
g87
ssg75
g207
sg68
(lp214
S'client'
p215
asbag61
(g82
g63
NtRp216
(dp217
g66
(dp218
g93
g94
ssg75
g207
sg68
(lp219
S':'
asbag61
(g82
g63
NtRp220
(dp221
g66
(dp222
sg75
g207
sg68
(lp223
g61
(g62
g63
NtRp224
(dp225
g66
(dp226
g74
I5
ssg75
g220
sg68
(lp227
S'127.0.0.1'
p228
asbasbasbag61
(g77
g63
NtRp229
(dp230
g66
(dp231
sg75
g71
sg68
(lp232
g61
(g82
g63
NtRp233
(dp234
g66
(dp235
g86
g87
ssg75
g229
sg68
(lp236
S'controller'
p237
asbag61
(g82
g63
NtRp238
(dp239
g66
(dp240
g93
g94
ssg75
g229
sg68
(lp241
S':'
asbag61
(g82
g63
NtRp242
(dp243
g66
(dp244
sg75
g229
sg68
(lp245
g61
(g62
g63
NtRp246
(dp247
g66
(dp248
g74
I5
ssg75
g242
sg68
(lp249
S'default'
p250
asbasbasbag61
(g77
g63
NtRp251
(dp252
g66
(dp253
sg75
g71
sg68
(lp254
g61
(g82
g63
NtRp255
(dp256
g66
(dp257
g86
g87
ssg75
g251
sg68
(lp258
S'cookies'
p259
asbag61
(g82
g63
NtRp260
(dp261
g66
(dp262
g93
g94
ssg75
g251
sg68
(lp263
S':'
asbag61
(g82
g63
NtRp264
(dp265
g66
(dp266
sg75
g251
sg68
(lp267
g61
(g62
g63
NtRp268
(dp269
g66
(dp270
g74
I5
ssg75
g264
sg68
(lp271
g61
(g70
g63
NtRp272
(dp273
g66
(dp274
g74
I4
ssg75
Nsg68
(lp275
g61
(g77
g63
NtRp276
(dp277
g66
(dp278
sg75
g272
sg68
(lp279
g61
(g82
g63
NtRp280
(dp281
g66
(dp282
g86
g87
ssg75
g276
sg68
(lp283
S'session_id_admin'
p284
asbag61
(g82
g63
NtRp285
(dp286
g66
(dp287
g93
g94
ssg75
g276
sg68
(lp288
S':'
asbag61
(g82
g63
NtRp289
(dp290
g66
(dp291
sg75
g276
sg68
(lp292
g61
(g62
g63
NtRp293
(dp294
g66
(dp295
g74
I4
ssg75
g289
sg68
(lp296
S'127.0.0.1-b3c2d1ad-f796-4da8-b8a8-41b2a25cf8e7'
p297
ag61
(g70
g63
NtRp298
(dp299
g66
(dp300
g74
I3
ssg75
Nsg68
(lp301
g61
(g77
g63
NtRp302
(dp303
g66
(dp304
sg75
g298
sg68
(lp305
g61
(g82
g63
NtRp306
(dp307
g66
(dp308
g86
g87
ssg75
g302
sg68
(lp309
S'comment'
p310
asbag61
(g82
g63
NtRp311
(dp312
g66
(dp313
g93
g94
ssg75
g302
sg68
(lp314
S':'
asbag61
(g82
g63
NtRp315
(dp316
g66
(dp317
sg75
g302
sg68
(lp318
g61
(g62
g63
NtRp319
(dp320
g66
(dp321
g74
I3
ssg75
g315
sg68
(lp322
S''
asbasbasbag61
(g77
g63
NtRp323
(dp324
g66
(dp325
sg75
g298
sg68
(lp326
g61
(g82
g63
NtRp327
(dp328
g66
(dp329
g86
g87
ssg75
g323
sg68
(lp330
S'domain'
p331
asbag61
(g82
g63
NtRp332
(dp333
g66
(dp334
g93
g94
ssg75
g323
sg68
(lp335
S':'
asbag61
(g82
g63
NtRp336
(dp337
g66
(dp338
sg75
g323
sg68
(lp339
g61
(g62
g63
NtRp340
(dp341
g66
(dp342
g74
I3
ssg75
g336
sg68
(lp343
S''
asbasbasbag61
(g77
g63
NtRp344
(dp345
g66
(dp346
sg75
g298
sg68
(lp347
g61
(g82
g63
NtRp348
(dp349
g66
(dp350
g86
g87
ssg75
g344
sg68
(lp351
S'expires'
p352
asbag61
(g82
g63
NtRp353
(dp354
g66
(dp355
g93
g94
ssg75
g344
sg68
(lp356
S':'
asbag61
(g82
g63
NtRp357
(dp358
g66
(dp359
sg75
g344
sg68
(lp360
g61
(g62
g63
NtRp361
(dp362
g66
(dp363
g74
I3
ssg75
g357
sg68
(lp364
S''
asbasbasbag61
(g77
g63
NtRp365
(dp366
g66
(dp367
sg75
g298
sg68
(lp368
g61
(g82
g63
NtRp369
(dp370
g66
(dp371
g86
g87
ssg75
g365
sg68
(lp372
S'httponly'
p373
asbag61
(g82
g63
NtRp374
(dp375
g66
(dp376
g93
g94
ssg75
g365
sg68
(lp377
S':'
asbag61
(g82
g63
NtRp378
(dp379
g66
(dp380
sg75
g365
sg68
(lp381
g61
(g62
g63
NtRp382
(dp383
g66
(dp384
g74
I3
ssg75
g378
sg68
(lp385
S''
asbasbasbag61
(g77
g63
NtRp386
(dp387
g66
(dp388
sg75
g298
sg68
(lp389
g61
(g82
g63
NtRp390
(dp391
g66
(dp392
g86
g87
ssg75
g386
sg68
(lp393
S'max-age'
p394
asbag61
(g82
g63
NtRp395
(dp396
g66
(dp397
g93
g94
ssg75
g386
sg68
(lp398
S':'
asbag61
(g82
g63
NtRp399
(dp400
g66
(dp401
sg75
g386
sg68
(lp402
g61
(g62
g63
NtRp403
(dp404
g66
(dp405
g74
I3
ssg75
g399
sg68
(lp406
S''
asbasbasbag61
(g77
g63
NtRp407
(dp408
g66
(dp409
sg75
g298
sg68
(lp410
g61
(g82
g63
NtRp411
(dp412
g66
(dp413
g86
g87
ssg75
g407
sg68
(lp414
S'path'
p415
asbag61
(g82
g63
NtRp416
(dp417
g66
(dp418
g93
g94
ssg75
g407
sg68
(lp419
S':'
asbag61
(g82
g63
NtRp420
(dp421
g66
(dp422
sg75
g407
sg68
(lp423
g61
(g62
g63
NtRp424
(dp425
g66
(dp426
g74
I3
ssg75
g420
sg68
(lp427
S''
asbasbasbag61
(g77
g63
NtRp428
(dp429
g66
(dp430
sg75
g298
sg68
(lp431
g61
(g82
g63
NtRp432
(dp433
g66
(dp434
g86
g87
ssg75
g428
sg68
(lp435
S'secure'
p436
asbag61
(g82
g63
NtRp437
(dp438
g66
(dp439
g93
g94
ssg75
g428
sg68
(lp440
S':'
asbag61
(g82
g63
NtRp441
(dp442
g66
(dp443
sg75
g428
sg68
(lp444
g61
(g62
g63
NtRp445
(dp446
g66
(dp447
g74
I3
ssg75
g441
sg68
(lp448
S''
asbasbasbag61
(g77
g63
NtRp449
(dp450
g66
(dp451
sg75
g298
sg68
(lp452
g61
(g82
g63
NtRp453
(dp454
g66
(dp455
g86
g87
ssg75
g449
sg68
(lp456
S'version'
p457
asbag61
(g82
g63
NtRp458
(dp459
g66
(dp460
g93
g94
ssg75
g449
sg68
(lp461
S':'
asbag61
(g82
g63
NtRp462
(dp463
g66
(dp464
sg75
g449
sg68
(lp465
g61
(g62
g63
NtRp466
(dp467
g66
(dp468
g74
I3
ssg75
g462
sg68
(lp469
S''
asbasbasbasbasbasbasbag61
(g77
g63
NtRp470
(dp471
g66
(dp472
sg75
g272
sg68
(lp473
g61
(g82
g63
NtRp474
(dp475
g66
(dp476
g86
g87
ssg75
g470
sg68
(lp477
S'session_id_fotobuk'
p478
asbag61
(g82
g63
NtRp479
(dp480
g66
(dp481
g93
g94
ssg75
g470
sg68
(lp482
S':'
asbag61
(g82
g63
NtRp483
(dp484
g66
(dp485
sg75
g470
sg68
(lp486
g61
(g62
g63
NtRp487
(dp488
g66
(dp489
g74
I4
ssg75
g483
sg68
(lp490
S'127.0.0.1-a0aa12fe-f234-43d8-b1ed-9cc366e4417f'
p491
ag61
(g70
g63
NtRp492
(dp493
g66
(dp494
g74
I3
ssg75
Nsg68
(lp495
g61
(g77
g63
NtRp496
(dp497
g66
(dp498
sg75
g492
sg68
(lp499
g61
(g82
g63
NtRp500
(dp501
g66
(dp502
g86
g87
ssg75
g496
sg68
(lp503
g310
asbag61
(g82
g63
NtRp504
(dp505
g66
(dp506
g93
g94
ssg75
g496
sg68
(lp507
S':'
asbag61
(g82
g63
NtRp508
(dp509
g66
(dp510
sg75
g496
sg68
(lp511
g61
(g62
g63
NtRp512
(dp513
g66
(dp514
g74
I3
ssg75
g508
sg68
(lp515
S''
asbasbasbag61
(g77
g63
NtRp516
(dp517
g66
(dp518
sg75
g492
sg68
(lp519
g61
(g82
g63
NtRp520
(dp521
g66
(dp522
g86
g87
ssg75
g516
sg68
(lp523
g331
asbag61
(g82
g63
NtRp524
(dp525
g66
(dp526
g93
g94
ssg75
g516
sg68
(lp527
S':'
asbag61
(g82
g63
NtRp528
(dp529
g66
(dp530
sg75
g516
sg68
(lp531
g61
(g62
g63
NtRp532
(dp533
g66
(dp534
g74
I3
ssg75
g528
sg68
(lp535
S''
asbasbasbag61
(g77
g63
NtRp536
(dp537
g66
(dp538
sg75
g492
sg68
(lp539
g61
(g82
g63
NtRp540
(dp541
g66
(dp542
g86
g87
ssg75
g536
sg68
(lp543
g352
asbag61
(g82
g63
NtRp544
(dp545
g66
(dp546
g93
g94
ssg75
g536
sg68
(lp547
S':'
asbag61
(g82
g63
NtRp548
(dp549
g66
(dp550
sg75
g536
sg68
(lp551
g61
(g62
g63
NtRp552
(dp553
g66
(dp554
g74
I3
ssg75
g548
sg68
(lp555
S''
asbasbasbag61
(g77
g63
NtRp556
(dp557
g66
(dp558
sg75
g492
sg68
(lp559
g61
(g82
g63
NtRp560
(dp561
g66
(dp562
g86
g87
ssg75
g556
sg68
(lp563
g373
asbag61
(g82
g63
NtRp564
(dp565
g66
(dp566
g93
g94
ssg75
g556
sg68
(lp567
S':'
asbag61
(g82
g63
NtRp568
(dp569
g66
(dp570
sg75
g556
sg68
(lp571
g61
(g62
g63
NtRp572
(dp573
g66
(dp574
g74
I3
ssg75
g568
sg68
(lp575
S''
asbasbasbag61
(g77
g63
NtRp576
(dp577
g66
(dp578
sg75
g492
sg68
(lp579
g61
(g82
g63
NtRp580
(dp581
g66
(dp582
g86
g87
ssg75
g576
sg68
(lp583
g394
asbag61
(g82
g63
NtRp584
(dp585
g66
(dp586
g93
g94
ssg75
g576
sg68
(lp587
S':'
asbag61
(g82
g63
NtRp588
(dp589
g66
(dp590
sg75
g576
sg68
(lp591
g61
(g62
g63
NtRp592
(dp593
g66
(dp594
g74
I3
ssg75
g588
sg68
(lp595
S''
asbasbasbag61
(g77
g63
NtRp596
(dp597
g66
(dp598
sg75
g492
sg68
(lp599
g61
(g82
g63
NtRp600
(dp601
g66
(dp602
g86
g87
ssg75
g596
sg68
(lp603
g415
asbag61
(g82
g63
NtRp604
(dp605
g66
(dp606
g93
g94
ssg75
g596
sg68
(lp607
S':'
asbag61
(g82
g63
NtRp608
(dp609
g66
(dp610
sg75
g596
sg68
(lp611
g61
(g62
g63
NtRp612
(dp613
g66
(dp614
g74
I3
ssg75
g608
sg68
(lp615
S''
asbasbasbag61
(g77
g63
NtRp616
(dp617
g66
(dp618
sg75
g492
sg68
(lp619
g61
(g82
g63
NtRp620
(dp621
g66
(dp622
g86
g87
ssg75
g616
sg68
(lp623
g436
asbag61
(g82
g63
NtRp624
(dp625
g66
(dp626
g93
g94
ssg75
g616
sg68
(lp627
S':'
asbag61
(g82
g63
NtRp628
(dp629
g66
(dp630
sg75
g616
sg68
(lp631
g61
(g62
g63
NtRp632
(dp633
g66
(dp634
g74
I3
ssg75
g628
sg68
(lp635
S''
asbasbasbag61
(g77
g63
NtRp636
(dp637
g66
(dp638
sg75
g492
sg68
(lp639
g61
(g82
g63
NtRp640
(dp641
g66
(dp642
g86
g87
ssg75
g636
sg68
(lp643
g457
asbag61
(g82
g63
NtRp644
(dp645
g66
(dp646
g93
g94
ssg75
g636
sg68
(lp647
S':'
asbag61
(g82
g63
NtRp648
(dp649
g66
(dp650
sg75
g636
sg68
(lp651
g61
(g62
g63
NtRp652
(dp653
g66
(dp654
g74
I3
ssg75
g648
sg68
(lp655
S''
asbasbasbasbasbasbasbag61
(g77
g63
NtRp656
(dp657
g66
(dp658
sg75
g272
sg68
(lp659
g61
(g82
g63
NtRp660
(dp661
g66
(dp662
g86
g87
ssg75
g656
sg68
(lp663
S'session_id_welcome'
p664
asbag61
(g82
g63
NtRp665
(dp666
g66
(dp667
g93
g94
ssg75
g656
sg68
(lp668
S':'
asbag61
(g82
g63
NtRp669
(dp670
g66
(dp671
sg75
g656
sg68
(lp672
g61
(g62
g63
NtRp673
(dp674
g66
(dp675
g74
I4
ssg75
g669
sg68
(lp676
S'127.0.0.1-d9249293-42c1-424c-bc11-0262fbc13d21'
p677
ag61
(g70
g63
NtRp678
(dp679
g66
(dp680
g74
I3
ssg75
Nsg68
(lp681
g61
(g77
g63
NtRp682
(dp683
g66
(dp684
sg75
g678
sg68
(lp685
g61
(g82
g63
NtRp686
(dp687
g66
(dp688
g86
g87
ssg75
g682
sg68
(lp689
g310
asbag61
(g82
g63
NtRp690
(dp691
g66
(dp692
g93
g94
ssg75
g682
sg68
(lp693
S':'
asbag61
(g82
g63
NtRp694
(dp695
g66
(dp696
sg75
g682
sg68
(lp697
g61
(g62
g63
NtRp698
(dp699
g66
(dp700
g74
I3
ssg75
g694
sg68
(lp701
S''
asbasbasbag61
(g77
g63
NtRp702
(dp703
g66
(dp704
sg75
g678
sg68
(lp705
g61
(g82
g63
NtRp706
(dp707
g66
(dp708
g86
g87
ssg75
g702
sg68
(lp709
g331
asbag61
(g82
g63
NtRp710
(dp711
g66
(dp712
g93
g94
ssg75
g702
sg68
(lp713
S':'
asbag61
(g82
g63
NtRp714
(dp715
g66
(dp716
sg75
g702
sg68
(lp717
g61
(g62
g63
NtRp718
(dp719
g66
(dp720
g74
I3
ssg75
g714
sg68
(lp721
S''
asbasbasbag61
(g77
g63
NtRp722
(dp723
g66
(dp724
sg75
g678
sg68
(lp725
g61
(g82
g63
NtRp726
(dp727
g66
(dp728
g86
g87
ssg75
g722
sg68
(lp729
g352
asbag61
(g82
g63
NtRp730
(dp731
g66
(dp732
g93
g94
ssg75
g722
sg68
(lp733
S':'
asbag61
(g82
g63
NtRp734
(dp735
g66
(dp736
sg75
g722
sg68
(lp737
g61
(g62
g63
NtRp738
(dp739
g66
(dp740
g74
I3
ssg75
g734
sg68
(lp741
S''
asbasbasbag61
(g77
g63
NtRp742
(dp743
g66
(dp744
sg75
g678
sg68
(lp745
g61
(g82
g63
NtRp746
(dp747
g66
(dp748
g86
g87
ssg75
g742
sg68
(lp749
g373
asbag61
(g82
g63
NtRp750
(dp751
g66
(dp752
g93
g94
ssg75
g742
sg68
(lp753
S':'
asbag61
(g82
g63
NtRp754
(dp755
g66
(dp756
sg75
g742
sg68
(lp757
g61
(g62
g63
NtRp758
(dp759
g66
(dp760
g74
I3
ssg75
g754
sg68
(lp761
S''
asbasbasbag61
(g77
g63
NtRp762
(dp763
g66
(dp764
sg75
g678
sg68
(lp765
g61
(g82
g63
NtRp766
(dp767
g66
(dp768
g86
g87
ssg75
g762
sg68
(lp769
g394
asbag61
(g82
g63
NtRp770
(dp771
g66
(dp772
g93
g94
ssg75
g762
sg68
(lp773
S':'
asbag61
(g82
g63
NtRp774
(dp775
g66
(dp776
sg75
g762
sg68
(lp777
g61
(g62
g63
NtRp778
(dp779
g66
(dp780
g74
I3
ssg75
g774
sg68
(lp781
S''
asbasbasbag61
(g77
g63
NtRp782
(dp783
g66
(dp784
sg75
g678
sg68
(lp785
g61
(g82
g63
NtRp786
(dp787
g66
(dp788
g86
g87
ssg75
g782
sg68
(lp789
g415
asbag61
(g82
g63
NtRp790
(dp791
g66
(dp792
g93
g94
ssg75
g782
sg68
(lp793
S':'
asbag61
(g82
g63
NtRp794
(dp795
g66
(dp796
sg75
g782
sg68
(lp797
g61
(g62
g63
NtRp798
(dp799
g66
(dp800
g74
I3
ssg75
g794
sg68
(lp801
S''
asbasbasbag61
(g77
g63
NtRp802
(dp803
g66
(dp804
sg75
g678
sg68
(lp805
g61
(g82
g63
NtRp806
(dp807
g66
(dp808
g86
g87
ssg75
g802
sg68
(lp809
g436
asbag61
(g82
g63
NtRp810
(dp811
g66
(dp812
g93
g94
ssg75
g802
sg68
(lp813
S':'
asbag61
(g82
g63
NtRp814
(dp815
g66
(dp816
sg75
g802
sg68
(lp817
g61
(g62
g63
NtRp818
(dp819
g66
(dp820
g74
I3
ssg75
g814
sg68
(lp821
S''
asbasbasbag61
(g77
g63
NtRp822
(dp823
g66
(dp824
sg75
g678
sg68
(lp825
g61
(g82
g63
NtRp826
(dp827
g66
(dp828
g86
g87
ssg75
g822
sg68
(lp829
g457
asbag61
(g82
g63
NtRp830
(dp831
g66
(dp832
g93
g94
ssg75
g822
sg68
(lp833
S':'
asbag61
(g82
g63
NtRp834
(dp835
g66
(dp836
sg75
g822
sg68
(lp837
g61
(g62
g63
NtRp838
(dp839
g66
(dp840
g74
I3
ssg75
g834
sg68
(lp841
S''
asbasbasbasbasbasbasbasbasbasbasbag61
(g77
g63
NtRp842
(dp843
g66
(dp844
sg75
g71
sg68
(lp845
g61
(g82
g63
NtRp846
(dp847
g66
(dp848
g86
g87
ssg75
g842
sg68
(lp849
S'env'
p850
asbag61
(g82
g63
NtRp851
(dp852
g66
(dp853
g93
g94
ssg75
g842
sg68
(lp854
S':'
asbag61
(g82
g63
NtRp855
(dp856
g66
(dp857
sg75
g842
sg68
(lp858
g61
(g62
g63
NtRp859
(dp860
g66
(dp861
g74
I5
ssg75
g855
sg68
(lp862
g61
(g70
g63
NtRp863
(dp864
g66
(dp865
g74
I4
ssg75
Nsg68
(lp866
g61
(g77
g63
NtRp867
(dp868
g66
(dp869
sg75
g863
sg68
(lp870
g61
(g82
g63
NtRp871
(dp872
g66
(dp873
g86
g87
ssg75
g867
sg68
(lp874
S'app_folders'
p875
asbag61
(g82
g63
NtRp876
(dp877
g66
(dp878
g93
g94
ssg75
g867
sg68
(lp879
S':'
asbag61
(g82
g63
NtRp880
(dp881
g66
(dp882
sg75
g867
sg68
(lp883
g61
(g62
g63
NtRp884
(dp885
g66
(dp886
g74
I4
ssg75
g880
sg68
(lp887
S"set(['/home/piyush/web2py/applications/FotoBuk/', '/home/piyush/web2py/applications/welcome/', '/home/piyush/web2py/applications/admin/'])"
p888
asbasbasbag61
(g77
g63
NtRp889
(dp890
g66
(dp891
sg75
g863
sg68
(lp892
g61
(g82
g63
NtRp893
(dp894
g66
(dp895
g86
g87
ssg75
g889
sg68
(lp896
S'applications_parent'
p897
asbag61
(g82
g63
NtRp898
(dp899
g66
(dp900
g93
g94
ssg75
g889
sg68
(lp901
S':'
asbag61
(g82
g63
NtRp902
(dp903
g66
(dp904
sg75
g889
sg68
(lp905
g61
(g62
g63
NtRp906
(dp907
g66
(dp908
g74
I4
ssg75
g902
sg68
(lp909
S'/home/piyush/web2py'
p910
asbasbasbag61
(g77
g63
NtRp911
(dp912
g66
(dp913
sg75
g863
sg68
(lp914
g61
(g82
g63
NtRp915
(dp916
g66
(dp917
g86
g87
ssg75
g911
sg68
(lp918
S'cmd_args'
p919
asbag61
(g82
g63
NtRp920
(dp921
g66
(dp922
g93
g94
ssg75
g911
sg68
(lp923
S':'
asbag61
(g82
g63
NtRp924
(dp925
g66
(dp926
sg75
g911
sg68
(lp927
g61
(g62
g63
NtRp928
(dp929
g66
(dp930
g74
I4
ssg75
g924
sg68
(lp931
g61
(g70
g63
NtRp932
(dp933
g66
(dp934
g74
I3
ssg75
Nsg68
(lp935
sbasbasbasbag61
(g77
g63
NtRp936
(dp937
g66
(dp938
sg75
g863
sg68
(lp939
g61
(g82
g63
NtRp940
(dp941
g66
(dp942
g86
g87
ssg75
g936
sg68
(lp943
S'cmd_options'
p944
asbag61
(g82
g63
NtRp945
(dp946
g66
(dp947
g93
g94
ssg75
g936
sg68
(lp948
S':'
asbag61
(g82
g63
NtRp949
(dp950
g66
(dp951
sg75
g936
sg68
(lp952
g61
(g62
g63
NtRp953
(dp954
g66
(dp955
g74
I4
ssg75
g949
sg68
(lp956
S"<Values at 0x8d4130c: {'verbose': False, 'ip': '127.0.0.1', 'with_scheduler': False, 'ips': ['10.1.39.167', '10.42.0.1'], 'shutdown_timeout': 5, 'taskbar': False, 'port': 8000, 'maxthreads': None, 'softcron': False, 'server_name': 'Solo', 'bpython': False, 'nogui': False, 'nocron': False, 'extcron': False, 'run_system_tests': False, 'test': None, 'folder': '/home/piyush/web2py', 'config': '', 'import_models': False, 'winservice': '', 'shell': None, 'run': '', 'log_filename': 'httpserver.log', 'debuglevel': 30, 'args': [''], 'socket_timeout': 5, 'ssl_ca_certificate': None, 'scheduler': None, 'profiler_filename': None, 'ssl_private_key': '', 'scheduler_groups': None, 'password': '<ask>', 'request_queue_size': 5, 'ssl_certificate': '', 'cronjob': False, 'numthreads': None, 'quiet': False, 'interfaces': None, 'minthreads': None, 'timeout': 10, 'plain': False, 'nobanner': False, 'pid_filename': 'httpserver.pid'}>"
p957
asbasbasbag61
(g77
g63
NtRp958
(dp959
g66
(dp960
sg75
g863
sg68
(lp961
g61
(g82
g63
NtRp962
(dp963
g66
(dp964
g86
g87
ssg75
g958
sg68
(lp965
S'content_length'
p966
asbag61
(g82
g63
NtRp967
(dp968
g66
(dp969
g93
g94
ssg75
g958
sg68
(lp970
S':'
asbag61
(g82
g63
NtRp971
(dp972
g66
(dp973
sg75
g958
sg68
(lp974
g61
(g62
g63
NtRp975
(dp976
g66
(dp977
g74
I4
ssg75
g971
sg68
(lp978
S'339'
p979
asbasbasbag61
(g77
g63
NtRp980
(dp981
g66
(dp982
sg75
g863
sg68
(lp983
g61
(g82
g63
NtRp984
(dp985
g66
(dp986
g86
g87
ssg75
g980
sg68
(lp987
S'content_type'
p988
asbag61
(g82
g63
NtRp989
(dp990
g66
(dp991
g93
g94
ssg75
g980
sg68
(lp992
S':'
asbag61
(g82
g63
NtRp993
(dp994
g66
(dp995
sg75
g980
sg68
(lp996
g61
(g62
g63
NtRp997
(dp998
g66
(dp999
g74
I4
ssg75
g993
sg68
(lp1000
S'multipart/form-data; boundary=---------------------------169199118315240457911234488986'
p1001
asbasbasbag61
(g77
g63
NtRp1002
(dp1003
g66
(dp1004
sg75
g863
sg68
(lp1005
g61
(g82
g63
NtRp1006
(dp1007
g66
(dp1008
g86
g87
ssg75
g1002
sg68
(lp1009
S'db_sessions'
p1010
asbag61
(g82
g63
NtRp1011
(dp1012
g66
(dp1013
g93
g94
ssg75
g1002
sg68
(lp1014
S':'
asbag61
(g82
g63
NtRp1015
(dp1016
g66
(dp1017
sg75
g1002
sg68
(lp1018
g61
(g62
g63
NtRp1019
(dp1020
g66
(dp1021
g74
I4
ssg75
g1015
sg68
(lp1022
S'set([])'
p1023
asbasbasbag61
(g77
g63
NtRp1024
(dp1025
g66
(dp1026
sg75
g863
sg68
(lp1027
g61
(g82
g63
NtRp1028
(dp1029
g66
(dp1030
g86
g87
ssg75
g1024
sg68
(lp1031
S'debugging'
p1032
asbag61
(g82
g63
NtRp1033
(dp1034
g66
(dp1035
g93
g94
ssg75
g1024
sg68
(lp1036
S':'
asbag61
(g82
g63
NtRp1037
(dp1038
g66
(dp1039
sg75
g1024
sg68
(lp1040
g61
(g62
g63
NtRp1041
(dp1042
g66
(dp1043
g74
I4
ssg75
g1037
sg68
(lp1044
g104
asbasbasbag61
(g77
g63
NtRp1045
(dp1046
g66
(dp1047
sg75
g863
sg68
(lp1048
g61
(g82
g63
NtRp1049
(dp1050
g66
(dp1051
g86
g87
ssg75
g1045
sg68
(lp1052
S'gluon_parent'
p1053
asbag61
(g82
g63
NtRp1054
(dp1055
g66
(dp1056
g93
g94
ssg75
g1045
sg68
(lp1057
S':'
asbag61
(g82
g63
NtRp1058
(dp1059
g66
(dp1060
sg75
g1045
sg68
(lp1061
g61
(g62
g63
NtRp1062
(dp1063
g66
(dp1064
g74
I4
ssg75
g1058
sg68
(lp1065
S'/home/piyush/web2py'
p1066
asbasbasbag61
(g77
g63
NtRp1067
(dp1068
g66
(dp1069
sg75
g863
sg68
(lp1070
g61
(g82
g63
NtRp1071
(dp1072
g66
(dp1073
g86
g87
ssg75
g1067
sg68
(lp1074
S'http_accept'
p1075
asbag61
(g82
g63
NtRp1076
(dp1077
g66
(dp1078
g93
g94
ssg75
g1067
sg68
(lp1079
S':'
asbag61
(g82
g63
NtRp1080
(dp1081
g66
(dp1082
sg75
g1067
sg68
(lp1083
g61
(g62
g63
NtRp1084
(dp1085
g66
(dp1086
g74
I4
ssg75
g1080
sg68
(lp1087
S'text/html,application/xhtml+xml,application/xml;q=0.9,*/*;q=0.8'
p1088
asbasbasbag61
(g77
g63
NtRp1089
(dp1090
g66
(dp1091
sg75
g863
sg68
(lp1092
g61
(g82
g63
NtRp1093
(dp1094
g66
(dp1095
g86
g87
ssg75
g1089
sg68
(lp1096
S'http_accept_encoding'
p1097
asbag61
(g82
g63
NtRp1098
(dp1099
g66
(dp1100
g93
g94
ssg75
g1089
sg68
(lp1101
S':'
asbag61
(g82
g63
NtRp1102
(dp1103
g66
(dp1104
sg75
g1089
sg68
(lp1105
g61
(g62
g63
NtRp1106
(dp1107
g66
(dp1108
g74
I4
ssg75
g1102
sg68
(lp1109
S'gzip, deflate'
p1110
asbasbasbag61
(g77
g63
NtRp1111
(dp1112
g66
(dp1113
sg75
g863
sg68
(lp1114
g61
(g82
g63
NtRp1115
(dp1116
g66
(dp1117
g86
g87
ssg75
g1111
sg68
(lp1118
S'http_accept_language'
p1119
asbag61
(g82
g63
NtRp1120
(dp1121
g66
(dp1122
g93
g94
ssg75
g1111
sg68
(lp1123
S':'
asbag61
(g82
g63
NtRp1124
(dp1125
g66
(dp1126
sg75
g1111
sg68
(lp1127
g61
(g62
g63
NtRp1128
(dp1129
g66
(dp1130
g74
I4
ssg75
g1124
sg68
(lp1131
S'en-us,en;q=0.5'
p1132
asbasbasbag61
(g77
g63
NtRp1133
(dp1134
g66
(dp1135
sg75
g863
sg68
(lp1136
g61
(g82
g63
NtRp1137
(dp1138
g66
(dp1139
g86
g87
ssg75
g1133
sg68
(lp1140
S'http_connection'
p1141
asbag61
(g82
g63
NtRp1142
(dp1143
g66
(dp1144
g93
g94
ssg75
g1133
sg68
(lp1145
S':'
asbag61
(g82
g63
NtRp1146
(dp1147
g66
(dp1148
sg75
g1133
sg68
(lp1149
g61
(g62
g63
NtRp1150
(dp1151
g66
(dp1152
g74
I4
ssg75
g1146
sg68
(lp1153
S'keep-alive'
p1154
asbasbasbag61
(g77
g63
NtRp1155
(dp1156
g66
(dp1157
sg75
g863
sg68
(lp1158
g61
(g82
g63
NtRp1159
(dp1160
g66
(dp1161
g86
g87
ssg75
g1155
sg68
(lp1162
S'http_content_length'
p1163
asbag61
(g82
g63
NtRp1164
(dp1165
g66
(dp1166
g93
g94
ssg75
g1155
sg68
(lp1167
S':'
asbag61
(g82
g63
NtRp1168
(dp1169
g66
(dp1170
sg75
g1155
sg68
(lp1171
g61
(g62
g63
NtRp1172
(dp1173
g66
(dp1174
g74
I4
ssg75
g1168
sg68
(lp1175
g979
asbasbasbag61
(g77
g63
NtRp1176
(dp1177
g66
(dp1178
sg75
g863
sg68
(lp1179
g61
(g82
g63
NtRp1180
(dp1181
g66
(dp1182
g86
g87
ssg75
g1176
sg68
(lp1183
S'http_content_type'
p1184
asbag61
(g82
g63
NtRp1185
(dp1186
g66
(dp1187
g93
g94
ssg75
g1176
sg68
(lp1188
S':'
asbag61
(g82
g63
NtRp1189
(dp1190
g66
(dp1191
sg75
g1176
sg68
(lp1192
g61
(g62
g63
NtRp1193
(dp1194
g66
(dp1195
g74
I4
ssg75
g1189
sg68
(lp1196
g1001
asbasbasbag61
(g77
g63
NtRp1197
(dp1198
g66
(dp1199
sg75
g863
sg68
(lp1200
g61
(g82
g63
NtRp1201
(dp1202
g66
(dp1203
g86
g87
ssg75
g1197
sg68
(lp1204
S'http_cookie'
p1205
asbag61
(g82
g63
NtRp1206
(dp1207
g66
(dp1208
g93
g94
ssg75
g1197
sg68
(lp1209
S':'
asbag61
(g82
g63
NtRp1210
(dp1211
g66
(dp1212
sg75
g1197
sg68
(lp1213
g61
(g62
g63
NtRp1214
(dp1215
g66
(dp1216
g74
I4
ssg75
g1210
sg68
(lp1217
S'session_id_welcome=127.0.0.1-d9249293-42c1-424c-bc11-0262fbc13d21; session_id_fotobuk=127.0.0.1-a0aa12fe-f234-43d8-b1ed-9cc366e4417f; session_id_admin=127.0.0.1-b3c2d1ad-f796-4da8-b8a8-41b2a25cf8e7'
p1218
asbasbasbag61
(g77
g63
NtRp1219
(dp1220
g66
(dp1221
sg75
g863
sg68
(lp1222
g61
(g82
g63
NtRp1223
(dp1224
g66
(dp1225
g86
g87
ssg75
g1219
sg68
(lp1226
S'http_host'
p1227
asbag61
(g82
g63
NtRp1228
(dp1229
g66
(dp1230
g93
g94
ssg75
g1219
sg68
(lp1231
S':'
asbag61
(g82
g63
NtRp1232
(dp1233
g66
(dp1234
sg75
g1219
sg68
(lp1235
g61
(g62
g63
NtRp1236
(dp1237
g66
(dp1238
g74
I4
ssg75
g1232
sg68
(lp1239
S'127.0.0.1:8000'
p1240
asbasbasbag61
(g77
g63
NtRp1241
(dp1242
g66
(dp1243
sg75
g863
sg68
(lp1244
g61
(g82
g63
NtRp1245
(dp1246
g66
(dp1247
g86
g87
ssg75
g1241
sg68
(lp1248
S'http_referer'
p1249
asbag61
(g82
g63
NtRp1250
(dp1251
g66
(dp1252
g93
g94
ssg75
g1241
sg68
(lp1253
S':'
asbag61
(g82
g63
NtRp1254
(dp1255
g66
(dp1256
sg75
g1241
sg68
(lp1257
g61
(g62
g63
NtRp1258
(dp1259
g66
(dp1260
g74
I4
ssg75
g1254
sg68
(lp1261
S'http://127.0.0.1:8000/FotoBuk/default/show/6'
p1262
asbasbasbag61
(g77
g63
NtRp1263
(dp1264
g66
(dp1265
sg75
g863
sg68
(lp1266
g61
(g82
g63
NtRp1267
(dp1268
g66
(dp1269
g86
g87
ssg75
g1263
sg68
(lp1270
S'http_user_agent'
p1271
asbag61
(g82
g63
NtRp1272
(dp1273
g66
(dp1274
g93
g94
ssg75
g1263
sg68
(lp1275
S':'
asbag61
(g82
g63
NtRp1276
(dp1277
g66
(dp1278
sg75
g1263
sg68
(lp1279
g61
(g62
g63
NtRp1280
(dp1281
g66
(dp1282
g74
I4
ssg75
g1276
sg68
(lp1283
S'Mozilla/5.0 (X11; Linux i686; rv:11.0) Gecko/20100101 Firefox/11.0'
p1284
asbasbasbag61
(g77
g63
NtRp1285
(dp1286
g66
(dp1287
sg75
g863
sg68
(lp1288
g61
(g82
g63
NtRp1289
(dp1290
g66
(dp1291
g86
g87
ssg75
g1285
sg68
(lp1292
S'is_jython'
p1293
asbag61
(g82
g63
NtRp1294
(dp1295
g66
(dp1296
g93
g94
ssg75
g1285
sg68
(lp1297
S':'
asbag61
(g82
g63
NtRp1298
(dp1299
g66
(dp1300
sg75
g1285
sg68
(lp1301
g61
(g62
g63
NtRp1302
(dp1303
g66
(dp1304
g74
I4
ssg75
g1298
sg68
(lp1305
g104
asbasbasbag61
(g77
g63
NtRp1306
(dp1307
g66
(dp1308
sg75
g863
sg68
(lp1309
g61
(g82
g63
NtRp1310
(dp1311
g66
(dp1312
g86
g87
ssg75
g1306
sg68
(lp1313
S'is_pypy'
p1314
asbag61
(g82
g63
NtRp1315
(dp1316
g66
(dp1317
g93
g94
ssg75
g1306
sg68
(lp1318
S':'
asbag61
(g82
g63
NtRp1319
(dp1320
g66
(dp1321
sg75
g1306
sg68
(lp1322
g61
(g62
g63
NtRp1323
(dp1324
g66
(dp1325
g74
I4
ssg75
g1319
sg68
(lp1326
g104
asbasbasbag61
(g77
g63
NtRp1327
(dp1328
g66
(dp1329
sg75
g863
sg68
(lp1330
g61
(g82
g63
NtRp1331
(dp1332
g66
(dp1333
g86
g87
ssg75
g1327
sg68
(lp1334
S'path_info'
p1335
asbag61
(g82
g63
NtRp1336
(dp1337
g66
(dp1338
g93
g94
ssg75
g1327
sg68
(lp1339
S':'
asbag61
(g82
g63
NtRp1340
(dp1341
g66
(dp1342
sg75
g1327
sg68
(lp1343
g61
(g62
g63
NtRp1344
(dp1345
g66
(dp1346
g74
I4
ssg75
g1340
sg68
(lp1347
S'/FotoBuk/default/show/6'
p1348
asbasbasbag61
(g77
g63
NtRp1349
(dp1350
g66
(dp1351
sg75
g863
sg68
(lp1352
g61
(g82
g63
NtRp1353
(dp1354
g66
(dp1355
g86
g87
ssg75
g1349
sg68
(lp1356
S'query_string'
p1357
asbag61
(g82
g63
NtRp1358
(dp1359
g66
(dp1360
g93
g94
ssg75
g1349
sg68
(lp1361
S':'
asbag61
(g82
g63
NtRp1362
(dp1363
g66
(dp1364
sg75
g1349
sg68
(lp1365
g61
(g62
g63
NtRp1366
(dp1367
g66
(dp1368
g74
I4
ssg75
g1362
sg68
(lp1369
S''
asbasbasbag61
(g77
g63
NtRp1370
(dp1371
g66
(dp1372
sg75
g863
sg68
(lp1373
g61
(g82
g63
NtRp1374
(dp1375
g66
(dp1376
g86
g87
ssg75
g1370
sg68
(lp1377
S'remote_addr'
p1378
asbag61
(g82
g63
NtRp1379
(dp1380
g66
(dp1381
g93
g94
ssg75
g1370
sg68
(lp1382
S':'
asbag61
(g82
g63
NtRp1383
(dp1384
g66
(dp1385
sg75
g1370
sg68
(lp1386
g61
(g62
g63
NtRp1387
(dp1388
g66
(dp1389
g74
I4
ssg75
g1383
sg68
(lp1390
g228
asbasbasbag61
(g77
g63
NtRp1391
(dp1392
g66
(dp1393
sg75
g863
sg68
(lp1394
g61
(g82
g63
NtRp1395
(dp1396
g66
(dp1397
g86
g87
ssg75
g1391
sg68
(lp1398
S'remote_port'
p1399
asbag61
(g82
g63
NtRp1400
(dp1401
g66
(dp1402
g93
g94
ssg75
g1391
sg68
(lp1403
S':'
asbag61
(g82
g63
NtRp1404
(dp1405
g66
(dp1406
sg75
g1391
sg68
(lp1407
g61
(g62
g63
NtRp1408
(dp1409
g66
(dp1410
g74
I4
ssg75
g1404
sg68
(lp1411
S'53617'
p1412
asbasbasbag61
(g77
g63
NtRp1413
(dp1414
g66
(dp1415
sg75
g863
sg68
(lp1416
g61
(g82
g63
NtRp1417
(dp1418
g66
(dp1419
g86
g87
ssg75
g1413
sg68
(lp1420
S'request_method'
p1421
asbag61
(g82
g63
NtRp1422
(dp1423
g66
(dp1424
g93
g94
ssg75
g1413
sg68
(lp1425
S':'
asbag61
(g82
g63
NtRp1426
(dp1427
g66
(dp1428
sg75
g1413
sg68
(lp1429
g61
(g62
g63
NtRp1430
(dp1431
g66
(dp1432
g74
I4
ssg75
g1426
sg68
(lp1433
S'POST'
p1434
asbasbasbag61
(g77
g63
NtRp1435
(dp1436
g66
(dp1437
sg75
g863
sg68
(lp1438
g61
(g82
g63
NtRp1439
(dp1440
g66
(dp1441
g86
g87
ssg75
g1435
sg68
(lp1442
S'script_name'
p1443
asbag61
(g82
g63
NtRp1444
(dp1445
g66
(dp1446
g93
g94
ssg75
g1435
sg68
(lp1447
S':'
asbag61
(g82
g63
NtRp1448
(dp1449
g66
(dp1450
sg75
g1435
sg68
(lp1451
g61
(g62
g63
NtRp1452
(dp1453
g66
(dp1454
g74
I4
ssg75
g1448
sg68
(lp1455
S''
asbasbasbag61
(g77
g63
NtRp1456
(dp1457
g66
(dp1458
sg75
g863
sg68
(lp1459
g61
(g82
g63
NtRp1460
(dp1461
g66
(dp1462
g86
g87
ssg75
g1456
sg68
(lp1463
S'server_name'
p1464
asbag61
(g82
g63
NtRp1465
(dp1466
g66
(dp1467
g93
g94
ssg75
g1456
sg68
(lp1468
S':'
asbag61
(g82
g63
NtRp1469
(dp1470
g66
(dp1471
sg75
g1456
sg68
(lp1472
g61
(g62
g63
NtRp1473
(dp1474
g66
(dp1475
g74
I4
ssg75
g1469
sg68
(lp1476
S'Solo'
p1477
asbasbasbag61
(g77
g63
NtRp1478
(dp1479
g66
(dp1480
sg75
g863
sg68
(lp1481
g61
(g82
g63
NtRp1482
(dp1483
g66
(dp1484
g86
g87
ssg75
g1478
sg68
(lp1485
S'server_port'
p1486
asbag61
(g82
g63
NtRp1487
(dp1488
g66
(dp1489
g93
g94
ssg75
g1478
sg68
(lp1490
S':'
asbag61
(g82
g63
NtRp1491
(dp1492
g66
(dp1493
sg75
g1478
sg68
(lp1494
g61
(g62
g63
NtRp1495
(dp1496
g66
(dp1497
g74
I4
ssg75
g1491
sg68
(lp1498
S'8000'
p1499
asbasbasbag61
(g77
g63
NtRp1500
(dp1501
g66
(dp1502
sg75
g863
sg68
(lp1503
g61
(g82
g63
NtRp1504
(dp1505
g66
(dp1506
g86
g87
ssg75
g1500
sg68
(lp1507
S'server_protocol'
p1508
asbag61
(g82
g63
NtRp1509
(dp1510
g66
(dp1511
g93
g94
ssg75
g1500
sg68
(lp1512
S':'
asbag61
(g82
g63
NtRp1513
(dp1514
g66
(dp1515
sg75
g1500
sg68
(lp1516
g61
(g62
g63
NtRp1517
(dp1518
g66
(dp1519
g74
I4
ssg75
g1513
sg68
(lp1520
S'HTTP/1.1'
p1521
asbasbasbag61
(g77
g63
NtRp1522
(dp1523
g66
(dp1524
sg75
g863
sg68
(lp1525
g61
(g82
g63
NtRp1526
(dp1527
g66
(dp1528
g86
g87
ssg75
g1522
sg68
(lp1529
S'server_software'
p1530
asbag61
(g82
g63
NtRp1531
(dp1532
g66
(dp1533
g93
g94
ssg75
g1522
sg68
(lp1534
S':'
asbag61
(g82
g63
NtRp1535
(dp1536
g66
(dp1537
sg75
g1522
sg68
(lp1538
g61
(g62
g63
NtRp1539
(dp1540
g66
(dp1541
g74
I4
ssg75
g1535
sg68
(lp1542
S'Rocket 1.2.4'
p1543
asbasbasbag61
(g77
g63
NtRp1544
(dp1545
g66
(dp1546
sg75
g863
sg68
(lp1547
g61
(g82
g63
NtRp1548
(dp1549
g66
(dp1550
g86
g87
ssg75
g1544
sg68
(lp1551
S'web2py_crontype'
p1552
asbag61
(g82
g63
NtRp1553
(dp1554
g66
(dp1555
g93
g94
ssg75
g1544
sg68
(lp1556
S':'
asbag61
(g82
g63
NtRp1557
(dp1558
g66
(dp1559
sg75
g1544
sg68
(lp1560
g61
(g62
g63
NtRp1561
(dp1562
g66
(dp1563
g74
I4
ssg75
g1557
sg68
(lp1564
S'hard'
p1565
asbasbasbag61
(g77
g63
NtRp1566
(dp1567
g66
(dp1568
sg75
g863
sg68
(lp1569
g61
(g82
g63
NtRp1570
(dp1571
g66
(dp1572
g86
g87
ssg75
g1566
sg68
(lp1573
S'web2py_path'
p1574
asbag61
(g82
g63
NtRp1575
(dp1576
g66
(dp1577
g93
g94
ssg75
g1566
sg68
(lp1578
S':'
asbag61
(g82
g63
NtRp1579
(dp1580
g66
(dp1581
sg75
g1566
sg68
(lp1582
g61
(g62
g63
NtRp1583
(dp1584
g66
(dp1585
g74
I4
ssg75
g1579
sg68
(lp1586
g910
asbasbasbag61
(g77
g63
NtRp1587
(dp1588
g66
(dp1589
sg75
g863
sg68
(lp1590
g61
(g82
g63
NtRp1591
(dp1592
g66
(dp1593
g86
g87
ssg75
g1587
sg68
(lp1594
S'web2py_version'
p1595
asbag61
(g82
g63
NtRp1596
(dp1597
g66
(dp1598
g93
g94
ssg75
g1587
sg68
(lp1599
S':'
asbag61
(g82
g63
NtRp1600
(dp1601
g66
(dp1602
sg75
g1587
sg68
(lp1603
g61
(g62
g63
NtRp1604
(dp1605
g66
(dp1606
g74
I4
ssg75
g1600
sg68
(lp1607
g61
(g70
g63
NtRp1608
(dp1609
g66
(dp1610
g74
I3
ssg75
Nsg68
(lp1611
g61
(g77
g63
NtRp1612
(dp1613
g66
(dp1614
sg75
g1608
sg68
(lp1615
g61
(g82
g63
NtRp1616
(dp1617
g66
(dp1618
sg75
g1612
sg68
(lp1619
g61
(g62
g63
NtRp1620
(dp1621
g66
(dp1622
g74
I3
ssg75
g1616
sg68
(lp1623
S'2'
asbasbasbag61
(g77
g63
NtRp1624
(dp1625
g66
(dp1626
sg75
g1608
sg68
(lp1627
g61
(g82
g63
NtRp1628
(dp1629
g66
(dp1630
sg75
g1624
sg68
(lp1631
g61
(g62
g63
NtRp1632
(dp1633
g66
(dp1634
g74
I3
ssg75
g1628
sg68
(lp1635
S'0'
asbasbasbag61
(g77
g63
NtRp1636
(dp1637
g66
(dp1638
sg75
g1608
sg68
(lp1639
g61
(g82
g63
NtRp1640
(dp1641
g66
(dp1642
sg75
g1636
sg68
(lp1643
g61
(g62
g63
NtRp1644
(dp1645
g66
(dp1646
g74
I3
ssg75
g1640
sg68
(lp1647
S'2'
asbasbasbag61
(g77
g63
NtRp1648
(dp1649
g66
(dp1650
sg75
g1608
sg68
(lp1651
g61
(g82
g63
NtRp1652
(dp1653
g66
(dp1654
sg75
g1648
sg68
(lp1655
g61
(g62
g63
NtRp1656
(dp1657
g66
(dp1658
g74
I3
ssg75
g1652
sg68
(lp1659
S'datetime.datetime(2012, 8, 30, 4, 8, 18)'
p1660
asbasbasbag61
(g77
g63
NtRp1661
(dp1662
g66
(dp1663
sg75
g1608
sg68
(lp1664
g61
(g82
g63
NtRp1665
(dp1666
g66
(dp1667
sg75
g1661
sg68
(lp1668
g61
(g62
g63
NtRp1669
(dp1670
g66
(dp1671
g74
I3
ssg75
g1665
sg68
(lp1672
S'stable'
p1673
asbasbasbasbasbasbasbag61
(g77
g63
NtRp1674
(dp1675
g66
(dp1676
sg75
g863
sg68
(lp1677
g61
(g82
g63
NtRp1678
(dp1679
g66
(dp1680
g86
g87
ssg75
g1674
sg68
(lp1681
S'wsgi_errors'
p1682
asbag61
(g82
g63
NtRp1683
(dp1684
g66
(dp1685
g93
g94
ssg75
g1674
sg68
(lp1686
S':'
asbag61
(g82
g63
NtRp1687
(dp1688
g66
(dp1689
sg75
g1674
sg68
(lp1690
g61
(g62
g63
NtRp1691
(dp1692
g66
(dp1693
g74
I4
ssg75
g1687
sg68
(lp1694
S"<open file '<stderr>', mode 'w' at 0xb772d0d0>"
p1695
asbasbasbag61
(g77
g63
NtRp1696
(dp1697
g66
(dp1698
sg75
g863
sg68
(lp1699
g61
(g82
g63
NtRp1700
(dp1701
g66
(dp1702
g86
g87
ssg75
g1696
sg68
(lp1703
S'wsgi_file_wrapper'
p1704
asbag61
(g82
g63
NtRp1705
(dp1706
g66
(dp1707
g93
g94
ssg75
g1696
sg68
(lp1708
S':'
asbag61
(g82
g63
NtRp1709
(dp1710
g66
(dp1711
sg75
g1696
sg68
(lp1712
g61
(g62
g63
NtRp1713
(dp1714
g66
(dp1715
g74
I4
ssg75
g1709
sg68
(lp1716
S'<class wsgiref.util.FileWrapper at 0x8d0326c>'
p1717
asbasbasbag61
(g77
g63
NtRp1718
(dp1719
g66
(dp1720
sg75
g863
sg68
(lp1721
g61
(g82
g63
NtRp1722
(dp1723
g66
(dp1724
g86
g87
ssg75
g1718
sg68
(lp1725
S'wsgi_input'
p1726
asbag61
(g82
g63
NtRp1727
(dp1728
g66
(dp1729
g93
g94
ssg75
g1718
sg68
(lp1730
S':'
asbag61
(g82
g63
NtRp1731
(dp1732
g66
(dp1733
sg75
g1718
sg68
(lp1734
g61
(g62
g63
NtRp1735
(dp1736
g66
(dp1737
g74
I4
ssg75
g1731
sg68
(lp1738
S'<socket._fileobject object at 0xaf40ea2c>'
p1739
asbasbasbag61
(g77
g63
NtRp1740
(dp1741
g66
(dp1742
sg75
g863
sg68
(lp1743
g61
(g82
g63
NtRp1744
(dp1745
g66
(dp1746
g86
g87
ssg75
g1740
sg68
(lp1747
S'wsgi_multiprocess'
p1748
asbag61
(g82
g63
NtRp1749
(dp1750
g66
(dp1751
g93
g94
ssg75
g1740
sg68
(lp1752
S':'
asbag61
(g82
g63
NtRp1753
(dp1754
g66
(dp1755
sg75
g1740
sg68
(lp1756
g61
(g62
g63
NtRp1757
(dp1758
g66
(dp1759
g74
I4
ssg75
g1753
sg68
(lp1760
g104
asbasbasbag61
(g77
g63
NtRp1761
(dp1762
g66
(dp1763
sg75
g863
sg68
(lp1764
g61
(g82
g63
NtRp1765
(dp1766
g66
(dp1767
g86
g87
ssg75
g1761
sg68
(lp1768
S'wsgi_multithread'
p1769
asbag61
(g82
g63
NtRp1770
(dp1771
g66
(dp1772
g93
g94
ssg75
g1761
sg68
(lp1773
S':'
asbag61
(g82
g63
NtRp1774
(dp1775
g66
(dp1776
sg75
g1761
sg68
(lp1777
g61
(g62
g63
NtRp1778
(dp1779
g66
(dp1780
g74
I4
ssg75
g1774
sg68
(lp1781
S'True'
p1782
asbasbasbag61
(g77
g63
NtRp1783
(dp1784
g66
(dp1785
sg75
g863
sg68
(lp1786
g61
(g82
g63
NtRp1787
(dp1788
g66
(dp1789
g86
g87
ssg75
g1783
sg68
(lp1790
S'wsgi_run_once'
p1791
asbag61
(g82
g63
NtRp1792
(dp1793
g66
(dp1794
g93
g94
ssg75
g1783
sg68
(lp1795
S':'
asbag61
(g82
g63
NtRp1796
(dp1797
g66
(dp1798
sg75
g1783
sg68
(lp1799
g61
(g62
g63
NtRp1800
(dp1801
g66
(dp1802
g74
I4
ssg75
g1796
sg68
(lp1803
g104
asbasbasbag61
(g77
g63
NtRp1804
(dp1805
g66
(dp1806
sg75
g863
sg68
(lp1807
g61
(g82
g63
NtRp1808
(dp1809
g66
(dp1810
g86
g87
ssg75
g1804
sg68
(lp1811
S'wsgi_url_scheme'
p1812
asbag61
(g82
g63
NtRp1813
(dp1814
g66
(dp1815
g93
g94
ssg75
g1804
sg68
(lp1816
S':'
asbag61
(g82
g63
NtRp1817
(dp1818
g66
(dp1819
sg75
g1804
sg68
(lp1820
g61
(g62
g63
NtRp1821
(dp1822
g66
(dp1823
g74
I4
ssg75
g1817
sg68
(lp1824
S'http'
p1825
asbasbasbag61
(g77
g63
NtRp1826
(dp1827
g66
(dp1828
sg75
g863
sg68
(lp1829
g61
(g82
g63
NtRp1830
(dp1831
g66
(dp1832
g86
g87
ssg75
g1826
sg68
(lp1833
S'wsgi_version'
p1834
asbag61
(g82
g63
NtRp1835
(dp1836
g66
(dp1837
g93
g94
ssg75
g1826
sg68
(lp1838
S':'
asbag61
(g82
g63
NtRp1839
(dp1840
g66
(dp1841
sg75
g1826
sg68
(lp1842
g61
(g62
g63
NtRp1843
(dp1844
g66
(dp1845
g74
I4
ssg75
g1839
sg68
(lp1846
g61
(g70
g63
NtRp1847
(dp1848
g66
(dp1849
g74
I3
ssg75
Nsg68
(lp1850
g61
(g77
g63
NtRp1851
(dp1852
g66
(dp1853
sg75
g1847
sg68
(lp1854
g61
(g82
g63
NtRp1855
(dp1856
g66
(dp1857
sg75
g1851
sg68
(lp1858
g61
(g62
g63
NtRp1859
(dp1860
g66
(dp1861
g74
I3
ssg75
g1855
sg68
(lp1862
S'1'
asbasbasbag61
(g77
g63
NtRp1863
(dp1864
g66
(dp1865
sg75
g1847
sg68
(lp1866
g61
(g82
g63
NtRp1867
(dp1868
g66
(dp1869
sg75
g1863
sg68
(lp1870
g61
(g62
g63
NtRp1871
(dp1872
g66
(dp1873
g74
I3
ssg75
g1867
sg68
(lp1874
S'0'
asbasbasbasbasbasbasbasbasbasbasbag61
(g77
g63
NtRp1875
(dp1876
g66
(dp1877
sg75
g71
sg68
(lp1878
g61
(g82
g63
NtRp1879
(dp1880
g66
(dp1881
g86
g87
ssg75
g1875
sg68
(lp1882
S'extension'
p1883
asbag61
(g82
g63
NtRp1884
(dp1885
g66
(dp1886
g93
g94
ssg75
g1875
sg68
(lp1887
S':'
asbag61
(g82
g63
NtRp1888
(dp1889
g66
(dp1890
sg75
g1875
sg68
(lp1891
g61
(g62
g63
NtRp1892
(dp1893
g66
(dp1894
g74
I5
ssg75
g1888
sg68
(lp1895
S'html'
p1896
asbasbasbag61
(g77
g63
NtRp1897
(dp1898
g66
(dp1899
sg75
g71
sg68
(lp1900
g61
(g82
g63
NtRp1901
(dp1902
g66
(dp1903
g86
g87
ssg75
g1897
sg68
(lp1904
S'folder'
p1905
asbag61
(g82
g63
NtRp1906
(dp1907
g66
(dp1908
g93
g94
ssg75
g1897
sg68
(lp1909
S':'
asbag61
(g82
g63
NtRp1910
(dp1911
g66
(dp1912
sg75
g1897
sg68
(lp1913
g61
(g62
g63
NtRp1914
(dp1915
g66
(dp1916
g74
I5
ssg75
g1910
sg68
(lp1917
S'/home/piyush/web2py/applications/FotoBuk/'
p1918
asbasbasbag61
(g77
g63
NtRp1919
(dp1920
g66
(dp1921
sg75
g71
sg68
(lp1922
g61
(g82
g63
NtRp1923
(dp1924
g66
(dp1925
g86
g87
ssg75
g1919
sg68
(lp1926
S'function'
p1927
asbag61
(g82
g63
NtRp1928
(dp1929
g66
(dp1930
g93
g94
ssg75
g1919
sg68
(lp1931
S':'
asbag61
(g82
g63
NtRp1932
(dp1933
g66
(dp1934
sg75
g1919
sg68
(lp1935
g61
(g62
g63
NtRp1936
(dp1937
g66
(dp1938
g74
I5
ssg75
g1932
sg68
(lp1939
S'show'
p1940
asbasbasbag61
(g77
g63
NtRp1941
(dp1942
g66
(dp1943
sg75
g71
sg68
(lp1944
g61
(g82
g63
NtRp1945
(dp1946
g66
(dp1947
g86
g87
ssg75
g1941
sg68
(lp1948
S'get_vars'
p1949
asbag61
(g82
g63
NtRp1950
(dp1951
g66
(dp1952
g93
g94
ssg75
g1941
sg68
(lp1953
S':'
asbag61
(g82
g63
NtRp1954
(dp1955
g66
(dp1956
sg75
g1941
sg68
(lp1957
g61
(g62
g63
NtRp1958
(dp1959
g66
(dp1960
g74
I5
ssg75
g1954
sg68
(lp1961
g61
(g70
g63
NtRp1962
(dp1963
g66
(dp1964
g74
I4
ssg75
Nsg68
(lp1965
sbasbasbasbag61
(g77
g63
NtRp1966
(dp1967
g66
(dp1968
sg75
g71
sg68
(lp1969
g61
(g82
g63
NtRp1970
(dp1971
g66
(dp1972
g86
g87
ssg75
g1966
sg68
(lp1973
S'global_settings'
p1974
asbag61
(g82
g63
NtRp1975
(dp1976
g66
(dp1977
g93
g94
ssg75
g1966
sg68
(lp1978
S':'
asbag61
(g82
g63
NtRp1979
(dp1980
g66
(dp1981
sg75
g1966
sg68
(lp1982
g61
(g62
g63
NtRp1983
(dp1984
g66
(dp1985
g74
I5
ssg75
g1979
sg68
(lp1986
g61
(g70
g63
NtRp1987
(dp1988
g66
(dp1989
g74
I4
ssg75
Nsg68
(lp1990
g61
(g77
g63
NtRp1991
(dp1992
g66
(dp1993
sg75
g1987
sg68
(lp1994
g61
(g82
g63
NtRp1995
(dp1996
g66
(dp1997
g86
g87
ssg75
g1991
sg68
(lp1998
g875
asbag61
(g82
g63
NtRp1999
(dp2000
g66
(dp2001
g93
g94
ssg75
g1991
sg68
(lp2002
S':'
asbag61
(g82
g63
NtRp2003
(dp2004
g66
(dp2005
sg75
g1991
sg68
(lp2006
g61
(g62
g63
NtRp2007
(dp2008
g66
(dp2009
g74
I4
ssg75
g2003
sg68
(lp2010
S"set(['/home/piyush/web2py/applications/FotoBuk/', '/home/piyush/web2py/applications/welcome/', '/home/piyush/web2py/applications/admin/'])"
p2011
asbasbasbag61
(g77
g63
NtRp2012
(dp2013
g66
(dp2014
sg75
g1987
sg68
(lp2015
g61
(g82
g63
NtRp2016
(dp2017
g66
(dp2018
g86
g87
ssg75
g2012
sg68
(lp2019
g897
asbag61
(g82
g63
NtRp2020
(dp2021
g66
(dp2022
g93
g94
ssg75
g2012
sg68
(lp2023
S':'
asbag61
(g82
g63
NtRp2024
(dp2025
g66
(dp2026
sg75
g2012
sg68
(lp2027
g61
(g62
g63
NtRp2028
(dp2029
g66
(dp2030
g74
I4
ssg75
g2024
sg68
(lp2031
g910
asbasbasbag61
(g77
g63
NtRp2032
(dp2033
g66
(dp2034
sg75
g1987
sg68
(lp2035
g61
(g82
g63
NtRp2036
(dp2037
g66
(dp2038
g86
g87
ssg75
g2032
sg68
(lp2039
g919
asbag61
(g82
g63
NtRp2040
(dp2041
g66
(dp2042
g93
g94
ssg75
g2032
sg68
(lp2043
S':'
asbag61
(g82
g63
NtRp2044
(dp2045
g66
(dp2046
sg75
g2032
sg68
(lp2047
g61
(g62
g63
NtRp2048
(dp2049
g66
(dp2050
g74
I4
ssg75
g2044
sg68
(lp2051
g61
(g70
g63
NtRp2052
(dp2053
g66
(dp2054
g74
I3
ssg75
Nsg68
(lp2055
sbasbasbasbag61
(g77
g63
NtRp2056
(dp2057
g66
(dp2058
sg75
g1987
sg68
(lp2059
g61
(g82
g63
NtRp2060
(dp2061
g66
(dp2062
g86
g87
ssg75
g2056
sg68
(lp2063
g944
asbag61
(g82
g63
NtRp2064
(dp2065
g66
(dp2066
g93
g94
ssg75
g2056
sg68
(lp2067
S':'
asbag61
(g82
g63
NtRp2068
(dp2069
g66
(dp2070
sg75
g2056
sg68
(lp2071
g61
(g62
g63
NtRp2072
(dp2073
g66
(dp2074
g74
I4
ssg75
g2068
sg68
(lp2075
S"<Values at 0x8d4130c: {'verbose': False, 'ip': '127.0.0.1', 'with_scheduler': False, 'ips': ['10.1.39.167', '10.42.0.1'], 'shutdown_timeout': 5, 'taskbar': False, 'port': 8000, 'maxthreads': None, 'softcron': False, 'server_name': 'Solo', 'bpython': False, 'nogui': False, 'nocron': False, 'extcron': False, 'run_system_tests': False, 'test': None, 'folder': '/home/piyush/web2py', 'config': '', 'import_models': False, 'winservice': '', 'shell': None, 'run': '', 'log_filename': 'httpserver.log', 'debuglevel': 30, 'args': [''], 'socket_timeout': 5, 'ssl_ca_certificate': None, 'scheduler': None, 'profiler_filename': None, 'ssl_private_key': '', 'scheduler_groups': None, 'password': '<ask>', 'request_queue_size': 5, 'ssl_certificate': '', 'cronjob': False, 'numthreads': None, 'quiet': False, 'interfaces': None, 'minthreads': None, 'timeout': 10, 'plain': False, 'nobanner': False, 'pid_filename': 'httpserver.pid'}>"
p2076
asbasbasbag61
(g77
g63
NtRp2077
(dp2078
g66
(dp2079
sg75
g1987
sg68
(lp2080
g61
(g82
g63
NtRp2081
(dp2082
g66
(dp2083
g86
g87
ssg75
g2077
sg68
(lp2084
g1010
asbag61
(g82
g63
NtRp2085
(dp2086
g66
(dp2087
g93
g94
ssg75
g2077
sg68
(lp2088
S':'
asbag61
(g82
g63
NtRp2089
(dp2090
g66
(dp2091
sg75
g2077
sg68
(lp2092
g61
(g62
g63
NtRp2093
(dp2094
g66
(dp2095
g74
I4
ssg75
g2089
sg68
(lp2096
S'set([])'
p2097
asbasbasbag61
(g77
g63
NtRp2098
(dp2099
g66
(dp2100
sg75
g1987
sg68
(lp2101
g61
(g82
g63
NtRp2102
(dp2103
g66
(dp2104
g86
g87
ssg75
g2098
sg68
(lp2105
g1032
asbag61
(g82
g63
NtRp2106
(dp2107
g66
(dp2108
g93
g94
ssg75
g2098
sg68
(lp2109
S':'
asbag61
(g82
g63
NtRp2110
(dp2111
g66
(dp2112
sg75
g2098
sg68
(lp2113
g61
(g62
g63
NtRp2114
(dp2115
g66
(dp2116
g74
I4
ssg75
g2110
sg68
(lp2117
g104
asbasbasbag61
(g77
g63
NtRp2118
(dp2119
g66
(dp2120
sg75
g1987
sg68
(lp2121
g61
(g82
g63
NtRp2122
(dp2123
g66
(dp2124
g86
g87
ssg75
g2118
sg68
(lp2125
g1053
asbag61
(g82
g63
NtRp2126
(dp2127
g66
(dp2128
g93
g94
ssg75
g2118
sg68
(lp2129
S':'
asbag61
(g82
g63
NtRp2130
(dp2131
g66
(dp2132
sg75
g2118
sg68
(lp2133
g61
(g62
g63
NtRp2134
(dp2135
g66
(dp2136
g74
I4
ssg75
g2130
sg68
(lp2137
g1066
asbasbasbag61
(g77
g63
NtRp2138
(dp2139
g66
(dp2140
sg75
g1987
sg68
(lp2141
g61
(g82
g63
NtRp2142
(dp2143
g66
(dp2144
g86
g87
ssg75
g2138
sg68
(lp2145
g1293
asbag61
(g82
g63
NtRp2146
(dp2147
g66
(dp2148
g93
g94
ssg75
g2138
sg68
(lp2149
S':'
asbag61
(g82
g63
NtRp2150
(dp2151
g66
(dp2152
sg75
g2138
sg68
(lp2153
g61
(g62
g63
NtRp2154
(dp2155
g66
(dp2156
g74
I4
ssg75
g2150
sg68
(lp2157
g104
asbasbasbag61
(g77
g63
NtRp2158
(dp2159
g66
(dp2160
sg75
g1987
sg68
(lp2161
g61
(g82
g63
NtRp2162
(dp2163
g66
(dp2164
g86
g87
ssg75
g2158
sg68
(lp2165
g1314
asbag61
(g82
g63
NtRp2166
(dp2167
g66
(dp2168
g93
g94
ssg75
g2158
sg68
(lp2169
S':'
asbag61
(g82
g63
NtRp2170
(dp2171
g66
(dp2172
sg75
g2158
sg68
(lp2173
g61
(g62
g63
NtRp2174
(dp2175
g66
(dp2176
g74
I4
ssg75
g2170
sg68
(lp2177
g104
asbasbasbag61
(g77
g63
NtRp2178
(dp2179
g66
(dp2180
sg75
g1987
sg68
(lp2181
g61
(g82
g63
NtRp2182
(dp2183
g66
(dp2184
g86
g87
ssg75
g2178
sg68
(lp2185
g1552
asbag61
(g82
g63
NtRp2186
(dp2187
g66
(dp2188
g93
g94
ssg75
g2178
sg68
(lp2189
S':'
asbag61
(g82
g63
NtRp2190
(dp2191
g66
(dp2192
sg75
g2178
sg68
(lp2193
g61
(g62
g63
NtRp2194
(dp2195
g66
(dp2196
g74
I4
ssg75
g2190
sg68
(lp2197
g1565
asbasbasbag61
(g77
g63
NtRp2198
(dp2199
g66
(dp2200
sg75
g1987
sg68
(lp2201
g61
(g82
g63
NtRp2202
(dp2203
g66
(dp2204
g86
g87
ssg75
g2198
sg68
(lp2205
g1595
asbag61
(g82
g63
NtRp2206
(dp2207
g66
(dp2208
g93
g94
ssg75
g2198
sg68
(lp2209
S':'
asbag61
(g82
g63
NtRp2210
(dp2211
g66
(dp2212
sg75
g2198
sg68
(lp2213
g61
(g62
g63
NtRp2214
(dp2215
g66
(dp2216
g74
I4
ssg75
g2210
sg68
(lp2217
g61
(g70
g63
NtRp2218
(dp2219
g66
(dp2220
g74
I3
ssg75
Nsg68
(lp2221
g61
(g77
g63
NtRp2222
(dp2223
g66
(dp2224
sg75
g2218
sg68
(lp2225
g61
(g82
g63
NtRp2226
(dp2227
g66
(dp2228
sg75
g2222
sg68
(lp2229
g61
(g62
g63
NtRp2230
(dp2231
g66
(dp2232
g74
I3
ssg75
g2226
sg68
(lp2233
S'2'
asbasbasbag61
(g77
g63
NtRp2234
(dp2235
g66
(dp2236
sg75
g2218
sg68
(lp2237
g61
(g82
g63
NtRp2238
(dp2239
g66
(dp2240
sg75
g2234
sg68
(lp2241
g61
(g62
g63
NtRp2242
(dp2243
g66
(dp2244
g74
I3
ssg75
g2238
sg68
(lp2245
S'0'
asbasbasbag61
(g77
g63
NtRp2246
(dp2247
g66
(dp2248
sg75
g2218
sg68
(lp2249
g61
(g82
g63
NtRp2250
(dp2251
g66
(dp2252
sg75
g2246
sg68
(lp2253
g61
(g62
g63
NtRp2254
(dp2255
g66
(dp2256
g74
I3
ssg75
g2250
sg68
(lp2257
S'2'
asbasbasbag61
(g77
g63
NtRp2258
(dp2259
g66
(dp2260
sg75
g2218
sg68
(lp2261
g61
(g82
g63
NtRp2262
(dp2263
g66
(dp2264
sg75
g2258
sg68
(lp2265
g61
(g62
g63
NtRp2266
(dp2267
g66
(dp2268
g74
I3
ssg75
g2262
sg68
(lp2269
S'datetime.datetime(2012, 8, 30, 4, 8, 18)'
p2270
asbasbasbag61
(g77
g63
NtRp2271
(dp2272
g66
(dp2273
sg75
g2218
sg68
(lp2274
g61
(g82
g63
NtRp2275
(dp2276
g66
(dp2277
sg75
g2271
sg68
(lp2278
g61
(g62
g63
NtRp2279
(dp2280
g66
(dp2281
g74
I3
ssg75
g2275
sg68
(lp2282
g1673
asbasbasbasbasbasbasbasbasbasbasbag61
(g77
g63
NtRp2283
(dp2284
g66
(dp2285
sg75
g71
sg68
(lp2286
g61
(g82
g63
NtRp2287
(dp2288
g66
(dp2289
g86
g87
ssg75
g2283
sg68
(lp2290
S'is_https'
p2291
asbag61
(g82
g63
NtRp2292
(dp2293
g66
(dp2294
g93
g94
ssg75
g2283
sg68
(lp2295
S':'
asbag61
(g82
g63
NtRp2296
(dp2297
g66
(dp2298
sg75
g2283
sg68
(lp2299
g61
(g62
g63
NtRp2300
(dp2301
g66
(dp2302
g74
I5
ssg75
g2296
sg68
(lp2303
g104
asbasbasbag61
(g77
g63
NtRp2304
(dp2305
g66
(dp2306
sg75
g71
sg68
(lp2307
g61
(g82
g63
NtRp2308
(dp2309
g66
(dp2310
g86
g87
ssg75
g2304
sg68
(lp2311
S'is_local'
p2312
asbag61
(g82
g63
NtRp2313
(dp2314
g66
(dp2315
g93
g94
ssg75
g2304
sg68
(lp2316
S':'
asbag61
(g82
g63
NtRp2317
(dp2318
g66
(dp2319
sg75
g2304
sg68
(lp2320
g61
(g62
g63
NtRp2321
(dp2322
g66
(dp2323
g74
I5
ssg75
g2317
sg68
(lp2324
g1782
asbasbasbag61
(g77
g63
NtRp2325
(dp2326
g66
(dp2327
sg75
g71
sg68
(lp2328
g61
(g82
g63
NtRp2329
(dp2330
g66
(dp2331
g86
g87
ssg75
g2325
sg68
(lp2332
S'is_restful'
p2333
asbag61
(g82
g63
NtRp2334
(dp2335
g66
(dp2336
g93
g94
ssg75
g2325
sg68
(lp2337
S':'
asbag61
(g82
g63
NtRp2338
(dp2339
g66
(dp2340
sg75
g2325
sg68
(lp2341
g61
(g62
g63
NtRp2342
(dp2343
g66
(dp2344
g74
I5
ssg75
g2338
sg68
(lp2345
g104
asbasbasbag61
(g77
g63
NtRp2346
(dp2347
g66
(dp2348
sg75
g71
sg68
(lp2349
g61
(g82
g63
NtRp2350
(dp2351
g66
(dp2352
g86
g87
ssg75
g2346
sg68
(lp2353
S'now'
p2354
asbag61
(g82
g63
NtRp2355
(dp2356
g66
(dp2357
g93
g94
ssg75
g2346
sg68
(lp2358
S':'
asbag61
(g82
g63
NtRp2359
(dp2360
g66
(dp2361
sg75
g2346
sg68
(lp2362
g61
(g62
g63
NtRp2363
(dp2364
g66
(dp2365
g74
I5
ssg75
g2359
sg68
(lp2366
S'datetime.datetime(2012, 8, 31, 14, 21, 20, 939140)'
p2367
asbasbasbag61
(g77
g63
NtRp2368
(dp2369
g66
(dp2370
sg75
g71
sg68
(lp2371
g61
(g82
g63
NtRp2372
(dp2373
g66
(dp2374
g86
g87
ssg75
g2368
sg68
(lp2375
S'post_vars'
p2376
asbag61
(g82
g63
NtRp2377
(dp2378
g66
(dp2379
g93
g94
ssg75
g2368
sg68
(lp2380
S':'
asbag61
(g82
g63
NtRp2381
(dp2382
g66
(dp2383
sg75
g2368
sg68
(lp2384
g61
(g62
g63
NtRp2385
(dp2386
g66
(dp2387
g74
I5
ssg75
g2381
sg68
(lp2388
g61
(g70
g63
NtRp2389
(dp2390
g66
(dp2391
g74
I4
ssg75
Nsg68
(lp2392
sbasbasbasbag61
(g77
g63
NtRp2393
(dp2394
g66
(dp2395
sg75
g71
sg68
(lp2396
g61
(g82
g63
NtRp2397
(dp2398
g66
(dp2399
g86
g87
ssg75
g2393
sg68
(lp2400
S'raw_args'
p2401
asbag61
(g82
g63
NtRp2402
(dp2403
g66
(dp2404
g93
g94
ssg75
g2393
sg68
(lp2405
S':'
asbag61
(g82
g63
NtRp2406
(dp2407
g66
(dp2408
sg75
g2393
sg68
(lp2409
g61
(g62
g63
NtRp2410
(dp2411
g66
(dp2412
g74
I5
ssg75
g2406
sg68
(lp2413
S'6'
asbasbasbag61
(g77
g63
NtRp2414
(dp2415
g66
(dp2416
sg75
g71
sg68
(lp2417
g61
(g82
g63
NtRp2418
(dp2419
g66
(dp2420
g86
g87
ssg75
g2414
sg68
(lp2421
S'raw_extension'
p2422
asbag61
(g82
g63
NtRp2423
(dp2424
g66
(dp2425
g93
g94
ssg75
g2414
sg68
(lp2426
S':'
asbag61
(g82
g63
NtRp2427
(dp2428
g66
(dp2429
sg75
g2414
sg68
(lp2430
g61
(g62
g63
NtRp2431
(dp2432
g66
(dp2433
g74
I5
ssg75
g2427
sg68
(lp2434
S'None'
p2435
asbasbasbag61
(g77
g63
NtRp2436
(dp2437
g66
(dp2438
sg75
g71
sg68
(lp2439
g61
(g82
g63
NtRp2440
(dp2441
g66
(dp2442
g86
g87
ssg75
g2436
sg68
(lp2443
S'url'
p2444
asbag61
(g82
g63
NtRp2445
(dp2446
g66
(dp2447
g93
g94
ssg75
g2436
sg68
(lp2448
S':'
asbag61
(g82
g63
NtRp2449
(dp2450
g66
(dp2451
sg75
g2436
sg68
(lp2452
g61
(g62
g63
NtRp2453
(dp2454
g66
(dp2455
g74
I5
ssg75
g2449
sg68
(lp2456
S'/FotoBuk/default/show/6'
p2457
asbasbasbag61
(g77
g63
NtRp2458
(dp2459
g66
(dp2460
sg75
g71
sg68
(lp2461
g61
(g82
g63
NtRp2462
(dp2463
g66
(dp2464
g86
g87
ssg75
g2458
sg68
(lp2465
S'utcnow'
p2466
asbag61
(g82
g63
NtRp2467
(dp2468
g66
(dp2469
g93
g94
ssg75
g2458
sg68
(lp2470
S':'
asbag61
(g82
g63
NtRp2471
(dp2472
g66
(dp2473
sg75
g2458
sg68
(lp2474
g61
(g62
g63
NtRp2475
(dp2476
g66
(dp2477
g74
I5
ssg75
g2471
sg68
(lp2478
S'datetime.datetime(2012, 8, 31, 8, 51, 20, 939187)'
p2479
asbasbasbag61
(g77
g63
NtRp2480
(dp2481
g66
(dp2482
sg75
g71
sg68
(lp2483
g61
(g82
g63
NtRp2484
(dp2485
g66
(dp2486
g86
g87
ssg75
g2480
sg68
(lp2487
S'uuid'
p2488
asbag61
(g82
g63
NtRp2489
(dp2490
g66
(dp2491
g93
g94
ssg75
g2480
sg68
(lp2492
S':'
asbag61
(g82
g63
NtRp2493
(dp2494
g66
(dp2495
sg75
g2480
sg68
(lp2496
g61
(g62
g63
NtRp2497
(dp2498
g66
(dp2499
g74
I5
ssg75
g2493
sg68
(lp2500
S'FotoBuk/127.0.0.1.2012-08-31.14-21-20.5cd38213-a056-4bb5-9229-5d8bd79d7af5'
p2501
asbasbasbag61
(g77
g63
NtRp2502
(dp2503
g66
(dp2504
sg75
g71
sg68
(lp2505
g61
(g82
g63
NtRp2506
(dp2507
g66
(dp2508
g86
g87
ssg75
g2502
sg68
(lp2509
S'vars'
p2510
asbag61
(g82
g63
NtRp2511
(dp2512
g66
(dp2513
g93
g94
ssg75
g2502
sg68
(lp2514
S':'
asbag61
(g82
g63
NtRp2515
(dp2516
g66
(dp2517
sg75
g2502
sg68
(lp2518
g61
(g62
g63
NtRp2519
(dp2520
g66
(dp2521
g74
I5
ssg75
g2515
sg68
(lp2522
g61
(g70
g63
NtRp2523
(dp2524
g66
(dp2525
g74
I4
ssg75
Nsg68
(lp2526
sbasbasbasbag61
(g77
g63
NtRp2527
(dp2528
g66
(dp2529
sg75
g71
sg68
(lp2530
g61
(g82
g63
NtRp2531
(dp2532
g66
(dp2533
g86
g87
ssg75
g2527
sg68
(lp2534
S'wsgi'
p2535
asbag61
(g82
g63
NtRp2536
(dp2537
g66
(dp2538
g93
g94
ssg75
g2527
sg68
(lp2539
S':'
asbag61
(g82
g63
NtRp2540
(dp2541
g66
(dp2542
sg75
g2527
sg68
(lp2543
g61
(g62
g63
NtRp2544
(dp2545
g66
(dp2546
g74
I5
ssg75
g2540
sg68
(lp2547
g61
(g70
g63
NtRp2548
(dp2549
g66
(dp2550
g74
I4
ssg75
Nsg68
(lp2551
g61
(g77
g63
NtRp2552
(dp2553
g66
(dp2554
sg75
g2548
sg68
(lp2555
g61
(g82
g63
NtRp2556
(dp2557
g66
(dp2558
g86
g87
ssg75
g2552
sg68
(lp2559
S'environ'
p2560
asbag61
(g82
g63
NtRp2561
(dp2562
g66
(dp2563
g93
g94
ssg75
g2552
sg68
(lp2564
S':'
asbag61
(g82
g63
NtRp2565
(dp2566
g66
(dp2567
sg75
g2552
sg68
(lp2568
g61
(g62
g63
NtRp2569
(dp2570
g66
(dp2571
g74
I4
ssg75
g2565
sg68
(lp2572
g61
(g70
g63
NtRp2573
(dp2574
g66
(dp2575
g74
I3
ssg75
Nsg68
(lp2576
g61
(g77
g63
NtRp2577
(dp2578
g66
(dp2579
sg75
g2573
sg68
(lp2580
g61
(g82
g63
NtRp2581
(dp2582
g66
(dp2583
g86
g87
ssg75
g2577
sg68
(lp2584
S'CONTENT_LENGTH'
p2585
asbag61
(g82
g63
NtRp2586
(dp2587
g66
(dp2588
g93
g94
ssg75
g2577
sg68
(lp2589
S':'
asbag61
(g82
g63
NtRp2590
(dp2591
g66
(dp2592
sg75
g2577
sg68
(lp2593
g61
(g62
g63
NtRp2594
(dp2595
g66
(dp2596
g74
I3
ssg75
g2590
sg68
(lp2597
g979
asbasbasbag61
(g77
g63
NtRp2598
(dp2599
g66
(dp2600
sg75
g2573
sg68
(lp2601
g61
(g82
g63
NtRp2602
(dp2603
g66
(dp2604
g86
g87
ssg75
g2598
sg68
(lp2605
S'CONTENT_TYPE'
p2606
asbag61
(g82
g63
NtRp2607
(dp2608
g66
(dp2609
g93
g94
ssg75
g2598
sg68
(lp2610
S':'
asbag61
(g82
g63
NtRp2611
(dp2612
g66
(dp2613
sg75
g2598
sg68
(lp2614
g61
(g62
g63
NtRp2615
(dp2616
g66
(dp2617
g74
I3
ssg75
g2611
sg68
(lp2618
g1001
asbasbasbag61
(g77
g63
NtRp2619
(dp2620
g66
(dp2621
sg75
g2573
sg68
(lp2622
g61
(g82
g63
NtRp2623
(dp2624
g66
(dp2625
g86
g87
ssg75
g2619
sg68
(lp2626
S'HTTP_ACCEPT'
p2627
asbag61
(g82
g63
NtRp2628
(dp2629
g66
(dp2630
g93
g94
ssg75
g2619
sg68
(lp2631
S':'
asbag61
(g82
g63
NtRp2632
(dp2633
g66
(dp2634
sg75
g2619
sg68
(lp2635
g61
(g62
g63
NtRp2636
(dp2637
g66
(dp2638
g74
I3
ssg75
g2632
sg68
(lp2639
g1088
asbasbasbag61
(g77
g63
NtRp2640
(dp2641
g66
(dp2642
sg75
g2573
sg68
(lp2643
g61
(g82
g63
NtRp2644
(dp2645
g66
(dp2646
g86
g87
ssg75
g2640
sg68
(lp2647
S'HTTP_ACCEPT_ENCODING'
p2648
asbag61
(g82
g63
NtRp2649
(dp2650
g66
(dp2651
g93
g94
ssg75
g2640
sg68
(lp2652
S':'
asbag61
(g82
g63
NtRp2653
(dp2654
g66
(dp2655
sg75
g2640
sg68
(lp2656
g61
(g62
g63
NtRp2657
(dp2658
g66
(dp2659
g74
I3
ssg75
g2653
sg68
(lp2660
g1110
asbasbasbag61
(g77
g63
NtRp2661
(dp2662
g66
(dp2663
sg75
g2573
sg68
(lp2664
g61
(g82
g63
NtRp2665
(dp2666
g66
(dp2667
g86
g87
ssg75
g2661
sg68
(lp2668
S'HTTP_ACCEPT_LANGUAGE'
p2669
asbag61
(g82
g63
NtRp2670
(dp2671
g66
(dp2672
g93
g94
ssg75
g2661
sg68
(lp2673
S':'
asbag61
(g82
g63
NtRp2674
(dp2675
g66
(dp2676
sg75
g2661
sg68
(lp2677
g61
(g62
g63
NtRp2678
(dp2679
g66
(dp2680
g74
I3
ssg75
g2674
sg68
(lp2681
g1132
asbasbasbag61
(g77
g63
NtRp2682
(dp2683
g66
(dp2684
sg75
g2573
sg68
(lp2685
g61
(g82
g63
NtRp2686
(dp2687
g66
(dp2688
g86
g87
ssg75
g2682
sg68
(lp2689
S'HTTP_CONNECTION'
p2690
asbag61
(g82
g63
NtRp2691
(dp2692
g66
(dp2693
g93
g94
ssg75
g2682
sg68
(lp2694
S':'
asbag61
(g82
g63
NtRp2695
(dp2696
g66
(dp2697
sg75
g2682
sg68
(lp2698
g61
(g62
g63
NtRp2699
(dp2700
g66
(dp2701
g74
I3
ssg75
g2695
sg68
(lp2702
g1154
asbasbasbag61
(g77
g63
NtRp2703
(dp2704
g66
(dp2705
sg75
g2573
sg68
(lp2706
g61
(g82
g63
NtRp2707
(dp2708
g66
(dp2709
g86
g87
ssg75
g2703
sg68
(lp2710
S'HTTP_CONTENT_LENGTH'
p2711
asbag61
(g82
g63
NtRp2712
(dp2713
g66
(dp2714
g93
g94
ssg75
g2703
sg68
(lp2715
S':'
asbag61
(g82
g63
NtRp2716
(dp2717
g66
(dp2718
sg75
g2703
sg68
(lp2719
g61
(g62
g63
NtRp2720
(dp2721
g66
(dp2722
g74
I3
ssg75
g2716
sg68
(lp2723
g979
asbasbasbag61
(g77
g63
NtRp2724
(dp2725
g66
(dp2726
sg75
g2573
sg68
(lp2727
g61
(g82
g63
NtRp2728
(dp2729
g66
(dp2730
g86
g87
ssg75
g2724
sg68
(lp2731
S'HTTP_CONTENT_TYPE'
p2732
asbag61
(g82
g63
NtRp2733
(dp2734
g66
(dp2735
g93
g94
ssg75
g2724
sg68
(lp2736
S':'
asbag61
(g82
g63
NtRp2737
(dp2738
g66
(dp2739
sg75
g2724
sg68
(lp2740
g61
(g62
g63
NtRp2741
(dp2742
g66
(dp2743
g74
I3
ssg75
g2737
sg68
(lp2744
g1001
asbasbasbag61
(g77
g63
NtRp2745
(dp2746
g66
(dp2747
sg75
g2573
sg68
(lp2748
g61
(g82
g63
NtRp2749
(dp2750
g66
(dp2751
g86
g87
ssg75
g2745
sg68
(lp2752
S'HTTP_COOKIE'
p2753
asbag61
(g82
g63
NtRp2754
(dp2755
g66
(dp2756
g93
g94
ssg75
g2745
sg68
(lp2757
S':'
asbag61
(g82
g63
NtRp2758
(dp2759
g66
(dp2760
sg75
g2745
sg68
(lp2761
g61
(g62
g63
NtRp2762
(dp2763
g66
(dp2764
g74
I3
ssg75
g2758
sg68
(lp2765
g1218
asbasbasbag61
(g77
g63
NtRp2766
(dp2767
g66
(dp2768
sg75
g2573
sg68
(lp2769
g61
(g82
g63
NtRp2770
(dp2771
g66
(dp2772
g86
g87
ssg75
g2766
sg68
(lp2773
S'HTTP_HOST'
p2774
asbag61
(g82
g63
NtRp2775
(dp2776
g66
(dp2777
g93
g94
ssg75
g2766
sg68
(lp2778
S':'
asbag61
(g82
g63
NtRp2779
(dp2780
g66
(dp2781
sg75
g2766
sg68
(lp2782
g61
(g62
g63
NtRp2783
(dp2784
g66
(dp2785
g74
I3
ssg75
g2779
sg68
(lp2786
g1240
asbasbasbag61
(g77
g63
NtRp2787
(dp2788
g66
(dp2789
sg75
g2573
sg68
(lp2790
g61
(g82
g63
NtRp2791
(dp2792
g66
(dp2793
g86
g87
ssg75
g2787
sg68
(lp2794
S'HTTP_REFERER'
p2795
asbag61
(g82
g63
NtRp2796
(dp2797
g66
(dp2798
g93
g94
ssg75
g2787
sg68
(lp2799
S':'
asbag61
(g82
g63
NtRp2800
(dp2801
g66
(dp2802
sg75
g2787
sg68
(lp2803
g61
(g62
g63
NtRp2804
(dp2805
g66
(dp2806
g74
I3
ssg75
g2800
sg68
(lp2807
g1262
asbasbasbag61
(g77
g63
NtRp2808
(dp2809
g66
(dp2810
sg75
g2573
sg68
(lp2811
g61
(g82
g63
NtRp2812
(dp2813
g66
(dp2814
g86
g87
ssg75
g2808
sg68
(lp2815
S'HTTP_USER_AGENT'
p2816
asbag61
(g82
g63
NtRp2817
(dp2818
g66
(dp2819
g93
g94
ssg75
g2808
sg68
(lp2820
S':'
asbag61
(g82
g63
NtRp2821
(dp2822
g66
(dp2823
sg75
g2808
sg68
(lp2824
g61
(g62
g63
NtRp2825
(dp2826
g66
(dp2827
g74
I3
ssg75
g2821
sg68
(lp2828
g1284
asbasbasbag61
(g77
g63
NtRp2829
(dp2830
g66
(dp2831
sg75
g2573
sg68
(lp2832
g61
(g82
g63
NtRp2833
(dp2834
g66
(dp2835
g86
g87
ssg75
g2829
sg68
(lp2836
S'PATH_INFO'
p2837
asbag61
(g82
g63
NtRp2838
(dp2839
g66
(dp2840
g93
g94
ssg75
g2829
sg68
(lp2841
S':'
asbag61
(g82
g63
NtRp2842
(dp2843
g66
(dp2844
sg75
g2829
sg68
(lp2845
g61
(g62
g63
NtRp2846
(dp2847
g66
(dp2848
g74
I3
ssg75
g2842
sg68
(lp2849
g1348
asbasbasbag61
(g77
g63
NtRp2850
(dp2851
g66
(dp2852
sg75
g2573
sg68
(lp2853
g61
(g82
g63
NtRp2854
(dp2855
g66
(dp2856
g86
g87
ssg75
g2850
sg68
(lp2857
S'QUERY_STRING'
p2858
asbag61
(g82
g63
NtRp2859
(dp2860
g66
(dp2861
g93
g94
ssg75
g2850
sg68
(lp2862
S':'
asbag61
(g82
g63
NtRp2863
(dp2864
g66
(dp2865
sg75
g2850
sg68
(lp2866
g61
(g62
g63
NtRp2867
(dp2868
g66
(dp2869
g74
I3
ssg75
g2863
sg68
(lp2870
S''
asbasbasbag61
(g77
g63
NtRp2871
(dp2872
g66
(dp2873
sg75
g2573
sg68
(lp2874
g61
(g82
g63
NtRp2875
(dp2876
g66
(dp2877
g86
g87
ssg75
g2871
sg68
(lp2878
S'REMOTE_ADDR'
p2879
asbag61
(g82
g63
NtRp2880
(dp2881
g66
(dp2882
g93
g94
ssg75
g2871
sg68
(lp2883
S':'
asbag61
(g82
g63
NtRp2884
(dp2885
g66
(dp2886
sg75
g2871
sg68
(lp2887
g61
(g62
g63
NtRp2888
(dp2889
g66
(dp2890
g74
I3
ssg75
g2884
sg68
(lp2891
g228
asbasbasbag61
(g77
g63
NtRp2892
(dp2893
g66
(dp2894
sg75
g2573
sg68
(lp2895
g61
(g82
g63
NtRp2896
(dp2897
g66
(dp2898
g86
g87
ssg75
g2892
sg68
(lp2899
S'REMOTE_PORT'
p2900
asbag61
(g82
g63
NtRp2901
(dp2902
g66
(dp2903
g93
g94
ssg75
g2892
sg68
(lp2904
S':'
asbag61
(g82
g63
NtRp2905
(dp2906
g66
(dp2907
sg75
g2892
sg68
(lp2908
g61
(g62
g63
NtRp2909
(dp2910
g66
(dp2911
g74
I3
ssg75
g2905
sg68
(lp2912
g1412
asbasbasbag61
(g77
g63
NtRp2913
(dp2914
g66
(dp2915
sg75
g2573
sg68
(lp2916
g61
(g82
g63
NtRp2917
(dp2918
g66
(dp2919
g86
g87
ssg75
g2913
sg68
(lp2920
S'REQUEST_METHOD'
p2921
asbag61
(g82
g63
NtRp2922
(dp2923
g66
(dp2924
g93
g94
ssg75
g2913
sg68
(lp2925
S':'
asbag61
(g82
g63
NtRp2926
(dp2927
g66
(dp2928
sg75
g2913
sg68
(lp2929
g61
(g62
g63
NtRp2930
(dp2931
g66
(dp2932
g74
I3
ssg75
g2926
sg68
(lp2933
g1434
asbasbasbag61
(g77
g63
NtRp2934
(dp2935
g66
(dp2936
sg75
g2573
sg68
(lp2937
g61
(g82
g63
NtRp2938
(dp2939
g66
(dp2940
g86
g87
ssg75
g2934
sg68
(lp2941
S'SCRIPT_NAME'
p2942
asbag61
(g82
g63
NtRp2943
(dp2944
g66
(dp2945
g93
g94
ssg75
g2934
sg68
(lp2946
S':'
asbag61
(g82
g63
NtRp2947
(dp2948
g66
(dp2949
sg75
g2934
sg68
(lp2950
g61
(g62
g63
NtRp2951
(dp2952
g66
(dp2953
g74
I3
ssg75
g2947
sg68
(lp2954
S''
asbasbasbag61
(g77
g63
NtRp2955
(dp2956
g66
(dp2957
sg75
g2573
sg68
(lp2958
g61
(g82
g63
NtRp2959
(dp2960
g66
(dp2961
g86
g87
ssg75
g2955
sg68
(lp2962
S'SERVER_NAME'
p2963
asbag61
(g82
g63
NtRp2964
(dp2965
g66
(dp2966
g93
g94
ssg75
g2955
sg68
(lp2967
S':'
asbag61
(g82
g63
NtRp2968
(dp2969
g66
(dp2970
sg75
g2955
sg68
(lp2971
g61
(g62
g63
NtRp2972
(dp2973
g66
(dp2974
g74
I3
ssg75
g2968
sg68
(lp2975
g1477
asbasbasbag61
(g77
g63
NtRp2976
(dp2977
g66
(dp2978
sg75
g2573
sg68
(lp2979
g61
(g82
g63
NtRp2980
(dp2981
g66
(dp2982
g86
g87
ssg75
g2976
sg68
(lp2983
S'SERVER_PORT'
p2984
asbag61
(g82
g63
NtRp2985
(dp2986
g66
(dp2987
g93
g94
ssg75
g2976
sg68
(lp2988
S':'
asbag61
(g82
g63
NtRp2989
(dp2990
g66
(dp2991
sg75
g2976
sg68
(lp2992
g61
(g62
g63
NtRp2993
(dp2994
g66
(dp2995
g74
I3
ssg75
g2989
sg68
(lp2996
g1499
asbasbasbag61
(g77
g63
NtRp2997
(dp2998
g66
(dp2999
sg75
g2573
sg68
(lp3000
g61
(g82
g63
NtRp3001
(dp3002
g66
(dp3003
g86
g87
ssg75
g2997
sg68
(lp3004
S'SERVER_PROTOCOL'
p3005
asbag61
(g82
g63
NtRp3006
(dp3007
g66
(dp3008
g93
g94
ssg75
g2997
sg68
(lp3009
S':'
asbag61
(g82
g63
NtRp3010
(dp3011
g66
(dp3012
sg75
g2997
sg68
(lp3013
g61
(g62
g63
NtRp3014
(dp3015
g66
(dp3016
g74
I3
ssg75
g3010
sg68
(lp3017
g1521
asbasbasbag61
(g77
g63
NtRp3018
(dp3019
g66
(dp3020
sg75
g2573
sg68
(lp3021
g61
(g82
g63
NtRp3022
(dp3023
g66
(dp3024
g86
g87
ssg75
g3018
sg68
(lp3025
S'SERVER_SOFTWARE'
p3026
asbag61
(g82
g63
NtRp3027
(dp3028
g66
(dp3029
g93
g94
ssg75
g3018
sg68
(lp3030
S':'
asbag61
(g82
g63
NtRp3031
(dp3032
g66
(dp3033
sg75
g3018
sg68
(lp3034
g61
(g62
g63
NtRp3035
(dp3036
g66
(dp3037
g74
I3
ssg75
g3031
sg68
(lp3038
g1543
asbasbasbag61
(g77
g63
NtRp3039
(dp3040
g66
(dp3041
sg75
g2573
sg68
(lp3042
g61
(g82
g63
NtRp3043
(dp3044
g66
(dp3045
g86
g87
ssg75
g3039
sg68
(lp3046
S'wsgi.errors'
p3047
asbag61
(g82
g63
NtRp3048
(dp3049
g66
(dp3050
g93
g94
ssg75
g3039
sg68
(lp3051
S':'
asbag61
(g82
g63
NtRp3052
(dp3053
g66
(dp3054
sg75
g3039
sg68
(lp3055
g61
(g62
g63
NtRp3056
(dp3057
g66
(dp3058
g74
I3
ssg75
g3052
sg68
(lp3059
S"<open file '<stderr>', mode 'w' at 0xb772d0d0>"
p3060
asbasbasbag61
(g77
g63
NtRp3061
(dp3062
g66
(dp3063
sg75
g2573
sg68
(lp3064
g61
(g82
g63
NtRp3065
(dp3066
g66
(dp3067
g86
g87
ssg75
g3061
sg68
(lp3068
S'wsgi.file_wrapper'
p3069
asbag61
(g82
g63
NtRp3070
(dp3071
g66
(dp3072
g93
g94
ssg75
g3061
sg68
(lp3073
S':'
asbag61
(g82
g63
NtRp3074
(dp3075
g66
(dp3076
sg75
g3061
sg68
(lp3077
g61
(g62
g63
NtRp3078
(dp3079
g66
(dp3080
g74
I3
ssg75
g3074
sg68
(lp3081
S'<class wsgiref.util.FileWrapper at 0x8d0326c>'
p3082
asbasbasbag61
(g77
g63
NtRp3083
(dp3084
g66
(dp3085
sg75
g2573
sg68
(lp3086
g61
(g82
g63
NtRp3087
(dp3088
g66
(dp3089
g86
g87
ssg75
g3083
sg68
(lp3090
S'wsgi.input'
p3091
asbag61
(g82
g63
NtRp3092
(dp3093
g66
(dp3094
g93
g94
ssg75
g3083
sg68
(lp3095
S':'
asbag61
(g82
g63
NtRp3096
(dp3097
g66
(dp3098
sg75
g3083
sg68
(lp3099
g61
(g62
g63
NtRp3100
(dp3101
g66
(dp3102
g74
I3
ssg75
g3096
sg68
(lp3103
S"<open file '<fdopen>', mode 'w+b' at 0xb39be700>"
p3104
asbasbasbag61
(g77
g63
NtRp3105
(dp3106
g66
(dp3107
sg75
g2573
sg68
(lp3108
g61
(g82
g63
NtRp3109
(dp3110
g66
(dp3111
g86
g87
ssg75
g3105
sg68
(lp3112
S'wsgi.multiprocess'
p3113
asbag61
(g82
g63
NtRp3114
(dp3115
g66
(dp3116
g93
g94
ssg75
g3105
sg68
(lp3117
S':'
asbag61
(g82
g63
NtRp3118
(dp3119
g66
(dp3120
sg75
g3105
sg68
(lp3121
g61
(g62
g63
NtRp3122
(dp3123
g66
(dp3124
g74
I3
ssg75
g3118
sg68
(lp3125
g104
asbasbasbag61
(g77
g63
NtRp3126
(dp3127
g66
(dp3128
sg75
g2573
sg68
(lp3129
g61
(g82
g63
NtRp3130
(dp3131
g66
(dp3132
g86
g87
ssg75
g3126
sg68
(lp3133
S'wsgi.multithread'
p3134
asbag61
(g82
g63
NtRp3135
(dp3136
g66
(dp3137
g93
g94
ssg75
g3126
sg68
(lp3138
S':'
asbag61
(g82
g63
NtRp3139
(dp3140
g66
(dp3141
sg75
g3126
sg68
(lp3142
g61
(g62
g63
NtRp3143
(dp3144
g66
(dp3145
g74
I3
ssg75
g3139
sg68
(lp3146
g1782
asbasbasbag61
(g77
g63
NtRp3147
(dp3148
g66
(dp3149
sg75
g2573
sg68
(lp3150
g61
(g82
g63
NtRp3151
(dp3152
g66
(dp3153
g86
g87
ssg75
g3147
sg68
(lp3154
S'wsgi.run_once'
p3155
asbag61
(g82
g63
NtRp3156
(dp3157
g66
(dp3158
g93
g94
ssg75
g3147
sg68
(lp3159
S':'
asbag61
(g82
g63
NtRp3160
(dp3161
g66
(dp3162
sg75
g3147
sg68
(lp3163
g61
(g62
g63
NtRp3164
(dp3165
g66
(dp3166
g74
I3
ssg75
g3160
sg68
(lp3167
g104
asbasbasbag61
(g77
g63
NtRp3168
(dp3169
g66
(dp3170
sg75
g2573
sg68
(lp3171
g61
(g82
g63
NtRp3172
(dp3173
g66
(dp3174
g86
g87
ssg75
g3168
sg68
(lp3175
S'wsgi.url_scheme'
p3176
asbag61
(g82
g63
NtRp3177
(dp3178
g66
(dp3179
g93
g94
ssg75
g3168
sg68
(lp3180
S':'
asbag61
(g82
g63
NtRp3181
(dp3182
g66
(dp3183
sg75
g3168
sg68
(lp3184
g61
(g62
g63
NtRp3185
(dp3186
g66
(dp3187
g74
I3
ssg75
g3181
sg68
(lp3188
g1825
asbasbasbag61
(g77
g63
NtRp3189
(dp3190
g66
(dp3191
sg75
g2573
sg68
(lp3192
g61
(g82
g63
NtRp3193
(dp3194
g66
(dp3195
g86
g87
ssg75
g3189
sg68
(lp3196
S'wsgi.version'
p3197
asbag61
(g82
g63
NtRp3198
(dp3199
g66
(dp3200
g93
g94
ssg75
g3189
sg68
(lp3201
S':'
asbag61
(g82
g63
NtRp3202
(dp3203
g66
(dp3204
sg75
g3189
sg68
(lp3205
g61
(g62
g63
NtRp3206
(dp3207
g66
(dp3208
g74
I3
ssg75
g3202
sg68
(lp3209
S'1'
asbasbasbasbasbasbasbasbasbasbasbasbasbsS'frames'
p3210
(lp3211
(dp3212
S'file'
p3213
S'/home/piyush/web2py/gluon/restricted.py'
p3214
sS'dump'
p3215
(dp3216
S'environment'
p3217
S"{'A': <class 'gluon.html.A'>, 'Auth': <class 'gluon.tools.Auth'>, 'B': <class 'gluon.html.B'>, 'BEAUTIFY': <class 'gluon.html.BEAUTIFY'>, 'BODY': <class 'gluon.html.BODY'>, 'BR': <class 'gluon.html.BR'>, 'BUTTON': <class 'gluon.html.BUTTON'>, 'CAT': <class 'gluon.html.CAT'>, 'CENTER': <class 'gluon.html.CENTER'>, 'CLEANUP': <class 'gluon.validators.CLEANUP'>, ...}"
p3218
sS'ccode'
p3219
S'<code object <module> at 0xae953f50, file "/home...ications/FotoBuk/controllers/default.py", line 1>'
p3220
ssS'lnum'
p3221
I209
sS'lines'
p3222
(dp3223
I204
S'    try:'
p3224
sI205
S'        if type(code) == types.CodeType:'
p3225
sI206
S'            ccode = code'
p3226
sI207
S'        else:'
p3227
sI208
S'            ccode = compile2(code,layer)'
p3228
sI209
S'        exec ccode in environment'
p3229
sI210
S'    except HTTP:'
p3230
sI211
S'        raise'
p3231
sI212
S'    except RestrictedError:'
p3232
sI213
S'        # do not encapsulate (obfuscate) the original RestrictedError'
p3233
ssS'call'
p3234
S"(code='@auth.requires_login()\\ndef index():\\n\\tli=db(db.im...quest,db)\\n\\nresponse._vars=response._caller(show)\\n', environment={'A': <class 'gluon.html.A'>, 'Auth': <class 'gluon.tools.Auth'>, 'B': <class 'gluon.html.B'>, 'BEAUTIFY': <class 'gluon.html.BEAUTIFY'>, 'BODY': <class 'gluon.html.BODY'>, 'BR': <class 'gluon.html.BR'>, 'BUTTON': <class 'gluon.html.BUTTON'>, 'CAT': <class 'gluon.html.CAT'>, 'CENTER': <class 'gluon.html.CENTER'>, 'CLEANUP': <class 'gluon.validators.CLEANUP'>, ...}, layer='/home/piyush/web2py/applications/FotoBuk/controllers/default.py')"
p3235
sS'func'
p3236
S'restricted'
p3237
sa(dp3238
g3213
S'/home/piyush/web2py/applications/FotoBuk/controllers/default.py'
p3239
sg3215
(dp3240
sg3221
I61
sg3222
(dp3241
I50
S''
sI51
S'def delete():'
p3242
sI52
S'    db(db.image.id==request.args(0)).delete()'
p3243
sI53
S'    image = db(db.image.id==request.args(0)).select()'
p3244
sI54
S''
sI55
S'def user():'
p3245
sI56
S'\treturn dict(form=auth())'
p3246
sI57
S''
sI58
S'def download():'
p3247
sI59
S'\treturn response.download(request,db)'
p3248
ssg3234
S'()'
p3249
sg3236
S'<module>'
p3250
sa(dp3251
g3213
S'/home/piyush/web2py/gluon/globals.py'
p3252
sg3215
(dp3253
S'self'
p3254
S'undefined'
p3255
sS'f'
S'<function show>'
p3256
ssg3221
I185
sg3222
(dp3257
I180
S'        self.menu = []             # used by the default view layout'
p3258
sI181
S'        self.files = []            # used by web2py_ajax.html'
p3259
sI182
S'        self.generic_patterns = [] # patterns to allow generic views'
p3260
sI183
S"        self.delimiters = ('{{','}}')"
p3261
sI184
S'        self._vars = None'
p3262
sI185
S'        self._caller = lambda f: f()'
p3263
sI186
S'        self._view_environment = None'
p3264
sI187
S'        self._custom_commit = None'
p3265
sI188
S'        self._custom_rollback = None'
p3266
sI189
S''
ssg3234
S'(f=<function show>)'
p3267
sg3236
S'<lambda>'
p3268
sa(dp3269
g3213
S'/home/piyush/web2py/gluon/tools.py'
p3270
sg3215
(dp3271
S'action'
p3272
S'<function show>'
p3273
sS'a'
S'()'
p3274
sS'b'
g21
ssg3221
I2776
sg3222
(dp3275
I2771
S'                    flag = condition'
p3276
sI2772
S'                if not flag:'
p3277
sI2773
S'                    current.session.flash = self.messages.access_denied'
p3278
sI2774
S'                    return call_or_redirect('
p3279
sI2775
S'                        self.settings.on_failed_authorization)'
p3280
sI2776
S'                return action(*a, **b)'
p3281
sI2777
S'            f.__doc__ = action.__doc__'
p3282
sI2778
S'            f.__name__ = action.__name__'
p3283
sI2779
S'            f.__dict__.update(action.__dict__)'
p3284
sI2780
S'            return f'
p3285
ssg3234
S'(*a=(), **b={})'
p3286
sg3236
S'f'
sa(dp3287
g3213
S'/home/piyush/web2py/applications/FotoBuk/controllers/default.py'
p3288
sg3215
(dp3289
S'form2'
p3290
S'<gluon.sqlhtml.SQLFORM object>'
p3291
sS'flag'
p3292
S'0'
sS'form2.process'
p3293
S'<bound method SQLFORM.process of <gluon.sqlhtml.SQLFORM object>>'
p3294
sS').accepted'
p3295
g3255
ssg3221
I36
sg3222
(dp3296
I32
S'#\t    if int(cur_user) == int(lik.liker):'
p3297
sI33
S'#\t\t    flag=1'
p3298
sI34
S'    print flag'
p3299
sI35
S'    form2 = SQLFORM(db.like)'
p3300
sI36
S'    if form2.process().accepted and flag==0:'
p3301
sI37
S"\tprint 'yes'"
p3302
sI38
S"\tresponse.flash = 'You have liked the image'"
p3303
sI39
S'    \tdb.like.insert(likername=auth.user.first_name)'
p3304
sI40
S'\tdb.like.insert(liker=auth.user_id)'
p3305
sI31
S'#\t    if cur'
p3306
ssg3234
S'()'
p3307
sg3236
S'show'
p3308
sa(dp3309
g3213
S'/home/piyush/web2py/gluon/html.py'
p3310
sg3215
(dp3311
S'self'
p3312
S'<gluon.sqlhtml.SQLFORM object>'
p3313
sS'self.validate'
p3314
S'<bound method SQLFORM.validate of <gluon.sqlhtml.SQLFORM object>>'
p3315
sS'kwargs'
p3316
S"{'dbio': True}"
p3317
ssg3221
I2106
sg3222
(dp3318
I2101
S'        # or a function name to use as callback or None to do nothing.'
p3319
sI2102
S'        def action():'
p3320
sI2103
S'            return dict(form=SQLFORM(db.table).process(onsuccess=my_callback)'
p3321
sI2104
S'        """'
p3322
sI2105
S"        kwargs['dbio'] = kwargs.get('dbio',True) # necessary for SQLHTML forms"
p3323
sI2106
S'        self.validate(**kwargs)'
p3324
sI2107
S'        return self'
p3325
sI2108
S''
sI2109
S'    REDIRECT_JS = "window.location=\'%s\';return false"'
p3326
sI2110
S''
ssg3234
S"(self=<gluon.sqlhtml.SQLFORM object>, **kwargs={'dbio': True})"
p3327
sg3236
S'process'
p3328
sa(dp3329
g3213
S'/home/piyush/web2py/gluon/html.py'
p3330
sg3215
(dp3331
S'self'
p3332
S'<gluon.sqlhtml.SQLFORM object>'
p3333
sS'self.accepts'
p3334
S'<bound method SQLFORM.accepts of <gluon.sqlhtml.SQLFORM object>>'
p3335
sS'kwargs'
p3336
S"{'dbio': True, 'request_vars': <Storage {'_formkey': 'e98d9740-9791-4d85-82f7-e405d276f8b5', '_formname': 'like/create'}>, 'session': <Storage {'_formkey[comment/create]': '615a5a17-...: '', 'id': 1}>, 'user_groups': {1: 'user_1'}}>}>}"
p3337
ssg3221
I2053
sg3222
(dp3338
I2048
S"        for key in ('message_onsuccess','message_onfailure','onsuccess',"
p3339
sI2049
S"                    'onfailure','next'):"
p3340
sI2050
S'            if key in kwargs:'
p3341
sI2051
S'                del kwargs[key]'
p3342
sI2052
S''
sI2053
S'        if self.accepts(**kwargs):'
p3343
sI2054
S"            if onsuccess == 'flash':"
p3344
sI2055
S'                if next:'
p3345
sI2056
S'                    current.session.flash = message_onsuccess'
p3346
sI2057
S'                else:'
p3347
ssg3234
S"(self=<gluon.sqlhtml.SQLFORM object>, **kwargs={'dbio': True, 'request_vars': <Storage {'_formkey': 'e98d9740-9791-4d85-82f7-e405d276f8b5', '_formname': 'like/create'}>, 'session': <Storage {'_formkey[comment/create]': '615a5a17-...: '', 'id': 1}>, 'user_groups': {1: 'user_1'}}>}>})"
p3348
sg3236
S'validate'
p3349
sa(dp3350
g3213
S'/home/piyush/web2py/gluon/sqlhtml.py'
p3351
sg3215
(dp3352
S'self.vars.id'
p3353
S'None'
p3354
sS'fields'
p3355
g21
sS'self'
p3356
S'<gluon.sqlhtml.SQLFORM object>'
p3357
sS'self.vars'
p3358
S'<Storage {}>'
p3359
sS'self.table.insert'
p3360
S'<bound method Table.insert of <Table like (id,like_id,liker,likername)>>'
p3361
sS'self.table'
p3362
S'<Table like (id,like_id,liker,likername)>'
p3363
ssg3221
I1403
sg3222
(dp3364
I1398
S'                if record_id:'
p3365
sI1399
S'                    self.vars.id = self.record[self.id_field_name]'
p3366
sI1400
S'                    if fields:'
p3367
sI1401
S'                        self.table._db(self.table._id == self.record[self.id_field_name]).update(**fields)'
p3368
sI1402
S'                else:'
p3369
sI1403
S'                    self.vars.id = self.table.insert(**fields)'
p3370
sI1404
S'        self.accepted = ret'
p3371
sI1405
S'        return ret'
p3372
sI1406
S''
sI1407
S'    AUTOTYPES = {'
p3373
ssg3234
S"(self=<gluon.sqlhtml.SQLFORM object>, request_vars=<Storage {'_formkey': 'e98d9740-9791-4d85-82f7-e405d276f8b5', '_formname': 'like/create'}>, session=<Storage {'_formkey[comment/create]': '615a5a17-...: '', 'id': 1}>, 'user_groups': {1: 'user_1'}}>}>, formname='like/create', keepvalues=False, onvalidation=None, dbio=True, hideerror=False, detect_record_change=False)"
p3374
sg3236
S'accepts'
p3375
sa(dp3376
g3213
S'/home/piyush/web2py/gluon/dal.py'
p3377
sg3215
(dp3378
S'self._listify'
p3379
S'<bound method Table._listify of <Table like (id,like_id,liker,likername)>>'
p3380
sS'fields'
p3381
g21
sS'self'
p3382
S'<Table like (id,like_id,liker,likername)>'
p3383
sS'ret'
p3384
g3255
sS'self._db._adapter'
p3385
S'<gluon.dal.SQLiteAdapter object>'
p3386
sS'self._db._adapter.insert'
p3387
S'<bound method SQLiteAdapter.insert of <gluon.dal.SQLiteAdapter object>>'
p3388
sS'self._db'
p3389
S'<DAL sqlite://storage.sqlite>'
p3390
ssg3221
I7720
sg3222
(dp3391
I7715
S'        return self._db._adapter._insert(self,self._listify(fields))'
p3392
sI7716
S''
sI7717
S'    def insert(self, **fields):'
p3393
sI7718
S'        self._attempt_upload(fields)'
p3394
sI7719
S'        if any(f(fields) for f in self._before_insert): return 0'
p3395
sI7720
S'        ret =  self._db._adapter.insert(self,self._listify(fields))'
p3396
sI7721
S'        if ret and self._after_insert:'
p3397
sI7722
S'            fields = Row(fields)'
p3398
sI7723
S'            [f(fields,ret) for f in self._after_insert]'
p3399
sI7724
S'        return ret'
p3400
ssg3234
S'(self=<Table like (id,like_id,liker,likername)>, **fields={})'
p3401
sg3236
S'insert'
p3402
sa(dp3403
g3213
S'/home/piyush/web2py/gluon/dal.py'
p3404
sg3215
(dp3405
S'e'
S'OperationalError(\'near ")": syntax error\',)'
p3406
ssg3221
I1080
sg3222
(dp3407
I1075
S'        try:'
p3408
sI1076
S'            self.execute(query)'
p3409
sI1077
S'        except Exception, e:'
p3410
sI1078
S'            if isinstance(e,self.integrity_error_class()):'
p3411
sI1079
S'                return None'
p3412
sI1080
S'            raise e'
p3413
sI1081
S"        if hasattr(table,'_primarykey'):"
p3414
sI1082
S'            return dict([(k[0].name, k[1]) for k in fields \\'
p3415
sI1083
S'                             if k[0].name in table._primarykey])'
p3416
sI1084
S'        id = self.lastrowid(table)'
p3417
ssg3234
S'(self=<gluon.dal.SQLiteAdapter object>, table=<Table like (id,like_id,liker,likername)>, fields=[])'
p3418
sg3236
g3402
sasS'pyver'
p3419
S'Python 2.7.2: /usr/bin/python'
p3420
sS'session'
p3421
g61
(g62
g63
NtRp3422
(dp3423
g66
(dp3424
sg68
(lp3425
g61
(g70
g63
NtRp3426
(dp3427
g66
(dp3428
g74
I5
ssg75
Nsg68
(lp3429
g61
(g77
g63
NtRp3430
(dp3431
g66
(dp3432
sg75
g3426
sg68
(lp3433
g61
(g82
g63
NtRp3434
(dp3435
g66
(dp3436
g86
g87
ssg75
g3430
sg68
(lp3437
S'auth'
p3438
asbag61
(g82
g63
NtRp3439
(dp3440
g66
(dp3441
g93
g94
ssg75
g3430
sg68
(lp3442
S':'
asbag61
(g82
g63
NtRp3443
(dp3444
g66
(dp3445
sg75
g3430
sg68
(lp3446
g61
(g62
g63
NtRp3447
(dp3448
g66
(dp3449
g74
I5
ssg75
g3443
sg68
(lp3450
g61
(g70
g63
NtRp3451
(dp3452
g66
(dp3453
g74
I4
ssg75
Nsg68
(lp3454
g61
(g77
g63
NtRp3455
(dp3456
g66
(dp3457
sg75
g3451
sg68
(lp3458
g61
(g82
g63
NtRp3459
(dp3460
g66
(dp3461
g86
g87
ssg75
g3455
sg68
(lp3462
S'expiration'
p3463
asbag61
(g82
g63
NtRp3464
(dp3465
g66
(dp3466
g93
g94
ssg75
g3455
sg68
(lp3467
S':'
asbag61
(g82
g63
NtRp3468
(dp3469
g66
(dp3470
sg75
g3455
sg68
(lp3471
g61
(g62
g63
NtRp3472
(dp3473
g66
(dp3474
g74
I4
ssg75
g3468
sg68
(lp3475
S'3600'
p3476
asbasbasbag61
(g77
g63
NtRp3477
(dp3478
g66
(dp3479
sg75
g3451
sg68
(lp3480
g61
(g82
g63
NtRp3481
(dp3482
g66
(dp3483
g86
g87
ssg75
g3477
sg68
(lp3484
S'hmac_key'
p3485
asbag61
(g82
g63
NtRp3486
(dp3487
g66
(dp3488
g93
g94
ssg75
g3477
sg68
(lp3489
S':'
asbag61
(g82
g63
NtRp3490
(dp3491
g66
(dp3492
sg75
g3477
sg68
(lp3493
g61
(g62
g63
NtRp3494
(dp3495
g66
(dp3496
g74
I4
ssg75
g3490
sg68
(lp3497
S'34caddca-8413-4a49-8910-7936269d9f94'
p3498
asbasbasbag61
(g77
g63
NtRp3499
(dp3500
g66
(dp3501
sg75
g3451
sg68
(lp3502
g61
(g82
g63
NtRp3503
(dp3504
g66
(dp3505
g86
g87
ssg75
g3499
sg68
(lp3506
S'last_visit'
p3507
asbag61
(g82
g63
NtRp3508
(dp3509
g66
(dp3510
g93
g94
ssg75
g3499
sg68
(lp3511
S':'
asbag61
(g82
g63
NtRp3512
(dp3513
g66
(dp3514
sg75
g3499
sg68
(lp3515
g61
(g62
g63
NtRp3516
(dp3517
g66
(dp3518
g74
I4
ssg75
g3512
sg68
(lp3519
S'datetime.datetime(2012, 8, 31, 14, 21, 8, 593047)'
p3520
asbasbasbag61
(g77
g63
NtRp3521
(dp3522
g66
(dp3523
sg75
g3451
sg68
(lp3524
g61
(g82
g63
NtRp3525
(dp3526
g66
(dp3527
g86
g87
ssg75
g3521
sg68
(lp3528
S'remember'
p3529
asbag61
(g82
g63
NtRp3530
(dp3531
g66
(dp3532
g93
g94
ssg75
g3521
sg68
(lp3533
S':'
asbag61
(g82
g63
NtRp3534
(dp3535
g66
(dp3536
sg75
g3521
sg68
(lp3537
g61
(g62
g63
NtRp3538
(dp3539
g66
(dp3540
g74
I4
ssg75
g3534
sg68
(lp3541
g104
asbasbasbag61
(g77
g63
NtRp3542
(dp3543
g66
(dp3544
sg75
g3451
sg68
(lp3545
g61
(g82
g63
NtRp3546
(dp3547
g66
(dp3548
g86
g87
ssg75
g3542
sg68
(lp3549
S'user'
p3550
asbag61
(g82
g63
NtRp3551
(dp3552
g66
(dp3553
g93
g94
ssg75
g3542
sg68
(lp3554
S':'
asbag61
(g82
g63
NtRp3555
(dp3556
g66
(dp3557
sg75
g3542
sg68
(lp3558
g61
(g62
g63
NtRp3559
(dp3560
g66
(dp3561
g74
I4
ssg75
g3555
sg68
(lp3562
g61
(g70
g63
NtRp3563
(dp3564
g66
(dp3565
g74
I3
ssg75
Nsg68
(lp3566
g61
(g77
g63
NtRp3567
(dp3568
g66
(dp3569
sg75
g3563
sg68
(lp3570
g61
(g82
g63
NtRp3571
(dp3572
g66
(dp3573
g86
g87
ssg75
g3567
sg68
(lp3574
S'email'
p3575
asbag61
(g82
g63
NtRp3576
(dp3577
g66
(dp3578
g93
g94
ssg75
g3567
sg68
(lp3579
S':'
asbag61
(g82
g63
NtRp3580
(dp3581
g66
(dp3582
sg75
g3567
sg68
(lp3583
g61
(g62
g63
NtRp3584
(dp3585
g66
(dp3586
g74
I3
ssg75
g3580
sg68
(lp3587
S'piyush.bansal@students.iiit.ac.in'
p3588
asbasbasbag61
(g77
g63
NtRp3589
(dp3590
g66
(dp3591
sg75
g3563
sg68
(lp3592
g61
(g82
g63
NtRp3593
(dp3594
g66
(dp3595
g86
g87
ssg75
g3589
sg68
(lp3596
S'first_name'
p3597
asbag61
(g82
g63
NtRp3598
(dp3599
g66
(dp3600
g93
g94
ssg75
g3589
sg68
(lp3601
S':'
asbag61
(g82
g63
NtRp3602
(dp3603
g66
(dp3604
sg75
g3589
sg68
(lp3605
g61
(g62
g63
NtRp3606
(dp3607
g66
(dp3608
g74
I3
ssg75
g3602
sg68
(lp3609
S'piyush'
p3610
asbasbasbag61
(g77
g63
NtRp3611
(dp3612
g66
(dp3613
sg75
g3563
sg68
(lp3614
g61
(g82
g63
NtRp3615
(dp3616
g66
(dp3617
g86
g87
ssg75
g3611
sg68
(lp3618
S'id'
p3619
asbag61
(g82
g63
NtRp3620
(dp3621
g66
(dp3622
g93
g94
ssg75
g3611
sg68
(lp3623
S':'
asbag61
(g82
g63
NtRp3624
(dp3625
g66
(dp3626
sg75
g3611
sg68
(lp3627
g61
(g62
g63
NtRp3628
(dp3629
g66
(dp3630
g74
I3
ssg75
g3624
sg68
(lp3631
S'1'
asbasbasbag61
(g77
g63
NtRp3632
(dp3633
g66
(dp3634
sg75
g3563
sg68
(lp3635
g61
(g82
g63
NtRp3636
(dp3637
g66
(dp3638
g86
g87
ssg75
g3632
sg68
(lp3639
S'last_name'
p3640
asbag61
(g82
g63
NtRp3641
(dp3642
g66
(dp3643
g93
g94
ssg75
g3632
sg68
(lp3644
S':'
asbag61
(g82
g63
NtRp3645
(dp3646
g66
(dp3647
sg75
g3632
sg68
(lp3648
g61
(g62
g63
NtRp3649
(dp3650
g66
(dp3651
g74
I3
ssg75
g3645
sg68
(lp3652
S'bansal'
p3653
asbasbasbag61
(g77
g63
NtRp3654
(dp3655
g66
(dp3656
sg75
g3563
sg68
(lp3657
g61
(g82
g63
NtRp3658
(dp3659
g66
(dp3660
g86
g87
ssg75
g3654
sg68
(lp3661
S'password'
p3662
asbag61
(g82
g63
NtRp3663
(dp3664
g66
(dp3665
g93
g94
ssg75
g3654
sg68
(lp3666
S':'
asbag61
(g82
g63
NtRp3667
(dp3668
g66
(dp3669
sg75
g3654
sg68
(lp3670
g61
(g62
g63
NtRp3671
(dp3672
g66
(dp3673
g74
I3
ssg75
g3667
sg68
(lp3674
S'pbkdf2(1000,20,sha512)$913ba6c957a64f30$d4b59e0f074c5a6d9fd585309ed33902fece40a6'
p3675
asbasbasbag61
(g77
g63
NtRp3676
(dp3677
g66
(dp3678
sg75
g3563
sg68
(lp3679
g61
(g82
g63
NtRp3680
(dp3681
g66
(dp3682
g86
g87
ssg75
g3676
sg68
(lp3683
S'registration_id'
p3684
asbag61
(g82
g63
NtRp3685
(dp3686
g66
(dp3687
g93
g94
ssg75
g3676
sg68
(lp3688
S':'
asbag61
(g82
g63
NtRp3689
(dp3690
g66
(dp3691
sg75
g3676
sg68
(lp3692
g61
(g62
g63
NtRp3693
(dp3694
g66
(dp3695
g74
I3
ssg75
g3689
sg68
(lp3696
S''
asbasbasbag61
(g77
g63
NtRp3697
(dp3698
g66
(dp3699
sg75
g3563
sg68
(lp3700
g61
(g82
g63
NtRp3701
(dp3702
g66
(dp3703
g86
g87
ssg75
g3697
sg68
(lp3704
S'registration_key'
p3705
asbag61
(g82
g63
NtRp3706
(dp3707
g66
(dp3708
g93
g94
ssg75
g3697
sg68
(lp3709
S':'
asbag61
(g82
g63
NtRp3710
(dp3711
g66
(dp3712
sg75
g3697
sg68
(lp3713
g61
(g62
g63
NtRp3714
(dp3715
g66
(dp3716
g74
I3
ssg75
g3710
sg68
(lp3717
S''
asbasbasbag61
(g77
g63
NtRp3718
(dp3719
g66
(dp3720
sg75
g3563
sg68
(lp3721
g61
(g82
g63
NtRp3722
(dp3723
g66
(dp3724
g86
g87
ssg75
g3718
sg68
(lp3725
S'reset_password_key'
p3726
asbag61
(g82
g63
NtRp3727
(dp3728
g66
(dp3729
g93
g94
ssg75
g3718
sg68
(lp3730
S':'
asbag61
(g82
g63
NtRp3731
(dp3732
g66
(dp3733
sg75
g3718
sg68
(lp3734
g61
(g62
g63
NtRp3735
(dp3736
g66
(dp3737
g74
I3
ssg75
g3731
sg68
(lp3738
S''
asbasbasbasbasbasbasbag61
(g77
g63
NtRp3739
(dp3740
g66
(dp3741
sg75
g3451
sg68
(lp3742
g61
(g82
g63
NtRp3743
(dp3744
g66
(dp3745
g86
g87
ssg75
g3739
sg68
(lp3746
S'user_groups'
p3747
asbag61
(g82
g63
NtRp3748
(dp3749
g66
(dp3750
g93
g94
ssg75
g3739
sg68
(lp3751
S':'
asbag61
(g82
g63
NtRp3752
(dp3753
g66
(dp3754
sg75
g3739
sg68
(lp3755
g61
(g62
g63
NtRp3756
(dp3757
g66
(dp3758
g74
I4
ssg75
g3752
sg68
(lp3759
g61
(g70
g63
NtRp3760
(dp3761
g66
(dp3762
g74
I3
ssg75
Nsg68
(lp3763
g61
(g77
g63
NtRp3764
(dp3765
g66
(dp3766
sg75
g3760
sg68
(lp3767
g61
(g82
g63
NtRp3768
(dp3769
g66
(dp3770
g86
g87
ssg75
g3764
sg68
(lp3771
S'1'
asbag61
(g82
g63
NtRp3772
(dp3773
g66
(dp3774
g93
g94
ssg75
g3764
sg68
(lp3775
S':'
asbag61
(g82
g63
NtRp3776
(dp3777
g66
(dp3778
sg75
g3764
sg68
(lp3779
g61
(g62
g63
NtRp3780
(dp3781
g66
(dp3782
g74
I3
ssg75
g3776
sg68
(lp3783
S'user_1'
p3784
asbasbasbasbasbasbasbasbasbasbasbag61
(g77
g63
NtRp3785
(dp3786
g66
(dp3787
sg75
g3426
sg68
(lp3788
g61
(g82
g63
NtRp3789
(dp3790
g66
(dp3791
g86
g87
ssg75
g3785
sg68
(lp3792
S'flash'
p3793
asbag61
(g82
g63
NtRp3794
(dp3795
g66
(dp3796
g93
g94
ssg75
g3785
sg68
(lp3797
S':'
asbag61
(g82
g63
NtRp3798
(dp3799
g66
(dp3800
sg75
g3785
sg68
(lp3801
g61
(g62
g63
NtRp3802
(dp3803
g66
(dp3804
g74
I5
ssg75
g3798
sg68
(lp3805
S'None'
p3806
asbasbasbasbasbsS'etype'
p3807
S"<class 'sqlite3.OperationalError'>"
p3808
sS'date'
p3809
S'Fri Aug 31 14:21:20 2012'
p3810
sS'response'
p3811
g61
(g62
g63
NtRp3812
(dp3813
g66
(dp3814
sg68
(lp3815
g61
(g70
g63
NtRp3816
(dp3817
g66
(dp3818
g74
I5
ssg75
Nsg68
(lp3819
g61
(g77
g63
NtRp3820
(dp3821
g66
(dp3822
sg75
g3816
sg68
(lp3823
g61
(g82
g63
NtRp3824
(dp3825
g66
(dp3826
g86
g87
ssg75
g3820
sg68
(lp3827
g171
asbag61
(g82
g63
NtRp3828
(dp3829
g66
(dp3830
g93
g94
ssg75
g3820
sg68
(lp3831
S':'
asbag61
(g82
g63
NtRp3832
(dp3833
g66
(dp3834
sg75
g3820
sg68
(lp3835
g61
(g62
g63
NtRp3836
(dp3837
g66
(dp3838
g74
I5
ssg75
g3832
sg68
(lp3839
S'<cStringIO.StringO object at 0xad826b60>'
p3840
asbasbasbag61
(g77
g63
NtRp3841
(dp3842
g66
(dp3843
sg75
g3816
sg68
(lp3844
g61
(g82
g63
NtRp3845
(dp3846
g66
(dp3847
g86
g87
ssg75
g3841
sg68
(lp3848
g259
asbag61
(g82
g63
NtRp3849
(dp3850
g66
(dp3851
g93
g94
ssg75
g3841
sg68
(lp3852
S':'
asbag61
(g82
g63
NtRp3853
(dp3854
g66
(dp3855
sg75
g3841
sg68
(lp3856
g61
(g62
g63
NtRp3857
(dp3858
g66
(dp3859
g74
I5
ssg75
g3853
sg68
(lp3860
g61
(g70
g63
NtRp3861
(dp3862
g66
(dp3863
g74
I4
ssg75
Nsg68
(lp3864
g61
(g77
g63
NtRp3865
(dp3866
g66
(dp3867
sg75
g3861
sg68
(lp3868
g61
(g82
g63
NtRp3869
(dp3870
g66
(dp3871
g86
g87
ssg75
g3865
sg68
(lp3872
S'session_id_fotobuk'
p3873
asbag61
(g82
g63
NtRp3874
(dp3875
g66
(dp3876
g93
g94
ssg75
g3865
sg68
(lp3877
S':'
asbag61
(g82
g63
NtRp3878
(dp3879
g66
(dp3880
sg75
g3865
sg68
(lp3881
g61
(g62
g63
NtRp3882
(dp3883
g66
(dp3884
g74
I4
ssg75
g3878
sg68
(lp3885
g491
ag61
(g70
g63
NtRp3886
(dp3887
g66
(dp3888
g74
I3
ssg75
Nsg68
(lp3889
g61
(g77
g63
NtRp3890
(dp3891
g66
(dp3892
sg75
g3886
sg68
(lp3893
g61
(g82
g63
NtRp3894
(dp3895
g66
(dp3896
g86
g87
ssg75
g3890
sg68
(lp3897
g310
asbag61
(g82
g63
NtRp3898
(dp3899
g66
(dp3900
g93
g94
ssg75
g3890
sg68
(lp3901
S':'
asbag61
(g82
g63
NtRp3902
(dp3903
g66
(dp3904
sg75
g3890
sg68
(lp3905
g61
(g62
g63
NtRp3906
(dp3907
g66
(dp3908
g74
I3
ssg75
g3902
sg68
(lp3909
S''
asbasbasbag61
(g77
g63
NtRp3910
(dp3911
g66
(dp3912
sg75
g3886
sg68
(lp3913
g61
(g82
g63
NtRp3914
(dp3915
g66
(dp3916
g86
g87
ssg75
g3910
sg68
(lp3917
g331
asbag61
(g82
g63
NtRp3918
(dp3919
g66
(dp3920
g93
g94
ssg75
g3910
sg68
(lp3921
S':'
asbag61
(g82
g63
NtRp3922
(dp3923
g66
(dp3924
sg75
g3910
sg68
(lp3925
g61
(g62
g63
NtRp3926
(dp3927
g66
(dp3928
g74
I3
ssg75
g3922
sg68
(lp3929
S''
asbasbasbag61
(g77
g63
NtRp3930
(dp3931
g66
(dp3932
sg75
g3886
sg68
(lp3933
g61
(g82
g63
NtRp3934
(dp3935
g66
(dp3936
g86
g87
ssg75
g3930
sg68
(lp3937
g352
asbag61
(g82
g63
NtRp3938
(dp3939
g66
(dp3940
g93
g94
ssg75
g3930
sg68
(lp3941
S':'
asbag61
(g82
g63
NtRp3942
(dp3943
g66
(dp3944
sg75
g3930
sg68
(lp3945
g61
(g62
g63
NtRp3946
(dp3947
g66
(dp3948
g74
I3
ssg75
g3942
sg68
(lp3949
S''
asbasbasbag61
(g77
g63
NtRp3950
(dp3951
g66
(dp3952
sg75
g3886
sg68
(lp3953
g61
(g82
g63
NtRp3954
(dp3955
g66
(dp3956
g86
g87
ssg75
g3950
sg68
(lp3957
g373
asbag61
(g82
g63
NtRp3958
(dp3959
g66
(dp3960
g93
g94
ssg75
g3950
sg68
(lp3961
S':'
asbag61
(g82
g63
NtRp3962
(dp3963
g66
(dp3964
sg75
g3950
sg68
(lp3965
g61
(g62
g63
NtRp3966
(dp3967
g66
(dp3968
g74
I3
ssg75
g3962
sg68
(lp3969
S''
asbasbasbag61
(g77
g63
NtRp3970
(dp3971
g66
(dp3972
sg75
g3886
sg68
(lp3973
g61
(g82
g63
NtRp3974
(dp3975
g66
(dp3976
g86
g87
ssg75
g3970
sg68
(lp3977
g394
asbag61
(g82
g63
NtRp3978
(dp3979
g66
(dp3980
g93
g94
ssg75
g3970
sg68
(lp3981
S':'
asbag61
(g82
g63
NtRp3982
(dp3983
g66
(dp3984
sg75
g3970
sg68
(lp3985
g61
(g62
g63
NtRp3986
(dp3987
g66
(dp3988
g74
I3
ssg75
g3982
sg68
(lp3989
S''
asbasbasbag61
(g77
g63
NtRp3990
(dp3991
g66
(dp3992
sg75
g3886
sg68
(lp3993
g61
(g82
g63
NtRp3994
(dp3995
g66
(dp3996
g86
g87
ssg75
g3990
sg68
(lp3997
g415
asbag61
(g82
g63
NtRp3998
(dp3999
g66
(dp4000
g93
g94
ssg75
g3990
sg68
(lp4001
S':'
asbag61
(g82
g63
NtRp4002
(dp4003
g66
(dp4004
sg75
g3990
sg68
(lp4005
g61
(g62
g63
NtRp4006
(dp4007
g66
(dp4008
g74
I3
ssg75
g4002
sg68
(lp4009
S'/'
asbasbasbag61
(g77
g63
NtRp4010
(dp4011
g66
(dp4012
sg75
g3886
sg68
(lp4013
g61
(g82
g63
NtRp4014
(dp4015
g66
(dp4016
g86
g87
ssg75
g4010
sg68
(lp4017
g436
asbag61
(g82
g63
NtRp4018
(dp4019
g66
(dp4020
g93
g94
ssg75
g4010
sg68
(lp4021
S':'
asbag61
(g82
g63
NtRp4022
(dp4023
g66
(dp4024
sg75
g4010
sg68
(lp4025
g61
(g62
g63
NtRp4026
(dp4027
g66
(dp4028
g74
I3
ssg75
g4022
sg68
(lp4029
S''
asbasbasbag61
(g77
g63
NtRp4030
(dp4031
g66
(dp4032
sg75
g3886
sg68
(lp4033
g61
(g82
g63
NtRp4034
(dp4035
g66
(dp4036
g86
g87
ssg75
g4030
sg68
(lp4037
g457
asbag61
(g82
g63
NtRp4038
(dp4039
g66
(dp4040
g93
g94
ssg75
g4030
sg68
(lp4041
S':'
asbag61
(g82
g63
NtRp4042
(dp4043
g66
(dp4044
sg75
g4030
sg68
(lp4045
g61
(g62
g63
NtRp4046
(dp4047
g66
(dp4048
g74
I3
ssg75
g4042
sg68
(lp4049
S''
asbasbasbasbasbasbasbasbasbasbasbag61
(g77
g63
NtRp4050
(dp4051
g66
(dp4052
sg75
g3816
sg68
(lp4053
g61
(g82
g63
NtRp4054
(dp4055
g66
(dp4056
g86
g87
ssg75
g4050
sg68
(lp4057
S'delimiters'
p4058
asbag61
(g82
g63
NtRp4059
(dp4060
g66
(dp4061
g93
g94
ssg75
g4050
sg68
(lp4062
S':'
asbag61
(g82
g63
NtRp4063
(dp4064
g66
(dp4065
sg75
g4050
sg68
(lp4066
g61
(g62
g63
NtRp4067
(dp4068
g66
(dp4069
g74
I5
ssg75
g4063
sg68
(lp4070
g61
(g70
g63
NtRp4071
(dp4072
g66
(dp4073
g74
I4
ssg75
Nsg68
(lp4074
g61
(g77
g63
NtRp4075
(dp4076
g66
(dp4077
sg75
g4071
sg68
(lp4078
g61
(g82
g63
NtRp4079
(dp4080
g66
(dp4081
sg75
g4075
sg68
(lp4082
g61
(g62
g63
NtRp4083
(dp4084
g66
(dp4085
g74
I4
ssg75
g4079
sg68
(lp4086
S'{{'
p4087
asbasbasbag61
(g77
g63
NtRp4088
(dp4089
g66
(dp4090
sg75
g4071
sg68
(lp4091
g61
(g82
g63
NtRp4092
(dp4093
g66
(dp4094
sg75
g4088
sg68
(lp4095
g61
(g62
g63
NtRp4096
(dp4097
g66
(dp4098
g74
I4
ssg75
g4092
sg68
(lp4099
S'}}'
p4100
asbasbasbasbasbasbasbag61
(g77
g63
NtRp4101
(dp4102
g66
(dp4103
sg75
g3816
sg68
(lp4104
g61
(g82
g63
NtRp4105
(dp4106
g66
(dp4107
g86
g87
ssg75
g4101
sg68
(lp4108
S'files'
p4109
asbag61
(g82
g63
NtRp4110
(dp4111
g66
(dp4112
g93
g94
ssg75
g4101
sg68
(lp4113
S':'
asbag61
(g82
g63
NtRp4114
(dp4115
g66
(dp4116
sg75
g4101
sg68
(lp4117
g61
(g62
g63
NtRp4118
(dp4119
g66
(dp4120
g74
I5
ssg75
g4114
sg68
(lp4121
g61
(g70
g63
NtRp4122
(dp4123
g66
(dp4124
g74
I4
ssg75
Nsg68
(lp4125
sbasbasbasbag61
(g77
g63
NtRp4126
(dp4127
g66
(dp4128
sg75
g3816
sg68
(lp4129
g61
(g82
g63
NtRp4130
(dp4131
g66
(dp4132
g86
g87
ssg75
g4126
sg68
(lp4133
S'flash'
p4134
asbag61
(g82
g63
NtRp4135
(dp4136
g66
(dp4137
g93
g94
ssg75
g4126
sg68
(lp4138
S':'
asbag61
(g82
g63
NtRp4139
(dp4140
g66
(dp4141
sg75
g4126
sg68
(lp4142
g61
(g62
g63
NtRp4143
(dp4144
g66
(dp4145
g74
I5
ssg75
g4139
sg68
(lp4146
S''
asbasbasbag61
(g77
g63
NtRp4147
(dp4148
g66
(dp4149
sg75
g3816
sg68
(lp4150
g61
(g82
g63
NtRp4151
(dp4152
g66
(dp4153
g86
g87
ssg75
g4147
sg68
(lp4154
S'generic_patterns'
p4155
asbag61
(g82
g63
NtRp4156
(dp4157
g66
(dp4158
g93
g94
ssg75
g4147
sg68
(lp4159
S':'
asbag61
(g82
g63
NtRp4160
(dp4161
g66
(dp4162
sg75
g4147
sg68
(lp4163
g61
(g62
g63
NtRp4164
(dp4165
g66
(dp4166
g74
I5
ssg75
g4160
sg68
(lp4167
g61
(g70
g63
NtRp4168
(dp4169
g66
(dp4170
g74
I4
ssg75
Nsg68
(lp4171
sbasbasbasbag61
(g77
g63
NtRp4172
(dp4173
g66
(dp4174
sg75
g3816
sg68
(lp4175
g61
(g82
g63
NtRp4176
(dp4177
g66
(dp4178
g86
g87
ssg75
g4172
sg68
(lp4179
S'google_analytics_id'
p4180
asbag61
(g82
g63
NtRp4181
(dp4182
g66
(dp4183
g93
g94
ssg75
g4172
sg68
(lp4184
S':'
asbag61
(g82
g63
NtRp4185
(dp4186
g66
(dp4187
sg75
g4172
sg68
(lp4188
g61
(g62
g63
NtRp4189
(dp4190
g66
(dp4191
g74
I5
ssg75
g4185
sg68
(lp4192
S'None'
p4193
asbasbasbag61
(g77
g63
NtRp4194
(dp4195
g66
(dp4196
sg75
g3816
sg68
(lp4197
g61
(g82
g63
NtRp4198
(dp4199
g66
(dp4200
g86
g87
ssg75
g4194
sg68
(lp4201
S'headers'
p4202
asbag61
(g82
g63
NtRp4203
(dp4204
g66
(dp4205
g93
g94
ssg75
g4194
sg68
(lp4206
S':'
asbag61
(g82
g63
NtRp4207
(dp4208
g66
(dp4209
sg75
g4194
sg68
(lp4210
g61
(g62
g63
NtRp4211
(dp4212
g66
(dp4213
g74
I5
ssg75
g4207
sg68
(lp4214
g61
(g70
g63
NtRp4215
(dp4216
g66
(dp4217
g74
I4
ssg75
Nsg68
(lp4218
g61
(g77
g63
NtRp4219
(dp4220
g66
(dp4221
sg75
g4215
sg68
(lp4222
g61
(g82
g63
NtRp4223
(dp4224
g66
(dp4225
g86
g87
ssg75
g4219
sg68
(lp4226
S'Cache-Control'
p4227
asbag61
(g82
g63
NtRp4228
(dp4229
g66
(dp4230
g93
g94
ssg75
g4219
sg68
(lp4231
S':'
asbag61
(g82
g63
NtRp4232
(dp4233
g66
(dp4234
sg75
g4219
sg68
(lp4235
g61
(g62
g63
NtRp4236
(dp4237
g66
(dp4238
g74
I4
ssg75
g4232
sg68
(lp4239
S'no-store, no-cache, must-revalidate, post-check=0, pre-check=0'
p4240
asbasbasbag61
(g77
g63
NtRp4241
(dp4242
g66
(dp4243
sg75
g4215
sg68
(lp4244
g61
(g82
g63
NtRp4245
(dp4246
g66
(dp4247
g86
g87
ssg75
g4241
sg68
(lp4248
S'Content-Type'
p4249
asbag61
(g82
g63
NtRp4250
(dp4251
g66
(dp4252
g93
g94
ssg75
g4241
sg68
(lp4253
S':'
asbag61
(g82
g63
NtRp4254
(dp4255
g66
(dp4256
sg75
g4241
sg68
(lp4257
g61
(g62
g63
NtRp4258
(dp4259
g66
(dp4260
g74
I4
ssg75
g4254
sg68
(lp4261
S'text/html; charset=utf-8'
p4262
asbasbasbag61
(g77
g63
NtRp4263
(dp4264
g66
(dp4265
sg75
g4215
sg68
(lp4266
g61
(g82
g63
NtRp4267
(dp4268
g66
(dp4269
g86
g87
ssg75
g4263
sg68
(lp4270
S'Expires'
p4271
asbag61
(g82
g63
NtRp4272
(dp4273
g66
(dp4274
g93
g94
ssg75
g4263
sg68
(lp4275
S':'
asbag61
(g82
g63
NtRp4276
(dp4277
g66
(dp4278
sg75
g4263
sg68
(lp4279
g61
(g62
g63
NtRp4280
(dp4281
g66
(dp4282
g74
I4
ssg75
g4276
sg68
(lp4283
S'Fri, 31 Aug 2012 08:51:20 GMT'
p4284
asbasbasbag61
(g77
g63
NtRp4285
(dp4286
g66
(dp4287
sg75
g4215
sg68
(lp4288
g61
(g82
g63
NtRp4289
(dp4290
g66
(dp4291
g86
g87
ssg75
g4285
sg68
(lp4292
S'Pragma'
p4293
asbag61
(g82
g63
NtRp4294
(dp4295
g66
(dp4296
g93
g94
ssg75
g4285
sg68
(lp4297
S':'
asbag61
(g82
g63
NtRp4298
(dp4299
g66
(dp4300
sg75
g4285
sg68
(lp4301
g61
(g62
g63
NtRp4302
(dp4303
g66
(dp4304
g74
I4
ssg75
g4298
sg68
(lp4305
S'no-cache'
p4306
asbasbasbag61
(g77
g63
NtRp4307
(dp4308
g66
(dp4309
sg75
g4215
sg68
(lp4310
g61
(g82
g63
NtRp4311
(dp4312
g66
(dp4313
g86
g87
ssg75
g4307
sg68
(lp4314
S'X-Powered-By'
p4315
asbag61
(g82
g63
NtRp4316
(dp4317
g66
(dp4318
g93
g94
ssg75
g4307
sg68
(lp4319
S':'
asbag61
(g82
g63
NtRp4320
(dp4321
g66
(dp4322
sg75
g4307
sg68
(lp4323
g61
(g62
g63
NtRp4324
(dp4325
g66
(dp4326
g74
I4
ssg75
g4320
sg68
(lp4327
S'web2py'
p4328
asbasbasbasbasbasbasbag61
(g77
g63
NtRp4329
(dp4330
g66
(dp4331
sg75
g3816
sg68
(lp4332
g61
(g82
g63
NtRp4333
(dp4334
g66
(dp4335
g86
g87
ssg75
g4329
sg68
(lp4336
S'menu'
p4337
asbag61
(g82
g63
NtRp4338
(dp4339
g66
(dp4340
g93
g94
ssg75
g4329
sg68
(lp4341
S':'
asbag61
(g82
g63
NtRp4342
(dp4343
g66
(dp4344
sg75
g4329
sg68
(lp4345
g61
(g62
g63
NtRp4346
(dp4347
g66
(dp4348
g74
I5
ssg75
g4342
sg68
(lp4349
g61
(g70
g63
NtRp4350
(dp4351
g66
(dp4352
g74
I4
ssg75
Nsg68
(lp4353
g61
(g77
g63
NtRp4354
(dp4355
g66
(dp4356
sg75
g4350
sg68
(lp4357
g61
(g82
g63
NtRp4358
(dp4359
g66
(dp4360
sg75
g4354
sg68
(lp4361
g61
(g62
g63
NtRp4362
(dp4363
g66
(dp4364
g74
I4
ssg75
g4358
sg68
(lp4365
g61
(g70
g63
NtRp4366
(dp4367
g66
(dp4368
g74
I3
ssg75
Nsg68
(lp4369
g61
(g77
g63
NtRp4370
(dp4371
g66
(dp4372
sg75
g4366
sg68
(lp4373
g61
(g82
g63
NtRp4374
(dp4375
g66
(dp4376
sg75
g4370
sg68
(lp4377
g61
(g62
g63
NtRp4378
(dp4379
g66
(dp4380
g74
I3
ssg75
g4374
sg68
(lp4381
cgluon.languages
lazyT_unpickle
p4382
(S's\x04\x00\x00\x00Home'
tRp4383
asbasbasbag61
(g77
g63
NtRp4384
(dp4385
g66
(dp4386
sg75
g4366
sg68
(lp4387
g61
(g82
g63
NtRp4388
(dp4389
g66
(dp4390
sg75
g4384
sg68
(lp4391
g61
(g62
g63
NtRp4392
(dp4393
g66
(dp4394
g74
I3
ssg75
g4388
sg68
(lp4395
g104
asbasbasbag61
(g77
g63
NtRp4396
(dp4397
g66
(dp4398
sg75
g4366
sg68
(lp4399
g61
(g82
g63
NtRp4400
(dp4401
g66
(dp4402
sg75
g4396
sg68
(lp4403
g61
(g62
g63
NtRp4404
(dp4405
g66
(dp4406
g74
I3
ssg75
g4400
sg68
(lp4407
S'/FotoBuk/default/index'
p4408
asbasbasbag61
(g77
g63
NtRp4409
(dp4410
g66
(dp4411
sg75
g4366
sg68
(lp4412
g61
(g82
g63
NtRp4413
(dp4414
g66
(dp4415
sg75
g4409
sg68
(lp4416
g61
(g62
g63
NtRp4417
(dp4418
g66
(dp4419
g74
I3
ssg75
g4413
sg68
(lp4420
g61
(g70
g63
NtRp4421
(dp4422
g66
(dp4423
g74
I2
ssg75
Nsg68
(lp4424
sbasbasbasbasbasbasbasbag61
(g77
g63
NtRp4425
(dp4426
g66
(dp4427
sg75
g4350
sg68
(lp4428
g61
(g82
g63
NtRp4429
(dp4430
g66
(dp4431
sg75
g4425
sg68
(lp4432
g61
(g62
g63
NtRp4433
(dp4434
g66
(dp4435
g74
I4
ssg75
g4429
sg68
(lp4436
g61
(g70
g63
NtRp4437
(dp4438
g66
(dp4439
g74
I3
ssg75
Nsg68
(lp4440
g61
(g77
g63
NtRp4441
(dp4442
g66
(dp4443
sg75
g4437
sg68
(lp4444
g61
(g82
g63
NtRp4445
(dp4446
g66
(dp4447
sg75
g4441
sg68
(lp4448
g61
(g62
g63
NtRp4449
(dp4450
g66
(dp4451
g74
I3
ssg75
g4445
sg68
(lp4452
g61
(cgluon.html
SPAN
p4453
g63
NtRp4454
(dp4455
g66
(dp4456
g86
S'color:yellow'
p4457
ssg75
Nsg68
(lp4458
g4328
asbasbasbasbag61
(g77
g63
NtRp4459
(dp4460
g66
(dp4461
sg75
g4437
sg68
(lp4462
g61
(g82
g63
NtRp4463
(dp4464
g66
(dp4465
sg75
g4459
sg68
(lp4466
g61
(g62
g63
NtRp4467
(dp4468
g66
(dp4469
g74
I3
ssg75
g4463
sg68
(lp4470
g104
asbasbasbag61
(g77
g63
NtRp4471
(dp4472
g66
(dp4473
sg75
g4437
sg68
(lp4474
g61
(g82
g63
NtRp4475
(dp4476
g66
(dp4477
sg75
g4471
sg68
(lp4478
g61
(g62
g63
NtRp4479
(dp4480
g66
(dp4481
g74
I3
ssg75
g4475
sg68
(lp4482
S'http://web2py.com'
p4483
asbasbasbag61
(g77
g63
NtRp4484
(dp4485
g66
(dp4486
sg75
g4437
sg68
(lp4487
g61
(g82
g63
NtRp4488
(dp4489
g66
(dp4490
sg75
g4484
sg68
(lp4491
g61
(g62
g63
NtRp4492
(dp4493
g66
(dp4494
g74
I3
ssg75
g4488
sg68
(lp4495
g61
(g70
g63
NtRp4496
(dp4497
g66
(dp4498
g74
I2
ssg75
Nsg68
(lp4499
g61
(g77
g63
NtRp4500
(dp4501
g66
(dp4502
sg75
g4496
sg68
(lp4503
g61
(g82
g63
NtRp4504
(dp4505
g66
(dp4506
sg75
g4500
sg68
(lp4507
g61
(g62
g63
NtRp4508
(dp4509
g66
(dp4510
g74
I2
ssg75
g4504
sg68
(lp4511
g61
(g70
g63
NtRp4512
(dp4513
g66
(dp4514
g74
I1
ssg75
Nsg68
(lp4515
g61
(g77
g63
NtRp4516
(dp4517
g66
(dp4518
sg75
g4512
sg68
(lp4519
g61
(g82
g63
NtRp4520
(dp4521
g66
(dp4522
sg75
g4516
sg68
(lp4523
g61
(g62
g63
NtRp4524
(dp4525
g66
(dp4526
g74
I1
ssg75
g4520
sg68
(lp4527
g4382
(S's\x08\x00\x00\x00My Sites'
tRp4528
asbasbasbag61
(g77
g63
NtRp4529
(dp4530
g66
(dp4531
sg75
g4512
sg68
(lp4532
g61
(g82
g63
NtRp4533
(dp4534
g66
(dp4535
sg75
g4529
sg68
(lp4536
g61
(g62
g63
NtRp4537
(dp4538
g66
(dp4539
g74
I1
ssg75
g4533
sg68
(lp4540
I00
asbasbasbag61
(g77
g63
NtRp4541
(dp4542
g66
(dp4543
sg75
g4512
sg68
(lp4544
g61
(g82
g63
NtRp4545
(dp4546
g66
(dp4547
sg75
g4541
sg68
(lp4548
g61
(g62
g63
NtRp4549
(dp4550
g66
(dp4551
g74
I1
ssg75
g4545
sg68
(lp4552
S'/admin/default/site'
p4553
asbasbasbasbasbasbasbag61
(g77
g63
NtRp4554
(dp4555
g66
(dp4556
sg75
g4496
sg68
(lp4557
g61
(g82
g63
NtRp4558
(dp4559
g66
(dp4560
sg75
g4554
sg68
(lp4561
g61
(g62
g63
NtRp4562
(dp4563
g66
(dp4564
g74
I2
ssg75
g4558
sg68
(lp4565
g61
(g70
g63
NtRp4566
(dp4567
g66
(dp4568
g74
I1
ssg75
Nsg68
(lp4569
g61
(g77
g63
NtRp4570
(dp4571
g66
(dp4572
sg75
g4566
sg68
(lp4573
g61
(g82
g63
NtRp4574
(dp4575
g66
(dp4576
sg75
g4570
sg68
(lp4577
g61
(g62
g63
NtRp4578
(dp4579
g66
(dp4580
g74
I1
ssg75
g4574
sg68
(lp4581
g4382
(S's\x08\x00\x00\x00This App'
tRp4582
asbasbasbag61
(g77
g63
NtRp4583
(dp4584
g66
(dp4585
sg75
g4566
sg68
(lp4586
g61
(g82
g63
NtRp4587
(dp4588
g66
(dp4589
sg75
g4583
sg68
(lp4590
g61
(g62
g63
NtRp4591
(dp4592
g66
(dp4593
g74
I1
ssg75
g4587
sg68
(lp4594
I00
asbasbasbag61
(g77
g63
NtRp4595
(dp4596
g66
(dp4597
sg75
g4566
sg68
(lp4598
g61
(g82
g63
NtRp4599
(dp4600
g66
(dp4601
sg75
g4595
sg68
(lp4602
g61
(g62
g63
NtRp4603
(dp4604
g66
(dp4605
g74
I1
ssg75
g4599
sg68
(lp4606
S'/admin/default/design/FotoBuk'
p4607
asbasbasbag61
(g77
g63
NtRp4608
(dp4609
g66
(dp4610
sg75
g4566
sg68
(lp4611
g61
(g82
g63
NtRp4612
(dp4613
g66
(dp4614
sg75
g4608
sg68
(lp4615
g61
(g62
g63
NtRp4616
(dp4617
g66
(dp4618
g74
I1
ssg75
g4612
sg68
(lp4619
(lp4620
(g4382
(S's\n\x00\x00\x00Controller'
tRp4621
I00
S'/admin/default/edit/FotoBuk/controllers/default.py'
tp4622
a(g4382
(S's\x04\x00\x00\x00View'
tRp4623
I00
S'/admin/default/edit/FotoBuk/views/default/show.html'
tp4624
a(g4382
(S's\x06\x00\x00\x00Layout'
tRp4625
I00
S'/admin/default/edit/FotoBuk/views/layout.html'
tp4626
a(g4382
(S's\n\x00\x00\x00Stylesheet'
tRp4627
I00
S'/admin/default/edit/FotoBuk/static/css/web2py.css'
tp4628
a(g4382
(S's\x08\x00\x00\x00DB Model'
tRp4629
I00
S'/admin/default/edit/FotoBuk/models/db.py'
tp4630
a(g4382
(S's\n\x00\x00\x00Menu Model'
tRp4631
I00
S'/admin/default/edit/FotoBuk/models/menu.py'
tp4632
a(g4382
(S's\x08\x00\x00\x00Database'
tRp4633
I00
S'/FotoBuk/appadmin/index'
tp4634
a(g4382
(S's\x06\x00\x00\x00Errors'
tRp4635
I00
S'/admin/default/errors/FotoBuk'
tp4636
a(g4382
(S's\x05\x00\x00\x00About'
tRp4637
I00
S'/admin/default/about/FotoBuk'
tp4638
aasbasbasbasbasbasbasbag61
(g77
g63
NtRp4639
(dp4640
g66
(dp4641
sg75
g4496
sg68
(lp4642
g61
(g82
g63
NtRp4643
(dp4644
g66
(dp4645
sg75
g4639
sg68
(lp4646
g61
(g62
g63
NtRp4647
(dp4648
g66
(dp4649
g74
I2
ssg75
g4643
sg68
(lp4650
g61
(g70
g63
NtRp4651
(dp4652
g66
(dp4653
g74
I1
ssg75
Nsg68
(lp4654
g61
(g77
g63
NtRp4655
(dp4656
g66
(dp4657
sg75
g4651
sg68
(lp4658
g61
(g82
g63
NtRp4659
(dp4660
g66
(dp4661
sg75
g4655
sg68
(lp4662
g61
(g62
g63
NtRp4663
(dp4664
g66
(dp4665
g74
I1
ssg75
g4659
sg68
(lp4666
S'web2py.com'
p4667
asbasbasbag61
(g77
g63
NtRp4668
(dp4669
g66
(dp4670
sg75
g4651
sg68
(lp4671
g61
(g82
g63
NtRp4672
(dp4673
g66
(dp4674
sg75
g4668
sg68
(lp4675
g61
(g62
g63
NtRp4676
(dp4677
g66
(dp4678
g74
I1
ssg75
g4672
sg68
(lp4679
I00
asbasbasbag61
(g77
g63
NtRp4680
(dp4681
g66
(dp4682
sg75
g4651
sg68
(lp4683
g61
(g82
g63
NtRp4684
(dp4685
g66
(dp4686
sg75
g4680
sg68
(lp4687
g61
(g62
g63
NtRp4688
(dp4689
g66
(dp4690
g74
I1
ssg75
g4684
sg68
(lp4691
S'http://www.web2py.com'
p4692
asbasbasbag61
(g77
g63
NtRp4693
(dp4694
g66
(dp4695
sg75
g4651
sg68
(lp4696
g61
(g82
g63
NtRp4697
(dp4698
g66
(dp4699
sg75
g4693
sg68
(lp4700
g61
(g62
g63
NtRp4701
(dp4702
g66
(dp4703
g74
I1
ssg75
g4697
sg68
(lp4704
(lp4705
(g4382
(S's\x08\x00\x00\x00Download'
tRp4706
I00
S'http://www.web2py.com/examples/default/download'
p4707
tp4708
a(g4382
(S's\x07\x00\x00\x00Support'
tRp4709
I00
S'http://www.web2py.com/examples/default/support'
p4710
tp4711
a(g4382
(S's\x04\x00\x00\x00Demo'
tRp4712
I00
S'http://web2py.com/demo_admin'
p4713
tp4714
a(g4382
(S's\x0e\x00\x00\x00Quick Examples'
tRp4715
I00
S'http://web2py.com/examples/default/examples'
p4716
tp4717
a(g4382
(S's\x03\x00\x00\x00FAQ'
tRp4718
I00
S'http://web2py.com/AlterEgo'
p4719
tp4720
a(g4382
(S's\x06\x00\x00\x00Videos'
tRp4721
I00
S'http://www.web2py.com/examples/default/videos/'
p4722
tp4723
a(g4382
(S's\x11\x00\x00\x00Free Applications'
tRp4724
I00
S'http://web2py.com/appliances'
p4725
tp4726
a(g4382
(S's\x07\x00\x00\x00Plugins'
tRp4727
I00
S'http://web2py.com/plugins'
p4728
tp4729
a(g4382
(S's\x07\x00\x00\x00Layouts'
tRp4730
I00
S'http://web2py.com/layouts'
p4731
tp4732
a(g4382
(S's\x07\x00\x00\x00Recipes'
tRp4733
I00
S'http://web2pyslices.com/'
p4734
tp4735
a(g4382
(S's\x08\x00\x00\x00Semantic'
tRp4736
I00
S'http://web2py.com/semantic'
p4737
tp4738
aasbasbasbasbasbasbasbag61
(g77
g63
NtRp4739
(dp4740
g66
(dp4741
sg75
g4496
sg68
(lp4742
g61
(g82
g63
NtRp4743
(dp4744
g66
(dp4745
sg75
g4739
sg68
(lp4746
g61
(g62
g63
NtRp4747
(dp4748
g66
(dp4749
g74
I2
ssg75
g4743
sg68
(lp4750
g61
(g70
g63
NtRp4751
(dp4752
g66
(dp4753
g74
I1
ssg75
Nsg68
(lp4754
g61
(g77
g63
NtRp4755
(dp4756
g66
(dp4757
sg75
g4751
sg68
(lp4758
g61
(g82
g63
NtRp4759
(dp4760
g66
(dp4761
sg75
g4755
sg68
(lp4762
g61
(g62
g63
NtRp4763
(dp4764
g66
(dp4765
g74
I1
ssg75
g4759
sg68
(lp4766
g4382
(S's\r\x00\x00\x00Documentation'
tRp4767
asbasbasbag61
(g77
g63
NtRp4768
(dp4769
g66
(dp4770
sg75
g4751
sg68
(lp4771
g61
(g82
g63
NtRp4772
(dp4773
g66
(dp4774
sg75
g4768
sg68
(lp4775
g61
(g62
g63
NtRp4776
(dp4777
g66
(dp4778
g74
I1
ssg75
g4772
sg68
(lp4779
I00
asbasbasbag61
(g77
g63
NtRp4780
(dp4781
g66
(dp4782
sg75
g4751
sg68
(lp4783
g61
(g82
g63
NtRp4784
(dp4785
g66
(dp4786
sg75
g4780
sg68
(lp4787
g61
(g62
g63
NtRp4788
(dp4789
g66
(dp4790
g74
I1
ssg75
g4784
sg68
(lp4791
S'http://www.web2py.com/book'
p4792
asbasbasbag61
(g77
g63
NtRp4793
(dp4794
g66
(dp4795
sg75
g4751
sg68
(lp4796
g61
(g82
g63
NtRp4797
(dp4798
g66
(dp4799
sg75
g4793
sg68
(lp4800
g61
(g62
g63
NtRp4801
(dp4802
g66
(dp4803
g74
I1
ssg75
g4797
sg68
(lp4804
(lp4805
(g4382
(S's\x07\x00\x00\x00Preface'
tRp4806
I00
S'http://www.web2py.com/book/default/chapter/00'
p4807
tp4808
a(g4382
(S's\x0c\x00\x00\x00Introduction'
tRp4809
I00
S'http://www.web2py.com/book/default/chapter/01'
p4810
tp4811
a(g4382
(S's\x06\x00\x00\x00Python'
tRp4812
I00
S'http://www.web2py.com/book/default/chapter/02'
p4813
tp4814
a(g4382
(S's\x08\x00\x00\x00Overview'
tRp4815
I00
S'http://www.web2py.com/book/default/chapter/03'
p4816
tp4817
a(g4382
(S's\x08\x00\x00\x00The Core'
tRp4818
I00
S'http://www.web2py.com/book/default/chapter/04'
p4819
tp4820
a(g4382
(S's\t\x00\x00\x00The Views'
tRp4821
I00
S'http://www.web2py.com/book/default/chapter/05'
p4822
tp4823
a(g4382
(S's\x08\x00\x00\x00Database'
tRp4824
I00
S'http://www.web2py.com/book/default/chapter/06'
p4825
tp4826
a(g4382
(S's\x14\x00\x00\x00Forms and Validators'
tRp4827
I00
S'http://www.web2py.com/book/default/chapter/07'
p4828
tp4829
a(g4382
(S's\r\x00\x00\x00Email and SMS'
tRp4830
I00
S'http://www.web2py.com/book/default/chapter/08'
p4831
tp4832
a(g4382
(S's\x0e\x00\x00\x00Access Control'
tRp4833
I00
S'http://www.web2py.com/book/default/chapter/09'
p4834
tp4835
a(g4382
(S's\x08\x00\x00\x00Services'
tRp4836
I00
S'http://www.web2py.com/book/default/chapter/10'
p4837
tp4838
a(g4382
(S's\x0c\x00\x00\x00Ajax Recipes'
tRp4839
I00
S'http://www.web2py.com/book/default/chapter/11'
p4840
tp4841
a(g4382
(S's\x16\x00\x00\x00Components and Plugins'
tRp4842
I00
S'http://www.web2py.com/book/default/chapter/12'
p4843
tp4844
a(g4382
(S's\x12\x00\x00\x00Deployment Recipes'
tRp4845
I00
S'http://www.web2py.com/book/default/chapter/13'
p4846
tp4847
a(g4382
(S's\r\x00\x00\x00Other Recipes'
tRp4848
I00
S'http://www.web2py.com/book/default/chapter/14'
p4849
tp4850
a(g4382
(S's\r\x00\x00\x00Buy this book'
tRp4851
I00
S'http://stores.lulu.com/web2py'
p4852
tp4853
aasbasbasbasbasbasbasbag61
(g77
g63
NtRp4854
(dp4855
g66
(dp4856
sg75
g4496
sg68
(lp4857
g61
(g82
g63
NtRp4858
(dp4859
g66
(dp4860
sg75
g4854
sg68
(lp4861
g61
(g62
g63
NtRp4862
(dp4863
g66
(dp4864
g74
I2
ssg75
g4858
sg68
(lp4865
g61
(g70
g63
NtRp4866
(dp4867
g66
(dp4868
g74
I1
ssg75
Nsg68
(lp4869
g61
(g77
g63
NtRp4870
(dp4871
g66
(dp4872
sg75
g4866
sg68
(lp4873
g61
(g82
g63
NtRp4874
(dp4875
g66
(dp4876
sg75
g4870
sg68
(lp4877
g61
(g62
g63
NtRp4878
(dp4879
g66
(dp4880
g74
I1
ssg75
g4874
sg68
(lp4881
g4382
(S's\t\x00\x00\x00Community'
tRp4882
asbasbasbag61
(g77
g63
NtRp4883
(dp4884
g66
(dp4885
sg75
g4866
sg68
(lp4886
g61
(g82
g63
NtRp4887
(dp4888
g66
(dp4889
sg75
g4883
sg68
(lp4890
g61
(g62
g63
NtRp4891
(dp4892
g66
(dp4893
g74
I1
ssg75
g4887
sg68
(lp4894
I00
asbasbasbag61
(g77
g63
NtRp4895
(dp4896
g66
(dp4897
sg75
g4866
sg68
(lp4898
g61
(g82
g63
NtRp4899
(dp4900
g66
(dp4901
sg75
g4895
sg68
(lp4902
g61
(g62
g63
NtRp4903
(dp4904
g66
(dp4905
g74
I1
ssg75
g4899
sg68
(lp4906
Nasbasbasbag61
(g77
g63
NtRp4907
(dp4908
g66
(dp4909
sg75
g4866
sg68
(lp4910
g61
(g82
g63
NtRp4911
(dp4912
g66
(dp4913
sg75
g4907
sg68
(lp4914
g61
(g62
g63
NtRp4915
(dp4916
g66
(dp4917
g74
I1
ssg75
g4911
sg68
(lp4918
(lp4919
(g4382
(S's\x06\x00\x00\x00Groups'
tRp4920
I00
S'http://www.web2py.com/examples/default/usergroups'
p4921
tp4922
a(g4382
(S's\x07\x00\x00\x00Twitter'
tRp4923
I00
S'http://twitter.com/web2py'
p4924
tp4925
a(g4382
(S's\t\x00\x00\x00Live Chat'
tRp4926
I00
S'http://webchat.freenode.net/?channels=web2py'
p4927
tp4928
aasbasbasbasbasbasbasbag61
(g77
g63
NtRp4929
(dp4930
g66
(dp4931
sg75
g4496
sg68
(lp4932
g61
(g82
g63
NtRp4933
(dp4934
g66
(dp4935
sg75
g4929
sg68
(lp4936
g61
(g62
g63
NtRp4937
(dp4938
g66
(dp4939
g74
I2
ssg75
g4933
sg68
(lp4940
g61
(g70
g63
NtRp4941
(dp4942
g66
(dp4943
g74
I1
ssg75
Nsg68
(lp4944
g61
(g77
g63
NtRp4945
(dp4946
g66
(dp4947
sg75
g4941
sg68
(lp4948
g61
(g82
g63
NtRp4949
(dp4950
g66
(dp4951
sg75
g4945
sg68
(lp4952
g61
(g62
g63
NtRp4953
(dp4954
g66
(dp4955
g74
I1
ssg75
g4949
sg68
(lp4956
g4382
(S's\x07\x00\x00\x00Plugins'
tRp4957
asbasbasbag61
(g77
g63
NtRp4958
(dp4959
g66
(dp4960
sg75
g4941
sg68
(lp4961
g61
(g82
g63
NtRp4962
(dp4963
g66
(dp4964
sg75
g4958
sg68
(lp4965
g61
(g62
g63
NtRp4966
(dp4967
g66
(dp4968
g74
I1
ssg75
g4962
sg68
(lp4969
I00
asbasbasbag61
(g77
g63
NtRp4970
(dp4971
g66
(dp4972
sg75
g4941
sg68
(lp4973
g61
(g82
g63
NtRp4974
(dp4975
g66
(dp4976
sg75
g4970
sg68
(lp4977
g61
(g62
g63
NtRp4978
(dp4979
g66
(dp4980
g74
I1
ssg75
g4974
sg68
(lp4981
Nasbasbasbag61
(g77
g63
NtRp4982
(dp4983
g66
(dp4984
sg75
g4941
sg68
(lp4985
g61
(g82
g63
NtRp4986
(dp4987
g66
(dp4988
sg75
g4982
sg68
(lp4989
g61
(g62
g63
NtRp4990
(dp4991
g66
(dp4992
g74
I1
ssg75
g4986
sg68
(lp4993
(lp4994
(S'plugin_wiki'
p4995
I00
S'http://web2py.com/examples/default/download'
p4996
tp4997
a(g4382
(S's\r\x00\x00\x00Other Plugins'
tRp4998
I00
g4728
tp4999
a(g4382
(S's\x0e\x00\x00\x00Layout Plugins'
tRp5000
I00
g4731
tp5001
aasbasbasbasbasbasbasbasbasbasbasbasbasbasbasbasbasbasbasbag61
(g77
g63
NtRp5002
(dp5003
g66
(dp5004
sg75
g3816
sg68
(lp5005
g61
(g82
g63
NtRp5006
(dp5007
g66
(dp5008
g86
g87
ssg75
g5002
sg68
(lp5009
S'meta'
p5010
asbag61
(g82
g63
NtRp5011
(dp5012
g66
(dp5013
g93
g94
ssg75
g5002
sg68
(lp5014
S':'
asbag61
(g82
g63
NtRp5015
(dp5016
g66
(dp5017
sg75
g5002
sg68
(lp5018
g61
(g62
g63
NtRp5019
(dp5020
g66
(dp5021
g74
I5
ssg75
g5015
sg68
(lp5022
g61
(g70
g63
NtRp5023
(dp5024
g66
(dp5025
g74
I4
ssg75
Nsg68
(lp5026
g61
(g77
g63
NtRp5027
(dp5028
g66
(dp5029
sg75
g5023
sg68
(lp5030
g61
(g82
g63
NtRp5031
(dp5032
g66
(dp5033
g86
g87
ssg75
g5027
sg68
(lp5034
S'author'
p5035
asbag61
(g82
g63
NtRp5036
(dp5037
g66
(dp5038
g93
g94
ssg75
g5027
sg68
(lp5039
S':'
asbag61
(g82
g63
NtRp5040
(dp5041
g66
(dp5042
sg75
g5027
sg68
(lp5043
g61
(g62
g63
NtRp5044
(dp5045
g66
(dp5046
g74
I4
ssg75
g5040
sg68
(lp5047
S'Your Name <you@example.com>'
p5048
asbasbasbag61
(g77
g63
NtRp5049
(dp5050
g66
(dp5051
sg75
g5023
sg68
(lp5052
g61
(g82
g63
NtRp5053
(dp5054
g66
(dp5055
g86
g87
ssg75
g5049
sg68
(lp5056
S'description'
p5057
asbag61
(g82
g63
NtRp5058
(dp5059
g66
(dp5060
g93
g94
ssg75
g5049
sg68
(lp5061
S':'
asbag61
(g82
g63
NtRp5062
(dp5063
g66
(dp5064
sg75
g5049
sg68
(lp5065
g61
(g62
g63
NtRp5066
(dp5067
g66
(dp5068
g74
I4
ssg75
g5062
sg68
(lp5069
S'a cool new app'
p5070
asbasbasbag61
(g77
g63
NtRp5071
(dp5072
g66
(dp5073
sg75
g5023
sg68
(lp5074
g61
(g82
g63
NtRp5075
(dp5076
g66
(dp5077
g86
g87
ssg75
g5071
sg68
(lp5078
S'generator'
p5079
asbag61
(g82
g63
NtRp5080
(dp5081
g66
(dp5082
g93
g94
ssg75
g5071
sg68
(lp5083
S':'
asbag61
(g82
g63
NtRp5084
(dp5085
g66
(dp5086
sg75
g5071
sg68
(lp5087
g61
(g62
g63
NtRp5088
(dp5089
g66
(dp5090
g74
I4
ssg75
g5084
sg68
(lp5091
S'Web2py Web Framework'
p5092
asbasbasbag61
(g77
g63
NtRp5093
(dp5094
g66
(dp5095
sg75
g5023
sg68
(lp5096
g61
(g82
g63
NtRp5097
(dp5098
g66
(dp5099
g86
g87
ssg75
g5093
sg68
(lp5100
S'keywords'
p5101
asbag61
(g82
g63
NtRp5102
(dp5103
g66
(dp5104
g93
g94
ssg75
g5093
sg68
(lp5105
S':'
asbag61
(g82
g63
NtRp5106
(dp5107
g66
(dp5108
sg75
g5093
sg68
(lp5109
g61
(g62
g63
NtRp5110
(dp5111
g66
(dp5112
g74
I4
ssg75
g5106
sg68
(lp5113
S'web2py, python, framework'
p5114
asbasbasbasbasbasbasbag61
(g77
g63
NtRp5115
(dp5116
g66
(dp5117
sg75
g3816
sg68
(lp5118
g61
(g82
g63
NtRp5119
(dp5120
g66
(dp5121
g86
g87
ssg75
g5115
sg68
(lp5122
S'postprocessing'
p5123
asbag61
(g82
g63
NtRp5124
(dp5125
g66
(dp5126
g93
g94
ssg75
g5115
sg68
(lp5127
S':'
asbag61
(g82
g63
NtRp5128
(dp5129
g66
(dp5130
sg75
g5115
sg68
(lp5131
g61
(g62
g63
NtRp5132
(dp5133
g66
(dp5134
g74
I5
ssg75
g5128
sg68
(lp5135
g61
(g70
g63
NtRp5136
(dp5137
g66
(dp5138
g74
I4
ssg75
Nsg68
(lp5139
sbasbasbasbag61
(g77
g63
NtRp5140
(dp5141
g66
(dp5142
sg75
g3816
sg68
(lp5143
g61
(g82
g63
NtRp5144
(dp5145
g66
(dp5146
g86
g87
ssg75
g5140
sg68
(lp5147
S'session_file'
p5148
asbag61
(g82
g63
NtRp5149
(dp5150
g66
(dp5151
g93
g94
ssg75
g5140
sg68
(lp5152
S':'
asbag61
(g82
g63
NtRp5153
(dp5154
g66
(dp5155
sg75
g5140
sg68
(lp5156
g61
(g62
g63
NtRp5157
(dp5158
g66
(dp5159
g74
I5
ssg75
g5153
sg68
(lp5160
S"<open file '/home/piyush/web2py/applications/FotoBuk/sessions/127.0.0.1-a0aa12fe-f234-43d8-b1ed-9cc366e4417f', mode 'rb+' at 0xaeaa4bd0>"
p5161
asbasbasbag61
(g77
g63
NtRp5162
(dp5163
g66
(dp5164
sg75
g3816
sg68
(lp5165
g61
(g82
g63
NtRp5166
(dp5167
g66
(dp5168
g86
g87
ssg75
g5162
sg68
(lp5169
S'session_filename'
p5170
asbag61
(g82
g63
NtRp5171
(dp5172
g66
(dp5173
g93
g94
ssg75
g5162
sg68
(lp5174
S':'
asbag61
(g82
g63
NtRp5175
(dp5176
g66
(dp5177
sg75
g5162
sg68
(lp5178
g61
(g62
g63
NtRp5179
(dp5180
g66
(dp5181
g74
I5
ssg75
g5175
sg68
(lp5182
S'/home/piyush/web2py/applications/FotoBuk/sessions/127.0.0.1-a0aa12fe-f234-43d8-b1ed-9cc366e4417f'
p5183
asbasbasbag61
(g77
g63
NtRp5184
(dp5185
g66
(dp5186
sg75
g3816
sg68
(lp5187
g61
(g82
g63
NtRp5188
(dp5189
g66
(dp5190
g86
g87
ssg75
g5184
sg68
(lp5191
S'session_id'
p5192
asbag61
(g82
g63
NtRp5193
(dp5194
g66
(dp5195
g93
g94
ssg75
g5184
sg68
(lp5196
S':'
asbag61
(g82
g63
NtRp5197
(dp5198
g66
(dp5199
sg75
g5184
sg68
(lp5200
g61
(g62
g63
NtRp5201
(dp5202
g66
(dp5203
g74
I5
ssg75
g5197
sg68
(lp5204
g491
asbasbasbag61
(g77
g63
NtRp5205
(dp5206
g66
(dp5207
sg75
g3816
sg68
(lp5208
g61
(g82
g63
NtRp5209
(dp5210
g66
(dp5211
g86
g87
ssg75
g5205
sg68
(lp5212
S'session_id_name'
p5213
asbag61
(g82
g63
NtRp5214
(dp5215
g66
(dp5216
g93
g94
ssg75
g5205
sg68
(lp5217
S':'
asbag61
(g82
g63
NtRp5218
(dp5219
g66
(dp5220
sg75
g5205
sg68
(lp5221
g61
(g62
g63
NtRp5222
(dp5223
g66
(dp5224
g74
I5
ssg75
g5218
sg68
(lp5225
g3873
asbasbasbag61
(g77
g63
NtRp5226
(dp5227
g66
(dp5228
sg75
g3816
sg68
(lp5229
g61
(g82
g63
NtRp5230
(dp5231
g66
(dp5232
g86
g87
ssg75
g5226
sg68
(lp5233
S'session_locked'
p5234
asbag61
(g82
g63
NtRp5235
(dp5236
g66
(dp5237
g93
g94
ssg75
g5226
sg68
(lp5238
S':'
asbag61
(g82
g63
NtRp5239
(dp5240
g66
(dp5241
sg75
g5226
sg68
(lp5242
g61
(g62
g63
NtRp5243
(dp5244
g66
(dp5245
g74
I5
ssg75
g5239
sg68
(lp5246
g1782
asbasbasbag61
(g77
g63
NtRp5247
(dp5248
g66
(dp5249
sg75
g3816
sg68
(lp5250
g61
(g82
g63
NtRp5251
(dp5252
g66
(dp5253
g86
g87
ssg75
g5247
sg68
(lp5254
S'session_new'
p5255
asbag61
(g82
g63
NtRp5256
(dp5257
g66
(dp5258
g93
g94
ssg75
g5247
sg68
(lp5259
S':'
asbag61
(g82
g63
NtRp5260
(dp5261
g66
(dp5262
sg75
g5247
sg68
(lp5263
g61
(g62
g63
NtRp5264
(dp5265
g66
(dp5266
g74
I5
ssg75
g5260
sg68
(lp5267
g104
asbasbasbag61
(g77
g63
NtRp5268
(dp5269
g66
(dp5270
sg75
g3816
sg68
(lp5271
g61
(g82
g63
NtRp5272
(dp5273
g66
(dp5274
g86
g87
ssg75
g5268
sg68
(lp5275
S'status'
p5276
asbag61
(g82
g63
NtRp5277
(dp5278
g66
(dp5279
g93
g94
ssg75
g5268
sg68
(lp5280
S':'
asbag61
(g82
g63
NtRp5281
(dp5282
g66
(dp5283
sg75
g5268
sg68
(lp5284
g61
(g62
g63
NtRp5285
(dp5286
g66
(dp5287
g74
I5
ssg75
g5281
sg68
(lp5288
S'200'
p5289
asbasbasbag61
(g77
g63
NtRp5290
(dp5291
g66
(dp5292
sg75
g3816
sg68
(lp5293
g61
(g82
g63
NtRp5294
(dp5295
g66
(dp5296
g86
g87
ssg75
g5290
sg68
(lp5297
S'subtitle'
p5298
asbag61
(g82
g63
NtRp5299
(dp5300
g66
(dp5301
g93
g94
ssg75
g5290
sg68
(lp5302
S':'
asbag61
(g82
g63
NtRp5303
(dp5304
g66
(dp5305
sg75
g5290
sg68
(lp5306
g61
(g62
g63
NtRp5307
(dp5308
g66
(dp5309
g74
I5
ssg75
g5303
sg68
(lp5310
g4382
(S's\r\x00\x00\x00customize me!'
tRp5311
asbasbasbag61
(g77
g63
NtRp5312
(dp5313
g66
(dp5314
sg75
g3816
sg68
(lp5315
g61
(g82
g63
NtRp5316
(dp5317
g66
(dp5318
g86
g87
ssg75
g5312
sg68
(lp5319
S'title'
p5320
asbag61
(g82
g63
NtRp5321
(dp5322
g66
(dp5323
g93
g94
ssg75
g5312
sg68
(lp5324
S':'
asbag61
(g82
g63
NtRp5325
(dp5326
g66
(dp5327
sg75
g5312
sg68
(lp5328
g61
(g62
g63
NtRp5329
(dp5330
g66
(dp5331
g74
I5
ssg75
g5325
sg68
(lp5332
S'Fotobuk'
p5333
asbasbasbag61
(g77
g63
NtRp5334
(dp5335
g66
(dp5336
sg75
g3816
sg68
(lp5337
g61
(g82
g63
NtRp5338
(dp5339
g66
(dp5340
g86
g87
ssg75
g5334
sg68
(lp5341
S'view'
p5342
asbag61
(g82
g63
NtRp5343
(dp5344
g66
(dp5345
g93
g94
ssg75
g5334
sg68
(lp5346
S':'
asbag61
(g82
g63
NtRp5347
(dp5348
g66
(dp5349
sg75
g5334
sg68
(lp5350
g61
(g62
g63
NtRp5351
(dp5352
g66
(dp5353
g74
I5
ssg75
g5347
sg68
(lp5354
S'default/show.html'
p5355
asbasbasbasbasbsS'locals'
p5356
(dp5357
S'query'
p5358
S"'INSERT INTO like() VALUES ();'"
p5359
sS'self'
p5360
S'<gluon.dal.SQLiteAdapter object>'
p5361
sS'e'
S'OperationalError(\'near ")": syntax error\',)'
p5362
sS'fields'
p5363
S'[]'
p5364
sS'table'
p5365
S'<Table like (id,like_id,liker,likername)>'
p5366
sssS'traceback'
p5367
S'Traceback (most recent call last):\n  File "/home/piyush/web2py/gluon/restricted.py", line 209, in restricted\n    exec ccode in environment\n  File "/home/piyush/web2py/applications/FotoBuk/controllers/default.py", line 61, in <module>\n  File "/home/piyush/web2py/gluon/globals.py", line 185, in <lambda>\n    self._caller = lambda f: f()\n  File "/home/piyush/web2py/gluon/tools.py", line 2776, in f\n    return action(*a, **b)\n  File "/home/piyush/web2py/applications/FotoBuk/controllers/default.py", line 36, in show\n    if form2.process().accepted and flag==0:\n  File "/home/piyush/web2py/gluon/html.py", line 2106, in process\n    self.validate(**kwargs)\n  File "/home/piyush/web2py/gluon/html.py", line 2053, in validate\n    if self.accepts(**kwargs):\n  File "/home/piyush/web2py/gluon/sqlhtml.py", line 1403, in accepts\n    self.vars.id = self.table.insert(**fields)\n  File "/home/piyush/web2py/gluon/dal.py", line 7720, in insert\n    ret =  self._db._adapter.insert(self,self._listify(fields))\n  File "/home/piyush/web2py/gluon/dal.py", line 1080, in insert\n    raise e\nOperationalError: near ")": syntax error\n'
p5368
s.