(dp1
S'output'
p2
S'<class \'sqlite3.OperationalError\'> near ")": syntax error'
p3
sS'layer'
p4
S'/home/piyush/web2py/applications/FotoBuk/controllers/default.py'
p5
sS'code'
p6
S"@auth.requires_login()\ndef index():\n\tli=db(db.image).select()\n\treturn dict(li=li)\n\n@auth.requires_login()\ndef insert():\n    db.image.author.default=auth.user.first_name\n    db.image.author_id=auth.user_id\n    form=SQLFORM(db.image)\n    if form.process().accepted:\n        response.flash = 'your image is posted'\n    return dict(form=form)\n\n@auth.requires_login()\ndef show():\n    flag=0\n    image = db(db.image.id==request.args(0)).select().first()\n    db.comment.image_id.default = image.id\n    cur_user=auth.user_id\n    form = SQLFORM(db.comment)\n    likes = (db)(db.like.like_id==image.id).select()\n    #query = (db.like.like_id==image.id and db.like.liker==cur_user)\n    #if db(query).count>0:\n    if (db(db.like.like_id==image.id)(db.like.liker==cur_user)).count()> 0:\n\t    flag=1;\n    else:\n\t    flag=0;\n    print likes\n#    for lik in likes:\n#\t    if cur\n#\t    if int(cur_user) == int(lik.liker):\n#\t\t    flag=1\n    print flag\n    form2 = SQLFORM(db.like)\n    if form2.process().accepted:\n\tprint 'yes'\n\tresponse.flash = 'You have liked the image'\n    \tdb.like.insert(likername=auth.user.first_name)\n\tdb.like.insert(liker=auth.user_id)\n\tdb.like.insert(like_id=image.id)\n    else:\n\tresponse.flash = 'You already like this image'\n\n    if form.process().accepted:\n        response.flash = 'your comment is posted'\n\n    comments = db(db.comment.image_id==image.id).select()\n    return dict(cur_user=cur_user,flag=flag,image=image, comments=comments, likes=likes, form=form, form2=form2)\n\ndef delete():\n    db(db.image.id==request.args(0)).delete()\n    image = db(db.image.id==request.args(0)).select()\n\ndef user():\n\treturn dict(form=auth())\n\ndef download():\n\treturn response.download(request,db)\n\nresponse._vars=response._caller(show)\n"
p7
sS'snapshot'
p8
(dp9
S'exception'
p10
(dp11
S'__module__'
p12
S"'sqlite3'"
p13
sS'__getslice__'
p14
S"<method-wrapper '__getslice__' of OperationalError object>"
p15
sS'__str__'
p16
S"<method-wrapper '__str__' of OperationalError object>"
p17
sS'__reduce__'
p18
S'<built-in method __reduce__ of OperationalError object>'
p19
sS'__dict__'
p20
S'{}'
p21
sS'__sizeof__'
p22
S'<built-in method __sizeof__ of OperationalError object>'
p23
sS'__weakref__'
p24
S'None'
p25
sS'__init__'
p26
S"<method-wrapper '__init__' of OperationalError object>"
p27
sS'__setattr__'
p28
S"<method-wrapper '__setattr__' of OperationalError object>"
p29
sS'__reduce_ex__'
p30
S'<built-in method __reduce_ex__ of OperationalError object>'
p31
sS'__new__'
p32
S'<built-in method __new__ of type object>'
p33
sS'__format__'
p34
S'<built-in method __format__ of OperationalError object>'
p35
sS'__class__'
p36
S"<class 'sqlite3.OperationalError'>"
p37
sS'__doc__'
p38
S'None'
p39
sS'__getitem__'
p40
S"<method-wrapper '__getitem__' of OperationalError object>"
p41
sS'__setstate__'
p42
S'<built-in method __setstate__ of OperationalError object>'
p43
sS'__getattribute__'
p44
S"<method-wrapper '__getattribute__' of OperationalError object>"
p45
sS'args'
p46
S'(\'near ")": syntax error\',)'
p47
sS'__subclasshook__'
p48
S'<built-in method __subclasshook__ of type object>'
p49
sS'__unicode__'
p50
S'<built-in method __unicode__ of OperationalError object>'
p51
sS'__delattr__'
p52
S"<method-wrapper '__delattr__' of OperationalError object>"
p53
sS'__repr__'
p54
S"<method-wrapper '__repr__' of OperationalError object>"
p55
sS'__hash__'
p56
S"<method-wrapper '__hash__' of OperationalError object>"
p57
ssS'evalue'
p58
S'near ")": syntax error'
p59
sS'request'
p60
ccopy_reg
_reconstructor
p61
(cgluon.html
BEAUTIFY
p62
c__builtin__
object
p63
NtRp64
(dp65
S'attributes'
p66
(dp67
sS'components'
p68
(lp69
g61
(cgluon.html
TABLE
p70
g63
NtRp71
(dp72
g66
(dp73
S'level'
p74
I5
ssS'parent'
p75
Nsg68
(lp76
g61
(cgluon.html
TR
p77
g63
NtRp78
(dp79
g66
(dp80
sg75
g71
sg68
(lp81
g61
(cgluon.html
TD
p82
g63
NtRp83
(dp84
g66
(dp85
S'_style'
p86
S'font-weight:bold;vertical-align:top'
p87
ssg75
g78
sg68
(lp88
S'ajax'
p89
asbag61
(g82
g63
NtRp90
(dp91
g66
(dp92
S'_valign'
p93
S'top'
p94
ssg75
g78
sg68
(lp95
S':'
asbag61
(g82
g63
NtRp96
(dp97
g66
(dp98
sg75
g78
sg68
(lp99
g61
(g62
g63
NtRp100
(dp101
g66
(dp102
g74
I5
ssg75
g96
sg68
(lp103
S'False'
p104
asbasbasbag61
(g77
g63
NtRp105
(dp106
g66
(dp107
sg75
g71
sg68
(lp108
g61
(g82
g63
NtRp109
(dp110
g66
(dp111
g86
g87
ssg75
g105
sg68
(lp112
S'application'
p113
asbag61
(g82
g63
NtRp114
(dp115
g66
(dp116
g93
g94
ssg75
g105
sg68
(lp117
S':'
asbag61
(g82
g63
NtRp118
(dp119
g66
(dp120
sg75
g105
sg68
(lp121
g61
(g62
g63
NtRp122
(dp123
g66
(dp124
g74
I5
ssg75
g118
sg68
(lp125
S'FotoBuk'
p126
asbasbasbag61
(g77
g63
NtRp127
(dp128
g66
(dp129
sg75
g71
sg68
(lp130
g61
(g82
g63
NtRp131
(dp132
g66
(dp133
g86
g87
ssg75
g127
sg68
(lp134
g46
asbag61
(g82
g63
NtRp135
(dp136
g66
(dp137
g93
g94
ssg75
g127
sg68
(lp138
S':'
asbag61
(g82
g63
NtRp139
(dp140
g66
(dp141
sg75
g127
sg68
(lp142
g61
(g62
g63
NtRp143
(dp144
g66
(dp145
g74
I5
ssg75
g139
sg68
(lp146
g61
(g70
g63
NtRp147
(dp148
g66
(dp149
g74
I4
ssg75
Nsg68
(lp150
g61
(g77
g63
NtRp151
(dp152
g66
(dp153
sg75
g147
sg68
(lp154
g61
(g82
g63
NtRp155
(dp156
g66
(dp157
sg75
g151
sg68
(lp158
g61
(g62
g63
NtRp159
(dp160
g66
(dp161
g74
I4
ssg75
g155
sg68
(lp162
S'6'
asbasbasbasbasbasbasbag61
(g77
g63
NtRp163
(dp164
g66
(dp165
sg75
g71
sg68
(lp166
g61
(g82
g63
NtRp167
(dp168
g66
(dp169
g86
g87
ssg75
g163
sg68
(lp170
S'body'
p171
asbag61
(g82
g63
NtRp172
(dp173
g66
(dp174
g93
g94
ssg75
g163
sg68
(lp175
S':'
asbag61
(g82
g63
NtRp176
(dp177
g66
(dp178
sg75
g163
sg68
(lp179
g61
(g62
g63
NtRp180
(dp181
g66
(dp182
g74
I5
ssg75
g176
sg68
(lp183
S"<open file '<fdopen>', mode 'w+b' at 0xb39be128>"
p184
asbasbasbag61
(g77
g63
NtRp185
(dp186
g66
(dp187
sg75
g71
sg68
(lp188
g61
(g82
g63
NtRp189
(dp190
g66
(dp191
g86
g87
ssg75
g185
sg68
(lp192
S'cid'
p193
asbag61
(g82
g63
NtRp194
(dp195
g66
(dp196
g93
g94
ssg75
g185
sg68
(lp197
S':'
asbag61
(g82
g63
NtRp198
(dp199
g66
(dp200
sg75
g185
sg68
(lp201
g61
(g62
g63
NtRp202
(dp203
g66
(dp204
g74
I5
ssg75
g198
sg68
(lp205
S'None'
p206
asbasbasbag61
(g77
g63
NtRp207
(dp208
g66
(dp209
sg75
g71
sg68
(lp210
g61
(g82
g63
NtRp211
(dp212
g66
(dp213
g86
g87
ssg75
g207
sg68
(lp214
S'client'
p215
asbag61
(g82
g63
NtRp216
(dp217
g66
(dp218
g93
g94
ssg75
g207
sg68
(lp219
S':'
asbag61
(g82
g63
NtRp220
(dp221
g66
(dp222
sg75
g207
sg68
(lp223
g61
(g62
g63
NtRp224
(dp225
g66
(dp226
g74
I5
ssg75
g220
sg68
(lp227
S'127.0.0.1'
p228
asbasbasbag61
(g77
g63
NtRp229
(dp230
g66
(dp231
sg75
g71
sg68
(lp232
g61
(g82
g63
NtRp233
(dp234
g66
(dp235
g86
g87
ssg75
g229
sg68
(lp236
S'controller'
p237
asbag61
(g82
g63
NtRp238
(dp239
g66
(dp240
g93
g94
ssg75
g229
sg68
(lp241
S':'
asbag61
(g82
g63
NtRp242
(dp243
g66
(dp244
sg75
g229
sg68
(lp245
g61
(g62
g63
NtRp246
(dp247
g66
(dp248
g74
I5
ssg75
g242
sg68
(lp249
S'default'
p250
asbasbasbag61
(g77
g63
NtRp251
(dp252
g66
(dp253
sg75
g71
sg68
(lp254
g61
(g82
g63
NtRp255
(dp256
g66
(dp257
g86
g87
ssg75
g251
sg68
(lp258
S'cookies'
p259
asbag61
(g82
g63
NtRp260
(dp261
g66
(dp262
g93
g94
ssg75
g251
sg68
(lp263
S':'
asbag61
(g82
g63
NtRp264
(dp265
g66
(dp266
sg75
g251
sg68
(lp267
g61
(g62
g63
NtRp268
(dp269
g66
(dp270
g74
I5
ssg75
g264
sg68
(lp271
g61
(g70
g63
NtRp272
(dp273
g66
(dp274
g74
I4
ssg75
Nsg68
(lp275
g61
(g77
g63
NtRp276
(dp277
g66
(dp278
sg75
g272
sg68
(lp279
g61
(g82
g63
NtRp280
(dp281
g66
(dp282
g86
g87
ssg75
g276
sg68
(lp283
S'session_id_admin'
p284
asbag61
(g82
g63
NtRp285
(dp286
g66
(dp287
g93
g94
ssg75
g276
sg68
(lp288
S':'
asbag61
(g82
g63
NtRp289
(dp290
g66
(dp291
sg75
g276
sg68
(lp292
g61
(g62
g63
NtRp293
(dp294
g66
(dp295
g74
I4
ssg75
g289
sg68
(lp296
S'127.0.0.1-b3c2d1ad-f796-4da8-b8a8-41b2a25cf8e7'
p297
ag61
(g70
g63
NtRp298
(dp299
g66
(dp300
g74
I3
ssg75
Nsg68
(lp301
g61
(g77
g63
NtRp302
(dp303
g66
(dp304
sg75
g298
sg68
(lp305
g61
(g82
g63
NtRp306
(dp307
g66
(dp308
g86
g87
ssg75
g302
sg68
(lp309
S'comment'
p310
asbag61
(g82
g63
NtRp311
(dp312
g66
(dp313
g93
g94
ssg75
g302
sg68
(lp314
S':'
asbag61
(g82
g63
NtRp315
(dp316
g66
(dp317
sg75
g302
sg68
(lp318
g61
(g62
g63
NtRp319
(dp320
g66
(dp321
g74
I3
ssg75
g315
sg68
(lp322
S''
asbasbasbag61
(g77
g63
NtRp323
(dp324
g66
(dp325
sg75
g298
sg68
(lp326
g61
(g82
g63
NtRp327
(dp328
g66
(dp329
g86
g87
ssg75
g323
sg68
(lp330
S'domain'
p331
asbag61
(g82
g63
NtRp332
(dp333
g66
(dp334
g93
g94
ssg75
g323
sg68
(lp335
S':'
asbag61
(g82
g63
NtRp336
(dp337
g66
(dp338
sg75
g323
sg68
(lp339
g61
(g62
g63
NtRp340
(dp341
g66
(dp342
g74
I3
ssg75
g336
sg68
(lp343
S''
asbasbasbag61
(g77
g63
NtRp344
(dp345
g66
(dp346
sg75
g298
sg68
(lp347
g61
(g82
g63
NtRp348
(dp349
g66
(dp350
g86
g87
ssg75
g344
sg68
(lp351
S'expires'
p352
asbag61
(g82
g63
NtRp353
(dp354
g66
(dp355
g93
g94
ssg75
g344
sg68
(lp356
S':'
asbag61
(g82
g63
NtRp357
(dp358
g66
(dp359
sg75
g344
sg68
(lp360
g61
(g62
g63
NtRp361
(dp362
g66
(dp363
g74
I3
ssg75
g357
sg68
(lp364
S''
asbasbasbag61
(g77
g63
NtRp365
(dp366
g66
(dp367
sg75
g298
sg68
(lp368
g61
(g82
g63
NtRp369
(dp370
g66
(dp371
g86
g87
ssg75
g365
sg68
(lp372
S'httponly'
p373
asbag61
(g82
g63
NtRp374
(dp375
g66
(dp376
g93
g94
ssg75
g365
sg68
(lp377
S':'
asbag61
(g82
g63
NtRp378
(dp379
g66
(dp380
sg75
g365
sg68
(lp381
g61
(g62
g63
NtRp382
(dp383
g66
(dp384
g74
I3
ssg75
g378
sg68
(lp385
S''
asbasbasbag61
(g77
g63
NtRp386
(dp387
g66
(dp388
sg75
g298
sg68
(lp389
g61
(g82
g63
NtRp390
(dp391
g66
(dp392
g86
g87
ssg75
g386
sg68
(lp393
S'max-age'
p394
asbag61
(g82
g63
NtRp395
(dp396
g66
(dp397
g93
g94
ssg75
g386
sg68
(lp398
S':'
asbag61
(g82
g63
NtRp399
(dp400
g66
(dp401
sg75
g386
sg68
(lp402
g61
(g62
g63
NtRp403
(dp404
g66
(dp405
g74
I3
ssg75
g399
sg68
(lp406
S''
asbasbasbag61
(g77
g63
NtRp407
(dp408
g66
(dp409
sg75
g298
sg68
(lp410
g61
(g82
g63
NtRp411
(dp412
g66
(dp413
g86
g87
ssg75
g407
sg68
(lp414
S'path'
p415
asbag61
(g82
g63
NtRp416
(dp417
g66
(dp418
g93
g94
ssg75
g407
sg68
(lp419
S':'
asbag61
(g82
g63
NtRp420
(dp421
g66
(dp422
sg75
g407
sg68
(lp423
g61
(g62
g63
NtRp424
(dp425
g66
(dp426
g74
I3
ssg75
g420
sg68
(lp427
S''
asbasbasbag61
(g77
g63
NtRp428
(dp429
g66
(dp430
sg75
g298
sg68
(lp431
g61
(g82
g63
NtRp432
(dp433
g66
(dp434
g86
g87
ssg75
g428
sg68
(lp435
S'secure'
p436
asbag61
(g82
g63
NtRp437
(dp438
g66
(dp439
g93
g94
ssg75
g428
sg68
(lp440
S':'
asbag61
(g82
g63
NtRp441
(dp442
g66
(dp443
sg75
g428
sg68
(lp444
g61
(g62
g63
NtRp445
(dp446
g66
(dp447
g74
I3
ssg75
g441
sg68
(lp448
S''
asbasbasbag61
(g77
g63
NtRp449
(dp450
g66
(dp451
sg75
g298
sg68
(lp452
g61
(g82
g63
NtRp453
(dp454
g66
(dp455
g86
g87
ssg75
g449
sg68
(lp456
S'version'
p457
asbag61
(g82
g63
NtRp458
(dp459
g66
(dp460
g93
g94
ssg75
g449
sg68
(lp461
S':'
asbag61
(g82
g63
NtRp462
(dp463
g66
(dp464
sg75
g449
sg68
(lp465
g61
(g62
g63
NtRp466
(dp467
g66
(dp468
g74
I3
ssg75
g462
sg68
(lp469
S''
asbasbasbasbasbasbasbag61
(g77
g63
NtRp470
(dp471
g66
(dp472
sg75
g272
sg68
(lp473
g61
(g82
g63
NtRp474
(dp475
g66
(dp476
g86
g87
ssg75
g470
sg68
(lp477
S'session_id_fotobuk'
p478
asbag61
(g82
g63
NtRp479
(dp480
g66
(dp481
g93
g94
ssg75
g470
sg68
(lp482
S':'
asbag61
(g82
g63
NtRp483
(dp484
g66
(dp485
sg75
g470
sg68
(lp486
g61
(g62
g63
NtRp487
(dp488
g66
(dp489
g74
I4
ssg75
g483
sg68
(lp490
S'127.0.0.1-a0aa12fe-f234-43d8-b1ed-9cc366e4417f'
p491
ag61
(g70
g63
NtRp492
(dp493
g66
(dp494
g74
I3
ssg75
Nsg68
(lp495
g61
(g77
g63
NtRp496
(dp497
g66
(dp498
sg75
g492
sg68
(lp499
g61
(g82
g63
NtRp500
(dp501
g66
(dp502
g86
g87
ssg75
g496
sg68
(lp503
g310
asbag61
(g82
g63
NtRp504
(dp505
g66
(dp506
g93
g94
ssg75
g496
sg68
(lp507
S':'
asbag61
(g82
g63
NtRp508
(dp509
g66
(dp510
sg75
g496
sg68
(lp511
g61
(g62
g63
NtRp512
(dp513
g66
(dp514
g74
I3
ssg75
g508
sg68
(lp515
S''
asbasbasbag61
(g77
g63
NtRp516
(dp517
g66
(dp518
sg75
g492
sg68
(lp519
g61
(g82
g63
NtRp520
(dp521
g66
(dp522
g86
g87
ssg75
g516
sg68
(lp523
g331
asbag61
(g82
g63
NtRp524
(dp525
g66
(dp526
g93
g94
ssg75
g516
sg68
(lp527
S':'
asbag61
(g82
g63
NtRp528
(dp529
g66
(dp530
sg75
g516
sg68
(lp531
g61
(g62
g63
NtRp532
(dp533
g66
(dp534
g74
I3
ssg75
g528
sg68
(lp535
S''
asbasbasbag61
(g77
g63
NtRp536
(dp537
g66
(dp538
sg75
g492
sg68
(lp539
g61
(g82
g63
NtRp540
(dp541
g66
(dp542
g86
g87
ssg75
g536
sg68
(lp543
g352
asbag61
(g82
g63
NtRp544
(dp545
g66
(dp546
g93
g94
ssg75
g536
sg68
(lp547
S':'
asbag61
(g82
g63
NtRp548
(dp549
g66
(dp550
sg75
g536
sg68
(lp551
g61
(g62
g63
NtRp552
(dp553
g66
(dp554
g74
I3
ssg75
g548
sg68
(lp555
S''
asbasbasbag61
(g77
g63
NtRp556
(dp557
g66
(dp558
sg75
g492
sg68
(lp559
g61
(g82
g63
NtRp560
(dp561
g66
(dp562
g86
g87
ssg75
g556
sg68
(lp563
g373
asbag61
(g82
g63
NtRp564
(dp565
g66
(dp566
g93
g94
ssg75
g556
sg68
(lp567
S':'
asbag61
(g82
g63
NtRp568
(dp569
g66
(dp570
sg75
g556
sg68
(lp571
g61
(g62
g63
NtRp572
(dp573
g66
(dp574
g74
I3
ssg75
g568
sg68
(lp575
S''
asbasbasbag61
(g77
g63
NtRp576
(dp577
g66
(dp578
sg75
g492
sg68
(lp579
g61
(g82
g63
NtRp580
(dp581
g66
(dp582
g86
g87
ssg75
g576
sg68
(lp583
g394
asbag61
(g82
g63
NtRp584
(dp585
g66
(dp586
g93
g94
ssg75
g576
sg68
(lp587
S':'
asbag61
(g82
g63
NtRp588
(dp589
g66
(dp590
sg75
g576
sg68
(lp591
g61
(g62
g63
NtRp592
(dp593
g66
(dp594
g74
I3
ssg75
g588
sg68
(lp595
S''
asbasbasbag61
(g77
g63
NtRp596
(dp597
g66
(dp598
sg75
g492
sg68
(lp599
g61
(g82
g63
NtRp600
(dp601
g66
(dp602
g86
g87
ssg75
g596
sg68
(lp603
g415
asbag61
(g82
g63
NtRp604
(dp605
g66
(dp606
g93
g94
ssg75
g596
sg68
(lp607
S':'
asbag61
(g82
g63
NtRp608
(dp609
g66
(dp610
sg75
g596
sg68
(lp611
g61
(g62
g63
NtRp612
(dp613
g66
(dp614
g74
I3
ssg75
g608
sg68
(lp615
S''
asbasbasbag61
(g77
g63
NtRp616
(dp617
g66
(dp618
sg75
g492
sg68
(lp619
g61
(g82
g63
NtRp620
(dp621
g66
(dp622
g86
g87
ssg75
g616
sg68
(lp623
g436
asbag61
(g82
g63
NtRp624
(dp625
g66
(dp626
g93
g94
ssg75
g616
sg68
(lp627
S':'
asbag61
(g82
g63
NtRp628
(dp629
g66
(dp630
sg75
g616
sg68
(lp631
g61
(g62
g63
NtRp632
(dp633
g66
(dp634
g74
I3
ssg75
g628
sg68
(lp635
S''
asbasbasbag61
(g77
g63
NtRp636
(dp637
g66
(dp638
sg75
g492
sg68
(lp639
g61
(g82
g63
NtRp640
(dp641
g66
(dp642
g86
g87
ssg75
g636
sg68
(lp643
g457
asbag61
(g82
g63
NtRp644
(dp645
g66
(dp646
g93
g94
ssg75
g636
sg68
(lp647
S':'
asbag61
(g82
g63
NtRp648
(dp649
g66
(dp650
sg75
g636
sg68
(lp651
g61
(g62
g63
NtRp652
(dp653
g66
(dp654
g74
I3
ssg75
g648
sg68
(lp655
S''
asbasbasbasbasbasbasbag61
(g77
g63
NtRp656
(dp657
g66
(dp658
sg75
g272
sg68
(lp659
g61
(g82
g63
NtRp660
(dp661
g66
(dp662
g86
g87
ssg75
g656
sg68
(lp663
S'session_id_welcome'
p664
asbag61
(g82
g63
NtRp665
(dp666
g66
(dp667
g93
g94
ssg75
g656
sg68
(lp668
S':'
asbag61
(g82
g63
NtRp669
(dp670
g66
(dp671
sg75
g656
sg68
(lp672
g61
(g62
g63
NtRp673
(dp674
g66
(dp675
g74
I4
ssg75
g669
sg68
(lp676
S'127.0.0.1-d9249293-42c1-424c-bc11-0262fbc13d21'
p677
ag61
(g70
g63
NtRp678
(dp679
g66
(dp680
g74
I3
ssg75
Nsg68
(lp681
g61
(g77
g63
NtRp682
(dp683
g66
(dp684
sg75
g678
sg68
(lp685
g61
(g82
g63
NtRp686
(dp687
g66
(dp688
g86
g87
ssg75
g682
sg68
(lp689
g310
asbag61
(g82
g63
NtRp690
(dp691
g66
(dp692
g93
g94
ssg75
g682
sg68
(lp693
S':'
asbag61
(g82
g63
NtRp694
(dp695
g66
(dp696
sg75
g682
sg68
(lp697
g61
(g62
g63
NtRp698
(dp699
g66
(dp700
g74
I3
ssg75
g694
sg68
(lp701
S''
asbasbasbag61
(g77
g63
NtRp702
(dp703
g66
(dp704
sg75
g678
sg68
(lp705
g61
(g82
g63
NtRp706
(dp707
g66
(dp708
g86
g87
ssg75
g702
sg68
(lp709
g331
asbag61
(g82
g63
NtRp710
(dp711
g66
(dp712
g93
g94
ssg75
g702
sg68
(lp713
S':'
asbag61
(g82
g63
NtRp714
(dp715
g66
(dp716
sg75
g702
sg68
(lp717
g61
(g62
g63
NtRp718
(dp719
g66
(dp720
g74
I3
ssg75
g714
sg68
(lp721
S''
asbasbasbag61
(g77
g63
NtRp722
(dp723
g66
(dp724
sg75
g678
sg68
(lp725
g61
(g82
g63
NtRp726
(dp727
g66
(dp728
g86
g87
ssg75
g722
sg68
(lp729
g352
asbag61
(g82
g63
NtRp730
(dp731
g66
(dp732
g93
g94
ssg75
g722
sg68
(lp733
S':'
asbag61
(g82
g63
NtRp734
(dp735
g66
(dp736
sg75
g722
sg68
(lp737
g61
(g62
g63
NtRp738
(dp739
g66
(dp740
g74
I3
ssg75
g734
sg68
(lp741
S''
asbasbasbag61
(g77
g63
NtRp742
(dp743
g66
(dp744
sg75
g678
sg68
(lp745
g61
(g82
g63
NtRp746
(dp747
g66
(dp748
g86
g87
ssg75
g742
sg68
(lp749
g373
asbag61
(g82
g63
NtRp750
(dp751
g66
(dp752
g93
g94
ssg75
g742
sg68
(lp753
S':'
asbag61
(g82
g63
NtRp754
(dp755
g66
(dp756
sg75
g742
sg68
(lp757
g61
(g62
g63
NtRp758
(dp759
g66
(dp760
g74
I3
ssg75
g754
sg68
(lp761
S''
asbasbasbag61
(g77
g63
NtRp762
(dp763
g66
(dp764
sg75
g678
sg68
(lp765
g61
(g82
g63
NtRp766
(dp767
g66
(dp768
g86
g87
ssg75
g762
sg68
(lp769
g394
asbag61
(g82
g63
NtRp770
(dp771
g66
(dp772
g93
g94
ssg75
g762
sg68
(lp773
S':'
asbag61
(g82
g63
NtRp774
(dp775
g66
(dp776
sg75
g762
sg68
(lp777
g61
(g62
g63
NtRp778
(dp779
g66
(dp780
g74
I3
ssg75
g774
sg68
(lp781
S''
asbasbasbag61
(g77
g63
NtRp782
(dp783
g66
(dp784
sg75
g678
sg68
(lp785
g61
(g82
g63
NtRp786
(dp787
g66
(dp788
g86
g87
ssg75
g782
sg68
(lp789
g415
asbag61
(g82
g63
NtRp790
(dp791
g66
(dp792
g93
g94
ssg75
g782
sg68
(lp793
S':'
asbag61
(g82
g63
NtRp794
(dp795
g66
(dp796
sg75
g782
sg68
(lp797
g61
(g62
g63
NtRp798
(dp799
g66
(dp800
g74
I3
ssg75
g794
sg68
(lp801
S''
asbasbasbag61
(g77
g63
NtRp802
(dp803
g66
(dp804
sg75
g678
sg68
(lp805
g61
(g82
g63
NtRp806
(dp807
g66
(dp808
g86
g87
ssg75
g802
sg68
(lp809
g436
asbag61
(g82
g63
NtRp810
(dp811
g66
(dp812
g93
g94
ssg75
g802
sg68
(lp813
S':'
asbag61
(g82
g63
NtRp814
(dp815
g66
(dp816
sg75
g802
sg68
(lp817
g61
(g62
g63
NtRp818
(dp819
g66
(dp820
g74
I3
ssg75
g814
sg68
(lp821
S''
asbasbasbag61
(g77
g63
NtRp822
(dp823
g66
(dp824
sg75
g678
sg68
(lp825
g61
(g82
g63
NtRp826
(dp827
g66
(dp828
g86
g87
ssg75
g822
sg68
(lp829
g457
asbag61
(g82
g63
NtRp830
(dp831
g66
(dp832
g93
g94
ssg75
g822
sg68
(lp833
S':'
asbag61
(g82
g63
NtRp834
(dp835
g66
(dp836
sg75
g822
sg68
(lp837
g61
(g62
g63
NtRp838
(dp839
g66
(dp840
g74
I3
ssg75
g834
sg68
(lp841
S''
asbasbasbasbasbasbasbasbasbasbasbag61
(g77
g63
NtRp842
(dp843
g66
(dp844
sg75
g71
sg68
(lp845
g61
(g82
g63
NtRp846
(dp847
g66
(dp848
g86
g87
ssg75
g842
sg68
(lp849
S'env'
p850
asbag61
(g82
g63
NtRp851
(dp852
g66
(dp853
g93
g94
ssg75
g842
sg68
(lp854
S':'
asbag61
(g82
g63
NtRp855
(dp856
g66
(dp857
sg75
g842
sg68
(lp858
g61
(g62
g63
NtRp859
(dp860
g66
(dp861
g74
I5
ssg75
g855
sg68
(lp862
g61
(g70
g63
NtRp863
(dp864
g66
(dp865
g74
I4
ssg75
Nsg68
(lp866
g61
(g77
g63
NtRp867
(dp868
g66
(dp869
sg75
g863
sg68
(lp870
g61
(g82
g63
NtRp871
(dp872
g66
(dp873
g86
g87
ssg75
g867
sg68
(lp874
S'app_folders'
p875
asbag61
(g82
g63
NtRp876
(dp877
g66
(dp878
g93
g94
ssg75
g867
sg68
(lp879
S':'
asbag61
(g82
g63
NtRp880
(dp881
g66
(dp882
sg75
g867
sg68
(lp883
g61
(g62
g63
NtRp884
(dp885
g66
(dp886
g74
I4
ssg75
g880
sg68
(lp887
S"set(['/home/piyush/web2py/applications/FotoBuk/', '/home/piyush/web2py/applications/welcome/', '/home/piyush/web2py/applications/admin/'])"
p888
asbasbasbag61
(g77
g63
NtRp889
(dp890
g66
(dp891
sg75
g863
sg68
(lp892
g61
(g82
g63
NtRp893
(dp894
g66
(dp895
g86
g87
ssg75
g889
sg68
(lp896
S'applications_parent'
p897
asbag61
(g82
g63
NtRp898
(dp899
g66
(dp900
g93
g94
ssg75
g889
sg68
(lp901
S':'
asbag61
(g82
g63
NtRp902
(dp903
g66
(dp904
sg75
g889
sg68
(lp905
g61
(g62
g63
NtRp906
(dp907
g66
(dp908
g74
I4
ssg75
g902
sg68
(lp909
S'/home/piyush/web2py'
p910
asbasbasbag61
(g77
g63
NtRp911
(dp912
g66
(dp913
sg75
g863
sg68
(lp914
g61
(g82
g63
NtRp915
(dp916
g66
(dp917
g86
g87
ssg75
g911
sg68
(lp918
S'cmd_args'
p919
asbag61
(g82
g63
NtRp920
(dp921
g66
(dp922
g93
g94
ssg75
g911
sg68
(lp923
S':'
asbag61
(g82
g63
NtRp924
(dp925
g66
(dp926
sg75
g911
sg68
(lp927
g61
(g62
g63
NtRp928
(dp929
g66
(dp930
g74
I4
ssg75
g924
sg68
(lp931
g61
(g70
g63
NtRp932
(dp933
g66
(dp934
g74
I3
ssg75
Nsg68
(lp935
sbasbasbasbag61
(g77
g63
NtRp936
(dp937
g66
(dp938
sg75
g863
sg68
(lp939
g61
(g82
g63
NtRp940
(dp941
g66
(dp942
g86
g87
ssg75
g936
sg68
(lp943
S'cmd_options'
p944
asbag61
(g82
g63
NtRp945
(dp946
g66
(dp947
g93
g94
ssg75
g936
sg68
(lp948
S':'
asbag61
(g82
g63
NtRp949
(dp950
g66
(dp951
sg75
g936
sg68
(lp952
g61
(g62
g63
NtRp953
(dp954
g66
(dp955
g74
I4
ssg75
g949
sg68
(lp956
S"<Values at 0x8d4130c: {'verbose': False, 'ip': '127.0.0.1', 'with_scheduler': False, 'ips': ['10.1.39.167', '10.42.0.1'], 'shutdown_timeout': 5, 'taskbar': False, 'port': 8000, 'maxthreads': None, 'softcron': False, 'server_name': 'Solo', 'bpython': False, 'nogui': False, 'nocron': False, 'extcron': False, 'run_system_tests': False, 'test': None, 'folder': '/home/piyush/web2py', 'config': '', 'import_models': False, 'winservice': '', 'shell': None, 'run': '', 'log_filename': 'httpserver.log', 'debuglevel': 30, 'args': [''], 'socket_timeout': 5, 'ssl_ca_certificate': None, 'scheduler': None, 'profiler_filename': None, 'ssl_private_key': '', 'scheduler_groups': None, 'password': '<ask>', 'request_queue_size': 5, 'ssl_certificate': '', 'cronjob': False, 'numthreads': None, 'quiet': False, 'interfaces': None, 'minthreads': None, 'timeout': 10, 'plain': False, 'nobanner': False, 'pid_filename': 'httpserver.pid'}>"
p957
asbasbasbag61
(g77
g63
NtRp958
(dp959
g66
(dp960
sg75
g863
sg68
(lp961
g61
(g82
g63
NtRp962
(dp963
g66
(dp964
g86
g87
ssg75
g958
sg68
(lp965
S'content_length'
p966
asbag61
(g82
g63
NtRp967
(dp968
g66
(dp969
g93
g94
ssg75
g958
sg68
(lp970
S':'
asbag61
(g82
g63
NtRp971
(dp972
g66
(dp973
sg75
g958
sg68
(lp974
g61
(g62
g63
NtRp975
(dp976
g66
(dp977
g74
I4
ssg75
g971
sg68
(lp978
S'339'
p979
asbasbasbag61
(g77
g63
NtRp980
(dp981
g66
(dp982
sg75
g863
sg68
(lp983
g61
(g82
g63
NtRp984
(dp985
g66
(dp986
g86
g87
ssg75
g980
sg68
(lp987
S'content_type'
p988
asbag61
(g82
g63
NtRp989
(dp990
g66
(dp991
g93
g94
ssg75
g980
sg68
(lp992
S':'
asbag61
(g82
g63
NtRp993
(dp994
g66
(dp995
sg75
g980
sg68
(lp996
g61
(g62
g63
NtRp997
(dp998
g66
(dp999
g74
I4
ssg75
g993
sg68
(lp1000
S'multipart/form-data; boundary=---------------------------169199118315240457911234488986'
p1001
asbasbasbag61
(g77
g63
NtRp1002
(dp1003
g66
(dp1004
sg75
g863
sg68
(lp1005
g61
(g82
g63
NtRp1006
(dp1007
g66
(dp1008
g86
g87
ssg75
g1002
sg68
(lp1009
S'db_sessions'
p1010
asbag61
(g82
g63
NtRp1011
(dp1012
g66
(dp1013
g93
g94
ssg75
g1002
sg68
(lp1014
S':'
asbag61
(g82
g63
NtRp1015
(dp1016
g66
(dp1017
sg75
g1002
sg68
(lp1018
g61
(g62
g63
NtRp1019
(dp1020
g66
(dp1021
g74
I4
ssg75
g1015
sg68
(lp1022
S'set([])'
p1023
asbasbasbag61
(g77
g63
NtRp1024
(dp1025
g66
(dp1026
sg75
g863
sg68
(lp1027
g61
(g82
g63
NtRp1028
(dp1029
g66
(dp1030
g86
g87
ssg75
g1024
sg68
(lp1031
S'debugging'
p1032
asbag61
(g82
g63
NtRp1033
(dp1034
g66
(dp1035
g93
g94
ssg75
g1024
sg68
(lp1036
S':'
asbag61
(g82
g63
NtRp1037
(dp1038
g66
(dp1039
sg75
g1024
sg68
(lp1040
g61
(g62
g63
NtRp1041
(dp1042
g66
(dp1043
g74
I4
ssg75
g1037
sg68
(lp1044
g104
asbasbasbag61
(g77
g63
NtRp1045
(dp1046
g66
(dp1047
sg75
g863
sg68
(lp1048
g61
(g82
g63
NtRp1049
(dp1050
g66
(dp1051
g86
g87
ssg75
g1045
sg68
(lp1052
S'gluon_parent'
p1053
asbag61
(g82
g63
NtRp1054
(dp1055
g66
(dp1056
g93
g94
ssg75
g1045
sg68
(lp1057
S':'
asbag61
(g82
g63
NtRp1058
(dp1059
g66
(dp1060
sg75
g1045
sg68
(lp1061
g61
(g62
g63
NtRp1062
(dp1063
g66
(dp1064
g74
I4
ssg75
g1058
sg68
(lp1065
S'/home/piyush/web2py'
p1066
asbasbasbag61
(g77
g63
NtRp1067
(dp1068
g66
(dp1069
sg75
g863
sg68
(lp1070
g61
(g82
g63
NtRp1071
(dp1072
g66
(dp1073
g86
g87
ssg75
g1067
sg68
(lp1074
S'http_accept'
p1075
asbag61
(g82
g63
NtRp1076
(dp1077
g66
(dp1078
g93
g94
ssg75
g1067
sg68
(lp1079
S':'
asbag61
(g82
g63
NtRp1080
(dp1081
g66
(dp1082
sg75
g1067
sg68
(lp1083
g61
(g62
g63
NtRp1084
(dp1085
g66
(dp1086
g74
I4
ssg75
g1080
sg68
(lp1087
S'text/html,application/xhtml+xml,application/xml;q=0.9,*/*;q=0.8'
p1088
asbasbasbag61
(g77
g63
NtRp1089
(dp1090
g66
(dp1091
sg75
g863
sg68
(lp1092
g61
(g82
g63
NtRp1093
(dp1094
g66
(dp1095
g86
g87
ssg75
g1089
sg68
(lp1096
S'http_accept_encoding'
p1097
asbag61
(g82
g63
NtRp1098
(dp1099
g66
(dp1100
g93
g94
ssg75
g1089
sg68
(lp1101
S':'
asbag61
(g82
g63
NtRp1102
(dp1103
g66
(dp1104
sg75
g1089
sg68
(lp1105
g61
(g62
g63
NtRp1106
(dp1107
g66
(dp1108
g74
I4
ssg75
g1102
sg68
(lp1109
S'gzip, deflate'
p1110
asbasbasbag61
(g77
g63
NtRp1111
(dp1112
g66
(dp1113
sg75
g863
sg68
(lp1114
g61
(g82
g63
NtRp1115
(dp1116
g66
(dp1117
g86
g87
ssg75
g1111
sg68
(lp1118
S'http_accept_language'
p1119
asbag61
(g82
g63
NtRp1120
(dp1121
g66
(dp1122
g93
g94
ssg75
g1111
sg68
(lp1123
S':'
asbag61
(g82
g63
NtRp1124
(dp1125
g66
(dp1126
sg75
g1111
sg68
(lp1127
g61
(g62
g63
NtRp1128
(dp1129
g66
(dp1130
g74
I4
ssg75
g1124
sg68
(lp1131
S'en-us,en;q=0.5'
p1132
asbasbasbag61
(g77
g63
NtRp1133
(dp1134
g66
(dp1135
sg75
g863
sg68
(lp1136
g61
(g82
g63
NtRp1137
(dp1138
g66
(dp1139
g86
g87
ssg75
g1133
sg68
(lp1140
S'http_cache_control'
p1141
asbag61
(g82
g63
NtRp1142
(dp1143
g66
(dp1144
g93
g94
ssg75
g1133
sg68
(lp1145
S':'
asbag61
(g82
g63
NtRp1146
(dp1147
g66
(dp1148
sg75
g1133
sg68
(lp1149
g61
(g62
g63
NtRp1150
(dp1151
g66
(dp1152
g74
I4
ssg75
g1146
sg68
(lp1153
S'no-cache'
p1154
asbasbasbag61
(g77
g63
NtRp1155
(dp1156
g66
(dp1157
sg75
g863
sg68
(lp1158
g61
(g82
g63
NtRp1159
(dp1160
g66
(dp1161
g86
g87
ssg75
g1155
sg68
(lp1162
S'http_connection'
p1163
asbag61
(g82
g63
NtRp1164
(dp1165
g66
(dp1166
g93
g94
ssg75
g1155
sg68
(lp1167
S':'
asbag61
(g82
g63
NtRp1168
(dp1169
g66
(dp1170
sg75
g1155
sg68
(lp1171
g61
(g62
g63
NtRp1172
(dp1173
g66
(dp1174
g74
I4
ssg75
g1168
sg68
(lp1175
S'keep-alive'
p1176
asbasbasbag61
(g77
g63
NtRp1177
(dp1178
g66
(dp1179
sg75
g863
sg68
(lp1180
g61
(g82
g63
NtRp1181
(dp1182
g66
(dp1183
g86
g87
ssg75
g1177
sg68
(lp1184
S'http_content_length'
p1185
asbag61
(g82
g63
NtRp1186
(dp1187
g66
(dp1188
g93
g94
ssg75
g1177
sg68
(lp1189
S':'
asbag61
(g82
g63
NtRp1190
(dp1191
g66
(dp1192
sg75
g1177
sg68
(lp1193
g61
(g62
g63
NtRp1194
(dp1195
g66
(dp1196
g74
I4
ssg75
g1190
sg68
(lp1197
g979
asbasbasbag61
(g77
g63
NtRp1198
(dp1199
g66
(dp1200
sg75
g863
sg68
(lp1201
g61
(g82
g63
NtRp1202
(dp1203
g66
(dp1204
g86
g87
ssg75
g1198
sg68
(lp1205
S'http_content_type'
p1206
asbag61
(g82
g63
NtRp1207
(dp1208
g66
(dp1209
g93
g94
ssg75
g1198
sg68
(lp1210
S':'
asbag61
(g82
g63
NtRp1211
(dp1212
g66
(dp1213
sg75
g1198
sg68
(lp1214
g61
(g62
g63
NtRp1215
(dp1216
g66
(dp1217
g74
I4
ssg75
g1211
sg68
(lp1218
g1001
asbasbasbag61
(g77
g63
NtRp1219
(dp1220
g66
(dp1221
sg75
g863
sg68
(lp1222
g61
(g82
g63
NtRp1223
(dp1224
g66
(dp1225
g86
g87
ssg75
g1219
sg68
(lp1226
S'http_cookie'
p1227
asbag61
(g82
g63
NtRp1228
(dp1229
g66
(dp1230
g93
g94
ssg75
g1219
sg68
(lp1231
S':'
asbag61
(g82
g63
NtRp1232
(dp1233
g66
(dp1234
sg75
g1219
sg68
(lp1235
g61
(g62
g63
NtRp1236
(dp1237
g66
(dp1238
g74
I4
ssg75
g1232
sg68
(lp1239
S'session_id_welcome=127.0.0.1-d9249293-42c1-424c-bc11-0262fbc13d21; session_id_fotobuk=127.0.0.1-a0aa12fe-f234-43d8-b1ed-9cc366e4417f; session_id_admin=127.0.0.1-b3c2d1ad-f796-4da8-b8a8-41b2a25cf8e7'
p1240
asbasbasbag61
(g77
g63
NtRp1241
(dp1242
g66
(dp1243
sg75
g863
sg68
(lp1244
g61
(g82
g63
NtRp1245
(dp1246
g66
(dp1247
g86
g87
ssg75
g1241
sg68
(lp1248
S'http_host'
p1249
asbag61
(g82
g63
NtRp1250
(dp1251
g66
(dp1252
g93
g94
ssg75
g1241
sg68
(lp1253
S':'
asbag61
(g82
g63
NtRp1254
(dp1255
g66
(dp1256
sg75
g1241
sg68
(lp1257
g61
(g62
g63
NtRp1258
(dp1259
g66
(dp1260
g74
I4
ssg75
g1254
sg68
(lp1261
S'127.0.0.1:8000'
p1262
asbasbasbag61
(g77
g63
NtRp1263
(dp1264
g66
(dp1265
sg75
g863
sg68
(lp1266
g61
(g82
g63
NtRp1267
(dp1268
g66
(dp1269
g86
g87
ssg75
g1263
sg68
(lp1270
S'http_pragma'
p1271
asbag61
(g82
g63
NtRp1272
(dp1273
g66
(dp1274
g93
g94
ssg75
g1263
sg68
(lp1275
S':'
asbag61
(g82
g63
NtRp1276
(dp1277
g66
(dp1278
sg75
g1263
sg68
(lp1279
g61
(g62
g63
NtRp1280
(dp1281
g66
(dp1282
g74
I4
ssg75
g1276
sg68
(lp1283
S'no-cache'
p1284
asbasbasbag61
(g77
g63
NtRp1285
(dp1286
g66
(dp1287
sg75
g863
sg68
(lp1288
g61
(g82
g63
NtRp1289
(dp1290
g66
(dp1291
g86
g87
ssg75
g1285
sg68
(lp1292
S'http_referer'
p1293
asbag61
(g82
g63
NtRp1294
(dp1295
g66
(dp1296
g93
g94
ssg75
g1285
sg68
(lp1297
S':'
asbag61
(g82
g63
NtRp1298
(dp1299
g66
(dp1300
sg75
g1285
sg68
(lp1301
g61
(g62
g63
NtRp1302
(dp1303
g66
(dp1304
g74
I4
ssg75
g1298
sg68
(lp1305
S'http://127.0.0.1:8000/FotoBuk/default/show/6'
p1306
asbasbasbag61
(g77
g63
NtRp1307
(dp1308
g66
(dp1309
sg75
g863
sg68
(lp1310
g61
(g82
g63
NtRp1311
(dp1312
g66
(dp1313
g86
g87
ssg75
g1307
sg68
(lp1314
S'http_user_agent'
p1315
asbag61
(g82
g63
NtRp1316
(dp1317
g66
(dp1318
g93
g94
ssg75
g1307
sg68
(lp1319
S':'
asbag61
(g82
g63
NtRp1320
(dp1321
g66
(dp1322
sg75
g1307
sg68
(lp1323
g61
(g62
g63
NtRp1324
(dp1325
g66
(dp1326
g74
I4
ssg75
g1320
sg68
(lp1327
S'Mozilla/5.0 (X11; Linux i686; rv:11.0) Gecko/20100101 Firefox/11.0'
p1328
asbasbasbag61
(g77
g63
NtRp1329
(dp1330
g66
(dp1331
sg75
g863
sg68
(lp1332
g61
(g82
g63
NtRp1333
(dp1334
g66
(dp1335
g86
g87
ssg75
g1329
sg68
(lp1336
S'is_jython'
p1337
asbag61
(g82
g63
NtRp1338
(dp1339
g66
(dp1340
g93
g94
ssg75
g1329
sg68
(lp1341
S':'
asbag61
(g82
g63
NtRp1342
(dp1343
g66
(dp1344
sg75
g1329
sg68
(lp1345
g61
(g62
g63
NtRp1346
(dp1347
g66
(dp1348
g74
I4
ssg75
g1342
sg68
(lp1349
g104
asbasbasbag61
(g77
g63
NtRp1350
(dp1351
g66
(dp1352
sg75
g863
sg68
(lp1353
g61
(g82
g63
NtRp1354
(dp1355
g66
(dp1356
g86
g87
ssg75
g1350
sg68
(lp1357
S'is_pypy'
p1358
asbag61
(g82
g63
NtRp1359
(dp1360
g66
(dp1361
g93
g94
ssg75
g1350
sg68
(lp1362
S':'
asbag61
(g82
g63
NtRp1363
(dp1364
g66
(dp1365
sg75
g1350
sg68
(lp1366
g61
(g62
g63
NtRp1367
(dp1368
g66
(dp1369
g74
I4
ssg75
g1363
sg68
(lp1370
g104
asbasbasbag61
(g77
g63
NtRp1371
(dp1372
g66
(dp1373
sg75
g863
sg68
(lp1374
g61
(g82
g63
NtRp1375
(dp1376
g66
(dp1377
g86
g87
ssg75
g1371
sg68
(lp1378
S'path_info'
p1379
asbag61
(g82
g63
NtRp1380
(dp1381
g66
(dp1382
g93
g94
ssg75
g1371
sg68
(lp1383
S':'
asbag61
(g82
g63
NtRp1384
(dp1385
g66
(dp1386
sg75
g1371
sg68
(lp1387
g61
(g62
g63
NtRp1388
(dp1389
g66
(dp1390
g74
I4
ssg75
g1384
sg68
(lp1391
S'/FotoBuk/default/show/6'
p1392
asbasbasbag61
(g77
g63
NtRp1393
(dp1394
g66
(dp1395
sg75
g863
sg68
(lp1396
g61
(g82
g63
NtRp1397
(dp1398
g66
(dp1399
g86
g87
ssg75
g1393
sg68
(lp1400
S'query_string'
p1401
asbag61
(g82
g63
NtRp1402
(dp1403
g66
(dp1404
g93
g94
ssg75
g1393
sg68
(lp1405
S':'
asbag61
(g82
g63
NtRp1406
(dp1407
g66
(dp1408
sg75
g1393
sg68
(lp1409
g61
(g62
g63
NtRp1410
(dp1411
g66
(dp1412
g74
I4
ssg75
g1406
sg68
(lp1413
S''
asbasbasbag61
(g77
g63
NtRp1414
(dp1415
g66
(dp1416
sg75
g863
sg68
(lp1417
g61
(g82
g63
NtRp1418
(dp1419
g66
(dp1420
g86
g87
ssg75
g1414
sg68
(lp1421
S'remote_addr'
p1422
asbag61
(g82
g63
NtRp1423
(dp1424
g66
(dp1425
g93
g94
ssg75
g1414
sg68
(lp1426
S':'
asbag61
(g82
g63
NtRp1427
(dp1428
g66
(dp1429
sg75
g1414
sg68
(lp1430
g61
(g62
g63
NtRp1431
(dp1432
g66
(dp1433
g74
I4
ssg75
g1427
sg68
(lp1434
g228
asbasbasbag61
(g77
g63
NtRp1435
(dp1436
g66
(dp1437
sg75
g863
sg68
(lp1438
g61
(g82
g63
NtRp1439
(dp1440
g66
(dp1441
g86
g87
ssg75
g1435
sg68
(lp1442
S'remote_port'
p1443
asbag61
(g82
g63
NtRp1444
(dp1445
g66
(dp1446
g93
g94
ssg75
g1435
sg68
(lp1447
S':'
asbag61
(g82
g63
NtRp1448
(dp1449
g66
(dp1450
sg75
g1435
sg68
(lp1451
g61
(g62
g63
NtRp1452
(dp1453
g66
(dp1454
g74
I4
ssg75
g1448
sg68
(lp1455
S'53619'
p1456
asbasbasbag61
(g77
g63
NtRp1457
(dp1458
g66
(dp1459
sg75
g863
sg68
(lp1460
g61
(g82
g63
NtRp1461
(dp1462
g66
(dp1463
g86
g87
ssg75
g1457
sg68
(lp1464
S'request_method'
p1465
asbag61
(g82
g63
NtRp1466
(dp1467
g66
(dp1468
g93
g94
ssg75
g1457
sg68
(lp1469
S':'
asbag61
(g82
g63
NtRp1470
(dp1471
g66
(dp1472
sg75
g1457
sg68
(lp1473
g61
(g62
g63
NtRp1474
(dp1475
g66
(dp1476
g74
I4
ssg75
g1470
sg68
(lp1477
S'POST'
p1478
asbasbasbag61
(g77
g63
NtRp1479
(dp1480
g66
(dp1481
sg75
g863
sg68
(lp1482
g61
(g82
g63
NtRp1483
(dp1484
g66
(dp1485
g86
g87
ssg75
g1479
sg68
(lp1486
S'script_name'
p1487
asbag61
(g82
g63
NtRp1488
(dp1489
g66
(dp1490
g93
g94
ssg75
g1479
sg68
(lp1491
S':'
asbag61
(g82
g63
NtRp1492
(dp1493
g66
(dp1494
sg75
g1479
sg68
(lp1495
g61
(g62
g63
NtRp1496
(dp1497
g66
(dp1498
g74
I4
ssg75
g1492
sg68
(lp1499
S''
asbasbasbag61
(g77
g63
NtRp1500
(dp1501
g66
(dp1502
sg75
g863
sg68
(lp1503
g61
(g82
g63
NtRp1504
(dp1505
g66
(dp1506
g86
g87
ssg75
g1500
sg68
(lp1507
S'server_name'
p1508
asbag61
(g82
g63
NtRp1509
(dp1510
g66
(dp1511
g93
g94
ssg75
g1500
sg68
(lp1512
S':'
asbag61
(g82
g63
NtRp1513
(dp1514
g66
(dp1515
sg75
g1500
sg68
(lp1516
g61
(g62
g63
NtRp1517
(dp1518
g66
(dp1519
g74
I4
ssg75
g1513
sg68
(lp1520
S'Solo'
p1521
asbasbasbag61
(g77
g63
NtRp1522
(dp1523
g66
(dp1524
sg75
g863
sg68
(lp1525
g61
(g82
g63
NtRp1526
(dp1527
g66
(dp1528
g86
g87
ssg75
g1522
sg68
(lp1529
S'server_port'
p1530
asbag61
(g82
g63
NtRp1531
(dp1532
g66
(dp1533
g93
g94
ssg75
g1522
sg68
(lp1534
S':'
asbag61
(g82
g63
NtRp1535
(dp1536
g66
(dp1537
sg75
g1522
sg68
(lp1538
g61
(g62
g63
NtRp1539
(dp1540
g66
(dp1541
g74
I4
ssg75
g1535
sg68
(lp1542
S'8000'
p1543
asbasbasbag61
(g77
g63
NtRp1544
(dp1545
g66
(dp1546
sg75
g863
sg68
(lp1547
g61
(g82
g63
NtRp1548
(dp1549
g66
(dp1550
g86
g87
ssg75
g1544
sg68
(lp1551
S'server_protocol'
p1552
asbag61
(g82
g63
NtRp1553
(dp1554
g66
(dp1555
g93
g94
ssg75
g1544
sg68
(lp1556
S':'
asbag61
(g82
g63
NtRp1557
(dp1558
g66
(dp1559
sg75
g1544
sg68
(lp1560
g61
(g62
g63
NtRp1561
(dp1562
g66
(dp1563
g74
I4
ssg75
g1557
sg68
(lp1564
S'HTTP/1.1'
p1565
asbasbasbag61
(g77
g63
NtRp1566
(dp1567
g66
(dp1568
sg75
g863
sg68
(lp1569
g61
(g82
g63
NtRp1570
(dp1571
g66
(dp1572
g86
g87
ssg75
g1566
sg68
(lp1573
S'server_software'
p1574
asbag61
(g82
g63
NtRp1575
(dp1576
g66
(dp1577
g93
g94
ssg75
g1566
sg68
(lp1578
S':'
asbag61
(g82
g63
NtRp1579
(dp1580
g66
(dp1581
sg75
g1566
sg68
(lp1582
g61
(g62
g63
NtRp1583
(dp1584
g66
(dp1585
g74
I4
ssg75
g1579
sg68
(lp1586
S'Rocket 1.2.4'
p1587
asbasbasbag61
(g77
g63
NtRp1588
(dp1589
g66
(dp1590
sg75
g863
sg68
(lp1591
g61
(g82
g63
NtRp1592
(dp1593
g66
(dp1594
g86
g87
ssg75
g1588
sg68
(lp1595
S'web2py_crontype'
p1596
asbag61
(g82
g63
NtRp1597
(dp1598
g66
(dp1599
g93
g94
ssg75
g1588
sg68
(lp1600
S':'
asbag61
(g82
g63
NtRp1601
(dp1602
g66
(dp1603
sg75
g1588
sg68
(lp1604
g61
(g62
g63
NtRp1605
(dp1606
g66
(dp1607
g74
I4
ssg75
g1601
sg68
(lp1608
S'hard'
p1609
asbasbasbag61
(g77
g63
NtRp1610
(dp1611
g66
(dp1612
sg75
g863
sg68
(lp1613
g61
(g82
g63
NtRp1614
(dp1615
g66
(dp1616
g86
g87
ssg75
g1610
sg68
(lp1617
S'web2py_path'
p1618
asbag61
(g82
g63
NtRp1619
(dp1620
g66
(dp1621
g93
g94
ssg75
g1610
sg68
(lp1622
S':'
asbag61
(g82
g63
NtRp1623
(dp1624
g66
(dp1625
sg75
g1610
sg68
(lp1626
g61
(g62
g63
NtRp1627
(dp1628
g66
(dp1629
g74
I4
ssg75
g1623
sg68
(lp1630
g910
asbasbasbag61
(g77
g63
NtRp1631
(dp1632
g66
(dp1633
sg75
g863
sg68
(lp1634
g61
(g82
g63
NtRp1635
(dp1636
g66
(dp1637
g86
g87
ssg75
g1631
sg68
(lp1638
S'web2py_version'
p1639
asbag61
(g82
g63
NtRp1640
(dp1641
g66
(dp1642
g93
g94
ssg75
g1631
sg68
(lp1643
S':'
asbag61
(g82
g63
NtRp1644
(dp1645
g66
(dp1646
sg75
g1631
sg68
(lp1647
g61
(g62
g63
NtRp1648
(dp1649
g66
(dp1650
g74
I4
ssg75
g1644
sg68
(lp1651
g61
(g70
g63
NtRp1652
(dp1653
g66
(dp1654
g74
I3
ssg75
Nsg68
(lp1655
g61
(g77
g63
NtRp1656
(dp1657
g66
(dp1658
sg75
g1652
sg68
(lp1659
g61
(g82
g63
NtRp1660
(dp1661
g66
(dp1662
sg75
g1656
sg68
(lp1663
g61
(g62
g63
NtRp1664
(dp1665
g66
(dp1666
g74
I3
ssg75
g1660
sg68
(lp1667
S'2'
asbasbasbag61
(g77
g63
NtRp1668
(dp1669
g66
(dp1670
sg75
g1652
sg68
(lp1671
g61
(g82
g63
NtRp1672
(dp1673
g66
(dp1674
sg75
g1668
sg68
(lp1675
g61
(g62
g63
NtRp1676
(dp1677
g66
(dp1678
g74
I3
ssg75
g1672
sg68
(lp1679
S'0'
asbasbasbag61
(g77
g63
NtRp1680
(dp1681
g66
(dp1682
sg75
g1652
sg68
(lp1683
g61
(g82
g63
NtRp1684
(dp1685
g66
(dp1686
sg75
g1680
sg68
(lp1687
g61
(g62
g63
NtRp1688
(dp1689
g66
(dp1690
g74
I3
ssg75
g1684
sg68
(lp1691
S'2'
asbasbasbag61
(g77
g63
NtRp1692
(dp1693
g66
(dp1694
sg75
g1652
sg68
(lp1695
g61
(g82
g63
NtRp1696
(dp1697
g66
(dp1698
sg75
g1692
sg68
(lp1699
g61
(g62
g63
NtRp1700
(dp1701
g66
(dp1702
g74
I3
ssg75
g1696
sg68
(lp1703
S'datetime.datetime(2012, 8, 30, 4, 8, 18)'
p1704
asbasbasbag61
(g77
g63
NtRp1705
(dp1706
g66
(dp1707
sg75
g1652
sg68
(lp1708
g61
(g82
g63
NtRp1709
(dp1710
g66
(dp1711
sg75
g1705
sg68
(lp1712
g61
(g62
g63
NtRp1713
(dp1714
g66
(dp1715
g74
I3
ssg75
g1709
sg68
(lp1716
S'stable'
p1717
asbasbasbasbasbasbasbag61
(g77
g63
NtRp1718
(dp1719
g66
(dp1720
sg75
g863
sg68
(lp1721
g61
(g82
g63
NtRp1722
(dp1723
g66
(dp1724
g86
g87
ssg75
g1718
sg68
(lp1725
S'wsgi_errors'
p1726
asbag61
(g82
g63
NtRp1727
(dp1728
g66
(dp1729
g93
g94
ssg75
g1718
sg68
(lp1730
S':'
asbag61
(g82
g63
NtRp1731
(dp1732
g66
(dp1733
sg75
g1718
sg68
(lp1734
g61
(g62
g63
NtRp1735
(dp1736
g66
(dp1737
g74
I4
ssg75
g1731
sg68
(lp1738
S"<open file '<stderr>', mode 'w' at 0xb772d0d0>"
p1739
asbasbasbag61
(g77
g63
NtRp1740
(dp1741
g66
(dp1742
sg75
g863
sg68
(lp1743
g61
(g82
g63
NtRp1744
(dp1745
g66
(dp1746
g86
g87
ssg75
g1740
sg68
(lp1747
S'wsgi_file_wrapper'
p1748
asbag61
(g82
g63
NtRp1749
(dp1750
g66
(dp1751
g93
g94
ssg75
g1740
sg68
(lp1752
S':'
asbag61
(g82
g63
NtRp1753
(dp1754
g66
(dp1755
sg75
g1740
sg68
(lp1756
g61
(g62
g63
NtRp1757
(dp1758
g66
(dp1759
g74
I4
ssg75
g1753
sg68
(lp1760
S'<class wsgiref.util.FileWrapper at 0x8d0326c>'
p1761
asbasbasbag61
(g77
g63
NtRp1762
(dp1763
g66
(dp1764
sg75
g863
sg68
(lp1765
g61
(g82
g63
NtRp1766
(dp1767
g66
(dp1768
g86
g87
ssg75
g1762
sg68
(lp1769
S'wsgi_input'
p1770
asbag61
(g82
g63
NtRp1771
(dp1772
g66
(dp1773
g93
g94
ssg75
g1762
sg68
(lp1774
S':'
asbag61
(g82
g63
NtRp1775
(dp1776
g66
(dp1777
sg75
g1762
sg68
(lp1778
g61
(g62
g63
NtRp1779
(dp1780
g66
(dp1781
g74
I4
ssg75
g1775
sg68
(lp1782
S'<socket._fileobject object at 0xb576272c>'
p1783
asbasbasbag61
(g77
g63
NtRp1784
(dp1785
g66
(dp1786
sg75
g863
sg68
(lp1787
g61
(g82
g63
NtRp1788
(dp1789
g66
(dp1790
g86
g87
ssg75
g1784
sg68
(lp1791
S'wsgi_multiprocess'
p1792
asbag61
(g82
g63
NtRp1793
(dp1794
g66
(dp1795
g93
g94
ssg75
g1784
sg68
(lp1796
S':'
asbag61
(g82
g63
NtRp1797
(dp1798
g66
(dp1799
sg75
g1784
sg68
(lp1800
g61
(g62
g63
NtRp1801
(dp1802
g66
(dp1803
g74
I4
ssg75
g1797
sg68
(lp1804
g104
asbasbasbag61
(g77
g63
NtRp1805
(dp1806
g66
(dp1807
sg75
g863
sg68
(lp1808
g61
(g82
g63
NtRp1809
(dp1810
g66
(dp1811
g86
g87
ssg75
g1805
sg68
(lp1812
S'wsgi_multithread'
p1813
asbag61
(g82
g63
NtRp1814
(dp1815
g66
(dp1816
g93
g94
ssg75
g1805
sg68
(lp1817
S':'
asbag61
(g82
g63
NtRp1818
(dp1819
g66
(dp1820
sg75
g1805
sg68
(lp1821
g61
(g62
g63
NtRp1822
(dp1823
g66
(dp1824
g74
I4
ssg75
g1818
sg68
(lp1825
S'True'
p1826
asbasbasbag61
(g77
g63
NtRp1827
(dp1828
g66
(dp1829
sg75
g863
sg68
(lp1830
g61
(g82
g63
NtRp1831
(dp1832
g66
(dp1833
g86
g87
ssg75
g1827
sg68
(lp1834
S'wsgi_run_once'
p1835
asbag61
(g82
g63
NtRp1836
(dp1837
g66
(dp1838
g93
g94
ssg75
g1827
sg68
(lp1839
S':'
asbag61
(g82
g63
NtRp1840
(dp1841
g66
(dp1842
sg75
g1827
sg68
(lp1843
g61
(g62
g63
NtRp1844
(dp1845
g66
(dp1846
g74
I4
ssg75
g1840
sg68
(lp1847
g104
asbasbasbag61
(g77
g63
NtRp1848
(dp1849
g66
(dp1850
sg75
g863
sg68
(lp1851
g61
(g82
g63
NtRp1852
(dp1853
g66
(dp1854
g86
g87
ssg75
g1848
sg68
(lp1855
S'wsgi_url_scheme'
p1856
asbag61
(g82
g63
NtRp1857
(dp1858
g66
(dp1859
g93
g94
ssg75
g1848
sg68
(lp1860
S':'
asbag61
(g82
g63
NtRp1861
(dp1862
g66
(dp1863
sg75
g1848
sg68
(lp1864
g61
(g62
g63
NtRp1865
(dp1866
g66
(dp1867
g74
I4
ssg75
g1861
sg68
(lp1868
S'http'
p1869
asbasbasbag61
(g77
g63
NtRp1870
(dp1871
g66
(dp1872
sg75
g863
sg68
(lp1873
g61
(g82
g63
NtRp1874
(dp1875
g66
(dp1876
g86
g87
ssg75
g1870
sg68
(lp1877
S'wsgi_version'
p1878
asbag61
(g82
g63
NtRp1879
(dp1880
g66
(dp1881
g93
g94
ssg75
g1870
sg68
(lp1882
S':'
asbag61
(g82
g63
NtRp1883
(dp1884
g66
(dp1885
sg75
g1870
sg68
(lp1886
g61
(g62
g63
NtRp1887
(dp1888
g66
(dp1889
g74
I4
ssg75
g1883
sg68
(lp1890
g61
(g70
g63
NtRp1891
(dp1892
g66
(dp1893
g74
I3
ssg75
Nsg68
(lp1894
g61
(g77
g63
NtRp1895
(dp1896
g66
(dp1897
sg75
g1891
sg68
(lp1898
g61
(g82
g63
NtRp1899
(dp1900
g66
(dp1901
sg75
g1895
sg68
(lp1902
g61
(g62
g63
NtRp1903
(dp1904
g66
(dp1905
g74
I3
ssg75
g1899
sg68
(lp1906
S'1'
asbasbasbag61
(g77
g63
NtRp1907
(dp1908
g66
(dp1909
sg75
g1891
sg68
(lp1910
g61
(g82
g63
NtRp1911
(dp1912
g66
(dp1913
sg75
g1907
sg68
(lp1914
g61
(g62
g63
NtRp1915
(dp1916
g66
(dp1917
g74
I3
ssg75
g1911
sg68
(lp1918
S'0'
asbasbasbasbasbasbasbasbasbasbasbag61
(g77
g63
NtRp1919
(dp1920
g66
(dp1921
sg75
g71
sg68
(lp1922
g61
(g82
g63
NtRp1923
(dp1924
g66
(dp1925
g86
g87
ssg75
g1919
sg68
(lp1926
S'extension'
p1927
asbag61
(g82
g63
NtRp1928
(dp1929
g66
(dp1930
g93
g94
ssg75
g1919
sg68
(lp1931
S':'
asbag61
(g82
g63
NtRp1932
(dp1933
g66
(dp1934
sg75
g1919
sg68
(lp1935
g61
(g62
g63
NtRp1936
(dp1937
g66
(dp1938
g74
I5
ssg75
g1932
sg68
(lp1939
S'html'
p1940
asbasbasbag61
(g77
g63
NtRp1941
(dp1942
g66
(dp1943
sg75
g71
sg68
(lp1944
g61
(g82
g63
NtRp1945
(dp1946
g66
(dp1947
g86
g87
ssg75
g1941
sg68
(lp1948
S'folder'
p1949
asbag61
(g82
g63
NtRp1950
(dp1951
g66
(dp1952
g93
g94
ssg75
g1941
sg68
(lp1953
S':'
asbag61
(g82
g63
NtRp1954
(dp1955
g66
(dp1956
sg75
g1941
sg68
(lp1957
g61
(g62
g63
NtRp1958
(dp1959
g66
(dp1960
g74
I5
ssg75
g1954
sg68
(lp1961
S'/home/piyush/web2py/applications/FotoBuk/'
p1962
asbasbasbag61
(g77
g63
NtRp1963
(dp1964
g66
(dp1965
sg75
g71
sg68
(lp1966
g61
(g82
g63
NtRp1967
(dp1968
g66
(dp1969
g86
g87
ssg75
g1963
sg68
(lp1970
S'function'
p1971
asbag61
(g82
g63
NtRp1972
(dp1973
g66
(dp1974
g93
g94
ssg75
g1963
sg68
(lp1975
S':'
asbag61
(g82
g63
NtRp1976
(dp1977
g66
(dp1978
sg75
g1963
sg68
(lp1979
g61
(g62
g63
NtRp1980
(dp1981
g66
(dp1982
g74
I5
ssg75
g1976
sg68
(lp1983
S'show'
p1984
asbasbasbag61
(g77
g63
NtRp1985
(dp1986
g66
(dp1987
sg75
g71
sg68
(lp1988
g61
(g82
g63
NtRp1989
(dp1990
g66
(dp1991
g86
g87
ssg75
g1985
sg68
(lp1992
S'get_vars'
p1993
asbag61
(g82
g63
NtRp1994
(dp1995
g66
(dp1996
g93
g94
ssg75
g1985
sg68
(lp1997
S':'
asbag61
(g82
g63
NtRp1998
(dp1999
g66
(dp2000
sg75
g1985
sg68
(lp2001
g61
(g62
g63
NtRp2002
(dp2003
g66
(dp2004
g74
I5
ssg75
g1998
sg68
(lp2005
g61
(g70
g63
NtRp2006
(dp2007
g66
(dp2008
g74
I4
ssg75
Nsg68
(lp2009
sbasbasbasbag61
(g77
g63
NtRp2010
(dp2011
g66
(dp2012
sg75
g71
sg68
(lp2013
g61
(g82
g63
NtRp2014
(dp2015
g66
(dp2016
g86
g87
ssg75
g2010
sg68
(lp2017
S'global_settings'
p2018
asbag61
(g82
g63
NtRp2019
(dp2020
g66
(dp2021
g93
g94
ssg75
g2010
sg68
(lp2022
S':'
asbag61
(g82
g63
NtRp2023
(dp2024
g66
(dp2025
sg75
g2010
sg68
(lp2026
g61
(g62
g63
NtRp2027
(dp2028
g66
(dp2029
g74
I5
ssg75
g2023
sg68
(lp2030
g61
(g70
g63
NtRp2031
(dp2032
g66
(dp2033
g74
I4
ssg75
Nsg68
(lp2034
g61
(g77
g63
NtRp2035
(dp2036
g66
(dp2037
sg75
g2031
sg68
(lp2038
g61
(g82
g63
NtRp2039
(dp2040
g66
(dp2041
g86
g87
ssg75
g2035
sg68
(lp2042
g875
asbag61
(g82
g63
NtRp2043
(dp2044
g66
(dp2045
g93
g94
ssg75
g2035
sg68
(lp2046
S':'
asbag61
(g82
g63
NtRp2047
(dp2048
g66
(dp2049
sg75
g2035
sg68
(lp2050
g61
(g62
g63
NtRp2051
(dp2052
g66
(dp2053
g74
I4
ssg75
g2047
sg68
(lp2054
S"set(['/home/piyush/web2py/applications/FotoBuk/', '/home/piyush/web2py/applications/welcome/', '/home/piyush/web2py/applications/admin/'])"
p2055
asbasbasbag61
(g77
g63
NtRp2056
(dp2057
g66
(dp2058
sg75
g2031
sg68
(lp2059
g61
(g82
g63
NtRp2060
(dp2061
g66
(dp2062
g86
g87
ssg75
g2056
sg68
(lp2063
g897
asbag61
(g82
g63
NtRp2064
(dp2065
g66
(dp2066
g93
g94
ssg75
g2056
sg68
(lp2067
S':'
asbag61
(g82
g63
NtRp2068
(dp2069
g66
(dp2070
sg75
g2056
sg68
(lp2071
g61
(g62
g63
NtRp2072
(dp2073
g66
(dp2074
g74
I4
ssg75
g2068
sg68
(lp2075
g910
asbasbasbag61
(g77
g63
NtRp2076
(dp2077
g66
(dp2078
sg75
g2031
sg68
(lp2079
g61
(g82
g63
NtRp2080
(dp2081
g66
(dp2082
g86
g87
ssg75
g2076
sg68
(lp2083
g919
asbag61
(g82
g63
NtRp2084
(dp2085
g66
(dp2086
g93
g94
ssg75
g2076
sg68
(lp2087
S':'
asbag61
(g82
g63
NtRp2088
(dp2089
g66
(dp2090
sg75
g2076
sg68
(lp2091
g61
(g62
g63
NtRp2092
(dp2093
g66
(dp2094
g74
I4
ssg75
g2088
sg68
(lp2095
g61
(g70
g63
NtRp2096
(dp2097
g66
(dp2098
g74
I3
ssg75
Nsg68
(lp2099
sbasbasbasbag61
(g77
g63
NtRp2100
(dp2101
g66
(dp2102
sg75
g2031
sg68
(lp2103
g61
(g82
g63
NtRp2104
(dp2105
g66
(dp2106
g86
g87
ssg75
g2100
sg68
(lp2107
g944
asbag61
(g82
g63
NtRp2108
(dp2109
g66
(dp2110
g93
g94
ssg75
g2100
sg68
(lp2111
S':'
asbag61
(g82
g63
NtRp2112
(dp2113
g66
(dp2114
sg75
g2100
sg68
(lp2115
g61
(g62
g63
NtRp2116
(dp2117
g66
(dp2118
g74
I4
ssg75
g2112
sg68
(lp2119
S"<Values at 0x8d4130c: {'verbose': False, 'ip': '127.0.0.1', 'with_scheduler': False, 'ips': ['10.1.39.167', '10.42.0.1'], 'shutdown_timeout': 5, 'taskbar': False, 'port': 8000, 'maxthreads': None, 'softcron': False, 'server_name': 'Solo', 'bpython': False, 'nogui': False, 'nocron': False, 'extcron': False, 'run_system_tests': False, 'test': None, 'folder': '/home/piyush/web2py', 'config': '', 'import_models': False, 'winservice': '', 'shell': None, 'run': '', 'log_filename': 'httpserver.log', 'debuglevel': 30, 'args': [''], 'socket_timeout': 5, 'ssl_ca_certificate': None, 'scheduler': None, 'profiler_filename': None, 'ssl_private_key': '', 'scheduler_groups': None, 'password': '<ask>', 'request_queue_size': 5, 'ssl_certificate': '', 'cronjob': False, 'numthreads': None, 'quiet': False, 'interfaces': None, 'minthreads': None, 'timeout': 10, 'plain': False, 'nobanner': False, 'pid_filename': 'httpserver.pid'}>"
p2120
asbasbasbag61
(g77
g63
NtRp2121
(dp2122
g66
(dp2123
sg75
g2031
sg68
(lp2124
g61
(g82
g63
NtRp2125
(dp2126
g66
(dp2127
g86
g87
ssg75
g2121
sg68
(lp2128
g1010
asbag61
(g82
g63
NtRp2129
(dp2130
g66
(dp2131
g93
g94
ssg75
g2121
sg68
(lp2132
S':'
asbag61
(g82
g63
NtRp2133
(dp2134
g66
(dp2135
sg75
g2121
sg68
(lp2136
g61
(g62
g63
NtRp2137
(dp2138
g66
(dp2139
g74
I4
ssg75
g2133
sg68
(lp2140
S'set([])'
p2141
asbasbasbag61
(g77
g63
NtRp2142
(dp2143
g66
(dp2144
sg75
g2031
sg68
(lp2145
g61
(g82
g63
NtRp2146
(dp2147
g66
(dp2148
g86
g87
ssg75
g2142
sg68
(lp2149
g1032
asbag61
(g82
g63
NtRp2150
(dp2151
g66
(dp2152
g93
g94
ssg75
g2142
sg68
(lp2153
S':'
asbag61
(g82
g63
NtRp2154
(dp2155
g66
(dp2156
sg75
g2142
sg68
(lp2157
g61
(g62
g63
NtRp2158
(dp2159
g66
(dp2160
g74
I4
ssg75
g2154
sg68
(lp2161
g104
asbasbasbag61
(g77
g63
NtRp2162
(dp2163
g66
(dp2164
sg75
g2031
sg68
(lp2165
g61
(g82
g63
NtRp2166
(dp2167
g66
(dp2168
g86
g87
ssg75
g2162
sg68
(lp2169
g1053
asbag61
(g82
g63
NtRp2170
(dp2171
g66
(dp2172
g93
g94
ssg75
g2162
sg68
(lp2173
S':'
asbag61
(g82
g63
NtRp2174
(dp2175
g66
(dp2176
sg75
g2162
sg68
(lp2177
g61
(g62
g63
NtRp2178
(dp2179
g66
(dp2180
g74
I4
ssg75
g2174
sg68
(lp2181
g1066
asbasbasbag61
(g77
g63
NtRp2182
(dp2183
g66
(dp2184
sg75
g2031
sg68
(lp2185
g61
(g82
g63
NtRp2186
(dp2187
g66
(dp2188
g86
g87
ssg75
g2182
sg68
(lp2189
g1337
asbag61
(g82
g63
NtRp2190
(dp2191
g66
(dp2192
g93
g94
ssg75
g2182
sg68
(lp2193
S':'
asbag61
(g82
g63
NtRp2194
(dp2195
g66
(dp2196
sg75
g2182
sg68
(lp2197
g61
(g62
g63
NtRp2198
(dp2199
g66
(dp2200
g74
I4
ssg75
g2194
sg68
(lp2201
g104
asbasbasbag61
(g77
g63
NtRp2202
(dp2203
g66
(dp2204
sg75
g2031
sg68
(lp2205
g61
(g82
g63
NtRp2206
(dp2207
g66
(dp2208
g86
g87
ssg75
g2202
sg68
(lp2209
g1358
asbag61
(g82
g63
NtRp2210
(dp2211
g66
(dp2212
g93
g94
ssg75
g2202
sg68
(lp2213
S':'
asbag61
(g82
g63
NtRp2214
(dp2215
g66
(dp2216
sg75
g2202
sg68
(lp2217
g61
(g62
g63
NtRp2218
(dp2219
g66
(dp2220
g74
I4
ssg75
g2214
sg68
(lp2221
g104
asbasbasbag61
(g77
g63
NtRp2222
(dp2223
g66
(dp2224
sg75
g2031
sg68
(lp2225
g61
(g82
g63
NtRp2226
(dp2227
g66
(dp2228
g86
g87
ssg75
g2222
sg68
(lp2229
g1596
asbag61
(g82
g63
NtRp2230
(dp2231
g66
(dp2232
g93
g94
ssg75
g2222
sg68
(lp2233
S':'
asbag61
(g82
g63
NtRp2234
(dp2235
g66
(dp2236
sg75
g2222
sg68
(lp2237
g61
(g62
g63
NtRp2238
(dp2239
g66
(dp2240
g74
I4
ssg75
g2234
sg68
(lp2241
g1609
asbasbasbag61
(g77
g63
NtRp2242
(dp2243
g66
(dp2244
sg75
g2031
sg68
(lp2245
g61
(g82
g63
NtRp2246
(dp2247
g66
(dp2248
g86
g87
ssg75
g2242
sg68
(lp2249
g1639
asbag61
(g82
g63
NtRp2250
(dp2251
g66
(dp2252
g93
g94
ssg75
g2242
sg68
(lp2253
S':'
asbag61
(g82
g63
NtRp2254
(dp2255
g66
(dp2256
sg75
g2242
sg68
(lp2257
g61
(g62
g63
NtRp2258
(dp2259
g66
(dp2260
g74
I4
ssg75
g2254
sg68
(lp2261
g61
(g70
g63
NtRp2262
(dp2263
g66
(dp2264
g74
I3
ssg75
Nsg68
(lp2265
g61
(g77
g63
NtRp2266
(dp2267
g66
(dp2268
sg75
g2262
sg68
(lp2269
g61
(g82
g63
NtRp2270
(dp2271
g66
(dp2272
sg75
g2266
sg68
(lp2273
g61
(g62
g63
NtRp2274
(dp2275
g66
(dp2276
g74
I3
ssg75
g2270
sg68
(lp2277
S'2'
asbasbasbag61
(g77
g63
NtRp2278
(dp2279
g66
(dp2280
sg75
g2262
sg68
(lp2281
g61
(g82
g63
NtRp2282
(dp2283
g66
(dp2284
sg75
g2278
sg68
(lp2285
g61
(g62
g63
NtRp2286
(dp2287
g66
(dp2288
g74
I3
ssg75
g2282
sg68
(lp2289
S'0'
asbasbasbag61
(g77
g63
NtRp2290
(dp2291
g66
(dp2292
sg75
g2262
sg68
(lp2293
g61
(g82
g63
NtRp2294
(dp2295
g66
(dp2296
sg75
g2290
sg68
(lp2297
g61
(g62
g63
NtRp2298
(dp2299
g66
(dp2300
g74
I3
ssg75
g2294
sg68
(lp2301
S'2'
asbasbasbag61
(g77
g63
NtRp2302
(dp2303
g66
(dp2304
sg75
g2262
sg68
(lp2305
g61
(g82
g63
NtRp2306
(dp2307
g66
(dp2308
sg75
g2302
sg68
(lp2309
g61
(g62
g63
NtRp2310
(dp2311
g66
(dp2312
g74
I3
ssg75
g2306
sg68
(lp2313
S'datetime.datetime(2012, 8, 30, 4, 8, 18)'
p2314
asbasbasbag61
(g77
g63
NtRp2315
(dp2316
g66
(dp2317
sg75
g2262
sg68
(lp2318
g61
(g82
g63
NtRp2319
(dp2320
g66
(dp2321
sg75
g2315
sg68
(lp2322
g61
(g62
g63
NtRp2323
(dp2324
g66
(dp2325
g74
I3
ssg75
g2319
sg68
(lp2326
g1717
asbasbasbasbasbasbasbasbasbasbasbag61
(g77
g63
NtRp2327
(dp2328
g66
(dp2329
sg75
g71
sg68
(lp2330
g61
(g82
g63
NtRp2331
(dp2332
g66
(dp2333
g86
g87
ssg75
g2327
sg68
(lp2334
S'is_https'
p2335
asbag61
(g82
g63
NtRp2336
(dp2337
g66
(dp2338
g93
g94
ssg75
g2327
sg68
(lp2339
S':'
asbag61
(g82
g63
NtRp2340
(dp2341
g66
(dp2342
sg75
g2327
sg68
(lp2343
g61
(g62
g63
NtRp2344
(dp2345
g66
(dp2346
g74
I5
ssg75
g2340
sg68
(lp2347
g104
asbasbasbag61
(g77
g63
NtRp2348
(dp2349
g66
(dp2350
sg75
g71
sg68
(lp2351
g61
(g82
g63
NtRp2352
(dp2353
g66
(dp2354
g86
g87
ssg75
g2348
sg68
(lp2355
S'is_local'
p2356
asbag61
(g82
g63
NtRp2357
(dp2358
g66
(dp2359
g93
g94
ssg75
g2348
sg68
(lp2360
S':'
asbag61
(g82
g63
NtRp2361
(dp2362
g66
(dp2363
sg75
g2348
sg68
(lp2364
g61
(g62
g63
NtRp2365
(dp2366
g66
(dp2367
g74
I5
ssg75
g2361
sg68
(lp2368
g1826
asbasbasbag61
(g77
g63
NtRp2369
(dp2370
g66
(dp2371
sg75
g71
sg68
(lp2372
g61
(g82
g63
NtRp2373
(dp2374
g66
(dp2375
g86
g87
ssg75
g2369
sg68
(lp2376
S'is_restful'
p2377
asbag61
(g82
g63
NtRp2378
(dp2379
g66
(dp2380
g93
g94
ssg75
g2369
sg68
(lp2381
S':'
asbag61
(g82
g63
NtRp2382
(dp2383
g66
(dp2384
sg75
g2369
sg68
(lp2385
g61
(g62
g63
NtRp2386
(dp2387
g66
(dp2388
g74
I5
ssg75
g2382
sg68
(lp2389
g104
asbasbasbag61
(g77
g63
NtRp2390
(dp2391
g66
(dp2392
sg75
g71
sg68
(lp2393
g61
(g82
g63
NtRp2394
(dp2395
g66
(dp2396
g86
g87
ssg75
g2390
sg68
(lp2397
S'now'
p2398
asbag61
(g82
g63
NtRp2399
(dp2400
g66
(dp2401
g93
g94
ssg75
g2390
sg68
(lp2402
S':'
asbag61
(g82
g63
NtRp2403
(dp2404
g66
(dp2405
sg75
g2390
sg68
(lp2406
g61
(g62
g63
NtRp2407
(dp2408
g66
(dp2409
g74
I5
ssg75
g2403
sg68
(lp2410
S'datetime.datetime(2012, 8, 31, 14, 23, 50, 475291)'
p2411
asbasbasbag61
(g77
g63
NtRp2412
(dp2413
g66
(dp2414
sg75
g71
sg68
(lp2415
g61
(g82
g63
NtRp2416
(dp2417
g66
(dp2418
g86
g87
ssg75
g2412
sg68
(lp2419
S'post_vars'
p2420
asbag61
(g82
g63
NtRp2421
(dp2422
g66
(dp2423
g93
g94
ssg75
g2412
sg68
(lp2424
S':'
asbag61
(g82
g63
NtRp2425
(dp2426
g66
(dp2427
sg75
g2412
sg68
(lp2428
g61
(g62
g63
NtRp2429
(dp2430
g66
(dp2431
g74
I5
ssg75
g2425
sg68
(lp2432
g61
(g70
g63
NtRp2433
(dp2434
g66
(dp2435
g74
I4
ssg75
Nsg68
(lp2436
sbasbasbasbag61
(g77
g63
NtRp2437
(dp2438
g66
(dp2439
sg75
g71
sg68
(lp2440
g61
(g82
g63
NtRp2441
(dp2442
g66
(dp2443
g86
g87
ssg75
g2437
sg68
(lp2444
S'raw_args'
p2445
asbag61
(g82
g63
NtRp2446
(dp2447
g66
(dp2448
g93
g94
ssg75
g2437
sg68
(lp2449
S':'
asbag61
(g82
g63
NtRp2450
(dp2451
g66
(dp2452
sg75
g2437
sg68
(lp2453
g61
(g62
g63
NtRp2454
(dp2455
g66
(dp2456
g74
I5
ssg75
g2450
sg68
(lp2457
S'6'
asbasbasbag61
(g77
g63
NtRp2458
(dp2459
g66
(dp2460
sg75
g71
sg68
(lp2461
g61
(g82
g63
NtRp2462
(dp2463
g66
(dp2464
g86
g87
ssg75
g2458
sg68
(lp2465
S'raw_extension'
p2466
asbag61
(g82
g63
NtRp2467
(dp2468
g66
(dp2469
g93
g94
ssg75
g2458
sg68
(lp2470
S':'
asbag61
(g82
g63
NtRp2471
(dp2472
g66
(dp2473
sg75
g2458
sg68
(lp2474
g61
(g62
g63
NtRp2475
(dp2476
g66
(dp2477
g74
I5
ssg75
g2471
sg68
(lp2478
S'None'
p2479
asbasbasbag61
(g77
g63
NtRp2480
(dp2481
g66
(dp2482
sg75
g71
sg68
(lp2483
g61
(g82
g63
NtRp2484
(dp2485
g66
(dp2486
g86
g87
ssg75
g2480
sg68
(lp2487
S'url'
p2488
asbag61
(g82
g63
NtRp2489
(dp2490
g66
(dp2491
g93
g94
ssg75
g2480
sg68
(lp2492
S':'
asbag61
(g82
g63
NtRp2493
(dp2494
g66
(dp2495
sg75
g2480
sg68
(lp2496
g61
(g62
g63
NtRp2497
(dp2498
g66
(dp2499
g74
I5
ssg75
g2493
sg68
(lp2500
S'/FotoBuk/default/show/6'
p2501
asbasbasbag61
(g77
g63
NtRp2502
(dp2503
g66
(dp2504
sg75
g71
sg68
(lp2505
g61
(g82
g63
NtRp2506
(dp2507
g66
(dp2508
g86
g87
ssg75
g2502
sg68
(lp2509
S'utcnow'
p2510
asbag61
(g82
g63
NtRp2511
(dp2512
g66
(dp2513
g93
g94
ssg75
g2502
sg68
(lp2514
S':'
asbag61
(g82
g63
NtRp2515
(dp2516
g66
(dp2517
sg75
g2502
sg68
(lp2518
g61
(g62
g63
NtRp2519
(dp2520
g66
(dp2521
g74
I5
ssg75
g2515
sg68
(lp2522
S'datetime.datetime(2012, 8, 31, 8, 53, 50, 475315)'
p2523
asbasbasbag61
(g77
g63
NtRp2524
(dp2525
g66
(dp2526
sg75
g71
sg68
(lp2527
g61
(g82
g63
NtRp2528
(dp2529
g66
(dp2530
g86
g87
ssg75
g2524
sg68
(lp2531
S'uuid'
p2532
asbag61
(g82
g63
NtRp2533
(dp2534
g66
(dp2535
g93
g94
ssg75
g2524
sg68
(lp2536
S':'
asbag61
(g82
g63
NtRp2537
(dp2538
g66
(dp2539
sg75
g2524
sg68
(lp2540
g61
(g62
g63
NtRp2541
(dp2542
g66
(dp2543
g74
I5
ssg75
g2537
sg68
(lp2544
S'FotoBuk/127.0.0.1.2012-08-31.14-23-50.475c4ac3-5515-41e9-b20a-7e4b1da14317'
p2545
asbasbasbag61
(g77
g63
NtRp2546
(dp2547
g66
(dp2548
sg75
g71
sg68
(lp2549
g61
(g82
g63
NtRp2550
(dp2551
g66
(dp2552
g86
g87
ssg75
g2546
sg68
(lp2553
S'vars'
p2554
asbag61
(g82
g63
NtRp2555
(dp2556
g66
(dp2557
g93
g94
ssg75
g2546
sg68
(lp2558
S':'
asbag61
(g82
g63
NtRp2559
(dp2560
g66
(dp2561
sg75
g2546
sg68
(lp2562
g61
(g62
g63
NtRp2563
(dp2564
g66
(dp2565
g74
I5
ssg75
g2559
sg68
(lp2566
g61
(g70
g63
NtRp2567
(dp2568
g66
(dp2569
g74
I4
ssg75
Nsg68
(lp2570
sbasbasbasbag61
(g77
g63
NtRp2571
(dp2572
g66
(dp2573
sg75
g71
sg68
(lp2574
g61
(g82
g63
NtRp2575
(dp2576
g66
(dp2577
g86
g87
ssg75
g2571
sg68
(lp2578
S'wsgi'
p2579
asbag61
(g82
g63
NtRp2580
(dp2581
g66
(dp2582
g93
g94
ssg75
g2571
sg68
(lp2583
S':'
asbag61
(g82
g63
NtRp2584
(dp2585
g66
(dp2586
sg75
g2571
sg68
(lp2587
g61
(g62
g63
NtRp2588
(dp2589
g66
(dp2590
g74
I5
ssg75
g2584
sg68
(lp2591
g61
(g70
g63
NtRp2592
(dp2593
g66
(dp2594
g74
I4
ssg75
Nsg68
(lp2595
g61
(g77
g63
NtRp2596
(dp2597
g66
(dp2598
sg75
g2592
sg68
(lp2599
g61
(g82
g63
NtRp2600
(dp2601
g66
(dp2602
g86
g87
ssg75
g2596
sg68
(lp2603
S'environ'
p2604
asbag61
(g82
g63
NtRp2605
(dp2606
g66
(dp2607
g93
g94
ssg75
g2596
sg68
(lp2608
S':'
asbag61
(g82
g63
NtRp2609
(dp2610
g66
(dp2611
sg75
g2596
sg68
(lp2612
g61
(g62
g63
NtRp2613
(dp2614
g66
(dp2615
g74
I4
ssg75
g2609
sg68
(lp2616
g61
(g70
g63
NtRp2617
(dp2618
g66
(dp2619
g74
I3
ssg75
Nsg68
(lp2620
g61
(g77
g63
NtRp2621
(dp2622
g66
(dp2623
sg75
g2617
sg68
(lp2624
g61
(g82
g63
NtRp2625
(dp2626
g66
(dp2627
g86
g87
ssg75
g2621
sg68
(lp2628
S'CONTENT_LENGTH'
p2629
asbag61
(g82
g63
NtRp2630
(dp2631
g66
(dp2632
g93
g94
ssg75
g2621
sg68
(lp2633
S':'
asbag61
(g82
g63
NtRp2634
(dp2635
g66
(dp2636
sg75
g2621
sg68
(lp2637
g61
(g62
g63
NtRp2638
(dp2639
g66
(dp2640
g74
I3
ssg75
g2634
sg68
(lp2641
g979
asbasbasbag61
(g77
g63
NtRp2642
(dp2643
g66
(dp2644
sg75
g2617
sg68
(lp2645
g61
(g82
g63
NtRp2646
(dp2647
g66
(dp2648
g86
g87
ssg75
g2642
sg68
(lp2649
S'CONTENT_TYPE'
p2650
asbag61
(g82
g63
NtRp2651
(dp2652
g66
(dp2653
g93
g94
ssg75
g2642
sg68
(lp2654
S':'
asbag61
(g82
g63
NtRp2655
(dp2656
g66
(dp2657
sg75
g2642
sg68
(lp2658
g61
(g62
g63
NtRp2659
(dp2660
g66
(dp2661
g74
I3
ssg75
g2655
sg68
(lp2662
g1001
asbasbasbag61
(g77
g63
NtRp2663
(dp2664
g66
(dp2665
sg75
g2617
sg68
(lp2666
g61
(g82
g63
NtRp2667
(dp2668
g66
(dp2669
g86
g87
ssg75
g2663
sg68
(lp2670
S'HTTP_ACCEPT'
p2671
asbag61
(g82
g63
NtRp2672
(dp2673
g66
(dp2674
g93
g94
ssg75
g2663
sg68
(lp2675
S':'
asbag61
(g82
g63
NtRp2676
(dp2677
g66
(dp2678
sg75
g2663
sg68
(lp2679
g61
(g62
g63
NtRp2680
(dp2681
g66
(dp2682
g74
I3
ssg75
g2676
sg68
(lp2683
g1088
asbasbasbag61
(g77
g63
NtRp2684
(dp2685
g66
(dp2686
sg75
g2617
sg68
(lp2687
g61
(g82
g63
NtRp2688
(dp2689
g66
(dp2690
g86
g87
ssg75
g2684
sg68
(lp2691
S'HTTP_ACCEPT_ENCODING'
p2692
asbag61
(g82
g63
NtRp2693
(dp2694
g66
(dp2695
g93
g94
ssg75
g2684
sg68
(lp2696
S':'
asbag61
(g82
g63
NtRp2697
(dp2698
g66
(dp2699
sg75
g2684
sg68
(lp2700
g61
(g62
g63
NtRp2701
(dp2702
g66
(dp2703
g74
I3
ssg75
g2697
sg68
(lp2704
g1110
asbasbasbag61
(g77
g63
NtRp2705
(dp2706
g66
(dp2707
sg75
g2617
sg68
(lp2708
g61
(g82
g63
NtRp2709
(dp2710
g66
(dp2711
g86
g87
ssg75
g2705
sg68
(lp2712
S'HTTP_ACCEPT_LANGUAGE'
p2713
asbag61
(g82
g63
NtRp2714
(dp2715
g66
(dp2716
g93
g94
ssg75
g2705
sg68
(lp2717
S':'
asbag61
(g82
g63
NtRp2718
(dp2719
g66
(dp2720
sg75
g2705
sg68
(lp2721
g61
(g62
g63
NtRp2722
(dp2723
g66
(dp2724
g74
I3
ssg75
g2718
sg68
(lp2725
g1132
asbasbasbag61
(g77
g63
NtRp2726
(dp2727
g66
(dp2728
sg75
g2617
sg68
(lp2729
g61
(g82
g63
NtRp2730
(dp2731
g66
(dp2732
g86
g87
ssg75
g2726
sg68
(lp2733
S'HTTP_CACHE_CONTROL'
p2734
asbag61
(g82
g63
NtRp2735
(dp2736
g66
(dp2737
g93
g94
ssg75
g2726
sg68
(lp2738
S':'
asbag61
(g82
g63
NtRp2739
(dp2740
g66
(dp2741
sg75
g2726
sg68
(lp2742
g61
(g62
g63
NtRp2743
(dp2744
g66
(dp2745
g74
I3
ssg75
g2739
sg68
(lp2746
g1154
asbasbasbag61
(g77
g63
NtRp2747
(dp2748
g66
(dp2749
sg75
g2617
sg68
(lp2750
g61
(g82
g63
NtRp2751
(dp2752
g66
(dp2753
g86
g87
ssg75
g2747
sg68
(lp2754
S'HTTP_CONNECTION'
p2755
asbag61
(g82
g63
NtRp2756
(dp2757
g66
(dp2758
g93
g94
ssg75
g2747
sg68
(lp2759
S':'
asbag61
(g82
g63
NtRp2760
(dp2761
g66
(dp2762
sg75
g2747
sg68
(lp2763
g61
(g62
g63
NtRp2764
(dp2765
g66
(dp2766
g74
I3
ssg75
g2760
sg68
(lp2767
g1176
asbasbasbag61
(g77
g63
NtRp2768
(dp2769
g66
(dp2770
sg75
g2617
sg68
(lp2771
g61
(g82
g63
NtRp2772
(dp2773
g66
(dp2774
g86
g87
ssg75
g2768
sg68
(lp2775
S'HTTP_CONTENT_LENGTH'
p2776
asbag61
(g82
g63
NtRp2777
(dp2778
g66
(dp2779
g93
g94
ssg75
g2768
sg68
(lp2780
S':'
asbag61
(g82
g63
NtRp2781
(dp2782
g66
(dp2783
sg75
g2768
sg68
(lp2784
g61
(g62
g63
NtRp2785
(dp2786
g66
(dp2787
g74
I3
ssg75
g2781
sg68
(lp2788
g979
asbasbasbag61
(g77
g63
NtRp2789
(dp2790
g66
(dp2791
sg75
g2617
sg68
(lp2792
g61
(g82
g63
NtRp2793
(dp2794
g66
(dp2795
g86
g87
ssg75
g2789
sg68
(lp2796
S'HTTP_CONTENT_TYPE'
p2797
asbag61
(g82
g63
NtRp2798
(dp2799
g66
(dp2800
g93
g94
ssg75
g2789
sg68
(lp2801
S':'
asbag61
(g82
g63
NtRp2802
(dp2803
g66
(dp2804
sg75
g2789
sg68
(lp2805
g61
(g62
g63
NtRp2806
(dp2807
g66
(dp2808
g74
I3
ssg75
g2802
sg68
(lp2809
g1001
asbasbasbag61
(g77
g63
NtRp2810
(dp2811
g66
(dp2812
sg75
g2617
sg68
(lp2813
g61
(g82
g63
NtRp2814
(dp2815
g66
(dp2816
g86
g87
ssg75
g2810
sg68
(lp2817
S'HTTP_COOKIE'
p2818
asbag61
(g82
g63
NtRp2819
(dp2820
g66
(dp2821
g93
g94
ssg75
g2810
sg68
(lp2822
S':'
asbag61
(g82
g63
NtRp2823
(dp2824
g66
(dp2825
sg75
g2810
sg68
(lp2826
g61
(g62
g63
NtRp2827
(dp2828
g66
(dp2829
g74
I3
ssg75
g2823
sg68
(lp2830
g1240
asbasbasbag61
(g77
g63
NtRp2831
(dp2832
g66
(dp2833
sg75
g2617
sg68
(lp2834
g61
(g82
g63
NtRp2835
(dp2836
g66
(dp2837
g86
g87
ssg75
g2831
sg68
(lp2838
S'HTTP_HOST'
p2839
asbag61
(g82
g63
NtRp2840
(dp2841
g66
(dp2842
g93
g94
ssg75
g2831
sg68
(lp2843
S':'
asbag61
(g82
g63
NtRp2844
(dp2845
g66
(dp2846
sg75
g2831
sg68
(lp2847
g61
(g62
g63
NtRp2848
(dp2849
g66
(dp2850
g74
I3
ssg75
g2844
sg68
(lp2851
g1262
asbasbasbag61
(g77
g63
NtRp2852
(dp2853
g66
(dp2854
sg75
g2617
sg68
(lp2855
g61
(g82
g63
NtRp2856
(dp2857
g66
(dp2858
g86
g87
ssg75
g2852
sg68
(lp2859
S'HTTP_PRAGMA'
p2860
asbag61
(g82
g63
NtRp2861
(dp2862
g66
(dp2863
g93
g94
ssg75
g2852
sg68
(lp2864
S':'
asbag61
(g82
g63
NtRp2865
(dp2866
g66
(dp2867
sg75
g2852
sg68
(lp2868
g61
(g62
g63
NtRp2869
(dp2870
g66
(dp2871
g74
I3
ssg75
g2865
sg68
(lp2872
g1284
asbasbasbag61
(g77
g63
NtRp2873
(dp2874
g66
(dp2875
sg75
g2617
sg68
(lp2876
g61
(g82
g63
NtRp2877
(dp2878
g66
(dp2879
g86
g87
ssg75
g2873
sg68
(lp2880
S'HTTP_REFERER'
p2881
asbag61
(g82
g63
NtRp2882
(dp2883
g66
(dp2884
g93
g94
ssg75
g2873
sg68
(lp2885
S':'
asbag61
(g82
g63
NtRp2886
(dp2887
g66
(dp2888
sg75
g2873
sg68
(lp2889
g61
(g62
g63
NtRp2890
(dp2891
g66
(dp2892
g74
I3
ssg75
g2886
sg68
(lp2893
g1306
asbasbasbag61
(g77
g63
NtRp2894
(dp2895
g66
(dp2896
sg75
g2617
sg68
(lp2897
g61
(g82
g63
NtRp2898
(dp2899
g66
(dp2900
g86
g87
ssg75
g2894
sg68
(lp2901
S'HTTP_USER_AGENT'
p2902
asbag61
(g82
g63
NtRp2903
(dp2904
g66
(dp2905
g93
g94
ssg75
g2894
sg68
(lp2906
S':'
asbag61
(g82
g63
NtRp2907
(dp2908
g66
(dp2909
sg75
g2894
sg68
(lp2910
g61
(g62
g63
NtRp2911
(dp2912
g66
(dp2913
g74
I3
ssg75
g2907
sg68
(lp2914
g1328
asbasbasbag61
(g77
g63
NtRp2915
(dp2916
g66
(dp2917
sg75
g2617
sg68
(lp2918
g61
(g82
g63
NtRp2919
(dp2920
g66
(dp2921
g86
g87
ssg75
g2915
sg68
(lp2922
S'PATH_INFO'
p2923
asbag61
(g82
g63
NtRp2924
(dp2925
g66
(dp2926
g93
g94
ssg75
g2915
sg68
(lp2927
S':'
asbag61
(g82
g63
NtRp2928
(dp2929
g66
(dp2930
sg75
g2915
sg68
(lp2931
g61
(g62
g63
NtRp2932
(dp2933
g66
(dp2934
g74
I3
ssg75
g2928
sg68
(lp2935
g1392
asbasbasbag61
(g77
g63
NtRp2936
(dp2937
g66
(dp2938
sg75
g2617
sg68
(lp2939
g61
(g82
g63
NtRp2940
(dp2941
g66
(dp2942
g86
g87
ssg75
g2936
sg68
(lp2943
S'QUERY_STRING'
p2944
asbag61
(g82
g63
NtRp2945
(dp2946
g66
(dp2947
g93
g94
ssg75
g2936
sg68
(lp2948
S':'
asbag61
(g82
g63
NtRp2949
(dp2950
g66
(dp2951
sg75
g2936
sg68
(lp2952
g61
(g62
g63
NtRp2953
(dp2954
g66
(dp2955
g74
I3
ssg75
g2949
sg68
(lp2956
S''
asbasbasbag61
(g77
g63
NtRp2957
(dp2958
g66
(dp2959
sg75
g2617
sg68
(lp2960
g61
(g82
g63
NtRp2961
(dp2962
g66
(dp2963
g86
g87
ssg75
g2957
sg68
(lp2964
S'REMOTE_ADDR'
p2965
asbag61
(g82
g63
NtRp2966
(dp2967
g66
(dp2968
g93
g94
ssg75
g2957
sg68
(lp2969
S':'
asbag61
(g82
g63
NtRp2970
(dp2971
g66
(dp2972
sg75
g2957
sg68
(lp2973
g61
(g62
g63
NtRp2974
(dp2975
g66
(dp2976
g74
I3
ssg75
g2970
sg68
(lp2977
g228
asbasbasbag61
(g77
g63
NtRp2978
(dp2979
g66
(dp2980
sg75
g2617
sg68
(lp2981
g61
(g82
g63
NtRp2982
(dp2983
g66
(dp2984
g86
g87
ssg75
g2978
sg68
(lp2985
S'REMOTE_PORT'
p2986
asbag61
(g82
g63
NtRp2987
(dp2988
g66
(dp2989
g93
g94
ssg75
g2978
sg68
(lp2990
S':'
asbag61
(g82
g63
NtRp2991
(dp2992
g66
(dp2993
sg75
g2978
sg68
(lp2994
g61
(g62
g63
NtRp2995
(dp2996
g66
(dp2997
g74
I3
ssg75
g2991
sg68
(lp2998
g1456
asbasbasbag61
(g77
g63
NtRp2999
(dp3000
g66
(dp3001
sg75
g2617
sg68
(lp3002
g61
(g82
g63
NtRp3003
(dp3004
g66
(dp3005
g86
g87
ssg75
g2999
sg68
(lp3006
S'REQUEST_METHOD'
p3007
asbag61
(g82
g63
NtRp3008
(dp3009
g66
(dp3010
g93
g94
ssg75
g2999
sg68
(lp3011
S':'
asbag61
(g82
g63
NtRp3012
(dp3013
g66
(dp3014
sg75
g2999
sg68
(lp3015
g61
(g62
g63
NtRp3016
(dp3017
g66
(dp3018
g74
I3
ssg75
g3012
sg68
(lp3019
g1478
asbasbasbag61
(g77
g63
NtRp3020
(dp3021
g66
(dp3022
sg75
g2617
sg68
(lp3023
g61
(g82
g63
NtRp3024
(dp3025
g66
(dp3026
g86
g87
ssg75
g3020
sg68
(lp3027
S'SCRIPT_NAME'
p3028
asbag61
(g82
g63
NtRp3029
(dp3030
g66
(dp3031
g93
g94
ssg75
g3020
sg68
(lp3032
S':'
asbag61
(g82
g63
NtRp3033
(dp3034
g66
(dp3035
sg75
g3020
sg68
(lp3036
g61
(g62
g63
NtRp3037
(dp3038
g66
(dp3039
g74
I3
ssg75
g3033
sg68
(lp3040
S''
asbasbasbag61
(g77
g63
NtRp3041
(dp3042
g66
(dp3043
sg75
g2617
sg68
(lp3044
g61
(g82
g63
NtRp3045
(dp3046
g66
(dp3047
g86
g87
ssg75
g3041
sg68
(lp3048
S'SERVER_NAME'
p3049
asbag61
(g82
g63
NtRp3050
(dp3051
g66
(dp3052
g93
g94
ssg75
g3041
sg68
(lp3053
S':'
asbag61
(g82
g63
NtRp3054
(dp3055
g66
(dp3056
sg75
g3041
sg68
(lp3057
g61
(g62
g63
NtRp3058
(dp3059
g66
(dp3060
g74
I3
ssg75
g3054
sg68
(lp3061
g1521
asbasbasbag61
(g77
g63
NtRp3062
(dp3063
g66
(dp3064
sg75
g2617
sg68
(lp3065
g61
(g82
g63
NtRp3066
(dp3067
g66
(dp3068
g86
g87
ssg75
g3062
sg68
(lp3069
S'SERVER_PORT'
p3070
asbag61
(g82
g63
NtRp3071
(dp3072
g66
(dp3073
g93
g94
ssg75
g3062
sg68
(lp3074
S':'
asbag61
(g82
g63
NtRp3075
(dp3076
g66
(dp3077
sg75
g3062
sg68
(lp3078
g61
(g62
g63
NtRp3079
(dp3080
g66
(dp3081
g74
I3
ssg75
g3075
sg68
(lp3082
g1543
asbasbasbag61
(g77
g63
NtRp3083
(dp3084
g66
(dp3085
sg75
g2617
sg68
(lp3086
g61
(g82
g63
NtRp3087
(dp3088
g66
(dp3089
g86
g87
ssg75
g3083
sg68
(lp3090
S'SERVER_PROTOCOL'
p3091
asbag61
(g82
g63
NtRp3092
(dp3093
g66
(dp3094
g93
g94
ssg75
g3083
sg68
(lp3095
S':'
asbag61
(g82
g63
NtRp3096
(dp3097
g66
(dp3098
sg75
g3083
sg68
(lp3099
g61
(g62
g63
NtRp3100
(dp3101
g66
(dp3102
g74
I3
ssg75
g3096
sg68
(lp3103
g1565
asbasbasbag61
(g77
g63
NtRp3104
(dp3105
g66
(dp3106
sg75
g2617
sg68
(lp3107
g61
(g82
g63
NtRp3108
(dp3109
g66
(dp3110
g86
g87
ssg75
g3104
sg68
(lp3111
S'SERVER_SOFTWARE'
p3112
asbag61
(g82
g63
NtRp3113
(dp3114
g66
(dp3115
g93
g94
ssg75
g3104
sg68
(lp3116
S':'
asbag61
(g82
g63
NtRp3117
(dp3118
g66
(dp3119
sg75
g3104
sg68
(lp3120
g61
(g62
g63
NtRp3121
(dp3122
g66
(dp3123
g74
I3
ssg75
g3117
sg68
(lp3124
g1587
asbasbasbag61
(g77
g63
NtRp3125
(dp3126
g66
(dp3127
sg75
g2617
sg68
(lp3128
g61
(g82
g63
NtRp3129
(dp3130
g66
(dp3131
g86
g87
ssg75
g3125
sg68
(lp3132
S'wsgi.errors'
p3133
asbag61
(g82
g63
NtRp3134
(dp3135
g66
(dp3136
g93
g94
ssg75
g3125
sg68
(lp3137
S':'
asbag61
(g82
g63
NtRp3138
(dp3139
g66
(dp3140
sg75
g3125
sg68
(lp3141
g61
(g62
g63
NtRp3142
(dp3143
g66
(dp3144
g74
I3
ssg75
g3138
sg68
(lp3145
S"<open file '<stderr>', mode 'w' at 0xb772d0d0>"
p3146
asbasbasbag61
(g77
g63
NtRp3147
(dp3148
g66
(dp3149
sg75
g2617
sg68
(lp3150
g61
(g82
g63
NtRp3151
(dp3152
g66
(dp3153
g86
g87
ssg75
g3147
sg68
(lp3154
S'wsgi.file_wrapper'
p3155
asbag61
(g82
g63
NtRp3156
(dp3157
g66
(dp3158
g93
g94
ssg75
g3147
sg68
(lp3159
S':'
asbag61
(g82
g63
NtRp3160
(dp3161
g66
(dp3162
sg75
g3147
sg68
(lp3163
g61
(g62
g63
NtRp3164
(dp3165
g66
(dp3166
g74
I3
ssg75
g3160
sg68
(lp3167
S'<class wsgiref.util.FileWrapper at 0x8d0326c>'
p3168
asbasbasbag61
(g77
g63
NtRp3169
(dp3170
g66
(dp3171
sg75
g2617
sg68
(lp3172
g61
(g82
g63
NtRp3173
(dp3174
g66
(dp3175
g86
g87
ssg75
g3169
sg68
(lp3176
S'wsgi.input'
p3177
asbag61
(g82
g63
NtRp3178
(dp3179
g66
(dp3180
g93
g94
ssg75
g3169
sg68
(lp3181
S':'
asbag61
(g82
g63
NtRp3182
(dp3183
g66
(dp3184
sg75
g3169
sg68
(lp3185
g61
(g62
g63
NtRp3186
(dp3187
g66
(dp3188
g74
I3
ssg75
g3182
sg68
(lp3189
S"<open file '<fdopen>', mode 'w+b' at 0xb39be128>"
p3190
asbasbasbag61
(g77
g63
NtRp3191
(dp3192
g66
(dp3193
sg75
g2617
sg68
(lp3194
g61
(g82
g63
NtRp3195
(dp3196
g66
(dp3197
g86
g87
ssg75
g3191
sg68
(lp3198
S'wsgi.multiprocess'
p3199
asbag61
(g82
g63
NtRp3200
(dp3201
g66
(dp3202
g93
g94
ssg75
g3191
sg68
(lp3203
S':'
asbag61
(g82
g63
NtRp3204
(dp3205
g66
(dp3206
sg75
g3191
sg68
(lp3207
g61
(g62
g63
NtRp3208
(dp3209
g66
(dp3210
g74
I3
ssg75
g3204
sg68
(lp3211
g104
asbasbasbag61
(g77
g63
NtRp3212
(dp3213
g66
(dp3214
sg75
g2617
sg68
(lp3215
g61
(g82
g63
NtRp3216
(dp3217
g66
(dp3218
g86
g87
ssg75
g3212
sg68
(lp3219
S'wsgi.multithread'
p3220
asbag61
(g82
g63
NtRp3221
(dp3222
g66
(dp3223
g93
g94
ssg75
g3212
sg68
(lp3224
S':'
asbag61
(g82
g63
NtRp3225
(dp3226
g66
(dp3227
sg75
g3212
sg68
(lp3228
g61
(g62
g63
NtRp3229
(dp3230
g66
(dp3231
g74
I3
ssg75
g3225
sg68
(lp3232
g1826
asbasbasbag61
(g77
g63
NtRp3233
(dp3234
g66
(dp3235
sg75
g2617
sg68
(lp3236
g61
(g82
g63
NtRp3237
(dp3238
g66
(dp3239
g86
g87
ssg75
g3233
sg68
(lp3240
S'wsgi.run_once'
p3241
asbag61
(g82
g63
NtRp3242
(dp3243
g66
(dp3244
g93
g94
ssg75
g3233
sg68
(lp3245
S':'
asbag61
(g82
g63
NtRp3246
(dp3247
g66
(dp3248
sg75
g3233
sg68
(lp3249
g61
(g62
g63
NtRp3250
(dp3251
g66
(dp3252
g74
I3
ssg75
g3246
sg68
(lp3253
g104
asbasbasbag61
(g77
g63
NtRp3254
(dp3255
g66
(dp3256
sg75
g2617
sg68
(lp3257
g61
(g82
g63
NtRp3258
(dp3259
g66
(dp3260
g86
g87
ssg75
g3254
sg68
(lp3261
S'wsgi.url_scheme'
p3262
asbag61
(g82
g63
NtRp3263
(dp3264
g66
(dp3265
g93
g94
ssg75
g3254
sg68
(lp3266
S':'
asbag61
(g82
g63
NtRp3267
(dp3268
g66
(dp3269
sg75
g3254
sg68
(lp3270
g61
(g62
g63
NtRp3271
(dp3272
g66
(dp3273
g74
I3
ssg75
g3267
sg68
(lp3274
g1869
asbasbasbag61
(g77
g63
NtRp3275
(dp3276
g66
(dp3277
sg75
g2617
sg68
(lp3278
g61
(g82
g63
NtRp3279
(dp3280
g66
(dp3281
g86
g87
ssg75
g3275
sg68
(lp3282
S'wsgi.version'
p3283
asbag61
(g82
g63
NtRp3284
(dp3285
g66
(dp3286
g93
g94
ssg75
g3275
sg68
(lp3287
S':'
asbag61
(g82
g63
NtRp3288
(dp3289
g66
(dp3290
sg75
g3275
sg68
(lp3291
g61
(g62
g63
NtRp3292
(dp3293
g66
(dp3294
g74
I3
ssg75
g3288
sg68
(lp3295
S'1'
asbasbasbasbasbasbasbasbasbasbasbasbasbsS'frames'
p3296
(lp3297
(dp3298
S'file'
p3299
S'/home/piyush/web2py/gluon/restricted.py'
p3300
sS'dump'
p3301
(dp3302
S'environment'
p3303
S"{'A': <class 'gluon.html.A'>, 'Auth': <class 'gluon.tools.Auth'>, 'B': <class 'gluon.html.B'>, 'BEAUTIFY': <class 'gluon.html.BEAUTIFY'>, 'BODY': <class 'gluon.html.BODY'>, 'BR': <class 'gluon.html.BR'>, 'BUTTON': <class 'gluon.html.BUTTON'>, 'CAT': <class 'gluon.html.CAT'>, 'CENTER': <class 'gluon.html.CENTER'>, 'CLEANUP': <class 'gluon.validators.CLEANUP'>, ...}"
p3304
sS'ccode'
p3305
S'<code object <module> at 0xaea1e9f8, file "/home...ications/FotoBuk/controllers/default.py", line 1>'
p3306
ssS'lnum'
p3307
I209
sS'lines'
p3308
(dp3309
I204
S'    try:'
p3310
sI205
S'        if type(code) == types.CodeType:'
p3311
sI206
S'            ccode = code'
p3312
sI207
S'        else:'
p3313
sI208
S'            ccode = compile2(code,layer)'
p3314
sI209
S'        exec ccode in environment'
p3315
sI210
S'    except HTTP:'
p3316
sI211
S'        raise'
p3317
sI212
S'    except RestrictedError:'
p3318
sI213
S'        # do not encapsulate (obfuscate) the original RestrictedError'
p3319
ssS'call'
p3320
S"(code='@auth.requires_login()\\ndef index():\\n\\tli=db(db.im...quest,db)\\n\\nresponse._vars=response._caller(show)\\n', environment={'A': <class 'gluon.html.A'>, 'Auth': <class 'gluon.tools.Auth'>, 'B': <class 'gluon.html.B'>, 'BEAUTIFY': <class 'gluon.html.BEAUTIFY'>, 'BODY': <class 'gluon.html.BODY'>, 'BR': <class 'gluon.html.BR'>, 'BUTTON': <class 'gluon.html.BUTTON'>, 'CAT': <class 'gluon.html.CAT'>, 'CENTER': <class 'gluon.html.CENTER'>, 'CLEANUP': <class 'gluon.validators.CLEANUP'>, ...}, layer='/home/piyush/web2py/applications/FotoBuk/controllers/default.py')"
p3321
sS'func'
p3322
S'restricted'
p3323
sa(dp3324
g3299
S'/home/piyush/web2py/applications/FotoBuk/controllers/default.py'
p3325
sg3301
(dp3326
sg3307
I61
sg3308
(dp3327
I50
S''
sI51
S'def delete():'
p3328
sI52
S'    db(db.image.id==request.args(0)).delete()'
p3329
sI53
S'    image = db(db.image.id==request.args(0)).select()'
p3330
sI54
S''
sI55
S'def user():'
p3331
sI56
S'\treturn dict(form=auth())'
p3332
sI57
S''
sI58
S'def download():'
p3333
sI59
S'\treturn response.download(request,db)'
p3334
ssg3320
S'()'
p3335
sg3322
S'<module>'
p3336
sa(dp3337
g3299
S'/home/piyush/web2py/gluon/globals.py'
p3338
sg3301
(dp3339
S'self'
p3340
S'undefined'
p3341
sS'f'
S'<function show>'
p3342
ssg3307
I185
sg3308
(dp3343
I180
S'        self.menu = []             # used by the default view layout'
p3344
sI181
S'        self.files = []            # used by web2py_ajax.html'
p3345
sI182
S'        self.generic_patterns = [] # patterns to allow generic views'
p3346
sI183
S"        self.delimiters = ('{{','}}')"
p3347
sI184
S'        self._vars = None'
p3348
sI185
S'        self._caller = lambda f: f()'
p3349
sI186
S'        self._view_environment = None'
p3350
sI187
S'        self._custom_commit = None'
p3351
sI188
S'        self._custom_rollback = None'
p3352
sI189
S''
ssg3320
S'(f=<function show>)'
p3353
sg3322
S'<lambda>'
p3354
sa(dp3355
g3299
S'/home/piyush/web2py/gluon/tools.py'
p3356
sg3301
(dp3357
S'action'
p3358
S'<function show>'
p3359
sS'a'
S'()'
p3360
sS'b'
g21
ssg3307
I2776
sg3308
(dp3361
I2771
S'                    flag = condition'
p3362
sI2772
S'                if not flag:'
p3363
sI2773
S'                    current.session.flash = self.messages.access_denied'
p3364
sI2774
S'                    return call_or_redirect('
p3365
sI2775
S'                        self.settings.on_failed_authorization)'
p3366
sI2776
S'                return action(*a, **b)'
p3367
sI2777
S'            f.__doc__ = action.__doc__'
p3368
sI2778
S'            f.__name__ = action.__name__'
p3369
sI2779
S'            f.__dict__.update(action.__dict__)'
p3370
sI2780
S'            return f'
p3371
ssg3320
S'(*a=(), **b={})'
p3372
sg3322
S'f'
sa(dp3373
g3299
S'/home/piyush/web2py/applications/FotoBuk/controllers/default.py'
p3374
sg3301
(dp3375
S'form2'
p3376
S'<gluon.sqlhtml.SQLFORM object>'
p3377
sS'form2.process'
p3378
S'<bound method SQLFORM.process of <gluon.sqlhtml.SQLFORM object>>'
p3379
sS').accepted'
p3380
g3341
ssg3307
I36
sg3308
(dp3381
I32
S'#\t    if int(cur_user) == int(lik.liker):'
p3382
sI33
S'#\t\t    flag=1'
p3383
sI34
S'    print flag'
p3384
sI35
S'    form2 = SQLFORM(db.like)'
p3385
sI36
S'    if form2.process().accepted:'
p3386
sI37
S"\tprint 'yes'"
p3387
sI38
S"\tresponse.flash = 'You have liked the image'"
p3388
sI39
S'    \tdb.like.insert(likername=auth.user.first_name)'
p3389
sI40
S'\tdb.like.insert(liker=auth.user_id)'
p3390
sI31
S'#\t    if cur'
p3391
ssg3320
S'()'
p3392
sg3322
S'show'
p3393
sa(dp3394
g3299
S'/home/piyush/web2py/gluon/html.py'
p3395
sg3301
(dp3396
S'self'
p3397
S'<gluon.sqlhtml.SQLFORM object>'
p3398
sS'self.validate'
p3399
S'<bound method SQLFORM.validate of <gluon.sqlhtml.SQLFORM object>>'
p3400
sS'kwargs'
p3401
S"{'dbio': True}"
p3402
ssg3307
I2106
sg3308
(dp3403
I2101
S'        # or a function name to use as callback or None to do nothing.'
p3404
sI2102
S'        def action():'
p3405
sI2103
S'            return dict(form=SQLFORM(db.table).process(onsuccess=my_callback)'
p3406
sI2104
S'        """'
p3407
sI2105
S"        kwargs['dbio'] = kwargs.get('dbio',True) # necessary for SQLHTML forms"
p3408
sI2106
S'        self.validate(**kwargs)'
p3409
sI2107
S'        return self'
p3410
sI2108
S''
sI2109
S'    REDIRECT_JS = "window.location=\'%s\';return false"'
p3411
sI2110
S''
ssg3320
S"(self=<gluon.sqlhtml.SQLFORM object>, **kwargs={'dbio': True})"
p3412
sg3322
S'process'
p3413
sa(dp3414
g3299
S'/home/piyush/web2py/gluon/html.py'
p3415
sg3301
(dp3416
S'self'
p3417
S'<gluon.sqlhtml.SQLFORM object>'
p3418
sS'self.accepts'
p3419
S'<bound method SQLFORM.accepts of <gluon.sqlhtml.SQLFORM object>>'
p3420
sS'kwargs'
p3421
S"{'dbio': True, 'request_vars': <Storage {'_formkey': 'e98d9740-9791-4d85-82f7-e405d276f8b5', '_formname': 'like/create'}>, 'session': <Storage {'_formkey[comment/create]': '615a5a17-...: '', 'id': 1}>, 'user_groups': {1: 'user_1'}}>}>}"
p3422
ssg3307
I2053
sg3308
(dp3423
I2048
S"        for key in ('message_onsuccess','message_onfailure','onsuccess',"
p3424
sI2049
S"                    'onfailure','next'):"
p3425
sI2050
S'            if key in kwargs:'
p3426
sI2051
S'                del kwargs[key]'
p3427
sI2052
S''
sI2053
S'        if self.accepts(**kwargs):'
p3428
sI2054
S"            if onsuccess == 'flash':"
p3429
sI2055
S'                if next:'
p3430
sI2056
S'                    current.session.flash = message_onsuccess'
p3431
sI2057
S'                else:'
p3432
ssg3320
S"(self=<gluon.sqlhtml.SQLFORM object>, **kwargs={'dbio': True, 'request_vars': <Storage {'_formkey': 'e98d9740-9791-4d85-82f7-e405d276f8b5', '_formname': 'like/create'}>, 'session': <Storage {'_formkey[comment/create]': '615a5a17-...: '', 'id': 1}>, 'user_groups': {1: 'user_1'}}>}>})"
p3433
sg3322
S'validate'
p3434
sa(dp3435
g3299
S'/home/piyush/web2py/gluon/sqlhtml.py'
p3436
sg3301
(dp3437
S'self.vars.id'
p3438
S'None'
p3439
sS'fields'
p3440
g21
sS'self'
p3441
S'<gluon.sqlhtml.SQLFORM object>'
p3442
sS'self.vars'
p3443
S'<Storage {}>'
p3444
sS'self.table.insert'
p3445
S'<bound method Table.insert of <Table like (id,like_id,liker,likername)>>'
p3446
sS'self.table'
p3447
S'<Table like (id,like_id,liker,likername)>'
p3448
ssg3307
I1403
sg3308
(dp3449
I1398
S'                if record_id:'
p3450
sI1399
S'                    self.vars.id = self.record[self.id_field_name]'
p3451
sI1400
S'                    if fields:'
p3452
sI1401
S'                        self.table._db(self.table._id == self.record[self.id_field_name]).update(**fields)'
p3453
sI1402
S'                else:'
p3454
sI1403
S'                    self.vars.id = self.table.insert(**fields)'
p3455
sI1404
S'        self.accepted = ret'
p3456
sI1405
S'        return ret'
p3457
sI1406
S''
sI1407
S'    AUTOTYPES = {'
p3458
ssg3320
S"(self=<gluon.sqlhtml.SQLFORM object>, request_vars=<Storage {'_formkey': 'e98d9740-9791-4d85-82f7-e405d276f8b5', '_formname': 'like/create'}>, session=<Storage {'_formkey[comment/create]': '615a5a17-...: '', 'id': 1}>, 'user_groups': {1: 'user_1'}}>}>, formname='like/create', keepvalues=False, onvalidation=None, dbio=True, hideerror=False, detect_record_change=False)"
p3459
sg3322
S'accepts'
p3460
sa(dp3461
g3299
S'/home/piyush/web2py/gluon/dal.py'
p3462
sg3301
(dp3463
S'self._listify'
p3464
S'<bound method Table._listify of <Table like (id,like_id,liker,likername)>>'
p3465
sS'fields'
p3466
g21
sS'self'
p3467
S'<Table like (id,like_id,liker,likername)>'
p3468
sS'ret'
p3469
g3341
sS'self._db._adapter'
p3470
S'<gluon.dal.SQLiteAdapter object>'
p3471
sS'self._db._adapter.insert'
p3472
S'<bound method SQLiteAdapter.insert of <gluon.dal.SQLiteAdapter object>>'
p3473
sS'self._db'
p3474
S'<DAL sqlite://storage.sqlite>'
p3475
ssg3307
I7720
sg3308
(dp3476
I7715
S'        return self._db._adapter._insert(self,self._listify(fields))'
p3477
sI7716
S''
sI7717
S'    def insert(self, **fields):'
p3478
sI7718
S'        self._attempt_upload(fields)'
p3479
sI7719
S'        if any(f(fields) for f in self._before_insert): return 0'
p3480
sI7720
S'        ret =  self._db._adapter.insert(self,self._listify(fields))'
p3481
sI7721
S'        if ret and self._after_insert:'
p3482
sI7722
S'            fields = Row(fields)'
p3483
sI7723
S'            [f(fields,ret) for f in self._after_insert]'
p3484
sI7724
S'        return ret'
p3485
ssg3320
S'(self=<Table like (id,like_id,liker,likername)>, **fields={})'
p3486
sg3322
S'insert'
p3487
sa(dp3488
g3299
S'/home/piyush/web2py/gluon/dal.py'
p3489
sg3301
(dp3490
S'e'
S'OperationalError(\'near ")": syntax error\',)'
p3491
ssg3307
I1080
sg3308
(dp3492
I1075
S'        try:'
p3493
sI1076
S'            self.execute(query)'
p3494
sI1077
S'        except Exception, e:'
p3495
sI1078
S'            if isinstance(e,self.integrity_error_class()):'
p3496
sI1079
S'                return None'
p3497
sI1080
S'            raise e'
p3498
sI1081
S"        if hasattr(table,'_primarykey'):"
p3499
sI1082
S'            return dict([(k[0].name, k[1]) for k in fields \\'
p3500
sI1083
S'                             if k[0].name in table._primarykey])'
p3501
sI1084
S'        id = self.lastrowid(table)'
p3502
ssg3320
S'(self=<gluon.dal.SQLiteAdapter object>, table=<Table like (id,like_id,liker,likername)>, fields=[])'
p3503
sg3322
g3487
sasS'pyver'
p3504
S'Python 2.7.2: /usr/bin/python'
p3505
sS'session'
p3506
g61
(g62
g63
NtRp3507
(dp3508
g66
(dp3509
sg68
(lp3510
g61
(g70
g63
NtRp3511
(dp3512
g66
(dp3513
g74
I5
ssg75
Nsg68
(lp3514
g61
(g77
g63
NtRp3515
(dp3516
g66
(dp3517
sg75
g3511
sg68
(lp3518
g61
(g82
g63
NtRp3519
(dp3520
g66
(dp3521
g86
g87
ssg75
g3515
sg68
(lp3522
S'auth'
p3523
asbag61
(g82
g63
NtRp3524
(dp3525
g66
(dp3526
g93
g94
ssg75
g3515
sg68
(lp3527
S':'
asbag61
(g82
g63
NtRp3528
(dp3529
g66
(dp3530
sg75
g3515
sg68
(lp3531
g61
(g62
g63
NtRp3532
(dp3533
g66
(dp3534
g74
I5
ssg75
g3528
sg68
(lp3535
g61
(g70
g63
NtRp3536
(dp3537
g66
(dp3538
g74
I4
ssg75
Nsg68
(lp3539
g61
(g77
g63
NtRp3540
(dp3541
g66
(dp3542
sg75
g3536
sg68
(lp3543
g61
(g82
g63
NtRp3544
(dp3545
g66
(dp3546
g86
g87
ssg75
g3540
sg68
(lp3547
S'expiration'
p3548
asbag61
(g82
g63
NtRp3549
(dp3550
g66
(dp3551
g93
g94
ssg75
g3540
sg68
(lp3552
S':'
asbag61
(g82
g63
NtRp3553
(dp3554
g66
(dp3555
sg75
g3540
sg68
(lp3556
g61
(g62
g63
NtRp3557
(dp3558
g66
(dp3559
g74
I4
ssg75
g3553
sg68
(lp3560
S'3600'
p3561
asbasbasbag61
(g77
g63
NtRp3562
(dp3563
g66
(dp3564
sg75
g3536
sg68
(lp3565
g61
(g82
g63
NtRp3566
(dp3567
g66
(dp3568
g86
g87
ssg75
g3562
sg68
(lp3569
S'hmac_key'
p3570
asbag61
(g82
g63
NtRp3571
(dp3572
g66
(dp3573
g93
g94
ssg75
g3562
sg68
(lp3574
S':'
asbag61
(g82
g63
NtRp3575
(dp3576
g66
(dp3577
sg75
g3562
sg68
(lp3578
g61
(g62
g63
NtRp3579
(dp3580
g66
(dp3581
g74
I4
ssg75
g3575
sg68
(lp3582
S'34caddca-8413-4a49-8910-7936269d9f94'
p3583
asbasbasbag61
(g77
g63
NtRp3584
(dp3585
g66
(dp3586
sg75
g3536
sg68
(lp3587
g61
(g82
g63
NtRp3588
(dp3589
g66
(dp3590
g86
g87
ssg75
g3584
sg68
(lp3591
S'last_visit'
p3592
asbag61
(g82
g63
NtRp3593
(dp3594
g66
(dp3595
g93
g94
ssg75
g3584
sg68
(lp3596
S':'
asbag61
(g82
g63
NtRp3597
(dp3598
g66
(dp3599
sg75
g3584
sg68
(lp3600
g61
(g62
g63
NtRp3601
(dp3602
g66
(dp3603
g74
I4
ssg75
g3597
sg68
(lp3604
S'datetime.datetime(2012, 8, 31, 14, 21, 8, 593047)'
p3605
asbasbasbag61
(g77
g63
NtRp3606
(dp3607
g66
(dp3608
sg75
g3536
sg68
(lp3609
g61
(g82
g63
NtRp3610
(dp3611
g66
(dp3612
g86
g87
ssg75
g3606
sg68
(lp3613
S'remember'
p3614
asbag61
(g82
g63
NtRp3615
(dp3616
g66
(dp3617
g93
g94
ssg75
g3606
sg68
(lp3618
S':'
asbag61
(g82
g63
NtRp3619
(dp3620
g66
(dp3621
sg75
g3606
sg68
(lp3622
g61
(g62
g63
NtRp3623
(dp3624
g66
(dp3625
g74
I4
ssg75
g3619
sg68
(lp3626
g104
asbasbasbag61
(g77
g63
NtRp3627
(dp3628
g66
(dp3629
sg75
g3536
sg68
(lp3630
g61
(g82
g63
NtRp3631
(dp3632
g66
(dp3633
g86
g87
ssg75
g3627
sg68
(lp3634
S'user'
p3635
asbag61
(g82
g63
NtRp3636
(dp3637
g66
(dp3638
g93
g94
ssg75
g3627
sg68
(lp3639
S':'
asbag61
(g82
g63
NtRp3640
(dp3641
g66
(dp3642
sg75
g3627
sg68
(lp3643
g61
(g62
g63
NtRp3644
(dp3645
g66
(dp3646
g74
I4
ssg75
g3640
sg68
(lp3647
g61
(g70
g63
NtRp3648
(dp3649
g66
(dp3650
g74
I3
ssg75
Nsg68
(lp3651
g61
(g77
g63
NtRp3652
(dp3653
g66
(dp3654
sg75
g3648
sg68
(lp3655
g61
(g82
g63
NtRp3656
(dp3657
g66
(dp3658
g86
g87
ssg75
g3652
sg68
(lp3659
S'email'
p3660
asbag61
(g82
g63
NtRp3661
(dp3662
g66
(dp3663
g93
g94
ssg75
g3652
sg68
(lp3664
S':'
asbag61
(g82
g63
NtRp3665
(dp3666
g66
(dp3667
sg75
g3652
sg68
(lp3668
g61
(g62
g63
NtRp3669
(dp3670
g66
(dp3671
g74
I3
ssg75
g3665
sg68
(lp3672
S'piyush.bansal@students.iiit.ac.in'
p3673
asbasbasbag61
(g77
g63
NtRp3674
(dp3675
g66
(dp3676
sg75
g3648
sg68
(lp3677
g61
(g82
g63
NtRp3678
(dp3679
g66
(dp3680
g86
g87
ssg75
g3674
sg68
(lp3681
S'first_name'
p3682
asbag61
(g82
g63
NtRp3683
(dp3684
g66
(dp3685
g93
g94
ssg75
g3674
sg68
(lp3686
S':'
asbag61
(g82
g63
NtRp3687
(dp3688
g66
(dp3689
sg75
g3674
sg68
(lp3690
g61
(g62
g63
NtRp3691
(dp3692
g66
(dp3693
g74
I3
ssg75
g3687
sg68
(lp3694
S'piyush'
p3695
asbasbasbag61
(g77
g63
NtRp3696
(dp3697
g66
(dp3698
sg75
g3648
sg68
(lp3699
g61
(g82
g63
NtRp3700
(dp3701
g66
(dp3702
g86
g87
ssg75
g3696
sg68
(lp3703
S'id'
p3704
asbag61
(g82
g63
NtRp3705
(dp3706
g66
(dp3707
g93
g94
ssg75
g3696
sg68
(lp3708
S':'
asbag61
(g82
g63
NtRp3709
(dp3710
g66
(dp3711
sg75
g3696
sg68
(lp3712
g61
(g62
g63
NtRp3713
(dp3714
g66
(dp3715
g74
I3
ssg75
g3709
sg68
(lp3716
S'1'
asbasbasbag61
(g77
g63
NtRp3717
(dp3718
g66
(dp3719
sg75
g3648
sg68
(lp3720
g61
(g82
g63
NtRp3721
(dp3722
g66
(dp3723
g86
g87
ssg75
g3717
sg68
(lp3724
S'last_name'
p3725
asbag61
(g82
g63
NtRp3726
(dp3727
g66
(dp3728
g93
g94
ssg75
g3717
sg68
(lp3729
S':'
asbag61
(g82
g63
NtRp3730
(dp3731
g66
(dp3732
sg75
g3717
sg68
(lp3733
g61
(g62
g63
NtRp3734
(dp3735
g66
(dp3736
g74
I3
ssg75
g3730
sg68
(lp3737
S'bansal'
p3738
asbasbasbag61
(g77
g63
NtRp3739
(dp3740
g66
(dp3741
sg75
g3648
sg68
(lp3742
g61
(g82
g63
NtRp3743
(dp3744
g66
(dp3745
g86
g87
ssg75
g3739
sg68
(lp3746
S'password'
p3747
asbag61
(g82
g63
NtRp3748
(dp3749
g66
(dp3750
g93
g94
ssg75
g3739
sg68
(lp3751
S':'
asbag61
(g82
g63
NtRp3752
(dp3753
g66
(dp3754
sg75
g3739
sg68
(lp3755
g61
(g62
g63
NtRp3756
(dp3757
g66
(dp3758
g74
I3
ssg75
g3752
sg68
(lp3759
S'pbkdf2(1000,20,sha512)$913ba6c957a64f30$d4b59e0f074c5a6d9fd585309ed33902fece40a6'
p3760
asbasbasbag61
(g77
g63
NtRp3761
(dp3762
g66
(dp3763
sg75
g3648
sg68
(lp3764
g61
(g82
g63
NtRp3765
(dp3766
g66
(dp3767
g86
g87
ssg75
g3761
sg68
(lp3768
S'registration_id'
p3769
asbag61
(g82
g63
NtRp3770
(dp3771
g66
(dp3772
g93
g94
ssg75
g3761
sg68
(lp3773
S':'
asbag61
(g82
g63
NtRp3774
(dp3775
g66
(dp3776
sg75
g3761
sg68
(lp3777
g61
(g62
g63
NtRp3778
(dp3779
g66
(dp3780
g74
I3
ssg75
g3774
sg68
(lp3781
S''
asbasbasbag61
(g77
g63
NtRp3782
(dp3783
g66
(dp3784
sg75
g3648
sg68
(lp3785
g61
(g82
g63
NtRp3786
(dp3787
g66
(dp3788
g86
g87
ssg75
g3782
sg68
(lp3789
S'registration_key'
p3790
asbag61
(g82
g63
NtRp3791
(dp3792
g66
(dp3793
g93
g94
ssg75
g3782
sg68
(lp3794
S':'
asbag61
(g82
g63
NtRp3795
(dp3796
g66
(dp3797
sg75
g3782
sg68
(lp3798
g61
(g62
g63
NtRp3799
(dp3800
g66
(dp3801
g74
I3
ssg75
g3795
sg68
(lp3802
S''
asbasbasbag61
(g77
g63
NtRp3803
(dp3804
g66
(dp3805
sg75
g3648
sg68
(lp3806
g61
(g82
g63
NtRp3807
(dp3808
g66
(dp3809
g86
g87
ssg75
g3803
sg68
(lp3810
S'reset_password_key'
p3811
asbag61
(g82
g63
NtRp3812
(dp3813
g66
(dp3814
g93
g94
ssg75
g3803
sg68
(lp3815
S':'
asbag61
(g82
g63
NtRp3816
(dp3817
g66
(dp3818
sg75
g3803
sg68
(lp3819
g61
(g62
g63
NtRp3820
(dp3821
g66
(dp3822
g74
I3
ssg75
g3816
sg68
(lp3823
S''
asbasbasbasbasbasbasbag61
(g77
g63
NtRp3824
(dp3825
g66
(dp3826
sg75
g3536
sg68
(lp3827
g61
(g82
g63
NtRp3828
(dp3829
g66
(dp3830
g86
g87
ssg75
g3824
sg68
(lp3831
S'user_groups'
p3832
asbag61
(g82
g63
NtRp3833
(dp3834
g66
(dp3835
g93
g94
ssg75
g3824
sg68
(lp3836
S':'
asbag61
(g82
g63
NtRp3837
(dp3838
g66
(dp3839
sg75
g3824
sg68
(lp3840
g61
(g62
g63
NtRp3841
(dp3842
g66
(dp3843
g74
I4
ssg75
g3837
sg68
(lp3844
g61
(g70
g63
NtRp3845
(dp3846
g66
(dp3847
g74
I3
ssg75
Nsg68
(lp3848
g61
(g77
g63
NtRp3849
(dp3850
g66
(dp3851
sg75
g3845
sg68
(lp3852
g61
(g82
g63
NtRp3853
(dp3854
g66
(dp3855
g86
g87
ssg75
g3849
sg68
(lp3856
S'1'
asbag61
(g82
g63
NtRp3857
(dp3858
g66
(dp3859
g93
g94
ssg75
g3849
sg68
(lp3860
S':'
asbag61
(g82
g63
NtRp3861
(dp3862
g66
(dp3863
sg75
g3849
sg68
(lp3864
g61
(g62
g63
NtRp3865
(dp3866
g66
(dp3867
g74
I3
ssg75
g3861
sg68
(lp3868
S'user_1'
p3869
asbasbasbasbasbasbasbasbasbasbasbag61
(g77
g63
NtRp3870
(dp3871
g66
(dp3872
sg75
g3511
sg68
(lp3873
g61
(g82
g63
NtRp3874
(dp3875
g66
(dp3876
g86
g87
ssg75
g3870
sg68
(lp3877
S'flash'
p3878
asbag61
(g82
g63
NtRp3879
(dp3880
g66
(dp3881
g93
g94
ssg75
g3870
sg68
(lp3882
S':'
asbag61
(g82
g63
NtRp3883
(dp3884
g66
(dp3885
sg75
g3870
sg68
(lp3886
g61
(g62
g63
NtRp3887
(dp3888
g66
(dp3889
g74
I5
ssg75
g3883
sg68
(lp3890
S'None'
p3891
asbasbasbasbasbsS'etype'
p3892
S"<class 'sqlite3.OperationalError'>"
p3893
sS'date'
p3894
S'Fri Aug 31 14:23:50 2012'
p3895
sS'response'
p3896
g61
(g62
g63
NtRp3897
(dp3898
g66
(dp3899
sg68
(lp3900
g61
(g70
g63
NtRp3901
(dp3902
g66
(dp3903
g74
I5
ssg75
Nsg68
(lp3904
g61
(g77
g63
NtRp3905
(dp3906
g66
(dp3907
sg75
g3901
sg68
(lp3908
g61
(g82
g63
NtRp3909
(dp3910
g66
(dp3911
g86
g87
ssg75
g3905
sg68
(lp3912
g171
asbag61
(g82
g63
NtRp3913
(dp3914
g66
(dp3915
g93
g94
ssg75
g3905
sg68
(lp3916
S':'
asbag61
(g82
g63
NtRp3917
(dp3918
g66
(dp3919
sg75
g3905
sg68
(lp3920
g61
(g62
g63
NtRp3921
(dp3922
g66
(dp3923
g74
I5
ssg75
g3917
sg68
(lp3924
S'<cStringIO.StringO object at 0x9058080>'
p3925
asbasbasbag61
(g77
g63
NtRp3926
(dp3927
g66
(dp3928
sg75
g3901
sg68
(lp3929
g61
(g82
g63
NtRp3930
(dp3931
g66
(dp3932
g86
g87
ssg75
g3926
sg68
(lp3933
g259
asbag61
(g82
g63
NtRp3934
(dp3935
g66
(dp3936
g93
g94
ssg75
g3926
sg68
(lp3937
S':'
asbag61
(g82
g63
NtRp3938
(dp3939
g66
(dp3940
sg75
g3926
sg68
(lp3941
g61
(g62
g63
NtRp3942
(dp3943
g66
(dp3944
g74
I5
ssg75
g3938
sg68
(lp3945
g61
(g70
g63
NtRp3946
(dp3947
g66
(dp3948
g74
I4
ssg75
Nsg68
(lp3949
g61
(g77
g63
NtRp3950
(dp3951
g66
(dp3952
sg75
g3946
sg68
(lp3953
g61
(g82
g63
NtRp3954
(dp3955
g66
(dp3956
g86
g87
ssg75
g3950
sg68
(lp3957
S'session_id_fotobuk'
p3958
asbag61
(g82
g63
NtRp3959
(dp3960
g66
(dp3961
g93
g94
ssg75
g3950
sg68
(lp3962
S':'
asbag61
(g82
g63
NtRp3963
(dp3964
g66
(dp3965
sg75
g3950
sg68
(lp3966
g61
(g62
g63
NtRp3967
(dp3968
g66
(dp3969
g74
I4
ssg75
g3963
sg68
(lp3970
g491
ag61
(g70
g63
NtRp3971
(dp3972
g66
(dp3973
g74
I3
ssg75
Nsg68
(lp3974
g61
(g77
g63
NtRp3975
(dp3976
g66
(dp3977
sg75
g3971
sg68
(lp3978
g61
(g82
g63
NtRp3979
(dp3980
g66
(dp3981
g86
g87
ssg75
g3975
sg68
(lp3982
g310
asbag61
(g82
g63
NtRp3983
(dp3984
g66
(dp3985
g93
g94
ssg75
g3975
sg68
(lp3986
S':'
asbag61
(g82
g63
NtRp3987
(dp3988
g66
(dp3989
sg75
g3975
sg68
(lp3990
g61
(g62
g63
NtRp3991
(dp3992
g66
(dp3993
g74
I3
ssg75
g3987
sg68
(lp3994
S''
asbasbasbag61
(g77
g63
NtRp3995
(dp3996
g66
(dp3997
sg75
g3971
sg68
(lp3998
g61
(g82
g63
NtRp3999
(dp4000
g66
(dp4001
g86
g87
ssg75
g3995
sg68
(lp4002
g331
asbag61
(g82
g63
NtRp4003
(dp4004
g66
(dp4005
g93
g94
ssg75
g3995
sg68
(lp4006
S':'
asbag61
(g82
g63
NtRp4007
(dp4008
g66
(dp4009
sg75
g3995
sg68
(lp4010
g61
(g62
g63
NtRp4011
(dp4012
g66
(dp4013
g74
I3
ssg75
g4007
sg68
(lp4014
S''
asbasbasbag61
(g77
g63
NtRp4015
(dp4016
g66
(dp4017
sg75
g3971
sg68
(lp4018
g61
(g82
g63
NtRp4019
(dp4020
g66
(dp4021
g86
g87
ssg75
g4015
sg68
(lp4022
g352
asbag61
(g82
g63
NtRp4023
(dp4024
g66
(dp4025
g93
g94
ssg75
g4015
sg68
(lp4026
S':'
asbag61
(g82
g63
NtRp4027
(dp4028
g66
(dp4029
sg75
g4015
sg68
(lp4030
g61
(g62
g63
NtRp4031
(dp4032
g66
(dp4033
g74
I3
ssg75
g4027
sg68
(lp4034
S''
asbasbasbag61
(g77
g63
NtRp4035
(dp4036
g66
(dp4037
sg75
g3971
sg68
(lp4038
g61
(g82
g63
NtRp4039
(dp4040
g66
(dp4041
g86
g87
ssg75
g4035
sg68
(lp4042
g373
asbag61
(g82
g63
NtRp4043
(dp4044
g66
(dp4045
g93
g94
ssg75
g4035
sg68
(lp4046
S':'
asbag61
(g82
g63
NtRp4047
(dp4048
g66
(dp4049
sg75
g4035
sg68
(lp4050
g61
(g62
g63
NtRp4051
(dp4052
g66
(dp4053
g74
I3
ssg75
g4047
sg68
(lp4054
S''
asbasbasbag61
(g77
g63
NtRp4055
(dp4056
g66
(dp4057
sg75
g3971
sg68
(lp4058
g61
(g82
g63
NtRp4059
(dp4060
g66
(dp4061
g86
g87
ssg75
g4055
sg68
(lp4062
g394
asbag61
(g82
g63
NtRp4063
(dp4064
g66
(dp4065
g93
g94
ssg75
g4055
sg68
(lp4066
S':'
asbag61
(g82
g63
NtRp4067
(dp4068
g66
(dp4069
sg75
g4055
sg68
(lp4070
g61
(g62
g63
NtRp4071
(dp4072
g66
(dp4073
g74
I3
ssg75
g4067
sg68
(lp4074
S''
asbasbasbag61
(g77
g63
NtRp4075
(dp4076
g66
(dp4077
sg75
g3971
sg68
(lp4078
g61
(g82
g63
NtRp4079
(dp4080
g66
(dp4081
g86
g87
ssg75
g4075
sg68
(lp4082
g415
asbag61
(g82
g63
NtRp4083
(dp4084
g66
(dp4085
g93
g94
ssg75
g4075
sg68
(lp4086
S':'
asbag61
(g82
g63
NtRp4087
(dp4088
g66
(dp4089
sg75
g4075
sg68
(lp4090
g61
(g62
g63
NtRp4091
(dp4092
g66
(dp4093
g74
I3
ssg75
g4087
sg68
(lp4094
S'/'
asbasbasbag61
(g77
g63
NtRp4095
(dp4096
g66
(dp4097
sg75
g3971
sg68
(lp4098
g61
(g82
g63
NtRp4099
(dp4100
g66
(dp4101
g86
g87
ssg75
g4095
sg68
(lp4102
g436
asbag61
(g82
g63
NtRp4103
(dp4104
g66
(dp4105
g93
g94
ssg75
g4095
sg68
(lp4106
S':'
asbag61
(g82
g63
NtRp4107
(dp4108
g66
(dp4109
sg75
g4095
sg68
(lp4110
g61
(g62
g63
NtRp4111
(dp4112
g66
(dp4113
g74
I3
ssg75
g4107
sg68
(lp4114
S''
asbasbasbag61
(g77
g63
NtRp4115
(dp4116
g66
(dp4117
sg75
g3971
sg68
(lp4118
g61
(g82
g63
NtRp4119
(dp4120
g66
(dp4121
g86
g87
ssg75
g4115
sg68
(lp4122
g457
asbag61
(g82
g63
NtRp4123
(dp4124
g66
(dp4125
g93
g94
ssg75
g4115
sg68
(lp4126
S':'
asbag61
(g82
g63
NtRp4127
(dp4128
g66
(dp4129
sg75
g4115
sg68
(lp4130
g61
(g62
g63
NtRp4131
(dp4132
g66
(dp4133
g74
I3
ssg75
g4127
sg68
(lp4134
S''
asbasbasbasbasbasbasbasbasbasbasbag61
(g77
g63
NtRp4135
(dp4136
g66
(dp4137
sg75
g3901
sg68
(lp4138
g61
(g82
g63
NtRp4139
(dp4140
g66
(dp4141
g86
g87
ssg75
g4135
sg68
(lp4142
S'delimiters'
p4143
asbag61
(g82
g63
NtRp4144
(dp4145
g66
(dp4146
g93
g94
ssg75
g4135
sg68
(lp4147
S':'
asbag61
(g82
g63
NtRp4148
(dp4149
g66
(dp4150
sg75
g4135
sg68
(lp4151
g61
(g62
g63
NtRp4152
(dp4153
g66
(dp4154
g74
I5
ssg75
g4148
sg68
(lp4155
g61
(g70
g63
NtRp4156
(dp4157
g66
(dp4158
g74
I4
ssg75
Nsg68
(lp4159
g61
(g77
g63
NtRp4160
(dp4161
g66
(dp4162
sg75
g4156
sg68
(lp4163
g61
(g82
g63
NtRp4164
(dp4165
g66
(dp4166
sg75
g4160
sg68
(lp4167
g61
(g62
g63
NtRp4168
(dp4169
g66
(dp4170
g74
I4
ssg75
g4164
sg68
(lp4171
S'{{'
p4172
asbasbasbag61
(g77
g63
NtRp4173
(dp4174
g66
(dp4175
sg75
g4156
sg68
(lp4176
g61
(g82
g63
NtRp4177
(dp4178
g66
(dp4179
sg75
g4173
sg68
(lp4180
g61
(g62
g63
NtRp4181
(dp4182
g66
(dp4183
g74
I4
ssg75
g4177
sg68
(lp4184
S'}}'
p4185
asbasbasbasbasbasbasbag61
(g77
g63
NtRp4186
(dp4187
g66
(dp4188
sg75
g3901
sg68
(lp4189
g61
(g82
g63
NtRp4190
(dp4191
g66
(dp4192
g86
g87
ssg75
g4186
sg68
(lp4193
S'files'
p4194
asbag61
(g82
g63
NtRp4195
(dp4196
g66
(dp4197
g93
g94
ssg75
g4186
sg68
(lp4198
S':'
asbag61
(g82
g63
NtRp4199
(dp4200
g66
(dp4201
sg75
g4186
sg68
(lp4202
g61
(g62
g63
NtRp4203
(dp4204
g66
(dp4205
g74
I5
ssg75
g4199
sg68
(lp4206
g61
(g70
g63
NtRp4207
(dp4208
g66
(dp4209
g74
I4
ssg75
Nsg68
(lp4210
sbasbasbasbag61
(g77
g63
NtRp4211
(dp4212
g66
(dp4213
sg75
g3901
sg68
(lp4214
g61
(g82
g63
NtRp4215
(dp4216
g66
(dp4217
g86
g87
ssg75
g4211
sg68
(lp4218
S'flash'
p4219
asbag61
(g82
g63
NtRp4220
(dp4221
g66
(dp4222
g93
g94
ssg75
g4211
sg68
(lp4223
S':'
asbag61
(g82
g63
NtRp4224
(dp4225
g66
(dp4226
sg75
g4211
sg68
(lp4227
g61
(g62
g63
NtRp4228
(dp4229
g66
(dp4230
g74
I5
ssg75
g4224
sg68
(lp4231
S''
asbasbasbag61
(g77
g63
NtRp4232
(dp4233
g66
(dp4234
sg75
g3901
sg68
(lp4235
g61
(g82
g63
NtRp4236
(dp4237
g66
(dp4238
g86
g87
ssg75
g4232
sg68
(lp4239
S'generic_patterns'
p4240
asbag61
(g82
g63
NtRp4241
(dp4242
g66
(dp4243
g93
g94
ssg75
g4232
sg68
(lp4244
S':'
asbag61
(g82
g63
NtRp4245
(dp4246
g66
(dp4247
sg75
g4232
sg68
(lp4248
g61
(g62
g63
NtRp4249
(dp4250
g66
(dp4251
g74
I5
ssg75
g4245
sg68
(lp4252
g61
(g70
g63
NtRp4253
(dp4254
g66
(dp4255
g74
I4
ssg75
Nsg68
(lp4256
sbasbasbasbag61
(g77
g63
NtRp4257
(dp4258
g66
(dp4259
sg75
g3901
sg68
(lp4260
g61
(g82
g63
NtRp4261
(dp4262
g66
(dp4263
g86
g87
ssg75
g4257
sg68
(lp4264
S'google_analytics_id'
p4265
asbag61
(g82
g63
NtRp4266
(dp4267
g66
(dp4268
g93
g94
ssg75
g4257
sg68
(lp4269
S':'
asbag61
(g82
g63
NtRp4270
(dp4271
g66
(dp4272
sg75
g4257
sg68
(lp4273
g61
(g62
g63
NtRp4274
(dp4275
g66
(dp4276
g74
I5
ssg75
g4270
sg68
(lp4277
S'None'
p4278
asbasbasbag61
(g77
g63
NtRp4279
(dp4280
g66
(dp4281
sg75
g3901
sg68
(lp4282
g61
(g82
g63
NtRp4283
(dp4284
g66
(dp4285
g86
g87
ssg75
g4279
sg68
(lp4286
S'headers'
p4287
asbag61
(g82
g63
NtRp4288
(dp4289
g66
(dp4290
g93
g94
ssg75
g4279
sg68
(lp4291
S':'
asbag61
(g82
g63
NtRp4292
(dp4293
g66
(dp4294
sg75
g4279
sg68
(lp4295
g61
(g62
g63
NtRp4296
(dp4297
g66
(dp4298
g74
I5
ssg75
g4292
sg68
(lp4299
g61
(g70
g63
NtRp4300
(dp4301
g66
(dp4302
g74
I4
ssg75
Nsg68
(lp4303
g61
(g77
g63
NtRp4304
(dp4305
g66
(dp4306
sg75
g4300
sg68
(lp4307
g61
(g82
g63
NtRp4308
(dp4309
g66
(dp4310
g86
g87
ssg75
g4304
sg68
(lp4311
S'Cache-Control'
p4312
asbag61
(g82
g63
NtRp4313
(dp4314
g66
(dp4315
g93
g94
ssg75
g4304
sg68
(lp4316
S':'
asbag61
(g82
g63
NtRp4317
(dp4318
g66
(dp4319
sg75
g4304
sg68
(lp4320
g61
(g62
g63
NtRp4321
(dp4322
g66
(dp4323
g74
I4
ssg75
g4317
sg68
(lp4324
S'no-store, no-cache, must-revalidate, post-check=0, pre-check=0'
p4325
asbasbasbag61
(g77
g63
NtRp4326
(dp4327
g66
(dp4328
sg75
g4300
sg68
(lp4329
g61
(g82
g63
NtRp4330
(dp4331
g66
(dp4332
g86
g87
ssg75
g4326
sg68
(lp4333
S'Content-Type'
p4334
asbag61
(g82
g63
NtRp4335
(dp4336
g66
(dp4337
g93
g94
ssg75
g4326
sg68
(lp4338
S':'
asbag61
(g82
g63
NtRp4339
(dp4340
g66
(dp4341
sg75
g4326
sg68
(lp4342
g61
(g62
g63
NtRp4343
(dp4344
g66
(dp4345
g74
I4
ssg75
g4339
sg68
(lp4346
S'text/html; charset=utf-8'
p4347
asbasbasbag61
(g77
g63
NtRp4348
(dp4349
g66
(dp4350
sg75
g4300
sg68
(lp4351
g61
(g82
g63
NtRp4352
(dp4353
g66
(dp4354
g86
g87
ssg75
g4348
sg68
(lp4355
S'Expires'
p4356
asbag61
(g82
g63
NtRp4357
(dp4358
g66
(dp4359
g93
g94
ssg75
g4348
sg68
(lp4360
S':'
asbag61
(g82
g63
NtRp4361
(dp4362
g66
(dp4363
sg75
g4348
sg68
(lp4364
g61
(g62
g63
NtRp4365
(dp4366
g66
(dp4367
g74
I4
ssg75
g4361
sg68
(lp4368
S'Fri, 31 Aug 2012 08:53:50 GMT'
p4369
asbasbasbag61
(g77
g63
NtRp4370
(dp4371
g66
(dp4372
sg75
g4300
sg68
(lp4373
g61
(g82
g63
NtRp4374
(dp4375
g66
(dp4376
g86
g87
ssg75
g4370
sg68
(lp4377
S'Pragma'
p4378
asbag61
(g82
g63
NtRp4379
(dp4380
g66
(dp4381
g93
g94
ssg75
g4370
sg68
(lp4382
S':'
asbag61
(g82
g63
NtRp4383
(dp4384
g66
(dp4385
sg75
g4370
sg68
(lp4386
g61
(g62
g63
NtRp4387
(dp4388
g66
(dp4389
g74
I4
ssg75
g4383
sg68
(lp4390
S'no-cache'
p4391
asbasbasbag61
(g77
g63
NtRp4392
(dp4393
g66
(dp4394
sg75
g4300
sg68
(lp4395
g61
(g82
g63
NtRp4396
(dp4397
g66
(dp4398
g86
g87
ssg75
g4392
sg68
(lp4399
S'X-Powered-By'
p4400
asbag61
(g82
g63
NtRp4401
(dp4402
g66
(dp4403
g93
g94
ssg75
g4392
sg68
(lp4404
S':'
asbag61
(g82
g63
NtRp4405
(dp4406
g66
(dp4407
sg75
g4392
sg68
(lp4408
g61
(g62
g63
NtRp4409
(dp4410
g66
(dp4411
g74
I4
ssg75
g4405
sg68
(lp4412
S'web2py'
p4413
asbasbasbasbasbasbasbag61
(g77
g63
NtRp4414
(dp4415
g66
(dp4416
sg75
g3901
sg68
(lp4417
g61
(g82
g63
NtRp4418
(dp4419
g66
(dp4420
g86
g87
ssg75
g4414
sg68
(lp4421
S'menu'
p4422
asbag61
(g82
g63
NtRp4423
(dp4424
g66
(dp4425
g93
g94
ssg75
g4414
sg68
(lp4426
S':'
asbag61
(g82
g63
NtRp4427
(dp4428
g66
(dp4429
sg75
g4414
sg68
(lp4430
g61
(g62
g63
NtRp4431
(dp4432
g66
(dp4433
g74
I5
ssg75
g4427
sg68
(lp4434
g61
(g70
g63
NtRp4435
(dp4436
g66
(dp4437
g74
I4
ssg75
Nsg68
(lp4438
g61
(g77
g63
NtRp4439
(dp4440
g66
(dp4441
sg75
g4435
sg68
(lp4442
g61
(g82
g63
NtRp4443
(dp4444
g66
(dp4445
sg75
g4439
sg68
(lp4446
g61
(g62
g63
NtRp4447
(dp4448
g66
(dp4449
g74
I4
ssg75
g4443
sg68
(lp4450
g61
(g70
g63
NtRp4451
(dp4452
g66
(dp4453
g74
I3
ssg75
Nsg68
(lp4454
g61
(g77
g63
NtRp4455
(dp4456
g66
(dp4457
sg75
g4451
sg68
(lp4458
g61
(g82
g63
NtRp4459
(dp4460
g66
(dp4461
sg75
g4455
sg68
(lp4462
g61
(g62
g63
NtRp4463
(dp4464
g66
(dp4465
g74
I3
ssg75
g4459
sg68
(lp4466
cgluon.languages
lazyT_unpickle
p4467
(S's\x04\x00\x00\x00Home'
tRp4468
asbasbasbag61
(g77
g63
NtRp4469
(dp4470
g66
(dp4471
sg75
g4451
sg68
(lp4472
g61
(g82
g63
NtRp4473
(dp4474
g66
(dp4475
sg75
g4469
sg68
(lp4476
g61
(g62
g63
NtRp4477
(dp4478
g66
(dp4479
g74
I3
ssg75
g4473
sg68
(lp4480
g104
asbasbasbag61
(g77
g63
NtRp4481
(dp4482
g66
(dp4483
sg75
g4451
sg68
(lp4484
g61
(g82
g63
NtRp4485
(dp4486
g66
(dp4487
sg75
g4481
sg68
(lp4488
g61
(g62
g63
NtRp4489
(dp4490
g66
(dp4491
g74
I3
ssg75
g4485
sg68
(lp4492
S'/FotoBuk/default/index'
p4493
asbasbasbag61
(g77
g63
NtRp4494
(dp4495
g66
(dp4496
sg75
g4451
sg68
(lp4497
g61
(g82
g63
NtRp4498
(dp4499
g66
(dp4500
sg75
g4494
sg68
(lp4501
g61
(g62
g63
NtRp4502
(dp4503
g66
(dp4504
g74
I3
ssg75
g4498
sg68
(lp4505
g61
(g70
g63
NtRp4506
(dp4507
g66
(dp4508
g74
I2
ssg75
Nsg68
(lp4509
sbasbasbasbasbasbasbasbag61
(g77
g63
NtRp4510
(dp4511
g66
(dp4512
sg75
g4435
sg68
(lp4513
g61
(g82
g63
NtRp4514
(dp4515
g66
(dp4516
sg75
g4510
sg68
(lp4517
g61
(g62
g63
NtRp4518
(dp4519
g66
(dp4520
g74
I4
ssg75
g4514
sg68
(lp4521
g61
(g70
g63
NtRp4522
(dp4523
g66
(dp4524
g74
I3
ssg75
Nsg68
(lp4525
g61
(g77
g63
NtRp4526
(dp4527
g66
(dp4528
sg75
g4522
sg68
(lp4529
g61
(g82
g63
NtRp4530
(dp4531
g66
(dp4532
sg75
g4526
sg68
(lp4533
g61
(g62
g63
NtRp4534
(dp4535
g66
(dp4536
g74
I3
ssg75
g4530
sg68
(lp4537
g61
(cgluon.html
SPAN
p4538
g63
NtRp4539
(dp4540
g66
(dp4541
g86
S'color:yellow'
p4542
ssg75
Nsg68
(lp4543
g4413
asbasbasbasbag61
(g77
g63
NtRp4544
(dp4545
g66
(dp4546
sg75
g4522
sg68
(lp4547
g61
(g82
g63
NtRp4548
(dp4549
g66
(dp4550
sg75
g4544
sg68
(lp4551
g61
(g62
g63
NtRp4552
(dp4553
g66
(dp4554
g74
I3
ssg75
g4548
sg68
(lp4555
g104
asbasbasbag61
(g77
g63
NtRp4556
(dp4557
g66
(dp4558
sg75
g4522
sg68
(lp4559
g61
(g82
g63
NtRp4560
(dp4561
g66
(dp4562
sg75
g4556
sg68
(lp4563
g61
(g62
g63
NtRp4564
(dp4565
g66
(dp4566
g74
I3
ssg75
g4560
sg68
(lp4567
S'http://web2py.com'
p4568
asbasbasbag61
(g77
g63
NtRp4569
(dp4570
g66
(dp4571
sg75
g4522
sg68
(lp4572
g61
(g82
g63
NtRp4573
(dp4574
g66
(dp4575
sg75
g4569
sg68
(lp4576
g61
(g62
g63
NtRp4577
(dp4578
g66
(dp4579
g74
I3
ssg75
g4573
sg68
(lp4580
g61
(g70
g63
NtRp4581
(dp4582
g66
(dp4583
g74
I2
ssg75
Nsg68
(lp4584
g61
(g77
g63
NtRp4585
(dp4586
g66
(dp4587
sg75
g4581
sg68
(lp4588
g61
(g82
g63
NtRp4589
(dp4590
g66
(dp4591
sg75
g4585
sg68
(lp4592
g61
(g62
g63
NtRp4593
(dp4594
g66
(dp4595
g74
I2
ssg75
g4589
sg68
(lp4596
g61
(g70
g63
NtRp4597
(dp4598
g66
(dp4599
g74
I1
ssg75
Nsg68
(lp4600
g61
(g77
g63
NtRp4601
(dp4602
g66
(dp4603
sg75
g4597
sg68
(lp4604
g61
(g82
g63
NtRp4605
(dp4606
g66
(dp4607
sg75
g4601
sg68
(lp4608
g61
(g62
g63
NtRp4609
(dp4610
g66
(dp4611
g74
I1
ssg75
g4605
sg68
(lp4612
g4467
(S's\x08\x00\x00\x00My Sites'
tRp4613
asbasbasbag61
(g77
g63
NtRp4614
(dp4615
g66
(dp4616
sg75
g4597
sg68
(lp4617
g61
(g82
g63
NtRp4618
(dp4619
g66
(dp4620
sg75
g4614
sg68
(lp4621
g61
(g62
g63
NtRp4622
(dp4623
g66
(dp4624
g74
I1
ssg75
g4618
sg68
(lp4625
I00
asbasbasbag61
(g77
g63
NtRp4626
(dp4627
g66
(dp4628
sg75
g4597
sg68
(lp4629
g61
(g82
g63
NtRp4630
(dp4631
g66
(dp4632
sg75
g4626
sg68
(lp4633
g61
(g62
g63
NtRp4634
(dp4635
g66
(dp4636
g74
I1
ssg75
g4630
sg68
(lp4637
S'/admin/default/site'
p4638
asbasbasbasbasbasbasbag61
(g77
g63
NtRp4639
(dp4640
g66
(dp4641
sg75
g4581
sg68
(lp4642
g61
(g82
g63
NtRp4643
(dp4644
g66
(dp4645
sg75
g4639
sg68
(lp4646
g61
(g62
g63
NtRp4647
(dp4648
g66
(dp4649
g74
I2
ssg75
g4643
sg68
(lp4650
g61
(g70
g63
NtRp4651
(dp4652
g66
(dp4653
g74
I1
ssg75
Nsg68
(lp4654
g61
(g77
g63
NtRp4655
(dp4656
g66
(dp4657
sg75
g4651
sg68
(lp4658
g61
(g82
g63
NtRp4659
(dp4660
g66
(dp4661
sg75
g4655
sg68
(lp4662
g61
(g62
g63
NtRp4663
(dp4664
g66
(dp4665
g74
I1
ssg75
g4659
sg68
(lp4666
g4467
(S's\x08\x00\x00\x00This App'
tRp4667
asbasbasbag61
(g77
g63
NtRp4668
(dp4669
g66
(dp4670
sg75
g4651
sg68
(lp4671
g61
(g82
g63
NtRp4672
(dp4673
g66
(dp4674
sg75
g4668
sg68
(lp4675
g61
(g62
g63
NtRp4676
(dp4677
g66
(dp4678
g74
I1
ssg75
g4672
sg68
(lp4679
I00
asbasbasbag61
(g77
g63
NtRp4680
(dp4681
g66
(dp4682
sg75
g4651
sg68
(lp4683
g61
(g82
g63
NtRp4684
(dp4685
g66
(dp4686
sg75
g4680
sg68
(lp4687
g61
(g62
g63
NtRp4688
(dp4689
g66
(dp4690
g74
I1
ssg75
g4684
sg68
(lp4691
S'/admin/default/design/FotoBuk'
p4692
asbasbasbag61
(g77
g63
NtRp4693
(dp4694
g66
(dp4695
sg75
g4651
sg68
(lp4696
g61
(g82
g63
NtRp4697
(dp4698
g66
(dp4699
sg75
g4693
sg68
(lp4700
g61
(g62
g63
NtRp4701
(dp4702
g66
(dp4703
g74
I1
ssg75
g4697
sg68
(lp4704
(lp4705
(g4467
(S's\n\x00\x00\x00Controller'
tRp4706
I00
S'/admin/default/edit/FotoBuk/controllers/default.py'
tp4707
a(g4467
(S's\x04\x00\x00\x00View'
tRp4708
I00
S'/admin/default/edit/FotoBuk/views/default/show.html'
tp4709
a(g4467
(S's\x06\x00\x00\x00Layout'
tRp4710
I00
S'/admin/default/edit/FotoBuk/views/layout.html'
tp4711
a(g4467
(S's\n\x00\x00\x00Stylesheet'
tRp4712
I00
S'/admin/default/edit/FotoBuk/static/css/web2py.css'
tp4713
a(g4467
(S's\x08\x00\x00\x00DB Model'
tRp4714
I00
S'/admin/default/edit/FotoBuk/models/db.py'
tp4715
a(g4467
(S's\n\x00\x00\x00Menu Model'
tRp4716
I00
S'/admin/default/edit/FotoBuk/models/menu.py'
tp4717
a(g4467
(S's\x08\x00\x00\x00Database'
tRp4718
I00
S'/FotoBuk/appadmin/index'
tp4719
a(g4467
(S's\x06\x00\x00\x00Errors'
tRp4720
I00
S'/admin/default/errors/FotoBuk'
tp4721
a(g4467
(S's\x05\x00\x00\x00About'
tRp4722
I00
S'/admin/default/about/FotoBuk'
tp4723
aasbasbasbasbasbasbasbag61
(g77
g63
NtRp4724
(dp4725
g66
(dp4726
sg75
g4581
sg68
(lp4727
g61
(g82
g63
NtRp4728
(dp4729
g66
(dp4730
sg75
g4724
sg68
(lp4731
g61
(g62
g63
NtRp4732
(dp4733
g66
(dp4734
g74
I2
ssg75
g4728
sg68
(lp4735
g61
(g70
g63
NtRp4736
(dp4737
g66
(dp4738
g74
I1
ssg75
Nsg68
(lp4739
g61
(g77
g63
NtRp4740
(dp4741
g66
(dp4742
sg75
g4736
sg68
(lp4743
g61
(g82
g63
NtRp4744
(dp4745
g66
(dp4746
sg75
g4740
sg68
(lp4747
g61
(g62
g63
NtRp4748
(dp4749
g66
(dp4750
g74
I1
ssg75
g4744
sg68
(lp4751
S'web2py.com'
p4752
asbasbasbag61
(g77
g63
NtRp4753
(dp4754
g66
(dp4755
sg75
g4736
sg68
(lp4756
g61
(g82
g63
NtRp4757
(dp4758
g66
(dp4759
sg75
g4753
sg68
(lp4760
g61
(g62
g63
NtRp4761
(dp4762
g66
(dp4763
g74
I1
ssg75
g4757
sg68
(lp4764
I00
asbasbasbag61
(g77
g63
NtRp4765
(dp4766
g66
(dp4767
sg75
g4736
sg68
(lp4768
g61
(g82
g63
NtRp4769
(dp4770
g66
(dp4771
sg75
g4765
sg68
(lp4772
g61
(g62
g63
NtRp4773
(dp4774
g66
(dp4775
g74
I1
ssg75
g4769
sg68
(lp4776
S'http://www.web2py.com'
p4777
asbasbasbag61
(g77
g63
NtRp4778
(dp4779
g66
(dp4780
sg75
g4736
sg68
(lp4781
g61
(g82
g63
NtRp4782
(dp4783
g66
(dp4784
sg75
g4778
sg68
(lp4785
g61
(g62
g63
NtRp4786
(dp4787
g66
(dp4788
g74
I1
ssg75
g4782
sg68
(lp4789
(lp4790
(g4467
(S's\x08\x00\x00\x00Download'
tRp4791
I00
S'http://www.web2py.com/examples/default/download'
p4792
tp4793
a(g4467
(S's\x07\x00\x00\x00Support'
tRp4794
I00
S'http://www.web2py.com/examples/default/support'
p4795
tp4796
a(g4467
(S's\x04\x00\x00\x00Demo'
tRp4797
I00
S'http://web2py.com/demo_admin'
p4798
tp4799
a(g4467
(S's\x0e\x00\x00\x00Quick Examples'
tRp4800
I00
S'http://web2py.com/examples/default/examples'
p4801
tp4802
a(g4467
(S's\x03\x00\x00\x00FAQ'
tRp4803
I00
S'http://web2py.com/AlterEgo'
p4804
tp4805
a(g4467
(S's\x06\x00\x00\x00Videos'
tRp4806
I00
S'http://www.web2py.com/examples/default/videos/'
p4807
tp4808
a(g4467
(S's\x11\x00\x00\x00Free Applications'
tRp4809
I00
S'http://web2py.com/appliances'
p4810
tp4811
a(g4467
(S's\x07\x00\x00\x00Plugins'
tRp4812
I00
S'http://web2py.com/plugins'
p4813
tp4814
a(g4467
(S's\x07\x00\x00\x00Layouts'
tRp4815
I00
S'http://web2py.com/layouts'
p4816
tp4817
a(g4467
(S's\x07\x00\x00\x00Recipes'
tRp4818
I00
S'http://web2pyslices.com/'
p4819
tp4820
a(g4467
(S's\x08\x00\x00\x00Semantic'
tRp4821
I00
S'http://web2py.com/semantic'
p4822
tp4823
aasbasbasbasbasbasbasbag61
(g77
g63
NtRp4824
(dp4825
g66
(dp4826
sg75
g4581
sg68
(lp4827
g61
(g82
g63
NtRp4828
(dp4829
g66
(dp4830
sg75
g4824
sg68
(lp4831
g61
(g62
g63
NtRp4832
(dp4833
g66
(dp4834
g74
I2
ssg75
g4828
sg68
(lp4835
g61
(g70
g63
NtRp4836
(dp4837
g66
(dp4838
g74
I1
ssg75
Nsg68
(lp4839
g61
(g77
g63
NtRp4840
(dp4841
g66
(dp4842
sg75
g4836
sg68
(lp4843
g61
(g82
g63
NtRp4844
(dp4845
g66
(dp4846
sg75
g4840
sg68
(lp4847
g61
(g62
g63
NtRp4848
(dp4849
g66
(dp4850
g74
I1
ssg75
g4844
sg68
(lp4851
g4467
(S's\r\x00\x00\x00Documentation'
tRp4852
asbasbasbag61
(g77
g63
NtRp4853
(dp4854
g66
(dp4855
sg75
g4836
sg68
(lp4856
g61
(g82
g63
NtRp4857
(dp4858
g66
(dp4859
sg75
g4853
sg68
(lp4860
g61
(g62
g63
NtRp4861
(dp4862
g66
(dp4863
g74
I1
ssg75
g4857
sg68
(lp4864
I00
asbasbasbag61
(g77
g63
NtRp4865
(dp4866
g66
(dp4867
sg75
g4836
sg68
(lp4868
g61
(g82
g63
NtRp4869
(dp4870
g66
(dp4871
sg75
g4865
sg68
(lp4872
g61
(g62
g63
NtRp4873
(dp4874
g66
(dp4875
g74
I1
ssg75
g4869
sg68
(lp4876
S'http://www.web2py.com/book'
p4877
asbasbasbag61
(g77
g63
NtRp4878
(dp4879
g66
(dp4880
sg75
g4836
sg68
(lp4881
g61
(g82
g63
NtRp4882
(dp4883
g66
(dp4884
sg75
g4878
sg68
(lp4885
g61
(g62
g63
NtRp4886
(dp4887
g66
(dp4888
g74
I1
ssg75
g4882
sg68
(lp4889
(lp4890
(g4467
(S's\x07\x00\x00\x00Preface'
tRp4891
I00
S'http://www.web2py.com/book/default/chapter/00'
p4892
tp4893
a(g4467
(S's\x0c\x00\x00\x00Introduction'
tRp4894
I00
S'http://www.web2py.com/book/default/chapter/01'
p4895
tp4896
a(g4467
(S's\x06\x00\x00\x00Python'
tRp4897
I00
S'http://www.web2py.com/book/default/chapter/02'
p4898
tp4899
a(g4467
(S's\x08\x00\x00\x00Overview'
tRp4900
I00
S'http://www.web2py.com/book/default/chapter/03'
p4901
tp4902
a(g4467
(S's\x08\x00\x00\x00The Core'
tRp4903
I00
S'http://www.web2py.com/book/default/chapter/04'
p4904
tp4905
a(g4467
(S's\t\x00\x00\x00The Views'
tRp4906
I00
S'http://www.web2py.com/book/default/chapter/05'
p4907
tp4908
a(g4467
(S's\x08\x00\x00\x00Database'
tRp4909
I00
S'http://www.web2py.com/book/default/chapter/06'
p4910
tp4911
a(g4467
(S's\x14\x00\x00\x00Forms and Validators'
tRp4912
I00
S'http://www.web2py.com/book/default/chapter/07'
p4913
tp4914
a(g4467
(S's\r\x00\x00\x00Email and SMS'
tRp4915
I00
S'http://www.web2py.com/book/default/chapter/08'
p4916
tp4917
a(g4467
(S's\x0e\x00\x00\x00Access Control'
tRp4918
I00
S'http://www.web2py.com/book/default/chapter/09'
p4919
tp4920
a(g4467
(S's\x08\x00\x00\x00Services'
tRp4921
I00
S'http://www.web2py.com/book/default/chapter/10'
p4922
tp4923
a(g4467
(S's\x0c\x00\x00\x00Ajax Recipes'
tRp4924
I00
S'http://www.web2py.com/book/default/chapter/11'
p4925
tp4926
a(g4467
(S's\x16\x00\x00\x00Components and Plugins'
tRp4927
I00
S'http://www.web2py.com/book/default/chapter/12'
p4928
tp4929
a(g4467
(S's\x12\x00\x00\x00Deployment Recipes'
tRp4930
I00
S'http://www.web2py.com/book/default/chapter/13'
p4931
tp4932
a(g4467
(S's\r\x00\x00\x00Other Recipes'
tRp4933
I00
S'http://www.web2py.com/book/default/chapter/14'
p4934
tp4935
a(g4467
(S's\r\x00\x00\x00Buy this book'
tRp4936
I00
S'http://stores.lulu.com/web2py'
p4937
tp4938
aasbasbasbasbasbasbasbag61
(g77
g63
NtRp4939
(dp4940
g66
(dp4941
sg75
g4581
sg68
(lp4942
g61
(g82
g63
NtRp4943
(dp4944
g66
(dp4945
sg75
g4939
sg68
(lp4946
g61
(g62
g63
NtRp4947
(dp4948
g66
(dp4949
g74
I2
ssg75
g4943
sg68
(lp4950
g61
(g70
g63
NtRp4951
(dp4952
g66
(dp4953
g74
I1
ssg75
Nsg68
(lp4954
g61
(g77
g63
NtRp4955
(dp4956
g66
(dp4957
sg75
g4951
sg68
(lp4958
g61
(g82
g63
NtRp4959
(dp4960
g66
(dp4961
sg75
g4955
sg68
(lp4962
g61
(g62
g63
NtRp4963
(dp4964
g66
(dp4965
g74
I1
ssg75
g4959
sg68
(lp4966
g4467
(S's\t\x00\x00\x00Community'
tRp4967
asbasbasbag61
(g77
g63
NtRp4968
(dp4969
g66
(dp4970
sg75
g4951
sg68
(lp4971
g61
(g82
g63
NtRp4972
(dp4973
g66
(dp4974
sg75
g4968
sg68
(lp4975
g61
(g62
g63
NtRp4976
(dp4977
g66
(dp4978
g74
I1
ssg75
g4972
sg68
(lp4979
I00
asbasbasbag61
(g77
g63
NtRp4980
(dp4981
g66
(dp4982
sg75
g4951
sg68
(lp4983
g61
(g82
g63
NtRp4984
(dp4985
g66
(dp4986
sg75
g4980
sg68
(lp4987
g61
(g62
g63
NtRp4988
(dp4989
g66
(dp4990
g74
I1
ssg75
g4984
sg68
(lp4991
Nasbasbasbag61
(g77
g63
NtRp4992
(dp4993
g66
(dp4994
sg75
g4951
sg68
(lp4995
g61
(g82
g63
NtRp4996
(dp4997
g66
(dp4998
sg75
g4992
sg68
(lp4999
g61
(g62
g63
NtRp5000
(dp5001
g66
(dp5002
g74
I1
ssg75
g4996
sg68
(lp5003
(lp5004
(g4467
(S's\x06\x00\x00\x00Groups'
tRp5005
I00
S'http://www.web2py.com/examples/default/usergroups'
p5006
tp5007
a(g4467
(S's\x07\x00\x00\x00Twitter'
tRp5008
I00
S'http://twitter.com/web2py'
p5009
tp5010
a(g4467
(S's\t\x00\x00\x00Live Chat'
tRp5011
I00
S'http://webchat.freenode.net/?channels=web2py'
p5012
tp5013
aasbasbasbasbasbasbasbag61
(g77
g63
NtRp5014
(dp5015
g66
(dp5016
sg75
g4581
sg68
(lp5017
g61
(g82
g63
NtRp5018
(dp5019
g66
(dp5020
sg75
g5014
sg68
(lp5021
g61
(g62
g63
NtRp5022
(dp5023
g66
(dp5024
g74
I2
ssg75
g5018
sg68
(lp5025
g61
(g70
g63
NtRp5026
(dp5027
g66
(dp5028
g74
I1
ssg75
Nsg68
(lp5029
g61
(g77
g63
NtRp5030
(dp5031
g66
(dp5032
sg75
g5026
sg68
(lp5033
g61
(g82
g63
NtRp5034
(dp5035
g66
(dp5036
sg75
g5030
sg68
(lp5037
g61
(g62
g63
NtRp5038
(dp5039
g66
(dp5040
g74
I1
ssg75
g5034
sg68
(lp5041
g4467
(S's\x07\x00\x00\x00Plugins'
tRp5042
asbasbasbag61
(g77
g63
NtRp5043
(dp5044
g66
(dp5045
sg75
g5026
sg68
(lp5046
g61
(g82
g63
NtRp5047
(dp5048
g66
(dp5049
sg75
g5043
sg68
(lp5050
g61
(g62
g63
NtRp5051
(dp5052
g66
(dp5053
g74
I1
ssg75
g5047
sg68
(lp5054
I00
asbasbasbag61
(g77
g63
NtRp5055
(dp5056
g66
(dp5057
sg75
g5026
sg68
(lp5058
g61
(g82
g63
NtRp5059
(dp5060
g66
(dp5061
sg75
g5055
sg68
(lp5062
g61
(g62
g63
NtRp5063
(dp5064
g66
(dp5065
g74
I1
ssg75
g5059
sg68
(lp5066
Nasbasbasbag61
(g77
g63
NtRp5067
(dp5068
g66
(dp5069
sg75
g5026
sg68
(lp5070
g61
(g82
g63
NtRp5071
(dp5072
g66
(dp5073
sg75
g5067
sg68
(lp5074
g61
(g62
g63
NtRp5075
(dp5076
g66
(dp5077
g74
I1
ssg75
g5071
sg68
(lp5078
(lp5079
(S'plugin_wiki'
p5080
I00
S'http://web2py.com/examples/default/download'
p5081
tp5082
a(g4467
(S's\r\x00\x00\x00Other Plugins'
tRp5083
I00
g4813
tp5084
a(g4467
(S's\x0e\x00\x00\x00Layout Plugins'
tRp5085
I00
g4816
tp5086
aasbasbasbasbasbasbasbasbasbasbasbasbasbasbasbasbasbasbasbag61
(g77
g63
NtRp5087
(dp5088
g66
(dp5089
sg75
g3901
sg68
(lp5090
g61
(g82
g63
NtRp5091
(dp5092
g66
(dp5093
g86
g87
ssg75
g5087
sg68
(lp5094
S'meta'
p5095
asbag61
(g82
g63
NtRp5096
(dp5097
g66
(dp5098
g93
g94
ssg75
g5087
sg68
(lp5099
S':'
asbag61
(g82
g63
NtRp5100
(dp5101
g66
(dp5102
sg75
g5087
sg68
(lp5103
g61
(g62
g63
NtRp5104
(dp5105
g66
(dp5106
g74
I5
ssg75
g5100
sg68
(lp5107
g61
(g70
g63
NtRp5108
(dp5109
g66
(dp5110
g74
I4
ssg75
Nsg68
(lp5111
g61
(g77
g63
NtRp5112
(dp5113
g66
(dp5114
sg75
g5108
sg68
(lp5115
g61
(g82
g63
NtRp5116
(dp5117
g66
(dp5118
g86
g87
ssg75
g5112
sg68
(lp5119
S'author'
p5120
asbag61
(g82
g63
NtRp5121
(dp5122
g66
(dp5123
g93
g94
ssg75
g5112
sg68
(lp5124
S':'
asbag61
(g82
g63
NtRp5125
(dp5126
g66
(dp5127
sg75
g5112
sg68
(lp5128
g61
(g62
g63
NtRp5129
(dp5130
g66
(dp5131
g74
I4
ssg75
g5125
sg68
(lp5132
S'Your Name <you@example.com>'
p5133
asbasbasbag61
(g77
g63
NtRp5134
(dp5135
g66
(dp5136
sg75
g5108
sg68
(lp5137
g61
(g82
g63
NtRp5138
(dp5139
g66
(dp5140
g86
g87
ssg75
g5134
sg68
(lp5141
S'description'
p5142
asbag61
(g82
g63
NtRp5143
(dp5144
g66
(dp5145
g93
g94
ssg75
g5134
sg68
(lp5146
S':'
asbag61
(g82
g63
NtRp5147
(dp5148
g66
(dp5149
sg75
g5134
sg68
(lp5150
g61
(g62
g63
NtRp5151
(dp5152
g66
(dp5153
g74
I4
ssg75
g5147
sg68
(lp5154
S'a cool new app'
p5155
asbasbasbag61
(g77
g63
NtRp5156
(dp5157
g66
(dp5158
sg75
g5108
sg68
(lp5159
g61
(g82
g63
NtRp5160
(dp5161
g66
(dp5162
g86
g87
ssg75
g5156
sg68
(lp5163
S'generator'
p5164
asbag61
(g82
g63
NtRp5165
(dp5166
g66
(dp5167
g93
g94
ssg75
g5156
sg68
(lp5168
S':'
asbag61
(g82
g63
NtRp5169
(dp5170
g66
(dp5171
sg75
g5156
sg68
(lp5172
g61
(g62
g63
NtRp5173
(dp5174
g66
(dp5175
g74
I4
ssg75
g5169
sg68
(lp5176
S'Web2py Web Framework'
p5177
asbasbasbag61
(g77
g63
NtRp5178
(dp5179
g66
(dp5180
sg75
g5108
sg68
(lp5181
g61
(g82
g63
NtRp5182
(dp5183
g66
(dp5184
g86
g87
ssg75
g5178
sg68
(lp5185
S'keywords'
p5186
asbag61
(g82
g63
NtRp5187
(dp5188
g66
(dp5189
g93
g94
ssg75
g5178
sg68
(lp5190
S':'
asbag61
(g82
g63
NtRp5191
(dp5192
g66
(dp5193
sg75
g5178
sg68
(lp5194
g61
(g62
g63
NtRp5195
(dp5196
g66
(dp5197
g74
I4
ssg75
g5191
sg68
(lp5198
S'web2py, python, framework'
p5199
asbasbasbasbasbasbasbag61
(g77
g63
NtRp5200
(dp5201
g66
(dp5202
sg75
g3901
sg68
(lp5203
g61
(g82
g63
NtRp5204
(dp5205
g66
(dp5206
g86
g87
ssg75
g5200
sg68
(lp5207
S'postprocessing'
p5208
asbag61
(g82
g63
NtRp5209
(dp5210
g66
(dp5211
g93
g94
ssg75
g5200
sg68
(lp5212
S':'
asbag61
(g82
g63
NtRp5213
(dp5214
g66
(dp5215
sg75
g5200
sg68
(lp5216
g61
(g62
g63
NtRp5217
(dp5218
g66
(dp5219
g74
I5
ssg75
g5213
sg68
(lp5220
g61
(g70
g63
NtRp5221
(dp5222
g66
(dp5223
g74
I4
ssg75
Nsg68
(lp5224
sbasbasbasbag61
(g77
g63
NtRp5225
(dp5226
g66
(dp5227
sg75
g3901
sg68
(lp5228
g61
(g82
g63
NtRp5229
(dp5230
g66
(dp5231
g86
g87
ssg75
g5225
sg68
(lp5232
S'session_file'
p5233
asbag61
(g82
g63
NtRp5234
(dp5235
g66
(dp5236
g93
g94
ssg75
g5225
sg68
(lp5237
S':'
asbag61
(g82
g63
NtRp5238
(dp5239
g66
(dp5240
sg75
g5225
sg68
(lp5241
g61
(g62
g63
NtRp5242
(dp5243
g66
(dp5244
g74
I5
ssg75
g5238
sg68
(lp5245
S"<open file '/home/piyush/web2py/applications/FotoBuk/sessions/127.0.0.1-a0aa12fe-f234-43d8-b1ed-9cc366e4417f', mode 'rb+' at 0x9074548>"
p5246
asbasbasbag61
(g77
g63
NtRp5247
(dp5248
g66
(dp5249
sg75
g3901
sg68
(lp5250
g61
(g82
g63
NtRp5251
(dp5252
g66
(dp5253
g86
g87
ssg75
g5247
sg68
(lp5254
S'session_filename'
p5255
asbag61
(g82
g63
NtRp5256
(dp5257
g66
(dp5258
g93
g94
ssg75
g5247
sg68
(lp5259
S':'
asbag61
(g82
g63
NtRp5260
(dp5261
g66
(dp5262
sg75
g5247
sg68
(lp5263
g61
(g62
g63
NtRp5264
(dp5265
g66
(dp5266
g74
I5
ssg75
g5260
sg68
(lp5267
S'/home/piyush/web2py/applications/FotoBuk/sessions/127.0.0.1-a0aa12fe-f234-43d8-b1ed-9cc366e4417f'
p5268
asbasbasbag61
(g77
g63
NtRp5269
(dp5270
g66
(dp5271
sg75
g3901
sg68
(lp5272
g61
(g82
g63
NtRp5273
(dp5274
g66
(dp5275
g86
g87
ssg75
g5269
sg68
(lp5276
S'session_id'
p5277
asbag61
(g82
g63
NtRp5278
(dp5279
g66
(dp5280
g93
g94
ssg75
g5269
sg68
(lp5281
S':'
asbag61
(g82
g63
NtRp5282
(dp5283
g66
(dp5284
sg75
g5269
sg68
(lp5285
g61
(g62
g63
NtRp5286
(dp5287
g66
(dp5288
g74
I5
ssg75
g5282
sg68
(lp5289
g491
asbasbasbag61
(g77
g63
NtRp5290
(dp5291
g66
(dp5292
sg75
g3901
sg68
(lp5293
g61
(g82
g63
NtRp5294
(dp5295
g66
(dp5296
g86
g87
ssg75
g5290
sg68
(lp5297
S'session_id_name'
p5298
asbag61
(g82
g63
NtRp5299
(dp5300
g66
(dp5301
g93
g94
ssg75
g5290
sg68
(lp5302
S':'
asbag61
(g82
g63
NtRp5303
(dp5304
g66
(dp5305
sg75
g5290
sg68
(lp5306
g61
(g62
g63
NtRp5307
(dp5308
g66
(dp5309
g74
I5
ssg75
g5303
sg68
(lp5310
g3958
asbasbasbag61
(g77
g63
NtRp5311
(dp5312
g66
(dp5313
sg75
g3901
sg68
(lp5314
g61
(g82
g63
NtRp5315
(dp5316
g66
(dp5317
g86
g87
ssg75
g5311
sg68
(lp5318
S'session_locked'
p5319
asbag61
(g82
g63
NtRp5320
(dp5321
g66
(dp5322
g93
g94
ssg75
g5311
sg68
(lp5323
S':'
asbag61
(g82
g63
NtRp5324
(dp5325
g66
(dp5326
sg75
g5311
sg68
(lp5327
g61
(g62
g63
NtRp5328
(dp5329
g66
(dp5330
g74
I5
ssg75
g5324
sg68
(lp5331
g1826
asbasbasbag61
(g77
g63
NtRp5332
(dp5333
g66
(dp5334
sg75
g3901
sg68
(lp5335
g61
(g82
g63
NtRp5336
(dp5337
g66
(dp5338
g86
g87
ssg75
g5332
sg68
(lp5339
S'session_new'
p5340
asbag61
(g82
g63
NtRp5341
(dp5342
g66
(dp5343
g93
g94
ssg75
g5332
sg68
(lp5344
S':'
asbag61
(g82
g63
NtRp5345
(dp5346
g66
(dp5347
sg75
g5332
sg68
(lp5348
g61
(g62
g63
NtRp5349
(dp5350
g66
(dp5351
g74
I5
ssg75
g5345
sg68
(lp5352
g104
asbasbasbag61
(g77
g63
NtRp5353
(dp5354
g66
(dp5355
sg75
g3901
sg68
(lp5356
g61
(g82
g63
NtRp5357
(dp5358
g66
(dp5359
g86
g87
ssg75
g5353
sg68
(lp5360
S'status'
p5361
asbag61
(g82
g63
NtRp5362
(dp5363
g66
(dp5364
g93
g94
ssg75
g5353
sg68
(lp5365
S':'
asbag61
(g82
g63
NtRp5366
(dp5367
g66
(dp5368
sg75
g5353
sg68
(lp5369
g61
(g62
g63
NtRp5370
(dp5371
g66
(dp5372
g74
I5
ssg75
g5366
sg68
(lp5373
S'200'
p5374
asbasbasbag61
(g77
g63
NtRp5375
(dp5376
g66
(dp5377
sg75
g3901
sg68
(lp5378
g61
(g82
g63
NtRp5379
(dp5380
g66
(dp5381
g86
g87
ssg75
g5375
sg68
(lp5382
S'subtitle'
p5383
asbag61
(g82
g63
NtRp5384
(dp5385
g66
(dp5386
g93
g94
ssg75
g5375
sg68
(lp5387
S':'
asbag61
(g82
g63
NtRp5388
(dp5389
g66
(dp5390
sg75
g5375
sg68
(lp5391
g61
(g62
g63
NtRp5392
(dp5393
g66
(dp5394
g74
I5
ssg75
g5388
sg68
(lp5395
g4467
(S's\r\x00\x00\x00customize me!'
tRp5396
asbasbasbag61
(g77
g63
NtRp5397
(dp5398
g66
(dp5399
sg75
g3901
sg68
(lp5400
g61
(g82
g63
NtRp5401
(dp5402
g66
(dp5403
g86
g87
ssg75
g5397
sg68
(lp5404
S'title'
p5405
asbag61
(g82
g63
NtRp5406
(dp5407
g66
(dp5408
g93
g94
ssg75
g5397
sg68
(lp5409
S':'
asbag61
(g82
g63
NtRp5410
(dp5411
g66
(dp5412
sg75
g5397
sg68
(lp5413
g61
(g62
g63
NtRp5414
(dp5415
g66
(dp5416
g74
I5
ssg75
g5410
sg68
(lp5417
S'Fotobuk'
p5418
asbasbasbag61
(g77
g63
NtRp5419
(dp5420
g66
(dp5421
sg75
g3901
sg68
(lp5422
g61
(g82
g63
NtRp5423
(dp5424
g66
(dp5425
g86
g87
ssg75
g5419
sg68
(lp5426
S'view'
p5427
asbag61
(g82
g63
NtRp5428
(dp5429
g66
(dp5430
g93
g94
ssg75
g5419
sg68
(lp5431
S':'
asbag61
(g82
g63
NtRp5432
(dp5433
g66
(dp5434
sg75
g5419
sg68
(lp5435
g61
(g62
g63
NtRp5436
(dp5437
g66
(dp5438
g74
I5
ssg75
g5432
sg68
(lp5439
S'default/show.html'
p5440
asbasbasbasbasbsS'locals'
p5441
(dp5442
S'query'
p5443
S"'INSERT INTO like() VALUES ();'"
p5444
sS'self'
p5445
S'<gluon.dal.SQLiteAdapter object>'
p5446
sS'e'
S'OperationalError(\'near ")": syntax error\',)'
p5447
sS'fields'
p5448
S'[]'
p5449
sS'table'
p5450
S'<Table like (id,like_id,liker,likername)>'
p5451
sssS'traceback'
p5452
S'Traceback (most recent call last):\n  File "/home/piyush/web2py/gluon/restricted.py", line 209, in restricted\n    exec ccode in environment\n  File "/home/piyush/web2py/applications/FotoBuk/controllers/default.py", line 61, in <module>\n  File "/home/piyush/web2py/gluon/globals.py", line 185, in <lambda>\n    self._caller = lambda f: f()\n  File "/home/piyush/web2py/gluon/tools.py", line 2776, in f\n    return action(*a, **b)\n  File "/home/piyush/web2py/applications/FotoBuk/controllers/default.py", line 36, in show\n    if form2.process().accepted:\n  File "/home/piyush/web2py/gluon/html.py", line 2106, in process\n    self.validate(**kwargs)\n  File "/home/piyush/web2py/gluon/html.py", line 2053, in validate\n    if self.accepts(**kwargs):\n  File "/home/piyush/web2py/gluon/sqlhtml.py", line 1403, in accepts\n    self.vars.id = self.table.insert(**fields)\n  File "/home/piyush/web2py/gluon/dal.py", line 7720, in insert\n    ret =  self._db._adapter.insert(self,self._listify(fields))\n  File "/home/piyush/web2py/gluon/dal.py", line 1080, in insert\n    raise e\nOperationalError: near ")": syntax error\n'
p5453
s.