(dp1
S'output'
p2
S'<class \'sqlite3.OperationalError\'> near ")": syntax error'
p3
sS'layer'
p4
S'/home/piyush/web2py/applications/FotoBuk/controllers/default.py'
p5
sS'code'
p6
S"@auth.requires_login()\ndef index():\n\tli=db(db.image).select()\n\treturn dict(li=li)\n\n@auth.requires_login()\ndef insert():\n    db.image.author.default=auth.user.first_name\n    form=SQLFORM(db.image)\n    if form.process().accepted:\n        response.flash = 'your image is posted'\n    return dict(form=form)\n\n@auth.requires_login()\ndef show():\n    flag=0\n    image = db(db.image.id==request.args(0)).select().first()\n    db.comment.image_id.default = image.id\n    cur_user=auth.user_id\n    form = SQLFORM(db.comment)\n    likes =db(db.like.like_id==image.id).select()\n    for like in likes:\n\t    if cur_user in like:\n\t\t    flag=1\n    if flag!=1:\n    \tform2 = SQLFORM(db.like)\n    \tif form2.process().accepted:\n\t\tresponse.flash = 'You have liked the image'\n    \t\tdb.like.insert(likername=auth.user.first_name,liker=auth.user_id,like_id=image.id)\n    if form.process().accepted:\n        response.flash = 'your comment is posted'\n    comments = db(db.comment.image_id==image.id).select()\n    print likes\n    if flag==0:\n    \treturn dict(cur_user=cur_user,flag=flag,image=image, comments=comments, likes=likes, form=form, form2=form2)\n    else:\n\t    return dict(cur_user,flag=flag,image=image,comments=comments,likes=likes,form=form)\n\ndef user():\n\treturn dict(form=auth())\n\ndef download():\n\treturn response.download(request,db)\n\nresponse._vars=response._caller(show)\n"
p7
sS'snapshot'
p8
(dp9
S'exception'
p10
(dp11
S'__module__'
p12
S"'sqlite3'"
p13
sS'__getslice__'
p14
S"<method-wrapper '__getslice__' of OperationalError object>"
p15
sS'__str__'
p16
S"<method-wrapper '__str__' of OperationalError object>"
p17
sS'__reduce__'
p18
S'<built-in method __reduce__ of OperationalError object>'
p19
sS'__dict__'
p20
S'{}'
p21
sS'__sizeof__'
p22
S'<built-in method __sizeof__ of OperationalError object>'
p23
sS'__weakref__'
p24
S'None'
p25
sS'__init__'
p26
S"<method-wrapper '__init__' of OperationalError object>"
p27
sS'__setattr__'
p28
S"<method-wrapper '__setattr__' of OperationalError object>"
p29
sS'__reduce_ex__'
p30
S'<built-in method __reduce_ex__ of OperationalError object>'
p31
sS'__new__'
p32
S'<built-in method __new__ of type object>'
p33
sS'__format__'
p34
S'<built-in method __format__ of OperationalError object>'
p35
sS'__class__'
p36
S"<class 'sqlite3.OperationalError'>"
p37
sS'__doc__'
p38
S'None'
p39
sS'__getitem__'
p40
S"<method-wrapper '__getitem__' of OperationalError object>"
p41
sS'__setstate__'
p42
S'<built-in method __setstate__ of OperationalError object>'
p43
sS'__getattribute__'
p44
S"<method-wrapper '__getattribute__' of OperationalError object>"
p45
sS'args'
p46
S'(\'near ")": syntax error\',)'
p47
sS'__subclasshook__'
p48
S'<built-in method __subclasshook__ of type object>'
p49
sS'__unicode__'
p50
S'<built-in method __unicode__ of OperationalError object>'
p51
sS'__delattr__'
p52
S"<method-wrapper '__delattr__' of OperationalError object>"
p53
sS'__repr__'
p54
S"<method-wrapper '__repr__' of OperationalError object>"
p55
sS'__hash__'
p56
S"<method-wrapper '__hash__' of OperationalError object>"
p57
ssS'evalue'
p58
S'near ")": syntax error'
p59
sS'request'
p60
ccopy_reg
_reconstructor
p61
(cgluon.html
BEAUTIFY
p62
c__builtin__
object
p63
NtRp64
(dp65
S'attributes'
p66
(dp67
sS'components'
p68
(lp69
g61
(cgluon.html
TABLE
p70
g63
NtRp71
(dp72
g66
(dp73
S'level'
p74
I5
ssS'parent'
p75
Nsg68
(lp76
g61
(cgluon.html
TR
p77
g63
NtRp78
(dp79
g66
(dp80
sg75
g71
sg68
(lp81
g61
(cgluon.html
TD
p82
g63
NtRp83
(dp84
g66
(dp85
S'_style'
p86
S'font-weight:bold;vertical-align:top'
p87
ssg75
g78
sg68
(lp88
S'ajax'
p89
asbag61
(g82
g63
NtRp90
(dp91
g66
(dp92
S'_valign'
p93
S'top'
p94
ssg75
g78
sg68
(lp95
S':'
asbag61
(g82
g63
NtRp96
(dp97
g66
(dp98
sg75
g78
sg68
(lp99
g61
(g62
g63
NtRp100
(dp101
g66
(dp102
g74
I5
ssg75
g96
sg68
(lp103
S'False'
p104
asbasbasbag61
(g77
g63
NtRp105
(dp106
g66
(dp107
sg75
g71
sg68
(lp108
g61
(g82
g63
NtRp109
(dp110
g66
(dp111
g86
g87
ssg75
g105
sg68
(lp112
S'application'
p113
asbag61
(g82
g63
NtRp114
(dp115
g66
(dp116
g93
g94
ssg75
g105
sg68
(lp117
S':'
asbag61
(g82
g63
NtRp118
(dp119
g66
(dp120
sg75
g105
sg68
(lp121
g61
(g62
g63
NtRp122
(dp123
g66
(dp124
g74
I5
ssg75
g118
sg68
(lp125
S'FotoBuk'
p126
asbasbasbag61
(g77
g63
NtRp127
(dp128
g66
(dp129
sg75
g71
sg68
(lp130
g61
(g82
g63
NtRp131
(dp132
g66
(dp133
g86
g87
ssg75
g127
sg68
(lp134
g46
asbag61
(g82
g63
NtRp135
(dp136
g66
(dp137
g93
g94
ssg75
g127
sg68
(lp138
S':'
asbag61
(g82
g63
NtRp139
(dp140
g66
(dp141
sg75
g127
sg68
(lp142
g61
(g62
g63
NtRp143
(dp144
g66
(dp145
g74
I5
ssg75
g139
sg68
(lp146
g61
(g70
g63
NtRp147
(dp148
g66
(dp149
g74
I4
ssg75
Nsg68
(lp150
g61
(g77
g63
NtRp151
(dp152
g66
(dp153
sg75
g147
sg68
(lp154
g61
(g82
g63
NtRp155
(dp156
g66
(dp157
sg75
g151
sg68
(lp158
g61
(g62
g63
NtRp159
(dp160
g66
(dp161
g74
I4
ssg75
g155
sg68
(lp162
S'2'
asbasbasbasbasbasbasbag61
(g77
g63
NtRp163
(dp164
g66
(dp165
sg75
g71
sg68
(lp166
g61
(g82
g63
NtRp167
(dp168
g66
(dp169
g86
g87
ssg75
g163
sg68
(lp170
S'body'
p171
asbag61
(g82
g63
NtRp172
(dp173
g66
(dp174
g93
g94
ssg75
g163
sg68
(lp175
S':'
asbag61
(g82
g63
NtRp176
(dp177
g66
(dp178
sg75
g163
sg68
(lp179
g61
(g62
g63
NtRp180
(dp181
g66
(dp182
g74
I5
ssg75
g176
sg68
(lp183
S"<open file '<fdopen>', mode 'w+b' at 0xaf2be7b0>"
p184
asbasbasbag61
(g77
g63
NtRp185
(dp186
g66
(dp187
sg75
g71
sg68
(lp188
g61
(g82
g63
NtRp189
(dp190
g66
(dp191
g86
g87
ssg75
g185
sg68
(lp192
S'cid'
p193
asbag61
(g82
g63
NtRp194
(dp195
g66
(dp196
g93
g94
ssg75
g185
sg68
(lp197
S':'
asbag61
(g82
g63
NtRp198
(dp199
g66
(dp200
sg75
g185
sg68
(lp201
g61
(g62
g63
NtRp202
(dp203
g66
(dp204
g74
I5
ssg75
g198
sg68
(lp205
S'None'
p206
asbasbasbag61
(g77
g63
NtRp207
(dp208
g66
(dp209
sg75
g71
sg68
(lp210
g61
(g82
g63
NtRp211
(dp212
g66
(dp213
g86
g87
ssg75
g207
sg68
(lp214
S'client'
p215
asbag61
(g82
g63
NtRp216
(dp217
g66
(dp218
g93
g94
ssg75
g207
sg68
(lp219
S':'
asbag61
(g82
g63
NtRp220
(dp221
g66
(dp222
sg75
g207
sg68
(lp223
g61
(g62
g63
NtRp224
(dp225
g66
(dp226
g74
I5
ssg75
g220
sg68
(lp227
S'127.0.0.1'
p228
asbasbasbag61
(g77
g63
NtRp229
(dp230
g66
(dp231
sg75
g71
sg68
(lp232
g61
(g82
g63
NtRp233
(dp234
g66
(dp235
g86
g87
ssg75
g229
sg68
(lp236
S'controller'
p237
asbag61
(g82
g63
NtRp238
(dp239
g66
(dp240
g93
g94
ssg75
g229
sg68
(lp241
S':'
asbag61
(g82
g63
NtRp242
(dp243
g66
(dp244
sg75
g229
sg68
(lp245
g61
(g62
g63
NtRp246
(dp247
g66
(dp248
g74
I5
ssg75
g242
sg68
(lp249
S'default'
p250
asbasbasbag61
(g77
g63
NtRp251
(dp252
g66
(dp253
sg75
g71
sg68
(lp254
g61
(g82
g63
NtRp255
(dp256
g66
(dp257
g86
g87
ssg75
g251
sg68
(lp258
S'cookies'
p259
asbag61
(g82
g63
NtRp260
(dp261
g66
(dp262
g93
g94
ssg75
g251
sg68
(lp263
S':'
asbag61
(g82
g63
NtRp264
(dp265
g66
(dp266
sg75
g251
sg68
(lp267
g61
(g62
g63
NtRp268
(dp269
g66
(dp270
g74
I5
ssg75
g264
sg68
(lp271
g61
(g70
g63
NtRp272
(dp273
g66
(dp274
g74
I4
ssg75
Nsg68
(lp275
g61
(g77
g63
NtRp276
(dp277
g66
(dp278
sg75
g272
sg68
(lp279
g61
(g82
g63
NtRp280
(dp281
g66
(dp282
g86
g87
ssg75
g276
sg68
(lp283
S'session_id_admin'
p284
asbag61
(g82
g63
NtRp285
(dp286
g66
(dp287
g93
g94
ssg75
g276
sg68
(lp288
S':'
asbag61
(g82
g63
NtRp289
(dp290
g66
(dp291
sg75
g276
sg68
(lp292
g61
(g62
g63
NtRp293
(dp294
g66
(dp295
g74
I4
ssg75
g289
sg68
(lp296
S'127.0.0.1-f31a16a6-2f0e-474e-b0b5-7ca781ebd64d'
p297
ag61
(g70
g63
NtRp298
(dp299
g66
(dp300
g74
I3
ssg75
Nsg68
(lp301
g61
(g77
g63
NtRp302
(dp303
g66
(dp304
sg75
g298
sg68
(lp305
g61
(g82
g63
NtRp306
(dp307
g66
(dp308
g86
g87
ssg75
g302
sg68
(lp309
S'comment'
p310
asbag61
(g82
g63
NtRp311
(dp312
g66
(dp313
g93
g94
ssg75
g302
sg68
(lp314
S':'
asbag61
(g82
g63
NtRp315
(dp316
g66
(dp317
sg75
g302
sg68
(lp318
g61
(g62
g63
NtRp319
(dp320
g66
(dp321
g74
I3
ssg75
g315
sg68
(lp322
S''
asbasbasbag61
(g77
g63
NtRp323
(dp324
g66
(dp325
sg75
g298
sg68
(lp326
g61
(g82
g63
NtRp327
(dp328
g66
(dp329
g86
g87
ssg75
g323
sg68
(lp330
S'domain'
p331
asbag61
(g82
g63
NtRp332
(dp333
g66
(dp334
g93
g94
ssg75
g323
sg68
(lp335
S':'
asbag61
(g82
g63
NtRp336
(dp337
g66
(dp338
sg75
g323
sg68
(lp339
g61
(g62
g63
NtRp340
(dp341
g66
(dp342
g74
I3
ssg75
g336
sg68
(lp343
S''
asbasbasbag61
(g77
g63
NtRp344
(dp345
g66
(dp346
sg75
g298
sg68
(lp347
g61
(g82
g63
NtRp348
(dp349
g66
(dp350
g86
g87
ssg75
g344
sg68
(lp351
S'expires'
p352
asbag61
(g82
g63
NtRp353
(dp354
g66
(dp355
g93
g94
ssg75
g344
sg68
(lp356
S':'
asbag61
(g82
g63
NtRp357
(dp358
g66
(dp359
sg75
g344
sg68
(lp360
g61
(g62
g63
NtRp361
(dp362
g66
(dp363
g74
I3
ssg75
g357
sg68
(lp364
S''
asbasbasbag61
(g77
g63
NtRp365
(dp366
g66
(dp367
sg75
g298
sg68
(lp368
g61
(g82
g63
NtRp369
(dp370
g66
(dp371
g86
g87
ssg75
g365
sg68
(lp372
S'httponly'
p373
asbag61
(g82
g63
NtRp374
(dp375
g66
(dp376
g93
g94
ssg75
g365
sg68
(lp377
S':'
asbag61
(g82
g63
NtRp378
(dp379
g66
(dp380
sg75
g365
sg68
(lp381
g61
(g62
g63
NtRp382
(dp383
g66
(dp384
g74
I3
ssg75
g378
sg68
(lp385
S''
asbasbasbag61
(g77
g63
NtRp386
(dp387
g66
(dp388
sg75
g298
sg68
(lp389
g61
(g82
g63
NtRp390
(dp391
g66
(dp392
g86
g87
ssg75
g386
sg68
(lp393
S'max-age'
p394
asbag61
(g82
g63
NtRp395
(dp396
g66
(dp397
g93
g94
ssg75
g386
sg68
(lp398
S':'
asbag61
(g82
g63
NtRp399
(dp400
g66
(dp401
sg75
g386
sg68
(lp402
g61
(g62
g63
NtRp403
(dp404
g66
(dp405
g74
I3
ssg75
g399
sg68
(lp406
S''
asbasbasbag61
(g77
g63
NtRp407
(dp408
g66
(dp409
sg75
g298
sg68
(lp410
g61
(g82
g63
NtRp411
(dp412
g66
(dp413
g86
g87
ssg75
g407
sg68
(lp414
S'path'
p415
asbag61
(g82
g63
NtRp416
(dp417
g66
(dp418
g93
g94
ssg75
g407
sg68
(lp419
S':'
asbag61
(g82
g63
NtRp420
(dp421
g66
(dp422
sg75
g407
sg68
(lp423
g61
(g62
g63
NtRp424
(dp425
g66
(dp426
g74
I3
ssg75
g420
sg68
(lp427
S''
asbasbasbag61
(g77
g63
NtRp428
(dp429
g66
(dp430
sg75
g298
sg68
(lp431
g61
(g82
g63
NtRp432
(dp433
g66
(dp434
g86
g87
ssg75
g428
sg68
(lp435
S'secure'
p436
asbag61
(g82
g63
NtRp437
(dp438
g66
(dp439
g93
g94
ssg75
g428
sg68
(lp440
S':'
asbag61
(g82
g63
NtRp441
(dp442
g66
(dp443
sg75
g428
sg68
(lp444
g61
(g62
g63
NtRp445
(dp446
g66
(dp447
g74
I3
ssg75
g441
sg68
(lp448
S''
asbasbasbag61
(g77
g63
NtRp449
(dp450
g66
(dp451
sg75
g298
sg68
(lp452
g61
(g82
g63
NtRp453
(dp454
g66
(dp455
g86
g87
ssg75
g449
sg68
(lp456
S'version'
p457
asbag61
(g82
g63
NtRp458
(dp459
g66
(dp460
g93
g94
ssg75
g449
sg68
(lp461
S':'
asbag61
(g82
g63
NtRp462
(dp463
g66
(dp464
sg75
g449
sg68
(lp465
g61
(g62
g63
NtRp466
(dp467
g66
(dp468
g74
I3
ssg75
g462
sg68
(lp469
S''
asbasbasbasbasbasbasbag61
(g77
g63
NtRp470
(dp471
g66
(dp472
sg75
g272
sg68
(lp473
g61
(g82
g63
NtRp474
(dp475
g66
(dp476
g86
g87
ssg75
g470
sg68
(lp477
S'session_id_fotobuk'
p478
asbag61
(g82
g63
NtRp479
(dp480
g66
(dp481
g93
g94
ssg75
g470
sg68
(lp482
S':'
asbag61
(g82
g63
NtRp483
(dp484
g66
(dp485
sg75
g470
sg68
(lp486
g61
(g62
g63
NtRp487
(dp488
g66
(dp489
g74
I4
ssg75
g483
sg68
(lp490
S'127.0.0.1-961e4bc4-dc07-4e6c-b9f7-52a46e56ffd5'
p491
ag61
(g70
g63
NtRp492
(dp493
g66
(dp494
g74
I3
ssg75
Nsg68
(lp495
g61
(g77
g63
NtRp496
(dp497
g66
(dp498
sg75
g492
sg68
(lp499
g61
(g82
g63
NtRp500
(dp501
g66
(dp502
g86
g87
ssg75
g496
sg68
(lp503
g310
asbag61
(g82
g63
NtRp504
(dp505
g66
(dp506
g93
g94
ssg75
g496
sg68
(lp507
S':'
asbag61
(g82
g63
NtRp508
(dp509
g66
(dp510
sg75
g496
sg68
(lp511
g61
(g62
g63
NtRp512
(dp513
g66
(dp514
g74
I3
ssg75
g508
sg68
(lp515
S''
asbasbasbag61
(g77
g63
NtRp516
(dp517
g66
(dp518
sg75
g492
sg68
(lp519
g61
(g82
g63
NtRp520
(dp521
g66
(dp522
g86
g87
ssg75
g516
sg68
(lp523
g331
asbag61
(g82
g63
NtRp524
(dp525
g66
(dp526
g93
g94
ssg75
g516
sg68
(lp527
S':'
asbag61
(g82
g63
NtRp528
(dp529
g66
(dp530
sg75
g516
sg68
(lp531
g61
(g62
g63
NtRp532
(dp533
g66
(dp534
g74
I3
ssg75
g528
sg68
(lp535
S''
asbasbasbag61
(g77
g63
NtRp536
(dp537
g66
(dp538
sg75
g492
sg68
(lp539
g61
(g82
g63
NtRp540
(dp541
g66
(dp542
g86
g87
ssg75
g536
sg68
(lp543
g352
asbag61
(g82
g63
NtRp544
(dp545
g66
(dp546
g93
g94
ssg75
g536
sg68
(lp547
S':'
asbag61
(g82
g63
NtRp548
(dp549
g66
(dp550
sg75
g536
sg68
(lp551
g61
(g62
g63
NtRp552
(dp553
g66
(dp554
g74
I3
ssg75
g548
sg68
(lp555
S''
asbasbasbag61
(g77
g63
NtRp556
(dp557
g66
(dp558
sg75
g492
sg68
(lp559
g61
(g82
g63
NtRp560
(dp561
g66
(dp562
g86
g87
ssg75
g556
sg68
(lp563
g373
asbag61
(g82
g63
NtRp564
(dp565
g66
(dp566
g93
g94
ssg75
g556
sg68
(lp567
S':'
asbag61
(g82
g63
NtRp568
(dp569
g66
(dp570
sg75
g556
sg68
(lp571
g61
(g62
g63
NtRp572
(dp573
g66
(dp574
g74
I3
ssg75
g568
sg68
(lp575
S''
asbasbasbag61
(g77
g63
NtRp576
(dp577
g66
(dp578
sg75
g492
sg68
(lp579
g61
(g82
g63
NtRp580
(dp581
g66
(dp582
g86
g87
ssg75
g576
sg68
(lp583
g394
asbag61
(g82
g63
NtRp584
(dp585
g66
(dp586
g93
g94
ssg75
g576
sg68
(lp587
S':'
asbag61
(g82
g63
NtRp588
(dp589
g66
(dp590
sg75
g576
sg68
(lp591
g61
(g62
g63
NtRp592
(dp593
g66
(dp594
g74
I3
ssg75
g588
sg68
(lp595
S''
asbasbasbag61
(g77
g63
NtRp596
(dp597
g66
(dp598
sg75
g492
sg68
(lp599
g61
(g82
g63
NtRp600
(dp601
g66
(dp602
g86
g87
ssg75
g596
sg68
(lp603
g415
asbag61
(g82
g63
NtRp604
(dp605
g66
(dp606
g93
g94
ssg75
g596
sg68
(lp607
S':'
asbag61
(g82
g63
NtRp608
(dp609
g66
(dp610
sg75
g596
sg68
(lp611
g61
(g62
g63
NtRp612
(dp613
g66
(dp614
g74
I3
ssg75
g608
sg68
(lp615
S''
asbasbasbag61
(g77
g63
NtRp616
(dp617
g66
(dp618
sg75
g492
sg68
(lp619
g61
(g82
g63
NtRp620
(dp621
g66
(dp622
g86
g87
ssg75
g616
sg68
(lp623
g436
asbag61
(g82
g63
NtRp624
(dp625
g66
(dp626
g93
g94
ssg75
g616
sg68
(lp627
S':'
asbag61
(g82
g63
NtRp628
(dp629
g66
(dp630
sg75
g616
sg68
(lp631
g61
(g62
g63
NtRp632
(dp633
g66
(dp634
g74
I3
ssg75
g628
sg68
(lp635
S''
asbasbasbag61
(g77
g63
NtRp636
(dp637
g66
(dp638
sg75
g492
sg68
(lp639
g61
(g82
g63
NtRp640
(dp641
g66
(dp642
g86
g87
ssg75
g636
sg68
(lp643
g457
asbag61
(g82
g63
NtRp644
(dp645
g66
(dp646
g93
g94
ssg75
g636
sg68
(lp647
S':'
asbag61
(g82
g63
NtRp648
(dp649
g66
(dp650
sg75
g636
sg68
(lp651
g61
(g62
g63
NtRp652
(dp653
g66
(dp654
g74
I3
ssg75
g648
sg68
(lp655
S''
asbasbasbasbasbasbasbag61
(g77
g63
NtRp656
(dp657
g66
(dp658
sg75
g272
sg68
(lp659
g61
(g82
g63
NtRp660
(dp661
g66
(dp662
g86
g87
ssg75
g656
sg68
(lp663
S'session_id_ialbum'
p664
asbag61
(g82
g63
NtRp665
(dp666
g66
(dp667
g93
g94
ssg75
g656
sg68
(lp668
S':'
asbag61
(g82
g63
NtRp669
(dp670
g66
(dp671
sg75
g656
sg68
(lp672
g61
(g62
g63
NtRp673
(dp674
g66
(dp675
g74
I4
ssg75
g669
sg68
(lp676
S'127.0.0.1-8bab57f4-8655-4ca4-8b5d-11fde04576c5'
p677
ag61
(g70
g63
NtRp678
(dp679
g66
(dp680
g74
I3
ssg75
Nsg68
(lp681
g61
(g77
g63
NtRp682
(dp683
g66
(dp684
sg75
g678
sg68
(lp685
g61
(g82
g63
NtRp686
(dp687
g66
(dp688
g86
g87
ssg75
g682
sg68
(lp689
g310
asbag61
(g82
g63
NtRp690
(dp691
g66
(dp692
g93
g94
ssg75
g682
sg68
(lp693
S':'
asbag61
(g82
g63
NtRp694
(dp695
g66
(dp696
sg75
g682
sg68
(lp697
g61
(g62
g63
NtRp698
(dp699
g66
(dp700
g74
I3
ssg75
g694
sg68
(lp701
S''
asbasbasbag61
(g77
g63
NtRp702
(dp703
g66
(dp704
sg75
g678
sg68
(lp705
g61
(g82
g63
NtRp706
(dp707
g66
(dp708
g86
g87
ssg75
g702
sg68
(lp709
g331
asbag61
(g82
g63
NtRp710
(dp711
g66
(dp712
g93
g94
ssg75
g702
sg68
(lp713
S':'
asbag61
(g82
g63
NtRp714
(dp715
g66
(dp716
sg75
g702
sg68
(lp717
g61
(g62
g63
NtRp718
(dp719
g66
(dp720
g74
I3
ssg75
g714
sg68
(lp721
S''
asbasbasbag61
(g77
g63
NtRp722
(dp723
g66
(dp724
sg75
g678
sg68
(lp725
g61
(g82
g63
NtRp726
(dp727
g66
(dp728
g86
g87
ssg75
g722
sg68
(lp729
g352
asbag61
(g82
g63
NtRp730
(dp731
g66
(dp732
g93
g94
ssg75
g722
sg68
(lp733
S':'
asbag61
(g82
g63
NtRp734
(dp735
g66
(dp736
sg75
g722
sg68
(lp737
g61
(g62
g63
NtRp738
(dp739
g66
(dp740
g74
I3
ssg75
g734
sg68
(lp741
S''
asbasbasbag61
(g77
g63
NtRp742
(dp743
g66
(dp744
sg75
g678
sg68
(lp745
g61
(g82
g63
NtRp746
(dp747
g66
(dp748
g86
g87
ssg75
g742
sg68
(lp749
g373
asbag61
(g82
g63
NtRp750
(dp751
g66
(dp752
g93
g94
ssg75
g742
sg68
(lp753
S':'
asbag61
(g82
g63
NtRp754
(dp755
g66
(dp756
sg75
g742
sg68
(lp757
g61
(g62
g63
NtRp758
(dp759
g66
(dp760
g74
I3
ssg75
g754
sg68
(lp761
S''
asbasbasbag61
(g77
g63
NtRp762
(dp763
g66
(dp764
sg75
g678
sg68
(lp765
g61
(g82
g63
NtRp766
(dp767
g66
(dp768
g86
g87
ssg75
g762
sg68
(lp769
g394
asbag61
(g82
g63
NtRp770
(dp771
g66
(dp772
g93
g94
ssg75
g762
sg68
(lp773
S':'
asbag61
(g82
g63
NtRp774
(dp775
g66
(dp776
sg75
g762
sg68
(lp777
g61
(g62
g63
NtRp778
(dp779
g66
(dp780
g74
I3
ssg75
g774
sg68
(lp781
S''
asbasbasbag61
(g77
g63
NtRp782
(dp783
g66
(dp784
sg75
g678
sg68
(lp785
g61
(g82
g63
NtRp786
(dp787
g66
(dp788
g86
g87
ssg75
g782
sg68
(lp789
g415
asbag61
(g82
g63
NtRp790
(dp791
g66
(dp792
g93
g94
ssg75
g782
sg68
(lp793
S':'
asbag61
(g82
g63
NtRp794
(dp795
g66
(dp796
sg75
g782
sg68
(lp797
g61
(g62
g63
NtRp798
(dp799
g66
(dp800
g74
I3
ssg75
g794
sg68
(lp801
S''
asbasbasbag61
(g77
g63
NtRp802
(dp803
g66
(dp804
sg75
g678
sg68
(lp805
g61
(g82
g63
NtRp806
(dp807
g66
(dp808
g86
g87
ssg75
g802
sg68
(lp809
g436
asbag61
(g82
g63
NtRp810
(dp811
g66
(dp812
g93
g94
ssg75
g802
sg68
(lp813
S':'
asbag61
(g82
g63
NtRp814
(dp815
g66
(dp816
sg75
g802
sg68
(lp817
g61
(g62
g63
NtRp818
(dp819
g66
(dp820
g74
I3
ssg75
g814
sg68
(lp821
S''
asbasbasbag61
(g77
g63
NtRp822
(dp823
g66
(dp824
sg75
g678
sg68
(lp825
g61
(g82
g63
NtRp826
(dp827
g66
(dp828
g86
g87
ssg75
g822
sg68
(lp829
g457
asbag61
(g82
g63
NtRp830
(dp831
g66
(dp832
g93
g94
ssg75
g822
sg68
(lp833
S':'
asbag61
(g82
g63
NtRp834
(dp835
g66
(dp836
sg75
g822
sg68
(lp837
g61
(g62
g63
NtRp838
(dp839
g66
(dp840
g74
I3
ssg75
g834
sg68
(lp841
S''
asbasbasbasbasbasbasbag61
(g77
g63
NtRp842
(dp843
g66
(dp844
sg75
g272
sg68
(lp845
g61
(g82
g63
NtRp846
(dp847
g66
(dp848
g86
g87
ssg75
g842
sg68
(lp849
S'session_id_welcome'
p850
asbag61
(g82
g63
NtRp851
(dp852
g66
(dp853
g93
g94
ssg75
g842
sg68
(lp854
S':'
asbag61
(g82
g63
NtRp855
(dp856
g66
(dp857
sg75
g842
sg68
(lp858
g61
(g62
g63
NtRp859
(dp860
g66
(dp861
g74
I4
ssg75
g855
sg68
(lp862
S'127.0.0.1-3299e4b7-9181-4336-a2b6-d67ebc8bfe8e'
p863
ag61
(g70
g63
NtRp864
(dp865
g66
(dp866
g74
I3
ssg75
Nsg68
(lp867
g61
(g77
g63
NtRp868
(dp869
g66
(dp870
sg75
g864
sg68
(lp871
g61
(g82
g63
NtRp872
(dp873
g66
(dp874
g86
g87
ssg75
g868
sg68
(lp875
g310
asbag61
(g82
g63
NtRp876
(dp877
g66
(dp878
g93
g94
ssg75
g868
sg68
(lp879
S':'
asbag61
(g82
g63
NtRp880
(dp881
g66
(dp882
sg75
g868
sg68
(lp883
g61
(g62
g63
NtRp884
(dp885
g66
(dp886
g74
I3
ssg75
g880
sg68
(lp887
S''
asbasbasbag61
(g77
g63
NtRp888
(dp889
g66
(dp890
sg75
g864
sg68
(lp891
g61
(g82
g63
NtRp892
(dp893
g66
(dp894
g86
g87
ssg75
g888
sg68
(lp895
g331
asbag61
(g82
g63
NtRp896
(dp897
g66
(dp898
g93
g94
ssg75
g888
sg68
(lp899
S':'
asbag61
(g82
g63
NtRp900
(dp901
g66
(dp902
sg75
g888
sg68
(lp903
g61
(g62
g63
NtRp904
(dp905
g66
(dp906
g74
I3
ssg75
g900
sg68
(lp907
S''
asbasbasbag61
(g77
g63
NtRp908
(dp909
g66
(dp910
sg75
g864
sg68
(lp911
g61
(g82
g63
NtRp912
(dp913
g66
(dp914
g86
g87
ssg75
g908
sg68
(lp915
g352
asbag61
(g82
g63
NtRp916
(dp917
g66
(dp918
g93
g94
ssg75
g908
sg68
(lp919
S':'
asbag61
(g82
g63
NtRp920
(dp921
g66
(dp922
sg75
g908
sg68
(lp923
g61
(g62
g63
NtRp924
(dp925
g66
(dp926
g74
I3
ssg75
g920
sg68
(lp927
S''
asbasbasbag61
(g77
g63
NtRp928
(dp929
g66
(dp930
sg75
g864
sg68
(lp931
g61
(g82
g63
NtRp932
(dp933
g66
(dp934
g86
g87
ssg75
g928
sg68
(lp935
g373
asbag61
(g82
g63
NtRp936
(dp937
g66
(dp938
g93
g94
ssg75
g928
sg68
(lp939
S':'
asbag61
(g82
g63
NtRp940
(dp941
g66
(dp942
sg75
g928
sg68
(lp943
g61
(g62
g63
NtRp944
(dp945
g66
(dp946
g74
I3
ssg75
g940
sg68
(lp947
S''
asbasbasbag61
(g77
g63
NtRp948
(dp949
g66
(dp950
sg75
g864
sg68
(lp951
g61
(g82
g63
NtRp952
(dp953
g66
(dp954
g86
g87
ssg75
g948
sg68
(lp955
g394
asbag61
(g82
g63
NtRp956
(dp957
g66
(dp958
g93
g94
ssg75
g948
sg68
(lp959
S':'
asbag61
(g82
g63
NtRp960
(dp961
g66
(dp962
sg75
g948
sg68
(lp963
g61
(g62
g63
NtRp964
(dp965
g66
(dp966
g74
I3
ssg75
g960
sg68
(lp967
S''
asbasbasbag61
(g77
g63
NtRp968
(dp969
g66
(dp970
sg75
g864
sg68
(lp971
g61
(g82
g63
NtRp972
(dp973
g66
(dp974
g86
g87
ssg75
g968
sg68
(lp975
g415
asbag61
(g82
g63
NtRp976
(dp977
g66
(dp978
g93
g94
ssg75
g968
sg68
(lp979
S':'
asbag61
(g82
g63
NtRp980
(dp981
g66
(dp982
sg75
g968
sg68
(lp983
g61
(g62
g63
NtRp984
(dp985
g66
(dp986
g74
I3
ssg75
g980
sg68
(lp987
S''
asbasbasbag61
(g77
g63
NtRp988
(dp989
g66
(dp990
sg75
g864
sg68
(lp991
g61
(g82
g63
NtRp992
(dp993
g66
(dp994
g86
g87
ssg75
g988
sg68
(lp995
g436
asbag61
(g82
g63
NtRp996
(dp997
g66
(dp998
g93
g94
ssg75
g988
sg68
(lp999
S':'
asbag61
(g82
g63
NtRp1000
(dp1001
g66
(dp1002
sg75
g988
sg68
(lp1003
g61
(g62
g63
NtRp1004
(dp1005
g66
(dp1006
g74
I3
ssg75
g1000
sg68
(lp1007
S''
asbasbasbag61
(g77
g63
NtRp1008
(dp1009
g66
(dp1010
sg75
g864
sg68
(lp1011
g61
(g82
g63
NtRp1012
(dp1013
g66
(dp1014
g86
g87
ssg75
g1008
sg68
(lp1015
g457
asbag61
(g82
g63
NtRp1016
(dp1017
g66
(dp1018
g93
g94
ssg75
g1008
sg68
(lp1019
S':'
asbag61
(g82
g63
NtRp1020
(dp1021
g66
(dp1022
sg75
g1008
sg68
(lp1023
g61
(g62
g63
NtRp1024
(dp1025
g66
(dp1026
g74
I3
ssg75
g1020
sg68
(lp1027
S''
asbasbasbasbasbasbasbasbasbasbasbag61
(g77
g63
NtRp1028
(dp1029
g66
(dp1030
sg75
g71
sg68
(lp1031
g61
(g82
g63
NtRp1032
(dp1033
g66
(dp1034
g86
g87
ssg75
g1028
sg68
(lp1035
S'env'
p1036
asbag61
(g82
g63
NtRp1037
(dp1038
g66
(dp1039
g93
g94
ssg75
g1028
sg68
(lp1040
S':'
asbag61
(g82
g63
NtRp1041
(dp1042
g66
(dp1043
sg75
g1028
sg68
(lp1044
g61
(g62
g63
NtRp1045
(dp1046
g66
(dp1047
g74
I5
ssg75
g1041
sg68
(lp1048
g61
(g70
g63
NtRp1049
(dp1050
g66
(dp1051
g74
I4
ssg75
Nsg68
(lp1052
g61
(g77
g63
NtRp1053
(dp1054
g66
(dp1055
sg75
g1049
sg68
(lp1056
g61
(g82
g63
NtRp1057
(dp1058
g66
(dp1059
g86
g87
ssg75
g1053
sg68
(lp1060
S'app_folders'
p1061
asbag61
(g82
g63
NtRp1062
(dp1063
g66
(dp1064
g93
g94
ssg75
g1053
sg68
(lp1065
S':'
asbag61
(g82
g63
NtRp1066
(dp1067
g66
(dp1068
sg75
g1053
sg68
(lp1069
g61
(g62
g63
NtRp1070
(dp1071
g66
(dp1072
g74
I4
ssg75
g1066
sg68
(lp1073
S"set(['/home/piyush/web2py/applications/FotoBuk/', '/home/piyush/web2py/applications/welcome/', '/home/piyush/web2py/applications/admin/'])"
p1074
asbasbasbag61
(g77
g63
NtRp1075
(dp1076
g66
(dp1077
sg75
g1049
sg68
(lp1078
g61
(g82
g63
NtRp1079
(dp1080
g66
(dp1081
g86
g87
ssg75
g1075
sg68
(lp1082
S'applications_parent'
p1083
asbag61
(g82
g63
NtRp1084
(dp1085
g66
(dp1086
g93
g94
ssg75
g1075
sg68
(lp1087
S':'
asbag61
(g82
g63
NtRp1088
(dp1089
g66
(dp1090
sg75
g1075
sg68
(lp1091
g61
(g62
g63
NtRp1092
(dp1093
g66
(dp1094
g74
I4
ssg75
g1088
sg68
(lp1095
S'/home/piyush/web2py'
p1096
asbasbasbag61
(g77
g63
NtRp1097
(dp1098
g66
(dp1099
sg75
g1049
sg68
(lp1100
g61
(g82
g63
NtRp1101
(dp1102
g66
(dp1103
g86
g87
ssg75
g1097
sg68
(lp1104
S'cmd_args'
p1105
asbag61
(g82
g63
NtRp1106
(dp1107
g66
(dp1108
g93
g94
ssg75
g1097
sg68
(lp1109
S':'
asbag61
(g82
g63
NtRp1110
(dp1111
g66
(dp1112
sg75
g1097
sg68
(lp1113
g61
(g62
g63
NtRp1114
(dp1115
g66
(dp1116
g74
I4
ssg75
g1110
sg68
(lp1117
g61
(g70
g63
NtRp1118
(dp1119
g66
(dp1120
g74
I3
ssg75
Nsg68
(lp1121
sbasbasbasbag61
(g77
g63
NtRp1122
(dp1123
g66
(dp1124
sg75
g1049
sg68
(lp1125
g61
(g82
g63
NtRp1126
(dp1127
g66
(dp1128
g86
g87
ssg75
g1122
sg68
(lp1129
S'cmd_options'
p1130
asbag61
(g82
g63
NtRp1131
(dp1132
g66
(dp1133
g93
g94
ssg75
g1122
sg68
(lp1134
S':'
asbag61
(g82
g63
NtRp1135
(dp1136
g66
(dp1137
sg75
g1122
sg68
(lp1138
g61
(g62
g63
NtRp1139
(dp1140
g66
(dp1141
g74
I4
ssg75
g1135
sg68
(lp1142
S"<Values at 0x8d4130c: {'verbose': False, 'ip': '127.0.0.1', 'with_scheduler': False, 'ips': ['10.1.39.167', '10.42.0.1'], 'shutdown_timeout': 5, 'taskbar': False, 'port': 8000, 'maxthreads': None, 'softcron': False, 'server_name': 'Solo', 'bpython': False, 'nogui': False, 'nocron': False, 'extcron': False, 'run_system_tests': False, 'test': None, 'folder': '/home/piyush/web2py', 'config': '', 'import_models': False, 'winservice': '', 'shell': None, 'run': '', 'log_filename': 'httpserver.log', 'debuglevel': 30, 'args': [''], 'socket_timeout': 5, 'ssl_ca_certificate': None, 'scheduler': None, 'profiler_filename': None, 'ssl_private_key': '', 'scheduler_groups': None, 'password': '<ask>', 'request_queue_size': 5, 'ssl_certificate': '', 'cronjob': False, 'numthreads': None, 'quiet': False, 'interfaces': None, 'minthreads': None, 'timeout': 10, 'plain': False, 'nobanner': False, 'pid_filename': 'httpserver.pid'}>"
p1143
asbasbasbag61
(g77
g63
NtRp1144
(dp1145
g66
(dp1146
sg75
g1049
sg68
(lp1147
g61
(g82
g63
NtRp1148
(dp1149
g66
(dp1150
g86
g87
ssg75
g1144
sg68
(lp1151
S'content_length'
p1152
asbag61
(g82
g63
NtRp1153
(dp1154
g66
(dp1155
g93
g94
ssg75
g1144
sg68
(lp1156
S':'
asbag61
(g82
g63
NtRp1157
(dp1158
g66
(dp1159
sg75
g1144
sg68
(lp1160
g61
(g62
g63
NtRp1161
(dp1162
g66
(dp1163
g74
I4
ssg75
g1157
sg68
(lp1164
S'333'
p1165
asbasbasbag61
(g77
g63
NtRp1166
(dp1167
g66
(dp1168
sg75
g1049
sg68
(lp1169
g61
(g82
g63
NtRp1170
(dp1171
g66
(dp1172
g86
g87
ssg75
g1166
sg68
(lp1173
S'content_type'
p1174
asbag61
(g82
g63
NtRp1175
(dp1176
g66
(dp1177
g93
g94
ssg75
g1166
sg68
(lp1178
S':'
asbag61
(g82
g63
NtRp1179
(dp1180
g66
(dp1181
sg75
g1166
sg68
(lp1182
g61
(g62
g63
NtRp1183
(dp1184
g66
(dp1185
g74
I4
ssg75
g1179
sg68
(lp1186
S'multipart/form-data; boundary=---------------------------1157422421692292004903572532'
p1187
asbasbasbag61
(g77
g63
NtRp1188
(dp1189
g66
(dp1190
sg75
g1049
sg68
(lp1191
g61
(g82
g63
NtRp1192
(dp1193
g66
(dp1194
g86
g87
ssg75
g1188
sg68
(lp1195
S'db_sessions'
p1196
asbag61
(g82
g63
NtRp1197
(dp1198
g66
(dp1199
g93
g94
ssg75
g1188
sg68
(lp1200
S':'
asbag61
(g82
g63
NtRp1201
(dp1202
g66
(dp1203
sg75
g1188
sg68
(lp1204
g61
(g62
g63
NtRp1205
(dp1206
g66
(dp1207
g74
I4
ssg75
g1201
sg68
(lp1208
S'set([])'
p1209
asbasbasbag61
(g77
g63
NtRp1210
(dp1211
g66
(dp1212
sg75
g1049
sg68
(lp1213
g61
(g82
g63
NtRp1214
(dp1215
g66
(dp1216
g86
g87
ssg75
g1210
sg68
(lp1217
S'debugging'
p1218
asbag61
(g82
g63
NtRp1219
(dp1220
g66
(dp1221
g93
g94
ssg75
g1210
sg68
(lp1222
S':'
asbag61
(g82
g63
NtRp1223
(dp1224
g66
(dp1225
sg75
g1210
sg68
(lp1226
g61
(g62
g63
NtRp1227
(dp1228
g66
(dp1229
g74
I4
ssg75
g1223
sg68
(lp1230
g104
asbasbasbag61
(g77
g63
NtRp1231
(dp1232
g66
(dp1233
sg75
g1049
sg68
(lp1234
g61
(g82
g63
NtRp1235
(dp1236
g66
(dp1237
g86
g87
ssg75
g1231
sg68
(lp1238
S'gluon_parent'
p1239
asbag61
(g82
g63
NtRp1240
(dp1241
g66
(dp1242
g93
g94
ssg75
g1231
sg68
(lp1243
S':'
asbag61
(g82
g63
NtRp1244
(dp1245
g66
(dp1246
sg75
g1231
sg68
(lp1247
g61
(g62
g63
NtRp1248
(dp1249
g66
(dp1250
g74
I4
ssg75
g1244
sg68
(lp1251
S'/home/piyush/web2py'
p1252
asbasbasbag61
(g77
g63
NtRp1253
(dp1254
g66
(dp1255
sg75
g1049
sg68
(lp1256
g61
(g82
g63
NtRp1257
(dp1258
g66
(dp1259
g86
g87
ssg75
g1253
sg68
(lp1260
S'http_accept'
p1261
asbag61
(g82
g63
NtRp1262
(dp1263
g66
(dp1264
g93
g94
ssg75
g1253
sg68
(lp1265
S':'
asbag61
(g82
g63
NtRp1266
(dp1267
g66
(dp1268
sg75
g1253
sg68
(lp1269
g61
(g62
g63
NtRp1270
(dp1271
g66
(dp1272
g74
I4
ssg75
g1266
sg68
(lp1273
S'text/html,application/xhtml+xml,application/xml;q=0.9,*/*;q=0.8'
p1274
asbasbasbag61
(g77
g63
NtRp1275
(dp1276
g66
(dp1277
sg75
g1049
sg68
(lp1278
g61
(g82
g63
NtRp1279
(dp1280
g66
(dp1281
g86
g87
ssg75
g1275
sg68
(lp1282
S'http_accept_encoding'
p1283
asbag61
(g82
g63
NtRp1284
(dp1285
g66
(dp1286
g93
g94
ssg75
g1275
sg68
(lp1287
S':'
asbag61
(g82
g63
NtRp1288
(dp1289
g66
(dp1290
sg75
g1275
sg68
(lp1291
g61
(g62
g63
NtRp1292
(dp1293
g66
(dp1294
g74
I4
ssg75
g1288
sg68
(lp1295
S'gzip, deflate'
p1296
asbasbasbag61
(g77
g63
NtRp1297
(dp1298
g66
(dp1299
sg75
g1049
sg68
(lp1300
g61
(g82
g63
NtRp1301
(dp1302
g66
(dp1303
g86
g87
ssg75
g1297
sg68
(lp1304
S'http_accept_language'
p1305
asbag61
(g82
g63
NtRp1306
(dp1307
g66
(dp1308
g93
g94
ssg75
g1297
sg68
(lp1309
S':'
asbag61
(g82
g63
NtRp1310
(dp1311
g66
(dp1312
sg75
g1297
sg68
(lp1313
g61
(g62
g63
NtRp1314
(dp1315
g66
(dp1316
g74
I4
ssg75
g1310
sg68
(lp1317
S'en-us,en;q=0.5'
p1318
asbasbasbag61
(g77
g63
NtRp1319
(dp1320
g66
(dp1321
sg75
g1049
sg68
(lp1322
g61
(g82
g63
NtRp1323
(dp1324
g66
(dp1325
g86
g87
ssg75
g1319
sg68
(lp1326
S'http_cache_control'
p1327
asbag61
(g82
g63
NtRp1328
(dp1329
g66
(dp1330
g93
g94
ssg75
g1319
sg68
(lp1331
S':'
asbag61
(g82
g63
NtRp1332
(dp1333
g66
(dp1334
sg75
g1319
sg68
(lp1335
g61
(g62
g63
NtRp1336
(dp1337
g66
(dp1338
g74
I4
ssg75
g1332
sg68
(lp1339
S'max-age=0'
p1340
asbasbasbag61
(g77
g63
NtRp1341
(dp1342
g66
(dp1343
sg75
g1049
sg68
(lp1344
g61
(g82
g63
NtRp1345
(dp1346
g66
(dp1347
g86
g87
ssg75
g1341
sg68
(lp1348
S'http_connection'
p1349
asbag61
(g82
g63
NtRp1350
(dp1351
g66
(dp1352
g93
g94
ssg75
g1341
sg68
(lp1353
S':'
asbag61
(g82
g63
NtRp1354
(dp1355
g66
(dp1356
sg75
g1341
sg68
(lp1357
g61
(g62
g63
NtRp1358
(dp1359
g66
(dp1360
g74
I4
ssg75
g1354
sg68
(lp1361
S'keep-alive'
p1362
asbasbasbag61
(g77
g63
NtRp1363
(dp1364
g66
(dp1365
sg75
g1049
sg68
(lp1366
g61
(g82
g63
NtRp1367
(dp1368
g66
(dp1369
g86
g87
ssg75
g1363
sg68
(lp1370
S'http_content_length'
p1371
asbag61
(g82
g63
NtRp1372
(dp1373
g66
(dp1374
g93
g94
ssg75
g1363
sg68
(lp1375
S':'
asbag61
(g82
g63
NtRp1376
(dp1377
g66
(dp1378
sg75
g1363
sg68
(lp1379
g61
(g62
g63
NtRp1380
(dp1381
g66
(dp1382
g74
I4
ssg75
g1376
sg68
(lp1383
g1165
asbasbasbag61
(g77
g63
NtRp1384
(dp1385
g66
(dp1386
sg75
g1049
sg68
(lp1387
g61
(g82
g63
NtRp1388
(dp1389
g66
(dp1390
g86
g87
ssg75
g1384
sg68
(lp1391
S'http_content_type'
p1392
asbag61
(g82
g63
NtRp1393
(dp1394
g66
(dp1395
g93
g94
ssg75
g1384
sg68
(lp1396
S':'
asbag61
(g82
g63
NtRp1397
(dp1398
g66
(dp1399
sg75
g1384
sg68
(lp1400
g61
(g62
g63
NtRp1401
(dp1402
g66
(dp1403
g74
I4
ssg75
g1397
sg68
(lp1404
g1187
asbasbasbag61
(g77
g63
NtRp1405
(dp1406
g66
(dp1407
sg75
g1049
sg68
(lp1408
g61
(g82
g63
NtRp1409
(dp1410
g66
(dp1411
g86
g87
ssg75
g1405
sg68
(lp1412
S'http_cookie'
p1413
asbag61
(g82
g63
NtRp1414
(dp1415
g66
(dp1416
g93
g94
ssg75
g1405
sg68
(lp1417
S':'
asbag61
(g82
g63
NtRp1418
(dp1419
g66
(dp1420
sg75
g1405
sg68
(lp1421
g61
(g62
g63
NtRp1422
(dp1423
g66
(dp1424
g74
I4
ssg75
g1418
sg68
(lp1425
S'session_id_welcome=127.0.0.1-3299e4b7-9181-4336-a2b6-d67ebc8bfe8e; session_id_admin=127.0.0.1-f31a16a6-2f0e-474e-b0b5-7ca781ebd64d; session_id_ialbum=127.0.0.1-8bab57f4-8655-4ca4-8b5d-11fde04576c5; session_id_fotobuk=127.0.0.1-961e4bc4-dc07-4e6c-b9f7-52a46e56ffd5'
p1426
asbasbasbag61
(g77
g63
NtRp1427
(dp1428
g66
(dp1429
sg75
g1049
sg68
(lp1430
g61
(g82
g63
NtRp1431
(dp1432
g66
(dp1433
g86
g87
ssg75
g1427
sg68
(lp1434
S'http_host'
p1435
asbag61
(g82
g63
NtRp1436
(dp1437
g66
(dp1438
g93
g94
ssg75
g1427
sg68
(lp1439
S':'
asbag61
(g82
g63
NtRp1440
(dp1441
g66
(dp1442
sg75
g1427
sg68
(lp1443
g61
(g62
g63
NtRp1444
(dp1445
g66
(dp1446
g74
I4
ssg75
g1440
sg68
(lp1447
S'localhost:8000'
p1448
asbasbasbag61
(g77
g63
NtRp1449
(dp1450
g66
(dp1451
sg75
g1049
sg68
(lp1452
g61
(g82
g63
NtRp1453
(dp1454
g66
(dp1455
g86
g87
ssg75
g1449
sg68
(lp1456
S'http_referer'
p1457
asbag61
(g82
g63
NtRp1458
(dp1459
g66
(dp1460
g93
g94
ssg75
g1449
sg68
(lp1461
S':'
asbag61
(g82
g63
NtRp1462
(dp1463
g66
(dp1464
sg75
g1449
sg68
(lp1465
g61
(g62
g63
NtRp1466
(dp1467
g66
(dp1468
g74
I4
ssg75
g1462
sg68
(lp1469
S'http://localhost:8000/FotoBuk/default/show/2'
p1470
asbasbasbag61
(g77
g63
NtRp1471
(dp1472
g66
(dp1473
sg75
g1049
sg68
(lp1474
g61
(g82
g63
NtRp1475
(dp1476
g66
(dp1477
g86
g87
ssg75
g1471
sg68
(lp1478
S'http_user_agent'
p1479
asbag61
(g82
g63
NtRp1480
(dp1481
g66
(dp1482
g93
g94
ssg75
g1471
sg68
(lp1483
S':'
asbag61
(g82
g63
NtRp1484
(dp1485
g66
(dp1486
sg75
g1471
sg68
(lp1487
g61
(g62
g63
NtRp1488
(dp1489
g66
(dp1490
g74
I4
ssg75
g1484
sg68
(lp1491
S'Mozilla/5.0 (X11; Linux i686; rv:11.0) Gecko/20100101 Firefox/11.0'
p1492
asbasbasbag61
(g77
g63
NtRp1493
(dp1494
g66
(dp1495
sg75
g1049
sg68
(lp1496
g61
(g82
g63
NtRp1497
(dp1498
g66
(dp1499
g86
g87
ssg75
g1493
sg68
(lp1500
S'is_jython'
p1501
asbag61
(g82
g63
NtRp1502
(dp1503
g66
(dp1504
g93
g94
ssg75
g1493
sg68
(lp1505
S':'
asbag61
(g82
g63
NtRp1506
(dp1507
g66
(dp1508
sg75
g1493
sg68
(lp1509
g61
(g62
g63
NtRp1510
(dp1511
g66
(dp1512
g74
I4
ssg75
g1506
sg68
(lp1513
g104
asbasbasbag61
(g77
g63
NtRp1514
(dp1515
g66
(dp1516
sg75
g1049
sg68
(lp1517
g61
(g82
g63
NtRp1518
(dp1519
g66
(dp1520
g86
g87
ssg75
g1514
sg68
(lp1521
S'is_pypy'
p1522
asbag61
(g82
g63
NtRp1523
(dp1524
g66
(dp1525
g93
g94
ssg75
g1514
sg68
(lp1526
S':'
asbag61
(g82
g63
NtRp1527
(dp1528
g66
(dp1529
sg75
g1514
sg68
(lp1530
g61
(g62
g63
NtRp1531
(dp1532
g66
(dp1533
g74
I4
ssg75
g1527
sg68
(lp1534
g104
asbasbasbag61
(g77
g63
NtRp1535
(dp1536
g66
(dp1537
sg75
g1049
sg68
(lp1538
g61
(g82
g63
NtRp1539
(dp1540
g66
(dp1541
g86
g87
ssg75
g1535
sg68
(lp1542
S'path_info'
p1543
asbag61
(g82
g63
NtRp1544
(dp1545
g66
(dp1546
g93
g94
ssg75
g1535
sg68
(lp1547
S':'
asbag61
(g82
g63
NtRp1548
(dp1549
g66
(dp1550
sg75
g1535
sg68
(lp1551
g61
(g62
g63
NtRp1552
(dp1553
g66
(dp1554
g74
I4
ssg75
g1548
sg68
(lp1555
S'/FotoBuk/default/show/2'
p1556
asbasbasbag61
(g77
g63
NtRp1557
(dp1558
g66
(dp1559
sg75
g1049
sg68
(lp1560
g61
(g82
g63
NtRp1561
(dp1562
g66
(dp1563
g86
g87
ssg75
g1557
sg68
(lp1564
S'query_string'
p1565
asbag61
(g82
g63
NtRp1566
(dp1567
g66
(dp1568
g93
g94
ssg75
g1557
sg68
(lp1569
S':'
asbag61
(g82
g63
NtRp1570
(dp1571
g66
(dp1572
sg75
g1557
sg68
(lp1573
g61
(g62
g63
NtRp1574
(dp1575
g66
(dp1576
g74
I4
ssg75
g1570
sg68
(lp1577
S''
asbasbasbag61
(g77
g63
NtRp1578
(dp1579
g66
(dp1580
sg75
g1049
sg68
(lp1581
g61
(g82
g63
NtRp1582
(dp1583
g66
(dp1584
g86
g87
ssg75
g1578
sg68
(lp1585
S'remote_addr'
p1586
asbag61
(g82
g63
NtRp1587
(dp1588
g66
(dp1589
g93
g94
ssg75
g1578
sg68
(lp1590
S':'
asbag61
(g82
g63
NtRp1591
(dp1592
g66
(dp1593
sg75
g1578
sg68
(lp1594
g61
(g62
g63
NtRp1595
(dp1596
g66
(dp1597
g74
I4
ssg75
g1591
sg68
(lp1598
g228
asbasbasbag61
(g77
g63
NtRp1599
(dp1600
g66
(dp1601
sg75
g1049
sg68
(lp1602
g61
(g82
g63
NtRp1603
(dp1604
g66
(dp1605
g86
g87
ssg75
g1599
sg68
(lp1606
S'remote_port'
p1607
asbag61
(g82
g63
NtRp1608
(dp1609
g66
(dp1610
g93
g94
ssg75
g1599
sg68
(lp1611
S':'
asbag61
(g82
g63
NtRp1612
(dp1613
g66
(dp1614
sg75
g1599
sg68
(lp1615
g61
(g62
g63
NtRp1616
(dp1617
g66
(dp1618
g74
I4
ssg75
g1612
sg68
(lp1619
S'52803'
p1620
asbasbasbag61
(g77
g63
NtRp1621
(dp1622
g66
(dp1623
sg75
g1049
sg68
(lp1624
g61
(g82
g63
NtRp1625
(dp1626
g66
(dp1627
g86
g87
ssg75
g1621
sg68
(lp1628
S'request_method'
p1629
asbag61
(g82
g63
NtRp1630
(dp1631
g66
(dp1632
g93
g94
ssg75
g1621
sg68
(lp1633
S':'
asbag61
(g82
g63
NtRp1634
(dp1635
g66
(dp1636
sg75
g1621
sg68
(lp1637
g61
(g62
g63
NtRp1638
(dp1639
g66
(dp1640
g74
I4
ssg75
g1634
sg68
(lp1641
S'POST'
p1642
asbasbasbag61
(g77
g63
NtRp1643
(dp1644
g66
(dp1645
sg75
g1049
sg68
(lp1646
g61
(g82
g63
NtRp1647
(dp1648
g66
(dp1649
g86
g87
ssg75
g1643
sg68
(lp1650
S'script_name'
p1651
asbag61
(g82
g63
NtRp1652
(dp1653
g66
(dp1654
g93
g94
ssg75
g1643
sg68
(lp1655
S':'
asbag61
(g82
g63
NtRp1656
(dp1657
g66
(dp1658
sg75
g1643
sg68
(lp1659
g61
(g62
g63
NtRp1660
(dp1661
g66
(dp1662
g74
I4
ssg75
g1656
sg68
(lp1663
S''
asbasbasbag61
(g77
g63
NtRp1664
(dp1665
g66
(dp1666
sg75
g1049
sg68
(lp1667
g61
(g82
g63
NtRp1668
(dp1669
g66
(dp1670
g86
g87
ssg75
g1664
sg68
(lp1671
S'server_name'
p1672
asbag61
(g82
g63
NtRp1673
(dp1674
g66
(dp1675
g93
g94
ssg75
g1664
sg68
(lp1676
S':'
asbag61
(g82
g63
NtRp1677
(dp1678
g66
(dp1679
sg75
g1664
sg68
(lp1680
g61
(g62
g63
NtRp1681
(dp1682
g66
(dp1683
g74
I4
ssg75
g1677
sg68
(lp1684
S'Solo'
p1685
asbasbasbag61
(g77
g63
NtRp1686
(dp1687
g66
(dp1688
sg75
g1049
sg68
(lp1689
g61
(g82
g63
NtRp1690
(dp1691
g66
(dp1692
g86
g87
ssg75
g1686
sg68
(lp1693
S'server_port'
p1694
asbag61
(g82
g63
NtRp1695
(dp1696
g66
(dp1697
g93
g94
ssg75
g1686
sg68
(lp1698
S':'
asbag61
(g82
g63
NtRp1699
(dp1700
g66
(dp1701
sg75
g1686
sg68
(lp1702
g61
(g62
g63
NtRp1703
(dp1704
g66
(dp1705
g74
I4
ssg75
g1699
sg68
(lp1706
S'8000'
p1707
asbasbasbag61
(g77
g63
NtRp1708
(dp1709
g66
(dp1710
sg75
g1049
sg68
(lp1711
g61
(g82
g63
NtRp1712
(dp1713
g66
(dp1714
g86
g87
ssg75
g1708
sg68
(lp1715
S'server_protocol'
p1716
asbag61
(g82
g63
NtRp1717
(dp1718
g66
(dp1719
g93
g94
ssg75
g1708
sg68
(lp1720
S':'
asbag61
(g82
g63
NtRp1721
(dp1722
g66
(dp1723
sg75
g1708
sg68
(lp1724
g61
(g62
g63
NtRp1725
(dp1726
g66
(dp1727
g74
I4
ssg75
g1721
sg68
(lp1728
S'HTTP/1.1'
p1729
asbasbasbag61
(g77
g63
NtRp1730
(dp1731
g66
(dp1732
sg75
g1049
sg68
(lp1733
g61
(g82
g63
NtRp1734
(dp1735
g66
(dp1736
g86
g87
ssg75
g1730
sg68
(lp1737
S'server_software'
p1738
asbag61
(g82
g63
NtRp1739
(dp1740
g66
(dp1741
g93
g94
ssg75
g1730
sg68
(lp1742
S':'
asbag61
(g82
g63
NtRp1743
(dp1744
g66
(dp1745
sg75
g1730
sg68
(lp1746
g61
(g62
g63
NtRp1747
(dp1748
g66
(dp1749
g74
I4
ssg75
g1743
sg68
(lp1750
S'Rocket 1.2.4'
p1751
asbasbasbag61
(g77
g63
NtRp1752
(dp1753
g66
(dp1754
sg75
g1049
sg68
(lp1755
g61
(g82
g63
NtRp1756
(dp1757
g66
(dp1758
g86
g87
ssg75
g1752
sg68
(lp1759
S'web2py_crontype'
p1760
asbag61
(g82
g63
NtRp1761
(dp1762
g66
(dp1763
g93
g94
ssg75
g1752
sg68
(lp1764
S':'
asbag61
(g82
g63
NtRp1765
(dp1766
g66
(dp1767
sg75
g1752
sg68
(lp1768
g61
(g62
g63
NtRp1769
(dp1770
g66
(dp1771
g74
I4
ssg75
g1765
sg68
(lp1772
S'hard'
p1773
asbasbasbag61
(g77
g63
NtRp1774
(dp1775
g66
(dp1776
sg75
g1049
sg68
(lp1777
g61
(g82
g63
NtRp1778
(dp1779
g66
(dp1780
g86
g87
ssg75
g1774
sg68
(lp1781
S'web2py_path'
p1782
asbag61
(g82
g63
NtRp1783
(dp1784
g66
(dp1785
g93
g94
ssg75
g1774
sg68
(lp1786
S':'
asbag61
(g82
g63
NtRp1787
(dp1788
g66
(dp1789
sg75
g1774
sg68
(lp1790
g61
(g62
g63
NtRp1791
(dp1792
g66
(dp1793
g74
I4
ssg75
g1787
sg68
(lp1794
g1096
asbasbasbag61
(g77
g63
NtRp1795
(dp1796
g66
(dp1797
sg75
g1049
sg68
(lp1798
g61
(g82
g63
NtRp1799
(dp1800
g66
(dp1801
g86
g87
ssg75
g1795
sg68
(lp1802
S'web2py_version'
p1803
asbag61
(g82
g63
NtRp1804
(dp1805
g66
(dp1806
g93
g94
ssg75
g1795
sg68
(lp1807
S':'
asbag61
(g82
g63
NtRp1808
(dp1809
g66
(dp1810
sg75
g1795
sg68
(lp1811
g61
(g62
g63
NtRp1812
(dp1813
g66
(dp1814
g74
I4
ssg75
g1808
sg68
(lp1815
g61
(g70
g63
NtRp1816
(dp1817
g66
(dp1818
g74
I3
ssg75
Nsg68
(lp1819
g61
(g77
g63
NtRp1820
(dp1821
g66
(dp1822
sg75
g1816
sg68
(lp1823
g61
(g82
g63
NtRp1824
(dp1825
g66
(dp1826
sg75
g1820
sg68
(lp1827
g61
(g62
g63
NtRp1828
(dp1829
g66
(dp1830
g74
I3
ssg75
g1824
sg68
(lp1831
S'2'
asbasbasbag61
(g77
g63
NtRp1832
(dp1833
g66
(dp1834
sg75
g1816
sg68
(lp1835
g61
(g82
g63
NtRp1836
(dp1837
g66
(dp1838
sg75
g1832
sg68
(lp1839
g61
(g62
g63
NtRp1840
(dp1841
g66
(dp1842
g74
I3
ssg75
g1836
sg68
(lp1843
S'0'
asbasbasbag61
(g77
g63
NtRp1844
(dp1845
g66
(dp1846
sg75
g1816
sg68
(lp1847
g61
(g82
g63
NtRp1848
(dp1849
g66
(dp1850
sg75
g1844
sg68
(lp1851
g61
(g62
g63
NtRp1852
(dp1853
g66
(dp1854
g74
I3
ssg75
g1848
sg68
(lp1855
S'2'
asbasbasbag61
(g77
g63
NtRp1856
(dp1857
g66
(dp1858
sg75
g1816
sg68
(lp1859
g61
(g82
g63
NtRp1860
(dp1861
g66
(dp1862
sg75
g1856
sg68
(lp1863
g61
(g62
g63
NtRp1864
(dp1865
g66
(dp1866
g74
I3
ssg75
g1860
sg68
(lp1867
S'datetime.datetime(2012, 8, 30, 4, 8, 18)'
p1868
asbasbasbag61
(g77
g63
NtRp1869
(dp1870
g66
(dp1871
sg75
g1816
sg68
(lp1872
g61
(g82
g63
NtRp1873
(dp1874
g66
(dp1875
sg75
g1869
sg68
(lp1876
g61
(g62
g63
NtRp1877
(dp1878
g66
(dp1879
g74
I3
ssg75
g1873
sg68
(lp1880
S'stable'
p1881
asbasbasbasbasbasbasbag61
(g77
g63
NtRp1882
(dp1883
g66
(dp1884
sg75
g1049
sg68
(lp1885
g61
(g82
g63
NtRp1886
(dp1887
g66
(dp1888
g86
g87
ssg75
g1882
sg68
(lp1889
S'wsgi_errors'
p1890
asbag61
(g82
g63
NtRp1891
(dp1892
g66
(dp1893
g93
g94
ssg75
g1882
sg68
(lp1894
S':'
asbag61
(g82
g63
NtRp1895
(dp1896
g66
(dp1897
sg75
g1882
sg68
(lp1898
g61
(g62
g63
NtRp1899
(dp1900
g66
(dp1901
g74
I4
ssg75
g1895
sg68
(lp1902
S"<open file '<stderr>', mode 'w' at 0xb772d0d0>"
p1903
asbasbasbag61
(g77
g63
NtRp1904
(dp1905
g66
(dp1906
sg75
g1049
sg68
(lp1907
g61
(g82
g63
NtRp1908
(dp1909
g66
(dp1910
g86
g87
ssg75
g1904
sg68
(lp1911
S'wsgi_file_wrapper'
p1912
asbag61
(g82
g63
NtRp1913
(dp1914
g66
(dp1915
g93
g94
ssg75
g1904
sg68
(lp1916
S':'
asbag61
(g82
g63
NtRp1917
(dp1918
g66
(dp1919
sg75
g1904
sg68
(lp1920
g61
(g62
g63
NtRp1921
(dp1922
g66
(dp1923
g74
I4
ssg75
g1917
sg68
(lp1924
S'<class wsgiref.util.FileWrapper at 0x8d0326c>'
p1925
asbasbasbag61
(g77
g63
NtRp1926
(dp1927
g66
(dp1928
sg75
g1049
sg68
(lp1929
g61
(g82
g63
NtRp1930
(dp1931
g66
(dp1932
g86
g87
ssg75
g1926
sg68
(lp1933
S'wsgi_input'
p1934
asbag61
(g82
g63
NtRp1935
(dp1936
g66
(dp1937
g93
g94
ssg75
g1926
sg68
(lp1938
S':'
asbag61
(g82
g63
NtRp1939
(dp1940
g66
(dp1941
sg75
g1926
sg68
(lp1942
g61
(g62
g63
NtRp1943
(dp1944
g66
(dp1945
g74
I4
ssg75
g1939
sg68
(lp1946
S'<socket._fileobject object at 0xada48c2c>'
p1947
asbasbasbag61
(g77
g63
NtRp1948
(dp1949
g66
(dp1950
sg75
g1049
sg68
(lp1951
g61
(g82
g63
NtRp1952
(dp1953
g66
(dp1954
g86
g87
ssg75
g1948
sg68
(lp1955
S'wsgi_multiprocess'
p1956
asbag61
(g82
g63
NtRp1957
(dp1958
g66
(dp1959
g93
g94
ssg75
g1948
sg68
(lp1960
S':'
asbag61
(g82
g63
NtRp1961
(dp1962
g66
(dp1963
sg75
g1948
sg68
(lp1964
g61
(g62
g63
NtRp1965
(dp1966
g66
(dp1967
g74
I4
ssg75
g1961
sg68
(lp1968
g104
asbasbasbag61
(g77
g63
NtRp1969
(dp1970
g66
(dp1971
sg75
g1049
sg68
(lp1972
g61
(g82
g63
NtRp1973
(dp1974
g66
(dp1975
g86
g87
ssg75
g1969
sg68
(lp1976
S'wsgi_multithread'
p1977
asbag61
(g82
g63
NtRp1978
(dp1979
g66
(dp1980
g93
g94
ssg75
g1969
sg68
(lp1981
S':'
asbag61
(g82
g63
NtRp1982
(dp1983
g66
(dp1984
sg75
g1969
sg68
(lp1985
g61
(g62
g63
NtRp1986
(dp1987
g66
(dp1988
g74
I4
ssg75
g1982
sg68
(lp1989
S'True'
p1990
asbasbasbag61
(g77
g63
NtRp1991
(dp1992
g66
(dp1993
sg75
g1049
sg68
(lp1994
g61
(g82
g63
NtRp1995
(dp1996
g66
(dp1997
g86
g87
ssg75
g1991
sg68
(lp1998
S'wsgi_run_once'
p1999
asbag61
(g82
g63
NtRp2000
(dp2001
g66
(dp2002
g93
g94
ssg75
g1991
sg68
(lp2003
S':'
asbag61
(g82
g63
NtRp2004
(dp2005
g66
(dp2006
sg75
g1991
sg68
(lp2007
g61
(g62
g63
NtRp2008
(dp2009
g66
(dp2010
g74
I4
ssg75
g2004
sg68
(lp2011
g104
asbasbasbag61
(g77
g63
NtRp2012
(dp2013
g66
(dp2014
sg75
g1049
sg68
(lp2015
g61
(g82
g63
NtRp2016
(dp2017
g66
(dp2018
g86
g87
ssg75
g2012
sg68
(lp2019
S'wsgi_url_scheme'
p2020
asbag61
(g82
g63
NtRp2021
(dp2022
g66
(dp2023
g93
g94
ssg75
g2012
sg68
(lp2024
S':'
asbag61
(g82
g63
NtRp2025
(dp2026
g66
(dp2027
sg75
g2012
sg68
(lp2028
g61
(g62
g63
NtRp2029
(dp2030
g66
(dp2031
g74
I4
ssg75
g2025
sg68
(lp2032
S'http'
p2033
asbasbasbag61
(g77
g63
NtRp2034
(dp2035
g66
(dp2036
sg75
g1049
sg68
(lp2037
g61
(g82
g63
NtRp2038
(dp2039
g66
(dp2040
g86
g87
ssg75
g2034
sg68
(lp2041
S'wsgi_version'
p2042
asbag61
(g82
g63
NtRp2043
(dp2044
g66
(dp2045
g93
g94
ssg75
g2034
sg68
(lp2046
S':'
asbag61
(g82
g63
NtRp2047
(dp2048
g66
(dp2049
sg75
g2034
sg68
(lp2050
g61
(g62
g63
NtRp2051
(dp2052
g66
(dp2053
g74
I4
ssg75
g2047
sg68
(lp2054
g61
(g70
g63
NtRp2055
(dp2056
g66
(dp2057
g74
I3
ssg75
Nsg68
(lp2058
g61
(g77
g63
NtRp2059
(dp2060
g66
(dp2061
sg75
g2055
sg68
(lp2062
g61
(g82
g63
NtRp2063
(dp2064
g66
(dp2065
sg75
g2059
sg68
(lp2066
g61
(g62
g63
NtRp2067
(dp2068
g66
(dp2069
g74
I3
ssg75
g2063
sg68
(lp2070
S'1'
asbasbasbag61
(g77
g63
NtRp2071
(dp2072
g66
(dp2073
sg75
g2055
sg68
(lp2074
g61
(g82
g63
NtRp2075
(dp2076
g66
(dp2077
sg75
g2071
sg68
(lp2078
g61
(g62
g63
NtRp2079
(dp2080
g66
(dp2081
g74
I3
ssg75
g2075
sg68
(lp2082
S'0'
asbasbasbasbasbasbasbasbasbasbasbag61
(g77
g63
NtRp2083
(dp2084
g66
(dp2085
sg75
g71
sg68
(lp2086
g61
(g82
g63
NtRp2087
(dp2088
g66
(dp2089
g86
g87
ssg75
g2083
sg68
(lp2090
S'extension'
p2091
asbag61
(g82
g63
NtRp2092
(dp2093
g66
(dp2094
g93
g94
ssg75
g2083
sg68
(lp2095
S':'
asbag61
(g82
g63
NtRp2096
(dp2097
g66
(dp2098
sg75
g2083
sg68
(lp2099
g61
(g62
g63
NtRp2100
(dp2101
g66
(dp2102
g74
I5
ssg75
g2096
sg68
(lp2103
S'html'
p2104
asbasbasbag61
(g77
g63
NtRp2105
(dp2106
g66
(dp2107
sg75
g71
sg68
(lp2108
g61
(g82
g63
NtRp2109
(dp2110
g66
(dp2111
g86
g87
ssg75
g2105
sg68
(lp2112
S'folder'
p2113
asbag61
(g82
g63
NtRp2114
(dp2115
g66
(dp2116
g93
g94
ssg75
g2105
sg68
(lp2117
S':'
asbag61
(g82
g63
NtRp2118
(dp2119
g66
(dp2120
sg75
g2105
sg68
(lp2121
g61
(g62
g63
NtRp2122
(dp2123
g66
(dp2124
g74
I5
ssg75
g2118
sg68
(lp2125
S'/home/piyush/web2py/applications/FotoBuk/'
p2126
asbasbasbag61
(g77
g63
NtRp2127
(dp2128
g66
(dp2129
sg75
g71
sg68
(lp2130
g61
(g82
g63
NtRp2131
(dp2132
g66
(dp2133
g86
g87
ssg75
g2127
sg68
(lp2134
S'function'
p2135
asbag61
(g82
g63
NtRp2136
(dp2137
g66
(dp2138
g93
g94
ssg75
g2127
sg68
(lp2139
S':'
asbag61
(g82
g63
NtRp2140
(dp2141
g66
(dp2142
sg75
g2127
sg68
(lp2143
g61
(g62
g63
NtRp2144
(dp2145
g66
(dp2146
g74
I5
ssg75
g2140
sg68
(lp2147
S'show'
p2148
asbasbasbag61
(g77
g63
NtRp2149
(dp2150
g66
(dp2151
sg75
g71
sg68
(lp2152
g61
(g82
g63
NtRp2153
(dp2154
g66
(dp2155
g86
g87
ssg75
g2149
sg68
(lp2156
S'get_vars'
p2157
asbag61
(g82
g63
NtRp2158
(dp2159
g66
(dp2160
g93
g94
ssg75
g2149
sg68
(lp2161
S':'
asbag61
(g82
g63
NtRp2162
(dp2163
g66
(dp2164
sg75
g2149
sg68
(lp2165
g61
(g62
g63
NtRp2166
(dp2167
g66
(dp2168
g74
I5
ssg75
g2162
sg68
(lp2169
g61
(g70
g63
NtRp2170
(dp2171
g66
(dp2172
g74
I4
ssg75
Nsg68
(lp2173
sbasbasbasbag61
(g77
g63
NtRp2174
(dp2175
g66
(dp2176
sg75
g71
sg68
(lp2177
g61
(g82
g63
NtRp2178
(dp2179
g66
(dp2180
g86
g87
ssg75
g2174
sg68
(lp2181
S'global_settings'
p2182
asbag61
(g82
g63
NtRp2183
(dp2184
g66
(dp2185
g93
g94
ssg75
g2174
sg68
(lp2186
S':'
asbag61
(g82
g63
NtRp2187
(dp2188
g66
(dp2189
sg75
g2174
sg68
(lp2190
g61
(g62
g63
NtRp2191
(dp2192
g66
(dp2193
g74
I5
ssg75
g2187
sg68
(lp2194
g61
(g70
g63
NtRp2195
(dp2196
g66
(dp2197
g74
I4
ssg75
Nsg68
(lp2198
g61
(g77
g63
NtRp2199
(dp2200
g66
(dp2201
sg75
g2195
sg68
(lp2202
g61
(g82
g63
NtRp2203
(dp2204
g66
(dp2205
g86
g87
ssg75
g2199
sg68
(lp2206
g1061
asbag61
(g82
g63
NtRp2207
(dp2208
g66
(dp2209
g93
g94
ssg75
g2199
sg68
(lp2210
S':'
asbag61
(g82
g63
NtRp2211
(dp2212
g66
(dp2213
sg75
g2199
sg68
(lp2214
g61
(g62
g63
NtRp2215
(dp2216
g66
(dp2217
g74
I4
ssg75
g2211
sg68
(lp2218
S"set(['/home/piyush/web2py/applications/FotoBuk/', '/home/piyush/web2py/applications/welcome/', '/home/piyush/web2py/applications/admin/'])"
p2219
asbasbasbag61
(g77
g63
NtRp2220
(dp2221
g66
(dp2222
sg75
g2195
sg68
(lp2223
g61
(g82
g63
NtRp2224
(dp2225
g66
(dp2226
g86
g87
ssg75
g2220
sg68
(lp2227
g1083
asbag61
(g82
g63
NtRp2228
(dp2229
g66
(dp2230
g93
g94
ssg75
g2220
sg68
(lp2231
S':'
asbag61
(g82
g63
NtRp2232
(dp2233
g66
(dp2234
sg75
g2220
sg68
(lp2235
g61
(g62
g63
NtRp2236
(dp2237
g66
(dp2238
g74
I4
ssg75
g2232
sg68
(lp2239
g1096
asbasbasbag61
(g77
g63
NtRp2240
(dp2241
g66
(dp2242
sg75
g2195
sg68
(lp2243
g61
(g82
g63
NtRp2244
(dp2245
g66
(dp2246
g86
g87
ssg75
g2240
sg68
(lp2247
g1105
asbag61
(g82
g63
NtRp2248
(dp2249
g66
(dp2250
g93
g94
ssg75
g2240
sg68
(lp2251
S':'
asbag61
(g82
g63
NtRp2252
(dp2253
g66
(dp2254
sg75
g2240
sg68
(lp2255
g61
(g62
g63
NtRp2256
(dp2257
g66
(dp2258
g74
I4
ssg75
g2252
sg68
(lp2259
g61
(g70
g63
NtRp2260
(dp2261
g66
(dp2262
g74
I3
ssg75
Nsg68
(lp2263
sbasbasbasbag61
(g77
g63
NtRp2264
(dp2265
g66
(dp2266
sg75
g2195
sg68
(lp2267
g61
(g82
g63
NtRp2268
(dp2269
g66
(dp2270
g86
g87
ssg75
g2264
sg68
(lp2271
g1130
asbag61
(g82
g63
NtRp2272
(dp2273
g66
(dp2274
g93
g94
ssg75
g2264
sg68
(lp2275
S':'
asbag61
(g82
g63
NtRp2276
(dp2277
g66
(dp2278
sg75
g2264
sg68
(lp2279
g61
(g62
g63
NtRp2280
(dp2281
g66
(dp2282
g74
I4
ssg75
g2276
sg68
(lp2283
S"<Values at 0x8d4130c: {'verbose': False, 'ip': '127.0.0.1', 'with_scheduler': False, 'ips': ['10.1.39.167', '10.42.0.1'], 'shutdown_timeout': 5, 'taskbar': False, 'port': 8000, 'maxthreads': None, 'softcron': False, 'server_name': 'Solo', 'bpython': False, 'nogui': False, 'nocron': False, 'extcron': False, 'run_system_tests': False, 'test': None, 'folder': '/home/piyush/web2py', 'config': '', 'import_models': False, 'winservice': '', 'shell': None, 'run': '', 'log_filename': 'httpserver.log', 'debuglevel': 30, 'args': [''], 'socket_timeout': 5, 'ssl_ca_certificate': None, 'scheduler': None, 'profiler_filename': None, 'ssl_private_key': '', 'scheduler_groups': None, 'password': '<ask>', 'request_queue_size': 5, 'ssl_certificate': '', 'cronjob': False, 'numthreads': None, 'quiet': False, 'interfaces': None, 'minthreads': None, 'timeout': 10, 'plain': False, 'nobanner': False, 'pid_filename': 'httpserver.pid'}>"
p2284
asbasbasbag61
(g77
g63
NtRp2285
(dp2286
g66
(dp2287
sg75
g2195
sg68
(lp2288
g61
(g82
g63
NtRp2289
(dp2290
g66
(dp2291
g86
g87
ssg75
g2285
sg68
(lp2292
g1196
asbag61
(g82
g63
NtRp2293
(dp2294
g66
(dp2295
g93
g94
ssg75
g2285
sg68
(lp2296
S':'
asbag61
(g82
g63
NtRp2297
(dp2298
g66
(dp2299
sg75
g2285
sg68
(lp2300
g61
(g62
g63
NtRp2301
(dp2302
g66
(dp2303
g74
I4
ssg75
g2297
sg68
(lp2304
S'set([])'
p2305
asbasbasbag61
(g77
g63
NtRp2306
(dp2307
g66
(dp2308
sg75
g2195
sg68
(lp2309
g61
(g82
g63
NtRp2310
(dp2311
g66
(dp2312
g86
g87
ssg75
g2306
sg68
(lp2313
g1218
asbag61
(g82
g63
NtRp2314
(dp2315
g66
(dp2316
g93
g94
ssg75
g2306
sg68
(lp2317
S':'
asbag61
(g82
g63
NtRp2318
(dp2319
g66
(dp2320
sg75
g2306
sg68
(lp2321
g61
(g62
g63
NtRp2322
(dp2323
g66
(dp2324
g74
I4
ssg75
g2318
sg68
(lp2325
g104
asbasbasbag61
(g77
g63
NtRp2326
(dp2327
g66
(dp2328
sg75
g2195
sg68
(lp2329
g61
(g82
g63
NtRp2330
(dp2331
g66
(dp2332
g86
g87
ssg75
g2326
sg68
(lp2333
g1239
asbag61
(g82
g63
NtRp2334
(dp2335
g66
(dp2336
g93
g94
ssg75
g2326
sg68
(lp2337
S':'
asbag61
(g82
g63
NtRp2338
(dp2339
g66
(dp2340
sg75
g2326
sg68
(lp2341
g61
(g62
g63
NtRp2342
(dp2343
g66
(dp2344
g74
I4
ssg75
g2338
sg68
(lp2345
g1252
asbasbasbag61
(g77
g63
NtRp2346
(dp2347
g66
(dp2348
sg75
g2195
sg68
(lp2349
g61
(g82
g63
NtRp2350
(dp2351
g66
(dp2352
g86
g87
ssg75
g2346
sg68
(lp2353
g1501
asbag61
(g82
g63
NtRp2354
(dp2355
g66
(dp2356
g93
g94
ssg75
g2346
sg68
(lp2357
S':'
asbag61
(g82
g63
NtRp2358
(dp2359
g66
(dp2360
sg75
g2346
sg68
(lp2361
g61
(g62
g63
NtRp2362
(dp2363
g66
(dp2364
g74
I4
ssg75
g2358
sg68
(lp2365
g104
asbasbasbag61
(g77
g63
NtRp2366
(dp2367
g66
(dp2368
sg75
g2195
sg68
(lp2369
g61
(g82
g63
NtRp2370
(dp2371
g66
(dp2372
g86
g87
ssg75
g2366
sg68
(lp2373
g1522
asbag61
(g82
g63
NtRp2374
(dp2375
g66
(dp2376
g93
g94
ssg75
g2366
sg68
(lp2377
S':'
asbag61
(g82
g63
NtRp2378
(dp2379
g66
(dp2380
sg75
g2366
sg68
(lp2381
g61
(g62
g63
NtRp2382
(dp2383
g66
(dp2384
g74
I4
ssg75
g2378
sg68
(lp2385
g104
asbasbasbag61
(g77
g63
NtRp2386
(dp2387
g66
(dp2388
sg75
g2195
sg68
(lp2389
g61
(g82
g63
NtRp2390
(dp2391
g66
(dp2392
g86
g87
ssg75
g2386
sg68
(lp2393
g1760
asbag61
(g82
g63
NtRp2394
(dp2395
g66
(dp2396
g93
g94
ssg75
g2386
sg68
(lp2397
S':'
asbag61
(g82
g63
NtRp2398
(dp2399
g66
(dp2400
sg75
g2386
sg68
(lp2401
g61
(g62
g63
NtRp2402
(dp2403
g66
(dp2404
g74
I4
ssg75
g2398
sg68
(lp2405
g1773
asbasbasbag61
(g77
g63
NtRp2406
(dp2407
g66
(dp2408
sg75
g2195
sg68
(lp2409
g61
(g82
g63
NtRp2410
(dp2411
g66
(dp2412
g86
g87
ssg75
g2406
sg68
(lp2413
g1803
asbag61
(g82
g63
NtRp2414
(dp2415
g66
(dp2416
g93
g94
ssg75
g2406
sg68
(lp2417
S':'
asbag61
(g82
g63
NtRp2418
(dp2419
g66
(dp2420
sg75
g2406
sg68
(lp2421
g61
(g62
g63
NtRp2422
(dp2423
g66
(dp2424
g74
I4
ssg75
g2418
sg68
(lp2425
g61
(g70
g63
NtRp2426
(dp2427
g66
(dp2428
g74
I3
ssg75
Nsg68
(lp2429
g61
(g77
g63
NtRp2430
(dp2431
g66
(dp2432
sg75
g2426
sg68
(lp2433
g61
(g82
g63
NtRp2434
(dp2435
g66
(dp2436
sg75
g2430
sg68
(lp2437
g61
(g62
g63
NtRp2438
(dp2439
g66
(dp2440
g74
I3
ssg75
g2434
sg68
(lp2441
S'2'
asbasbasbag61
(g77
g63
NtRp2442
(dp2443
g66
(dp2444
sg75
g2426
sg68
(lp2445
g61
(g82
g63
NtRp2446
(dp2447
g66
(dp2448
sg75
g2442
sg68
(lp2449
g61
(g62
g63
NtRp2450
(dp2451
g66
(dp2452
g74
I3
ssg75
g2446
sg68
(lp2453
S'0'
asbasbasbag61
(g77
g63
NtRp2454
(dp2455
g66
(dp2456
sg75
g2426
sg68
(lp2457
g61
(g82
g63
NtRp2458
(dp2459
g66
(dp2460
sg75
g2454
sg68
(lp2461
g61
(g62
g63
NtRp2462
(dp2463
g66
(dp2464
g74
I3
ssg75
g2458
sg68
(lp2465
S'2'
asbasbasbag61
(g77
g63
NtRp2466
(dp2467
g66
(dp2468
sg75
g2426
sg68
(lp2469
g61
(g82
g63
NtRp2470
(dp2471
g66
(dp2472
sg75
g2466
sg68
(lp2473
g61
(g62
g63
NtRp2474
(dp2475
g66
(dp2476
g74
I3
ssg75
g2470
sg68
(lp2477
S'datetime.datetime(2012, 8, 30, 4, 8, 18)'
p2478
asbasbasbag61
(g77
g63
NtRp2479
(dp2480
g66
(dp2481
sg75
g2426
sg68
(lp2482
g61
(g82
g63
NtRp2483
(dp2484
g66
(dp2485
sg75
g2479
sg68
(lp2486
g61
(g62
g63
NtRp2487
(dp2488
g66
(dp2489
g74
I3
ssg75
g2483
sg68
(lp2490
g1881
asbasbasbasbasbasbasbasbasbasbasbag61
(g77
g63
NtRp2491
(dp2492
g66
(dp2493
sg75
g71
sg68
(lp2494
g61
(g82
g63
NtRp2495
(dp2496
g66
(dp2497
g86
g87
ssg75
g2491
sg68
(lp2498
S'is_https'
p2499
asbag61
(g82
g63
NtRp2500
(dp2501
g66
(dp2502
g93
g94
ssg75
g2491
sg68
(lp2503
S':'
asbag61
(g82
g63
NtRp2504
(dp2505
g66
(dp2506
sg75
g2491
sg68
(lp2507
g61
(g62
g63
NtRp2508
(dp2509
g66
(dp2510
g74
I5
ssg75
g2504
sg68
(lp2511
g104
asbasbasbag61
(g77
g63
NtRp2512
(dp2513
g66
(dp2514
sg75
g71
sg68
(lp2515
g61
(g82
g63
NtRp2516
(dp2517
g66
(dp2518
g86
g87
ssg75
g2512
sg68
(lp2519
S'is_local'
p2520
asbag61
(g82
g63
NtRp2521
(dp2522
g66
(dp2523
g93
g94
ssg75
g2512
sg68
(lp2524
S':'
asbag61
(g82
g63
NtRp2525
(dp2526
g66
(dp2527
sg75
g2512
sg68
(lp2528
g61
(g62
g63
NtRp2529
(dp2530
g66
(dp2531
g74
I5
ssg75
g2525
sg68
(lp2532
g1990
asbasbasbag61
(g77
g63
NtRp2533
(dp2534
g66
(dp2535
sg75
g71
sg68
(lp2536
g61
(g82
g63
NtRp2537
(dp2538
g66
(dp2539
g86
g87
ssg75
g2533
sg68
(lp2540
S'is_restful'
p2541
asbag61
(g82
g63
NtRp2542
(dp2543
g66
(dp2544
g93
g94
ssg75
g2533
sg68
(lp2545
S':'
asbag61
(g82
g63
NtRp2546
(dp2547
g66
(dp2548
sg75
g2533
sg68
(lp2549
g61
(g62
g63
NtRp2550
(dp2551
g66
(dp2552
g74
I5
ssg75
g2546
sg68
(lp2553
g104
asbasbasbag61
(g77
g63
NtRp2554
(dp2555
g66
(dp2556
sg75
g71
sg68
(lp2557
g61
(g82
g63
NtRp2558
(dp2559
g66
(dp2560
g86
g87
ssg75
g2554
sg68
(lp2561
S'now'
p2562
asbag61
(g82
g63
NtRp2563
(dp2564
g66
(dp2565
g93
g94
ssg75
g2554
sg68
(lp2566
S':'
asbag61
(g82
g63
NtRp2567
(dp2568
g66
(dp2569
sg75
g2554
sg68
(lp2570
g61
(g62
g63
NtRp2571
(dp2572
g66
(dp2573
g74
I5
ssg75
g2567
sg68
(lp2574
S'datetime.datetime(2012, 8, 31, 8, 38, 39, 333009)'
p2575
asbasbasbag61
(g77
g63
NtRp2576
(dp2577
g66
(dp2578
sg75
g71
sg68
(lp2579
g61
(g82
g63
NtRp2580
(dp2581
g66
(dp2582
g86
g87
ssg75
g2576
sg68
(lp2583
S'post_vars'
p2584
asbag61
(g82
g63
NtRp2585
(dp2586
g66
(dp2587
g93
g94
ssg75
g2576
sg68
(lp2588
S':'
asbag61
(g82
g63
NtRp2589
(dp2590
g66
(dp2591
sg75
g2576
sg68
(lp2592
g61
(g62
g63
NtRp2593
(dp2594
g66
(dp2595
g74
I5
ssg75
g2589
sg68
(lp2596
g61
(g70
g63
NtRp2597
(dp2598
g66
(dp2599
g74
I4
ssg75
Nsg68
(lp2600
sbasbasbasbag61
(g77
g63
NtRp2601
(dp2602
g66
(dp2603
sg75
g71
sg68
(lp2604
g61
(g82
g63
NtRp2605
(dp2606
g66
(dp2607
g86
g87
ssg75
g2601
sg68
(lp2608
S'raw_args'
p2609
asbag61
(g82
g63
NtRp2610
(dp2611
g66
(dp2612
g93
g94
ssg75
g2601
sg68
(lp2613
S':'
asbag61
(g82
g63
NtRp2614
(dp2615
g66
(dp2616
sg75
g2601
sg68
(lp2617
g61
(g62
g63
NtRp2618
(dp2619
g66
(dp2620
g74
I5
ssg75
g2614
sg68
(lp2621
S'2'
asbasbasbag61
(g77
g63
NtRp2622
(dp2623
g66
(dp2624
sg75
g71
sg68
(lp2625
g61
(g82
g63
NtRp2626
(dp2627
g66
(dp2628
g86
g87
ssg75
g2622
sg68
(lp2629
S'raw_extension'
p2630
asbag61
(g82
g63
NtRp2631
(dp2632
g66
(dp2633
g93
g94
ssg75
g2622
sg68
(lp2634
S':'
asbag61
(g82
g63
NtRp2635
(dp2636
g66
(dp2637
sg75
g2622
sg68
(lp2638
g61
(g62
g63
NtRp2639
(dp2640
g66
(dp2641
g74
I5
ssg75
g2635
sg68
(lp2642
S'None'
p2643
asbasbasbag61
(g77
g63
NtRp2644
(dp2645
g66
(dp2646
sg75
g71
sg68
(lp2647
g61
(g82
g63
NtRp2648
(dp2649
g66
(dp2650
g86
g87
ssg75
g2644
sg68
(lp2651
S'url'
p2652
asbag61
(g82
g63
NtRp2653
(dp2654
g66
(dp2655
g93
g94
ssg75
g2644
sg68
(lp2656
S':'
asbag61
(g82
g63
NtRp2657
(dp2658
g66
(dp2659
sg75
g2644
sg68
(lp2660
g61
(g62
g63
NtRp2661
(dp2662
g66
(dp2663
g74
I5
ssg75
g2657
sg68
(lp2664
S'/FotoBuk/default/show/2'
p2665
asbasbasbag61
(g77
g63
NtRp2666
(dp2667
g66
(dp2668
sg75
g71
sg68
(lp2669
g61
(g82
g63
NtRp2670
(dp2671
g66
(dp2672
g86
g87
ssg75
g2666
sg68
(lp2673
S'utcnow'
p2674
asbag61
(g82
g63
NtRp2675
(dp2676
g66
(dp2677
g93
g94
ssg75
g2666
sg68
(lp2678
S':'
asbag61
(g82
g63
NtRp2679
(dp2680
g66
(dp2681
sg75
g2666
sg68
(lp2682
g61
(g62
g63
NtRp2683
(dp2684
g66
(dp2685
g74
I5
ssg75
g2679
sg68
(lp2686
S'datetime.datetime(2012, 8, 31, 3, 8, 39, 333035)'
p2687
asbasbasbag61
(g77
g63
NtRp2688
(dp2689
g66
(dp2690
sg75
g71
sg68
(lp2691
g61
(g82
g63
NtRp2692
(dp2693
g66
(dp2694
g86
g87
ssg75
g2688
sg68
(lp2695
S'uuid'
p2696
asbag61
(g82
g63
NtRp2697
(dp2698
g66
(dp2699
g93
g94
ssg75
g2688
sg68
(lp2700
S':'
asbag61
(g82
g63
NtRp2701
(dp2702
g66
(dp2703
sg75
g2688
sg68
(lp2704
g61
(g62
g63
NtRp2705
(dp2706
g66
(dp2707
g74
I5
ssg75
g2701
sg68
(lp2708
S'FotoBuk/127.0.0.1.2012-08-31.08-38-39.fce87dd5-9c26-483b-a928-dde8c0e6d678'
p2709
asbasbasbag61
(g77
g63
NtRp2710
(dp2711
g66
(dp2712
sg75
g71
sg68
(lp2713
g61
(g82
g63
NtRp2714
(dp2715
g66
(dp2716
g86
g87
ssg75
g2710
sg68
(lp2717
S'vars'
p2718
asbag61
(g82
g63
NtRp2719
(dp2720
g66
(dp2721
g93
g94
ssg75
g2710
sg68
(lp2722
S':'
asbag61
(g82
g63
NtRp2723
(dp2724
g66
(dp2725
sg75
g2710
sg68
(lp2726
g61
(g62
g63
NtRp2727
(dp2728
g66
(dp2729
g74
I5
ssg75
g2723
sg68
(lp2730
g61
(g70
g63
NtRp2731
(dp2732
g66
(dp2733
g74
I4
ssg75
Nsg68
(lp2734
sbasbasbasbag61
(g77
g63
NtRp2735
(dp2736
g66
(dp2737
sg75
g71
sg68
(lp2738
g61
(g82
g63
NtRp2739
(dp2740
g66
(dp2741
g86
g87
ssg75
g2735
sg68
(lp2742
S'wsgi'
p2743
asbag61
(g82
g63
NtRp2744
(dp2745
g66
(dp2746
g93
g94
ssg75
g2735
sg68
(lp2747
S':'
asbag61
(g82
g63
NtRp2748
(dp2749
g66
(dp2750
sg75
g2735
sg68
(lp2751
g61
(g62
g63
NtRp2752
(dp2753
g66
(dp2754
g74
I5
ssg75
g2748
sg68
(lp2755
g61
(g70
g63
NtRp2756
(dp2757
g66
(dp2758
g74
I4
ssg75
Nsg68
(lp2759
g61
(g77
g63
NtRp2760
(dp2761
g66
(dp2762
sg75
g2756
sg68
(lp2763
g61
(g82
g63
NtRp2764
(dp2765
g66
(dp2766
g86
g87
ssg75
g2760
sg68
(lp2767
S'environ'
p2768
asbag61
(g82
g63
NtRp2769
(dp2770
g66
(dp2771
g93
g94
ssg75
g2760
sg68
(lp2772
S':'
asbag61
(g82
g63
NtRp2773
(dp2774
g66
(dp2775
sg75
g2760
sg68
(lp2776
g61
(g62
g63
NtRp2777
(dp2778
g66
(dp2779
g74
I4
ssg75
g2773
sg68
(lp2780
g61
(g70
g63
NtRp2781
(dp2782
g66
(dp2783
g74
I3
ssg75
Nsg68
(lp2784
g61
(g77
g63
NtRp2785
(dp2786
g66
(dp2787
sg75
g2781
sg68
(lp2788
g61
(g82
g63
NtRp2789
(dp2790
g66
(dp2791
g86
g87
ssg75
g2785
sg68
(lp2792
S'CONTENT_LENGTH'
p2793
asbag61
(g82
g63
NtRp2794
(dp2795
g66
(dp2796
g93
g94
ssg75
g2785
sg68
(lp2797
S':'
asbag61
(g82
g63
NtRp2798
(dp2799
g66
(dp2800
sg75
g2785
sg68
(lp2801
g61
(g62
g63
NtRp2802
(dp2803
g66
(dp2804
g74
I3
ssg75
g2798
sg68
(lp2805
g1165
asbasbasbag61
(g77
g63
NtRp2806
(dp2807
g66
(dp2808
sg75
g2781
sg68
(lp2809
g61
(g82
g63
NtRp2810
(dp2811
g66
(dp2812
g86
g87
ssg75
g2806
sg68
(lp2813
S'CONTENT_TYPE'
p2814
asbag61
(g82
g63
NtRp2815
(dp2816
g66
(dp2817
g93
g94
ssg75
g2806
sg68
(lp2818
S':'
asbag61
(g82
g63
NtRp2819
(dp2820
g66
(dp2821
sg75
g2806
sg68
(lp2822
g61
(g62
g63
NtRp2823
(dp2824
g66
(dp2825
g74
I3
ssg75
g2819
sg68
(lp2826
g1187
asbasbasbag61
(g77
g63
NtRp2827
(dp2828
g66
(dp2829
sg75
g2781
sg68
(lp2830
g61
(g82
g63
NtRp2831
(dp2832
g66
(dp2833
g86
g87
ssg75
g2827
sg68
(lp2834
S'HTTP_ACCEPT'
p2835
asbag61
(g82
g63
NtRp2836
(dp2837
g66
(dp2838
g93
g94
ssg75
g2827
sg68
(lp2839
S':'
asbag61
(g82
g63
NtRp2840
(dp2841
g66
(dp2842
sg75
g2827
sg68
(lp2843
g61
(g62
g63
NtRp2844
(dp2845
g66
(dp2846
g74
I3
ssg75
g2840
sg68
(lp2847
g1274
asbasbasbag61
(g77
g63
NtRp2848
(dp2849
g66
(dp2850
sg75
g2781
sg68
(lp2851
g61
(g82
g63
NtRp2852
(dp2853
g66
(dp2854
g86
g87
ssg75
g2848
sg68
(lp2855
S'HTTP_ACCEPT_ENCODING'
p2856
asbag61
(g82
g63
NtRp2857
(dp2858
g66
(dp2859
g93
g94
ssg75
g2848
sg68
(lp2860
S':'
asbag61
(g82
g63
NtRp2861
(dp2862
g66
(dp2863
sg75
g2848
sg68
(lp2864
g61
(g62
g63
NtRp2865
(dp2866
g66
(dp2867
g74
I3
ssg75
g2861
sg68
(lp2868
g1296
asbasbasbag61
(g77
g63
NtRp2869
(dp2870
g66
(dp2871
sg75
g2781
sg68
(lp2872
g61
(g82
g63
NtRp2873
(dp2874
g66
(dp2875
g86
g87
ssg75
g2869
sg68
(lp2876
S'HTTP_ACCEPT_LANGUAGE'
p2877
asbag61
(g82
g63
NtRp2878
(dp2879
g66
(dp2880
g93
g94
ssg75
g2869
sg68
(lp2881
S':'
asbag61
(g82
g63
NtRp2882
(dp2883
g66
(dp2884
sg75
g2869
sg68
(lp2885
g61
(g62
g63
NtRp2886
(dp2887
g66
(dp2888
g74
I3
ssg75
g2882
sg68
(lp2889
g1318
asbasbasbag61
(g77
g63
NtRp2890
(dp2891
g66
(dp2892
sg75
g2781
sg68
(lp2893
g61
(g82
g63
NtRp2894
(dp2895
g66
(dp2896
g86
g87
ssg75
g2890
sg68
(lp2897
S'HTTP_CACHE_CONTROL'
p2898
asbag61
(g82
g63
NtRp2899
(dp2900
g66
(dp2901
g93
g94
ssg75
g2890
sg68
(lp2902
S':'
asbag61
(g82
g63
NtRp2903
(dp2904
g66
(dp2905
sg75
g2890
sg68
(lp2906
g61
(g62
g63
NtRp2907
(dp2908
g66
(dp2909
g74
I3
ssg75
g2903
sg68
(lp2910
g1340
asbasbasbag61
(g77
g63
NtRp2911
(dp2912
g66
(dp2913
sg75
g2781
sg68
(lp2914
g61
(g82
g63
NtRp2915
(dp2916
g66
(dp2917
g86
g87
ssg75
g2911
sg68
(lp2918
S'HTTP_CONNECTION'
p2919
asbag61
(g82
g63
NtRp2920
(dp2921
g66
(dp2922
g93
g94
ssg75
g2911
sg68
(lp2923
S':'
asbag61
(g82
g63
NtRp2924
(dp2925
g66
(dp2926
sg75
g2911
sg68
(lp2927
g61
(g62
g63
NtRp2928
(dp2929
g66
(dp2930
g74
I3
ssg75
g2924
sg68
(lp2931
g1362
asbasbasbag61
(g77
g63
NtRp2932
(dp2933
g66
(dp2934
sg75
g2781
sg68
(lp2935
g61
(g82
g63
NtRp2936
(dp2937
g66
(dp2938
g86
g87
ssg75
g2932
sg68
(lp2939
S'HTTP_CONTENT_LENGTH'
p2940
asbag61
(g82
g63
NtRp2941
(dp2942
g66
(dp2943
g93
g94
ssg75
g2932
sg68
(lp2944
S':'
asbag61
(g82
g63
NtRp2945
(dp2946
g66
(dp2947
sg75
g2932
sg68
(lp2948
g61
(g62
g63
NtRp2949
(dp2950
g66
(dp2951
g74
I3
ssg75
g2945
sg68
(lp2952
g1165
asbasbasbag61
(g77
g63
NtRp2953
(dp2954
g66
(dp2955
sg75
g2781
sg68
(lp2956
g61
(g82
g63
NtRp2957
(dp2958
g66
(dp2959
g86
g87
ssg75
g2953
sg68
(lp2960
S'HTTP_CONTENT_TYPE'
p2961
asbag61
(g82
g63
NtRp2962
(dp2963
g66
(dp2964
g93
g94
ssg75
g2953
sg68
(lp2965
S':'
asbag61
(g82
g63
NtRp2966
(dp2967
g66
(dp2968
sg75
g2953
sg68
(lp2969
g61
(g62
g63
NtRp2970
(dp2971
g66
(dp2972
g74
I3
ssg75
g2966
sg68
(lp2973
g1187
asbasbasbag61
(g77
g63
NtRp2974
(dp2975
g66
(dp2976
sg75
g2781
sg68
(lp2977
g61
(g82
g63
NtRp2978
(dp2979
g66
(dp2980
g86
g87
ssg75
g2974
sg68
(lp2981
S'HTTP_COOKIE'
p2982
asbag61
(g82
g63
NtRp2983
(dp2984
g66
(dp2985
g93
g94
ssg75
g2974
sg68
(lp2986
S':'
asbag61
(g82
g63
NtRp2987
(dp2988
g66
(dp2989
sg75
g2974
sg68
(lp2990
g61
(g62
g63
NtRp2991
(dp2992
g66
(dp2993
g74
I3
ssg75
g2987
sg68
(lp2994
g1426
asbasbasbag61
(g77
g63
NtRp2995
(dp2996
g66
(dp2997
sg75
g2781
sg68
(lp2998
g61
(g82
g63
NtRp2999
(dp3000
g66
(dp3001
g86
g87
ssg75
g2995
sg68
(lp3002
S'HTTP_HOST'
p3003
asbag61
(g82
g63
NtRp3004
(dp3005
g66
(dp3006
g93
g94
ssg75
g2995
sg68
(lp3007
S':'
asbag61
(g82
g63
NtRp3008
(dp3009
g66
(dp3010
sg75
g2995
sg68
(lp3011
g61
(g62
g63
NtRp3012
(dp3013
g66
(dp3014
g74
I3
ssg75
g3008
sg68
(lp3015
g1448
asbasbasbag61
(g77
g63
NtRp3016
(dp3017
g66
(dp3018
sg75
g2781
sg68
(lp3019
g61
(g82
g63
NtRp3020
(dp3021
g66
(dp3022
g86
g87
ssg75
g3016
sg68
(lp3023
S'HTTP_REFERER'
p3024
asbag61
(g82
g63
NtRp3025
(dp3026
g66
(dp3027
g93
g94
ssg75
g3016
sg68
(lp3028
S':'
asbag61
(g82
g63
NtRp3029
(dp3030
g66
(dp3031
sg75
g3016
sg68
(lp3032
g61
(g62
g63
NtRp3033
(dp3034
g66
(dp3035
g74
I3
ssg75
g3029
sg68
(lp3036
g1470
asbasbasbag61
(g77
g63
NtRp3037
(dp3038
g66
(dp3039
sg75
g2781
sg68
(lp3040
g61
(g82
g63
NtRp3041
(dp3042
g66
(dp3043
g86
g87
ssg75
g3037
sg68
(lp3044
S'HTTP_USER_AGENT'
p3045
asbag61
(g82
g63
NtRp3046
(dp3047
g66
(dp3048
g93
g94
ssg75
g3037
sg68
(lp3049
S':'
asbag61
(g82
g63
NtRp3050
(dp3051
g66
(dp3052
sg75
g3037
sg68
(lp3053
g61
(g62
g63
NtRp3054
(dp3055
g66
(dp3056
g74
I3
ssg75
g3050
sg68
(lp3057
g1492
asbasbasbag61
(g77
g63
NtRp3058
(dp3059
g66
(dp3060
sg75
g2781
sg68
(lp3061
g61
(g82
g63
NtRp3062
(dp3063
g66
(dp3064
g86
g87
ssg75
g3058
sg68
(lp3065
S'PATH_INFO'
p3066
asbag61
(g82
g63
NtRp3067
(dp3068
g66
(dp3069
g93
g94
ssg75
g3058
sg68
(lp3070
S':'
asbag61
(g82
g63
NtRp3071
(dp3072
g66
(dp3073
sg75
g3058
sg68
(lp3074
g61
(g62
g63
NtRp3075
(dp3076
g66
(dp3077
g74
I3
ssg75
g3071
sg68
(lp3078
g1556
asbasbasbag61
(g77
g63
NtRp3079
(dp3080
g66
(dp3081
sg75
g2781
sg68
(lp3082
g61
(g82
g63
NtRp3083
(dp3084
g66
(dp3085
g86
g87
ssg75
g3079
sg68
(lp3086
S'QUERY_STRING'
p3087
asbag61
(g82
g63
NtRp3088
(dp3089
g66
(dp3090
g93
g94
ssg75
g3079
sg68
(lp3091
S':'
asbag61
(g82
g63
NtRp3092
(dp3093
g66
(dp3094
sg75
g3079
sg68
(lp3095
g61
(g62
g63
NtRp3096
(dp3097
g66
(dp3098
g74
I3
ssg75
g3092
sg68
(lp3099
S''
asbasbasbag61
(g77
g63
NtRp3100
(dp3101
g66
(dp3102
sg75
g2781
sg68
(lp3103
g61
(g82
g63
NtRp3104
(dp3105
g66
(dp3106
g86
g87
ssg75
g3100
sg68
(lp3107
S'REMOTE_ADDR'
p3108
asbag61
(g82
g63
NtRp3109
(dp3110
g66
(dp3111
g93
g94
ssg75
g3100
sg68
(lp3112
S':'
asbag61
(g82
g63
NtRp3113
(dp3114
g66
(dp3115
sg75
g3100
sg68
(lp3116
g61
(g62
g63
NtRp3117
(dp3118
g66
(dp3119
g74
I3
ssg75
g3113
sg68
(lp3120
g228
asbasbasbag61
(g77
g63
NtRp3121
(dp3122
g66
(dp3123
sg75
g2781
sg68
(lp3124
g61
(g82
g63
NtRp3125
(dp3126
g66
(dp3127
g86
g87
ssg75
g3121
sg68
(lp3128
S'REMOTE_PORT'
p3129
asbag61
(g82
g63
NtRp3130
(dp3131
g66
(dp3132
g93
g94
ssg75
g3121
sg68
(lp3133
S':'
asbag61
(g82
g63
NtRp3134
(dp3135
g66
(dp3136
sg75
g3121
sg68
(lp3137
g61
(g62
g63
NtRp3138
(dp3139
g66
(dp3140
g74
I3
ssg75
g3134
sg68
(lp3141
g1620
asbasbasbag61
(g77
g63
NtRp3142
(dp3143
g66
(dp3144
sg75
g2781
sg68
(lp3145
g61
(g82
g63
NtRp3146
(dp3147
g66
(dp3148
g86
g87
ssg75
g3142
sg68
(lp3149
S'REQUEST_METHOD'
p3150
asbag61
(g82
g63
NtRp3151
(dp3152
g66
(dp3153
g93
g94
ssg75
g3142
sg68
(lp3154
S':'
asbag61
(g82
g63
NtRp3155
(dp3156
g66
(dp3157
sg75
g3142
sg68
(lp3158
g61
(g62
g63
NtRp3159
(dp3160
g66
(dp3161
g74
I3
ssg75
g3155
sg68
(lp3162
g1642
asbasbasbag61
(g77
g63
NtRp3163
(dp3164
g66
(dp3165
sg75
g2781
sg68
(lp3166
g61
(g82
g63
NtRp3167
(dp3168
g66
(dp3169
g86
g87
ssg75
g3163
sg68
(lp3170
S'SCRIPT_NAME'
p3171
asbag61
(g82
g63
NtRp3172
(dp3173
g66
(dp3174
g93
g94
ssg75
g3163
sg68
(lp3175
S':'
asbag61
(g82
g63
NtRp3176
(dp3177
g66
(dp3178
sg75
g3163
sg68
(lp3179
g61
(g62
g63
NtRp3180
(dp3181
g66
(dp3182
g74
I3
ssg75
g3176
sg68
(lp3183
S''
asbasbasbag61
(g77
g63
NtRp3184
(dp3185
g66
(dp3186
sg75
g2781
sg68
(lp3187
g61
(g82
g63
NtRp3188
(dp3189
g66
(dp3190
g86
g87
ssg75
g3184
sg68
(lp3191
S'SERVER_NAME'
p3192
asbag61
(g82
g63
NtRp3193
(dp3194
g66
(dp3195
g93
g94
ssg75
g3184
sg68
(lp3196
S':'
asbag61
(g82
g63
NtRp3197
(dp3198
g66
(dp3199
sg75
g3184
sg68
(lp3200
g61
(g62
g63
NtRp3201
(dp3202
g66
(dp3203
g74
I3
ssg75
g3197
sg68
(lp3204
g1685
asbasbasbag61
(g77
g63
NtRp3205
(dp3206
g66
(dp3207
sg75
g2781
sg68
(lp3208
g61
(g82
g63
NtRp3209
(dp3210
g66
(dp3211
g86
g87
ssg75
g3205
sg68
(lp3212
S'SERVER_PORT'
p3213
asbag61
(g82
g63
NtRp3214
(dp3215
g66
(dp3216
g93
g94
ssg75
g3205
sg68
(lp3217
S':'
asbag61
(g82
g63
NtRp3218
(dp3219
g66
(dp3220
sg75
g3205
sg68
(lp3221
g61
(g62
g63
NtRp3222
(dp3223
g66
(dp3224
g74
I3
ssg75
g3218
sg68
(lp3225
g1707
asbasbasbag61
(g77
g63
NtRp3226
(dp3227
g66
(dp3228
sg75
g2781
sg68
(lp3229
g61
(g82
g63
NtRp3230
(dp3231
g66
(dp3232
g86
g87
ssg75
g3226
sg68
(lp3233
S'SERVER_PROTOCOL'
p3234
asbag61
(g82
g63
NtRp3235
(dp3236
g66
(dp3237
g93
g94
ssg75
g3226
sg68
(lp3238
S':'
asbag61
(g82
g63
NtRp3239
(dp3240
g66
(dp3241
sg75
g3226
sg68
(lp3242
g61
(g62
g63
NtRp3243
(dp3244
g66
(dp3245
g74
I3
ssg75
g3239
sg68
(lp3246
g1729
asbasbasbag61
(g77
g63
NtRp3247
(dp3248
g66
(dp3249
sg75
g2781
sg68
(lp3250
g61
(g82
g63
NtRp3251
(dp3252
g66
(dp3253
g86
g87
ssg75
g3247
sg68
(lp3254
S'SERVER_SOFTWARE'
p3255
asbag61
(g82
g63
NtRp3256
(dp3257
g66
(dp3258
g93
g94
ssg75
g3247
sg68
(lp3259
S':'
asbag61
(g82
g63
NtRp3260
(dp3261
g66
(dp3262
sg75
g3247
sg68
(lp3263
g61
(g62
g63
NtRp3264
(dp3265
g66
(dp3266
g74
I3
ssg75
g3260
sg68
(lp3267
g1751
asbasbasbag61
(g77
g63
NtRp3268
(dp3269
g66
(dp3270
sg75
g2781
sg68
(lp3271
g61
(g82
g63
NtRp3272
(dp3273
g66
(dp3274
g86
g87
ssg75
g3268
sg68
(lp3275
S'wsgi.errors'
p3276
asbag61
(g82
g63
NtRp3277
(dp3278
g66
(dp3279
g93
g94
ssg75
g3268
sg68
(lp3280
S':'
asbag61
(g82
g63
NtRp3281
(dp3282
g66
(dp3283
sg75
g3268
sg68
(lp3284
g61
(g62
g63
NtRp3285
(dp3286
g66
(dp3287
g74
I3
ssg75
g3281
sg68
(lp3288
S"<open file '<stderr>', mode 'w' at 0xb772d0d0>"
p3289
asbasbasbag61
(g77
g63
NtRp3290
(dp3291
g66
(dp3292
sg75
g2781
sg68
(lp3293
g61
(g82
g63
NtRp3294
(dp3295
g66
(dp3296
g86
g87
ssg75
g3290
sg68
(lp3297
S'wsgi.file_wrapper'
p3298
asbag61
(g82
g63
NtRp3299
(dp3300
g66
(dp3301
g93
g94
ssg75
g3290
sg68
(lp3302
S':'
asbag61
(g82
g63
NtRp3303
(dp3304
g66
(dp3305
sg75
g3290
sg68
(lp3306
g61
(g62
g63
NtRp3307
(dp3308
g66
(dp3309
g74
I3
ssg75
g3303
sg68
(lp3310
S'<class wsgiref.util.FileWrapper at 0x8d0326c>'
p3311
asbasbasbag61
(g77
g63
NtRp3312
(dp3313
g66
(dp3314
sg75
g2781
sg68
(lp3315
g61
(g82
g63
NtRp3316
(dp3317
g66
(dp3318
g86
g87
ssg75
g3312
sg68
(lp3319
S'wsgi.input'
p3320
asbag61
(g82
g63
NtRp3321
(dp3322
g66
(dp3323
g93
g94
ssg75
g3312
sg68
(lp3324
S':'
asbag61
(g82
g63
NtRp3325
(dp3326
g66
(dp3327
sg75
g3312
sg68
(lp3328
g61
(g62
g63
NtRp3329
(dp3330
g66
(dp3331
g74
I3
ssg75
g3325
sg68
(lp3332
S"<open file '<fdopen>', mode 'w+b' at 0xaf2be7b0>"
p3333
asbasbasbag61
(g77
g63
NtRp3334
(dp3335
g66
(dp3336
sg75
g2781
sg68
(lp3337
g61
(g82
g63
NtRp3338
(dp3339
g66
(dp3340
g86
g87
ssg75
g3334
sg68
(lp3341
S'wsgi.multiprocess'
p3342
asbag61
(g82
g63
NtRp3343
(dp3344
g66
(dp3345
g93
g94
ssg75
g3334
sg68
(lp3346
S':'
asbag61
(g82
g63
NtRp3347
(dp3348
g66
(dp3349
sg75
g3334
sg68
(lp3350
g61
(g62
g63
NtRp3351
(dp3352
g66
(dp3353
g74
I3
ssg75
g3347
sg68
(lp3354
g104
asbasbasbag61
(g77
g63
NtRp3355
(dp3356
g66
(dp3357
sg75
g2781
sg68
(lp3358
g61
(g82
g63
NtRp3359
(dp3360
g66
(dp3361
g86
g87
ssg75
g3355
sg68
(lp3362
S'wsgi.multithread'
p3363
asbag61
(g82
g63
NtRp3364
(dp3365
g66
(dp3366
g93
g94
ssg75
g3355
sg68
(lp3367
S':'
asbag61
(g82
g63
NtRp3368
(dp3369
g66
(dp3370
sg75
g3355
sg68
(lp3371
g61
(g62
g63
NtRp3372
(dp3373
g66
(dp3374
g74
I3
ssg75
g3368
sg68
(lp3375
g1990
asbasbasbag61
(g77
g63
NtRp3376
(dp3377
g66
(dp3378
sg75
g2781
sg68
(lp3379
g61
(g82
g63
NtRp3380
(dp3381
g66
(dp3382
g86
g87
ssg75
g3376
sg68
(lp3383
S'wsgi.run_once'
p3384
asbag61
(g82
g63
NtRp3385
(dp3386
g66
(dp3387
g93
g94
ssg75
g3376
sg68
(lp3388
S':'
asbag61
(g82
g63
NtRp3389
(dp3390
g66
(dp3391
sg75
g3376
sg68
(lp3392
g61
(g62
g63
NtRp3393
(dp3394
g66
(dp3395
g74
I3
ssg75
g3389
sg68
(lp3396
g104
asbasbasbag61
(g77
g63
NtRp3397
(dp3398
g66
(dp3399
sg75
g2781
sg68
(lp3400
g61
(g82
g63
NtRp3401
(dp3402
g66
(dp3403
g86
g87
ssg75
g3397
sg68
(lp3404
S'wsgi.url_scheme'
p3405
asbag61
(g82
g63
NtRp3406
(dp3407
g66
(dp3408
g93
g94
ssg75
g3397
sg68
(lp3409
S':'
asbag61
(g82
g63
NtRp3410
(dp3411
g66
(dp3412
sg75
g3397
sg68
(lp3413
g61
(g62
g63
NtRp3414
(dp3415
g66
(dp3416
g74
I3
ssg75
g3410
sg68
(lp3417
g2033
asbasbasbag61
(g77
g63
NtRp3418
(dp3419
g66
(dp3420
sg75
g2781
sg68
(lp3421
g61
(g82
g63
NtRp3422
(dp3423
g66
(dp3424
g86
g87
ssg75
g3418
sg68
(lp3425
S'wsgi.version'
p3426
asbag61
(g82
g63
NtRp3427
(dp3428
g66
(dp3429
g93
g94
ssg75
g3418
sg68
(lp3430
S':'
asbag61
(g82
g63
NtRp3431
(dp3432
g66
(dp3433
sg75
g3418
sg68
(lp3434
g61
(g62
g63
NtRp3435
(dp3436
g66
(dp3437
g74
I3
ssg75
g3431
sg68
(lp3438
S'1'
asbasbasbasbasbasbasbasbasbasbasbasbasbsS'frames'
p3439
(lp3440
(dp3441
S'file'
p3442
S'/home/piyush/web2py/gluon/restricted.py'
p3443
sS'dump'
p3444
(dp3445
S'environment'
p3446
S"{'A': <class 'gluon.html.A'>, 'Auth': <class 'gluon.tools.Auth'>, 'B': <class 'gluon.html.B'>, 'BEAUTIFY': <class 'gluon.html.BEAUTIFY'>, 'BODY': <class 'gluon.html.BODY'>, 'BR': <class 'gluon.html.BR'>, 'BUTTON': <class 'gluon.html.BUTTON'>, 'CAT': <class 'gluon.html.CAT'>, 'CENTER': <class 'gluon.html.CENTER'>, 'CLEANUP': <class 'gluon.validators.CLEANUP'>, ...}"
p3447
sS'ccode'
p3448
S'<code object <module> at 0xaeb3e9b0, file "/home...ications/FotoBuk/controllers/default.py", line 1>'
p3449
ssS'lnum'
p3450
I209
sS'lines'
p3451
(dp3452
I204
S'    try:'
p3453
sI205
S'        if type(code) == types.CodeType:'
p3454
sI206
S'            ccode = code'
p3455
sI207
S'        else:'
p3456
sI208
S'            ccode = compile2(code,layer)'
p3457
sI209
S'        exec ccode in environment'
p3458
sI210
S'    except HTTP:'
p3459
sI211
S'        raise'
p3460
sI212
S'    except RestrictedError:'
p3461
sI213
S'        # do not encapsulate (obfuscate) the original RestrictedError'
p3462
ssS'call'
p3463
S"(code='@auth.requires_login()\\ndef index():\\n\\tli=db(db.im...quest,db)\\n\\nresponse._vars=response._caller(show)\\n', environment={'A': <class 'gluon.html.A'>, 'Auth': <class 'gluon.tools.Auth'>, 'B': <class 'gluon.html.B'>, 'BEAUTIFY': <class 'gluon.html.BEAUTIFY'>, 'BODY': <class 'gluon.html.BODY'>, 'BR': <class 'gluon.html.BR'>, 'BUTTON': <class 'gluon.html.BUTTON'>, 'CAT': <class 'gluon.html.CAT'>, 'CENTER': <class 'gluon.html.CENTER'>, 'CLEANUP': <class 'gluon.validators.CLEANUP'>, ...}, layer='/home/piyush/web2py/applications/FotoBuk/controllers/default.py')"
p3464
sS'func'
p3465
S'restricted'
p3466
sa(dp3467
g3442
S'/home/piyush/web2py/applications/FotoBuk/controllers/default.py'
p3468
sg3444
(dp3469
sg3450
I45
sg3451
(dp3470
I34
S'    if flag==0:'
p3471
sI35
S'    \treturn dict(cur_user=cur_user,flag=flag,image=image, comments=comments, likes=likes, form=form, form2=form2)'
p3472
sI36
S'    else:'
p3473
sI37
S'\t    return dict(cur_user,flag=flag,image=image,comments=comments,likes=likes,form=form)'
p3474
sI38
S''
sI39
S'def user():'
p3475
sI40
S'\treturn dict(form=auth())'
p3476
sI41
S''
sI42
S'def download():'
p3477
sI43
S'\treturn response.download(request,db)'
p3478
ssg3463
S'()'
p3479
sg3465
S'<module>'
p3480
sa(dp3481
g3442
S'/home/piyush/web2py/gluon/globals.py'
p3482
sg3444
(dp3483
S'self'
p3484
S'undefined'
p3485
sS'f'
S'<function show>'
p3486
ssg3450
I185
sg3451
(dp3487
I180
S'        self.menu = []             # used by the default view layout'
p3488
sI181
S'        self.files = []            # used by web2py_ajax.html'
p3489
sI182
S'        self.generic_patterns = [] # patterns to allow generic views'
p3490
sI183
S"        self.delimiters = ('{{','}}')"
p3491
sI184
S'        self._vars = None'
p3492
sI185
S'        self._caller = lambda f: f()'
p3493
sI186
S'        self._view_environment = None'
p3494
sI187
S'        self._custom_commit = None'
p3495
sI188
S'        self._custom_rollback = None'
p3496
sI189
S''
ssg3463
S'(f=<function show>)'
p3497
sg3465
S'<lambda>'
p3498
sa(dp3499
g3442
S'/home/piyush/web2py/gluon/tools.py'
p3500
sg3444
(dp3501
S'action'
p3502
S'<function show>'
p3503
sS'a'
S'()'
p3504
sS'b'
g21
ssg3450
I2776
sg3451
(dp3505
I2771
S'                    flag = condition'
p3506
sI2772
S'                if not flag:'
p3507
sI2773
S'                    current.session.flash = self.messages.access_denied'
p3508
sI2774
S'                    return call_or_redirect('
p3509
sI2775
S'                        self.settings.on_failed_authorization)'
p3510
sI2776
S'                return action(*a, **b)'
p3511
sI2777
S'            f.__doc__ = action.__doc__'
p3512
sI2778
S'            f.__name__ = action.__name__'
p3513
sI2779
S'            f.__dict__.update(action.__dict__)'
p3514
sI2780
S'            return f'
p3515
ssg3463
S'(*a=(), **b={})'
p3516
sg3465
S'f'
sa(dp3517
g3442
S'/home/piyush/web2py/applications/FotoBuk/controllers/default.py'
p3518
sg3444
(dp3519
S'form2'
p3520
S'<gluon.sqlhtml.SQLFORM object>'
p3521
sS'form2.process'
p3522
S'<bound method SQLFORM.process of <gluon.sqlhtml.SQLFORM object>>'
p3523
sS').accepted'
p3524
g3485
ssg3450
I27
sg3451
(dp3525
I22
S'    for like in likes:'
p3526
sI23
S'\t    if cur_user in like:'
p3527
sI24
S'\t\t    flag=1'
p3528
sI25
S'    if flag!=1:'
p3529
sI26
S'    \tform2 = SQLFORM(db.like)'
p3530
sI27
S'    \tif form2.process().accepted:'
p3531
sI28
S"\t\tresponse.flash = 'You have liked the image'"
p3532
sI29
S'    \t\tdb.like.insert(likername=auth.user.first_name,liker=auth.user_id,like_id=image.id)'
p3533
sI30
S'    if form.process().accepted:'
p3534
sI31
S"        response.flash = 'your comment is posted'"
p3535
ssg3463
S'()'
p3536
sg3465
S'show'
p3537
sa(dp3538
g3442
S'/home/piyush/web2py/gluon/html.py'
p3539
sg3444
(dp3540
S'self'
p3541
S'<gluon.sqlhtml.SQLFORM object>'
p3542
sS'self.validate'
p3543
S'<bound method SQLFORM.validate of <gluon.sqlhtml.SQLFORM object>>'
p3544
sS'kwargs'
p3545
S"{'dbio': True}"
p3546
ssg3450
I2106
sg3451
(dp3547
I2101
S'        # or a function name to use as callback or None to do nothing.'
p3548
sI2102
S'        def action():'
p3549
sI2103
S'            return dict(form=SQLFORM(db.table).process(onsuccess=my_callback)'
p3550
sI2104
S'        """'
p3551
sI2105
S"        kwargs['dbio'] = kwargs.get('dbio',True) # necessary for SQLHTML forms"
p3552
sI2106
S'        self.validate(**kwargs)'
p3553
sI2107
S'        return self'
p3554
sI2108
S''
sI2109
S'    REDIRECT_JS = "window.location=\'%s\';return false"'
p3555
sI2110
S''
ssg3463
S"(self=<gluon.sqlhtml.SQLFORM object>, **kwargs={'dbio': True})"
p3556
sg3465
S'process'
p3557
sa(dp3558
g3442
S'/home/piyush/web2py/gluon/html.py'
p3559
sg3444
(dp3560
S'self'
p3561
S'<gluon.sqlhtml.SQLFORM object>'
p3562
sS'self.accepts'
p3563
S'<bound method SQLFORM.accepts of <gluon.sqlhtml.SQLFORM object>>'
p3564
sS'kwargs'
p3565
S"{'dbio': True, 'request_vars': <Storage {'_formkey': 'd4889485-f364-4706-8a42-ad6d7f400c15', '_formname': 'like/create'}>, 'session': <Storage {'_formkey[comment/create]': 'b85f0178-...login]': '9e8228a6-3689-4272-bc5c-59d40c4fc0e0'}>}"
p3566
ssg3450
I2053
sg3451
(dp3567
I2048
S"        for key in ('message_onsuccess','message_onfailure','onsuccess',"
p3568
sI2049
S"                    'onfailure','next'):"
p3569
sI2050
S'            if key in kwargs:'
p3570
sI2051
S'                del kwargs[key]'
p3571
sI2052
S''
sI2053
S'        if self.accepts(**kwargs):'
p3572
sI2054
S"            if onsuccess == 'flash':"
p3573
sI2055
S'                if next:'
p3574
sI2056
S'                    current.session.flash = message_onsuccess'
p3575
sI2057
S'                else:'
p3576
ssg3463
S"(self=<gluon.sqlhtml.SQLFORM object>, **kwargs={'dbio': True, 'request_vars': <Storage {'_formkey': 'd4889485-f364-4706-8a42-ad6d7f400c15', '_formname': 'like/create'}>, 'session': <Storage {'_formkey[comment/create]': 'b85f0178-...login]': '9e8228a6-3689-4272-bc5c-59d40c4fc0e0'}>})"
p3577
sg3465
S'validate'
p3578
sa(dp3579
g3442
S'/home/piyush/web2py/gluon/sqlhtml.py'
p3580
sg3444
(dp3581
S'self.vars.id'
p3582
S'None'
p3583
sS'fields'
p3584
g21
sS'self'
p3585
S'<gluon.sqlhtml.SQLFORM object>'
p3586
sS'self.vars'
p3587
S'<Storage {}>'
p3588
sS'self.table.insert'
p3589
S'<bound method Table.insert of <Table like (id,like_id,liker,likername)>>'
p3590
sS'self.table'
p3591
S'<Table like (id,like_id,liker,likername)>'
p3592
ssg3450
I1403
sg3451
(dp3593
I1398
S'                if record_id:'
p3594
sI1399
S'                    self.vars.id = self.record[self.id_field_name]'
p3595
sI1400
S'                    if fields:'
p3596
sI1401
S'                        self.table._db(self.table._id == self.record[self.id_field_name]).update(**fields)'
p3597
sI1402
S'                else:'
p3598
sI1403
S'                    self.vars.id = self.table.insert(**fields)'
p3599
sI1404
S'        self.accepted = ret'
p3600
sI1405
S'        return ret'
p3601
sI1406
S''
sI1407
S'    AUTOTYPES = {'
p3602
ssg3463
S"(self=<gluon.sqlhtml.SQLFORM object>, request_vars=<Storage {'_formkey': 'd4889485-f364-4706-8a42-ad6d7f400c15', '_formname': 'like/create'}>, session=<Storage {'_formkey[comment/create]': 'b85f0178-...login]': '9e8228a6-3689-4272-bc5c-59d40c4fc0e0'}>, formname='like/create', keepvalues=False, onvalidation=None, dbio=True, hideerror=False, detect_record_change=False)"
p3603
sg3465
S'accepts'
p3604
sa(dp3605
g3442
S'/home/piyush/web2py/gluon/dal.py'
p3606
sg3444
(dp3607
S'self._listify'
p3608
S'<bound method Table._listify of <Table like (id,like_id,liker,likername)>>'
p3609
sS'fields'
p3610
g21
sS'self'
p3611
S'<Table like (id,like_id,liker,likername)>'
p3612
sS'ret'
p3613
g3485
sS'self._db._adapter'
p3614
S'<gluon.dal.SQLiteAdapter object>'
p3615
sS'self._db._adapter.insert'
p3616
S'<bound method SQLiteAdapter.insert of <gluon.dal.SQLiteAdapter object>>'
p3617
sS'self._db'
p3618
S'<DAL sqlite://storage.sqlite>'
p3619
ssg3450
I7720
sg3451
(dp3620
I7715
S'        return self._db._adapter._insert(self,self._listify(fields))'
p3621
sI7716
S''
sI7717
S'    def insert(self, **fields):'
p3622
sI7718
S'        self._attempt_upload(fields)'
p3623
sI7719
S'        if any(f(fields) for f in self._before_insert): return 0'
p3624
sI7720
S'        ret =  self._db._adapter.insert(self,self._listify(fields))'
p3625
sI7721
S'        if ret and self._after_insert:'
p3626
sI7722
S'            fields = Row(fields)'
p3627
sI7723
S'            [f(fields,ret) for f in self._after_insert]'
p3628
sI7724
S'        return ret'
p3629
ssg3463
S'(self=<Table like (id,like_id,liker,likername)>, **fields={})'
p3630
sg3465
S'insert'
p3631
sa(dp3632
g3442
S'/home/piyush/web2py/gluon/dal.py'
p3633
sg3444
(dp3634
S'e'
S'OperationalError(\'near ")": syntax error\',)'
p3635
ssg3450
I1080
sg3451
(dp3636
I1075
S'        try:'
p3637
sI1076
S'            self.execute(query)'
p3638
sI1077
S'        except Exception, e:'
p3639
sI1078
S'            if isinstance(e,self.integrity_error_class()):'
p3640
sI1079
S'                return None'
p3641
sI1080
S'            raise e'
p3642
sI1081
S"        if hasattr(table,'_primarykey'):"
p3643
sI1082
S'            return dict([(k[0].name, k[1]) for k in fields \\'
p3644
sI1083
S'                             if k[0].name in table._primarykey])'
p3645
sI1084
S'        id = self.lastrowid(table)'
p3646
ssg3463
S'(self=<gluon.dal.SQLiteAdapter object>, table=<Table like (id,like_id,liker,likername)>, fields=[])'
p3647
sg3465
g3631
sasS'pyver'
p3648
S'Python 2.7.2: /usr/bin/python'
p3649
sS'session'
p3650
g61
(g62
g63
NtRp3651
(dp3652
g66
(dp3653
sg68
(lp3654
g61
(g70
g63
NtRp3655
(dp3656
g66
(dp3657
g74
I5
ssg75
Nsg68
(lp3658
g61
(g77
g63
NtRp3659
(dp3660
g66
(dp3661
sg75
g3655
sg68
(lp3662
g61
(g82
g63
NtRp3663
(dp3664
g66
(dp3665
g86
g87
ssg75
g3659
sg68
(lp3666
S'auth'
p3667
asbag61
(g82
g63
NtRp3668
(dp3669
g66
(dp3670
g93
g94
ssg75
g3659
sg68
(lp3671
S':'
asbag61
(g82
g63
NtRp3672
(dp3673
g66
(dp3674
sg75
g3659
sg68
(lp3675
g61
(g62
g63
NtRp3676
(dp3677
g66
(dp3678
g74
I5
ssg75
g3672
sg68
(lp3679
g61
(g70
g63
NtRp3680
(dp3681
g66
(dp3682
g74
I4
ssg75
Nsg68
(lp3683
g61
(g77
g63
NtRp3684
(dp3685
g66
(dp3686
sg75
g3680
sg68
(lp3687
g61
(g82
g63
NtRp3688
(dp3689
g66
(dp3690
g86
g87
ssg75
g3684
sg68
(lp3691
S'expiration'
p3692
asbag61
(g82
g63
NtRp3693
(dp3694
g66
(dp3695
g93
g94
ssg75
g3684
sg68
(lp3696
S':'
asbag61
(g82
g63
NtRp3697
(dp3698
g66
(dp3699
sg75
g3684
sg68
(lp3700
g61
(g62
g63
NtRp3701
(dp3702
g66
(dp3703
g74
I4
ssg75
g3697
sg68
(lp3704
S'3600'
p3705
asbasbasbag61
(g77
g63
NtRp3706
(dp3707
g66
(dp3708
sg75
g3680
sg68
(lp3709
g61
(g82
g63
NtRp3710
(dp3711
g66
(dp3712
g86
g87
ssg75
g3706
sg68
(lp3713
S'hmac_key'
p3714
asbag61
(g82
g63
NtRp3715
(dp3716
g66
(dp3717
g93
g94
ssg75
g3706
sg68
(lp3718
S':'
asbag61
(g82
g63
NtRp3719
(dp3720
g66
(dp3721
sg75
g3706
sg68
(lp3722
g61
(g62
g63
NtRp3723
(dp3724
g66
(dp3725
g74
I4
ssg75
g3719
sg68
(lp3726
S'b651b504-02b8-43bc-bebc-1e7ada2c3fd8'
p3727
asbasbasbag61
(g77
g63
NtRp3728
(dp3729
g66
(dp3730
sg75
g3680
sg68
(lp3731
g61
(g82
g63
NtRp3732
(dp3733
g66
(dp3734
g86
g87
ssg75
g3728
sg68
(lp3735
S'last_visit'
p3736
asbag61
(g82
g63
NtRp3737
(dp3738
g66
(dp3739
g93
g94
ssg75
g3728
sg68
(lp3740
S':'
asbag61
(g82
g63
NtRp3741
(dp3742
g66
(dp3743
sg75
g3728
sg68
(lp3744
g61
(g62
g63
NtRp3745
(dp3746
g66
(dp3747
g74
I4
ssg75
g3741
sg68
(lp3748
S'datetime.datetime(2012, 8, 31, 8, 38, 39, 333009)'
p3749
asbasbasbag61
(g77
g63
NtRp3750
(dp3751
g66
(dp3752
sg75
g3680
sg68
(lp3753
g61
(g82
g63
NtRp3754
(dp3755
g66
(dp3756
g86
g87
ssg75
g3750
sg68
(lp3757
S'user'
p3758
asbag61
(g82
g63
NtRp3759
(dp3760
g66
(dp3761
g93
g94
ssg75
g3750
sg68
(lp3762
S':'
asbag61
(g82
g63
NtRp3763
(dp3764
g66
(dp3765
sg75
g3750
sg68
(lp3766
g61
(g62
g63
NtRp3767
(dp3768
g66
(dp3769
g74
I4
ssg75
g3763
sg68
(lp3770
g61
(g70
g63
NtRp3771
(dp3772
g66
(dp3773
g74
I3
ssg75
Nsg68
(lp3774
g61
(g77
g63
NtRp3775
(dp3776
g66
(dp3777
sg75
g3771
sg68
(lp3778
g61
(g82
g63
NtRp3779
(dp3780
g66
(dp3781
g86
g87
ssg75
g3775
sg68
(lp3782
S'email'
p3783
asbag61
(g82
g63
NtRp3784
(dp3785
g66
(dp3786
g93
g94
ssg75
g3775
sg68
(lp3787
S':'
asbag61
(g82
g63
NtRp3788
(dp3789
g66
(dp3790
sg75
g3775
sg68
(lp3791
g61
(g62
g63
NtRp3792
(dp3793
g66
(dp3794
g74
I3
ssg75
g3788
sg68
(lp3795
S'test@test.com'
p3796
asbasbasbag61
(g77
g63
NtRp3797
(dp3798
g66
(dp3799
sg75
g3771
sg68
(lp3800
g61
(g82
g63
NtRp3801
(dp3802
g66
(dp3803
g86
g87
ssg75
g3797
sg68
(lp3804
S'first_name'
p3805
asbag61
(g82
g63
NtRp3806
(dp3807
g66
(dp3808
g93
g94
ssg75
g3797
sg68
(lp3809
S':'
asbag61
(g82
g63
NtRp3810
(dp3811
g66
(dp3812
sg75
g3797
sg68
(lp3813
g61
(g62
g63
NtRp3814
(dp3815
g66
(dp3816
g74
I3
ssg75
g3810
sg68
(lp3817
S'test1'
p3818
asbasbasbag61
(g77
g63
NtRp3819
(dp3820
g66
(dp3821
sg75
g3771
sg68
(lp3822
g61
(g82
g63
NtRp3823
(dp3824
g66
(dp3825
g86
g87
ssg75
g3819
sg68
(lp3826
S'id'
p3827
asbag61
(g82
g63
NtRp3828
(dp3829
g66
(dp3830
g93
g94
ssg75
g3819
sg68
(lp3831
S':'
asbag61
(g82
g63
NtRp3832
(dp3833
g66
(dp3834
sg75
g3819
sg68
(lp3835
g61
(g62
g63
NtRp3836
(dp3837
g66
(dp3838
g74
I3
ssg75
g3832
sg68
(lp3839
S'2'
asbasbasbag61
(g77
g63
NtRp3840
(dp3841
g66
(dp3842
sg75
g3771
sg68
(lp3843
g61
(g82
g63
NtRp3844
(dp3845
g66
(dp3846
g86
g87
ssg75
g3840
sg68
(lp3847
S'last_name'
p3848
asbag61
(g82
g63
NtRp3849
(dp3850
g66
(dp3851
g93
g94
ssg75
g3840
sg68
(lp3852
S':'
asbag61
(g82
g63
NtRp3853
(dp3854
g66
(dp3855
sg75
g3840
sg68
(lp3856
g61
(g62
g63
NtRp3857
(dp3858
g66
(dp3859
g74
I3
ssg75
g3853
sg68
(lp3860
S'test2'
p3861
asbasbasbag61
(g77
g63
NtRp3862
(dp3863
g66
(dp3864
sg75
g3771
sg68
(lp3865
g61
(g82
g63
NtRp3866
(dp3867
g66
(dp3868
g86
g87
ssg75
g3862
sg68
(lp3869
S'password'
p3870
asbag61
(g82
g63
NtRp3871
(dp3872
g66
(dp3873
g93
g94
ssg75
g3862
sg68
(lp3874
S':'
asbag61
(g82
g63
NtRp3875
(dp3876
g66
(dp3877
sg75
g3862
sg68
(lp3878
g61
(g62
g63
NtRp3879
(dp3880
g66
(dp3881
g74
I3
ssg75
g3875
sg68
(lp3882
S'pbkdf2(1000,20,sha512)$bf1b0cd5effc57ad$cd5a5dc22ea4c46296a9202ea5ffd2563ba2f85c'
p3883
asbasbasbag61
(g77
g63
NtRp3884
(dp3885
g66
(dp3886
sg75
g3771
sg68
(lp3887
g61
(g82
g63
NtRp3888
(dp3889
g66
(dp3890
g86
g87
ssg75
g3884
sg68
(lp3891
S'registration_id'
p3892
asbag61
(g82
g63
NtRp3893
(dp3894
g66
(dp3895
g93
g94
ssg75
g3884
sg68
(lp3896
S':'
asbag61
(g82
g63
NtRp3897
(dp3898
g66
(dp3899
sg75
g3884
sg68
(lp3900
g61
(g62
g63
NtRp3901
(dp3902
g66
(dp3903
g74
I3
ssg75
g3897
sg68
(lp3904
S''
asbasbasbag61
(g77
g63
NtRp3905
(dp3906
g66
(dp3907
sg75
g3771
sg68
(lp3908
g61
(g82
g63
NtRp3909
(dp3910
g66
(dp3911
g86
g87
ssg75
g3905
sg68
(lp3912
S'registration_key'
p3913
asbag61
(g82
g63
NtRp3914
(dp3915
g66
(dp3916
g93
g94
ssg75
g3905
sg68
(lp3917
S':'
asbag61
(g82
g63
NtRp3918
(dp3919
g66
(dp3920
sg75
g3905
sg68
(lp3921
g61
(g62
g63
NtRp3922
(dp3923
g66
(dp3924
g74
I3
ssg75
g3918
sg68
(lp3925
S''
asbasbasbag61
(g77
g63
NtRp3926
(dp3927
g66
(dp3928
sg75
g3771
sg68
(lp3929
g61
(g82
g63
NtRp3930
(dp3931
g66
(dp3932
g86
g87
ssg75
g3926
sg68
(lp3933
S'reset_password_key'
p3934
asbag61
(g82
g63
NtRp3935
(dp3936
g66
(dp3937
g93
g94
ssg75
g3926
sg68
(lp3938
S':'
asbag61
(g82
g63
NtRp3939
(dp3940
g66
(dp3941
sg75
g3926
sg68
(lp3942
g61
(g62
g63
NtRp3943
(dp3944
g66
(dp3945
g74
I3
ssg75
g3939
sg68
(lp3946
S''
asbasbasbasbasbasbasbag61
(g77
g63
NtRp3947
(dp3948
g66
(dp3949
sg75
g3680
sg68
(lp3950
g61
(g82
g63
NtRp3951
(dp3952
g66
(dp3953
g86
g87
ssg75
g3947
sg68
(lp3954
S'user_groups'
p3955
asbag61
(g82
g63
NtRp3956
(dp3957
g66
(dp3958
g93
g94
ssg75
g3947
sg68
(lp3959
S':'
asbag61
(g82
g63
NtRp3960
(dp3961
g66
(dp3962
sg75
g3947
sg68
(lp3963
g61
(g62
g63
NtRp3964
(dp3965
g66
(dp3966
g74
I4
ssg75
g3960
sg68
(lp3967
g61
(g70
g63
NtRp3968
(dp3969
g66
(dp3970
g74
I3
ssg75
Nsg68
(lp3971
g61
(g77
g63
NtRp3972
(dp3973
g66
(dp3974
sg75
g3968
sg68
(lp3975
g61
(g82
g63
NtRp3976
(dp3977
g66
(dp3978
g86
g87
ssg75
g3972
sg68
(lp3979
S'2'
asbag61
(g82
g63
NtRp3980
(dp3981
g66
(dp3982
g93
g94
ssg75
g3972
sg68
(lp3983
S':'
asbag61
(g82
g63
NtRp3984
(dp3985
g66
(dp3986
sg75
g3972
sg68
(lp3987
g61
(g62
g63
NtRp3988
(dp3989
g66
(dp3990
g74
I3
ssg75
g3984
sg68
(lp3991
S'user_2'
p3992
asbasbasbasbasbasbasbasbasbasbasbag61
(g77
g63
NtRp3993
(dp3994
g66
(dp3995
sg75
g3655
sg68
(lp3996
g61
(g82
g63
NtRp3997
(dp3998
g66
(dp3999
g86
g87
ssg75
g3993
sg68
(lp4000
S'flash'
p4001
asbag61
(g82
g63
NtRp4002
(dp4003
g66
(dp4004
g93
g94
ssg75
g3993
sg68
(lp4005
S':'
asbag61
(g82
g63
NtRp4006
(dp4007
g66
(dp4008
sg75
g3993
sg68
(lp4009
g61
(g62
g63
NtRp4010
(dp4011
g66
(dp4012
g74
I5
ssg75
g4006
sg68
(lp4013
S'None'
p4014
asbasbasbag61
(g77
g63
NtRp4015
(dp4016
g66
(dp4017
sg75
g3655
sg68
(lp4018
g61
(g82
g63
NtRp4019
(dp4020
g66
(dp4021
g86
g87
ssg75
g4015
sg68
(lp4022
S'last_orderby'
p4023
asbag61
(g82
g63
NtRp4024
(dp4025
g66
(dp4026
g93
g94
ssg75
g4015
sg68
(lp4027
S':'
asbag61
(g82
g63
NtRp4028
(dp4029
g66
(dp4030
sg75
g4015
sg68
(lp4031
g61
(g62
g63
NtRp4032
(dp4033
g66
(dp4034
g74
I5
ssg75
g4028
sg68
(lp4035
S'None'
p4036
asbasbasbag61
(g77
g63
NtRp4037
(dp4038
g66
(dp4039
sg75
g3655
sg68
(lp4040
g61
(g82
g63
NtRp4041
(dp4042
g66
(dp4043
g86
g87
ssg75
g4037
sg68
(lp4044
S'last_query'
p4045
asbag61
(g82
g63
NtRp4046
(dp4047
g66
(dp4048
g93
g94
ssg75
g4037
sg68
(lp4049
S':'
asbag61
(g82
g63
NtRp4050
(dp4051
g66
(dp4052
sg75
g4037
sg68
(lp4053
g61
(g62
g63
NtRp4054
(dp4055
g66
(dp4056
g74
I5
ssg75
g4050
sg68
(lp4057
S'db.image.id>0'
p4058
asbasbasbasbasbsS'etype'
p4059
S"<class 'sqlite3.OperationalError'>"
p4060
sS'date'
p4061
S'Fri Aug 31 08:38:39 2012'
p4062
sS'response'
p4063
g61
(g62
g63
NtRp4064
(dp4065
g66
(dp4066
sg68
(lp4067
g61
(g70
g63
NtRp4068
(dp4069
g66
(dp4070
g74
I5
ssg75
Nsg68
(lp4071
g61
(g77
g63
NtRp4072
(dp4073
g66
(dp4074
sg75
g4068
sg68
(lp4075
g61
(g82
g63
NtRp4076
(dp4077
g66
(dp4078
g86
g87
ssg75
g4072
sg68
(lp4079
g171
asbag61
(g82
g63
NtRp4080
(dp4081
g66
(dp4082
g93
g94
ssg75
g4072
sg68
(lp4083
S':'
asbag61
(g82
g63
NtRp4084
(dp4085
g66
(dp4086
sg75
g4072
sg68
(lp4087
g61
(g62
g63
NtRp4088
(dp4089
g66
(dp4090
g74
I5
ssg75
g4084
sg68
(lp4091
S'<cStringIO.StringO object at 0xaf45d500>'
p4092
asbasbasbag61
(g77
g63
NtRp4093
(dp4094
g66
(dp4095
sg75
g4068
sg68
(lp4096
g61
(g82
g63
NtRp4097
(dp4098
g66
(dp4099
g86
g87
ssg75
g4093
sg68
(lp4100
g259
asbag61
(g82
g63
NtRp4101
(dp4102
g66
(dp4103
g93
g94
ssg75
g4093
sg68
(lp4104
S':'
asbag61
(g82
g63
NtRp4105
(dp4106
g66
(dp4107
sg75
g4093
sg68
(lp4108
g61
(g62
g63
NtRp4109
(dp4110
g66
(dp4111
g74
I5
ssg75
g4105
sg68
(lp4112
g61
(g70
g63
NtRp4113
(dp4114
g66
(dp4115
g74
I4
ssg75
Nsg68
(lp4116
g61
(g77
g63
NtRp4117
(dp4118
g66
(dp4119
sg75
g4113
sg68
(lp4120
g61
(g82
g63
NtRp4121
(dp4122
g66
(dp4123
g86
g87
ssg75
g4117
sg68
(lp4124
S'session_id_fotobuk'
p4125
asbag61
(g82
g63
NtRp4126
(dp4127
g66
(dp4128
g93
g94
ssg75
g4117
sg68
(lp4129
S':'
asbag61
(g82
g63
NtRp4130
(dp4131
g66
(dp4132
sg75
g4117
sg68
(lp4133
g61
(g62
g63
NtRp4134
(dp4135
g66
(dp4136
g74
I4
ssg75
g4130
sg68
(lp4137
g491
ag61
(g70
g63
NtRp4138
(dp4139
g66
(dp4140
g74
I3
ssg75
Nsg68
(lp4141
g61
(g77
g63
NtRp4142
(dp4143
g66
(dp4144
sg75
g4138
sg68
(lp4145
g61
(g82
g63
NtRp4146
(dp4147
g66
(dp4148
g86
g87
ssg75
g4142
sg68
(lp4149
g310
asbag61
(g82
g63
NtRp4150
(dp4151
g66
(dp4152
g93
g94
ssg75
g4142
sg68
(lp4153
S':'
asbag61
(g82
g63
NtRp4154
(dp4155
g66
(dp4156
sg75
g4142
sg68
(lp4157
g61
(g62
g63
NtRp4158
(dp4159
g66
(dp4160
g74
I3
ssg75
g4154
sg68
(lp4161
S''
asbasbasbag61
(g77
g63
NtRp4162
(dp4163
g66
(dp4164
sg75
g4138
sg68
(lp4165
g61
(g82
g63
NtRp4166
(dp4167
g66
(dp4168
g86
g87
ssg75
g4162
sg68
(lp4169
g331
asbag61
(g82
g63
NtRp4170
(dp4171
g66
(dp4172
g93
g94
ssg75
g4162
sg68
(lp4173
S':'
asbag61
(g82
g63
NtRp4174
(dp4175
g66
(dp4176
sg75
g4162
sg68
(lp4177
g61
(g62
g63
NtRp4178
(dp4179
g66
(dp4180
g74
I3
ssg75
g4174
sg68
(lp4181
S''
asbasbasbag61
(g77
g63
NtRp4182
(dp4183
g66
(dp4184
sg75
g4138
sg68
(lp4185
g61
(g82
g63
NtRp4186
(dp4187
g66
(dp4188
g86
g87
ssg75
g4182
sg68
(lp4189
g352
asbag61
(g82
g63
NtRp4190
(dp4191
g66
(dp4192
g93
g94
ssg75
g4182
sg68
(lp4193
S':'
asbag61
(g82
g63
NtRp4194
(dp4195
g66
(dp4196
sg75
g4182
sg68
(lp4197
g61
(g62
g63
NtRp4198
(dp4199
g66
(dp4200
g74
I3
ssg75
g4194
sg68
(lp4201
S''
asbasbasbag61
(g77
g63
NtRp4202
(dp4203
g66
(dp4204
sg75
g4138
sg68
(lp4205
g61
(g82
g63
NtRp4206
(dp4207
g66
(dp4208
g86
g87
ssg75
g4202
sg68
(lp4209
g373
asbag61
(g82
g63
NtRp4210
(dp4211
g66
(dp4212
g93
g94
ssg75
g4202
sg68
(lp4213
S':'
asbag61
(g82
g63
NtRp4214
(dp4215
g66
(dp4216
sg75
g4202
sg68
(lp4217
g61
(g62
g63
NtRp4218
(dp4219
g66
(dp4220
g74
I3
ssg75
g4214
sg68
(lp4221
S''
asbasbasbag61
(g77
g63
NtRp4222
(dp4223
g66
(dp4224
sg75
g4138
sg68
(lp4225
g61
(g82
g63
NtRp4226
(dp4227
g66
(dp4228
g86
g87
ssg75
g4222
sg68
(lp4229
g394
asbag61
(g82
g63
NtRp4230
(dp4231
g66
(dp4232
g93
g94
ssg75
g4222
sg68
(lp4233
S':'
asbag61
(g82
g63
NtRp4234
(dp4235
g66
(dp4236
sg75
g4222
sg68
(lp4237
g61
(g62
g63
NtRp4238
(dp4239
g66
(dp4240
g74
I3
ssg75
g4234
sg68
(lp4241
S''
asbasbasbag61
(g77
g63
NtRp4242
(dp4243
g66
(dp4244
sg75
g4138
sg68
(lp4245
g61
(g82
g63
NtRp4246
(dp4247
g66
(dp4248
g86
g87
ssg75
g4242
sg68
(lp4249
g415
asbag61
(g82
g63
NtRp4250
(dp4251
g66
(dp4252
g93
g94
ssg75
g4242
sg68
(lp4253
S':'
asbag61
(g82
g63
NtRp4254
(dp4255
g66
(dp4256
sg75
g4242
sg68
(lp4257
g61
(g62
g63
NtRp4258
(dp4259
g66
(dp4260
g74
I3
ssg75
g4254
sg68
(lp4261
S'/'
asbasbasbag61
(g77
g63
NtRp4262
(dp4263
g66
(dp4264
sg75
g4138
sg68
(lp4265
g61
(g82
g63
NtRp4266
(dp4267
g66
(dp4268
g86
g87
ssg75
g4262
sg68
(lp4269
g436
asbag61
(g82
g63
NtRp4270
(dp4271
g66
(dp4272
g93
g94
ssg75
g4262
sg68
(lp4273
S':'
asbag61
(g82
g63
NtRp4274
(dp4275
g66
(dp4276
sg75
g4262
sg68
(lp4277
g61
(g62
g63
NtRp4278
(dp4279
g66
(dp4280
g74
I3
ssg75
g4274
sg68
(lp4281
S''
asbasbasbag61
(g77
g63
NtRp4282
(dp4283
g66
(dp4284
sg75
g4138
sg68
(lp4285
g61
(g82
g63
NtRp4286
(dp4287
g66
(dp4288
g86
g87
ssg75
g4282
sg68
(lp4289
g457
asbag61
(g82
g63
NtRp4290
(dp4291
g66
(dp4292
g93
g94
ssg75
g4282
sg68
(lp4293
S':'
asbag61
(g82
g63
NtRp4294
(dp4295
g66
(dp4296
sg75
g4282
sg68
(lp4297
g61
(g62
g63
NtRp4298
(dp4299
g66
(dp4300
g74
I3
ssg75
g4294
sg68
(lp4301
S''
asbasbasbasbasbasbasbasbasbasbasbag61
(g77
g63
NtRp4302
(dp4303
g66
(dp4304
sg75
g4068
sg68
(lp4305
g61
(g82
g63
NtRp4306
(dp4307
g66
(dp4308
g86
g87
ssg75
g4302
sg68
(lp4309
S'delimiters'
p4310
asbag61
(g82
g63
NtRp4311
(dp4312
g66
(dp4313
g93
g94
ssg75
g4302
sg68
(lp4314
S':'
asbag61
(g82
g63
NtRp4315
(dp4316
g66
(dp4317
sg75
g4302
sg68
(lp4318
g61
(g62
g63
NtRp4319
(dp4320
g66
(dp4321
g74
I5
ssg75
g4315
sg68
(lp4322
g61
(g70
g63
NtRp4323
(dp4324
g66
(dp4325
g74
I4
ssg75
Nsg68
(lp4326
g61
(g77
g63
NtRp4327
(dp4328
g66
(dp4329
sg75
g4323
sg68
(lp4330
g61
(g82
g63
NtRp4331
(dp4332
g66
(dp4333
sg75
g4327
sg68
(lp4334
g61
(g62
g63
NtRp4335
(dp4336
g66
(dp4337
g74
I4
ssg75
g4331
sg68
(lp4338
S'{{'
p4339
asbasbasbag61
(g77
g63
NtRp4340
(dp4341
g66
(dp4342
sg75
g4323
sg68
(lp4343
g61
(g82
g63
NtRp4344
(dp4345
g66
(dp4346
sg75
g4340
sg68
(lp4347
g61
(g62
g63
NtRp4348
(dp4349
g66
(dp4350
g74
I4
ssg75
g4344
sg68
(lp4351
S'}}'
p4352
asbasbasbasbasbasbasbag61
(g77
g63
NtRp4353
(dp4354
g66
(dp4355
sg75
g4068
sg68
(lp4356
g61
(g82
g63
NtRp4357
(dp4358
g66
(dp4359
g86
g87
ssg75
g4353
sg68
(lp4360
S'files'
p4361
asbag61
(g82
g63
NtRp4362
(dp4363
g66
(dp4364
g93
g94
ssg75
g4353
sg68
(lp4365
S':'
asbag61
(g82
g63
NtRp4366
(dp4367
g66
(dp4368
sg75
g4353
sg68
(lp4369
g61
(g62
g63
NtRp4370
(dp4371
g66
(dp4372
g74
I5
ssg75
g4366
sg68
(lp4373
g61
(g70
g63
NtRp4374
(dp4375
g66
(dp4376
g74
I4
ssg75
Nsg68
(lp4377
sbasbasbasbag61
(g77
g63
NtRp4378
(dp4379
g66
(dp4380
sg75
g4068
sg68
(lp4381
g61
(g82
g63
NtRp4382
(dp4383
g66
(dp4384
g86
g87
ssg75
g4378
sg68
(lp4385
S'flash'
p4386
asbag61
(g82
g63
NtRp4387
(dp4388
g66
(dp4389
g93
g94
ssg75
g4378
sg68
(lp4390
S':'
asbag61
(g82
g63
NtRp4391
(dp4392
g66
(dp4393
sg75
g4378
sg68
(lp4394
g61
(g62
g63
NtRp4395
(dp4396
g66
(dp4397
g74
I5
ssg75
g4391
sg68
(lp4398
S''
asbasbasbag61
(g77
g63
NtRp4399
(dp4400
g66
(dp4401
sg75
g4068
sg68
(lp4402
g61
(g82
g63
NtRp4403
(dp4404
g66
(dp4405
g86
g87
ssg75
g4399
sg68
(lp4406
S'generic_patterns'
p4407
asbag61
(g82
g63
NtRp4408
(dp4409
g66
(dp4410
g93
g94
ssg75
g4399
sg68
(lp4411
S':'
asbag61
(g82
g63
NtRp4412
(dp4413
g66
(dp4414
sg75
g4399
sg68
(lp4415
g61
(g62
g63
NtRp4416
(dp4417
g66
(dp4418
g74
I5
ssg75
g4412
sg68
(lp4419
g61
(g70
g63
NtRp4420
(dp4421
g66
(dp4422
g74
I4
ssg75
Nsg68
(lp4423
sbasbasbasbag61
(g77
g63
NtRp4424
(dp4425
g66
(dp4426
sg75
g4068
sg68
(lp4427
g61
(g82
g63
NtRp4428
(dp4429
g66
(dp4430
g86
g87
ssg75
g4424
sg68
(lp4431
S'google_analytics_id'
p4432
asbag61
(g82
g63
NtRp4433
(dp4434
g66
(dp4435
g93
g94
ssg75
g4424
sg68
(lp4436
S':'
asbag61
(g82
g63
NtRp4437
(dp4438
g66
(dp4439
sg75
g4424
sg68
(lp4440
g61
(g62
g63
NtRp4441
(dp4442
g66
(dp4443
g74
I5
ssg75
g4437
sg68
(lp4444
S'None'
p4445
asbasbasbag61
(g77
g63
NtRp4446
(dp4447
g66
(dp4448
sg75
g4068
sg68
(lp4449
g61
(g82
g63
NtRp4450
(dp4451
g66
(dp4452
g86
g87
ssg75
g4446
sg68
(lp4453
S'headers'
p4454
asbag61
(g82
g63
NtRp4455
(dp4456
g66
(dp4457
g93
g94
ssg75
g4446
sg68
(lp4458
S':'
asbag61
(g82
g63
NtRp4459
(dp4460
g66
(dp4461
sg75
g4446
sg68
(lp4462
g61
(g62
g63
NtRp4463
(dp4464
g66
(dp4465
g74
I5
ssg75
g4459
sg68
(lp4466
g61
(g70
g63
NtRp4467
(dp4468
g66
(dp4469
g74
I4
ssg75
Nsg68
(lp4470
g61
(g77
g63
NtRp4471
(dp4472
g66
(dp4473
sg75
g4467
sg68
(lp4474
g61
(g82
g63
NtRp4475
(dp4476
g66
(dp4477
g86
g87
ssg75
g4471
sg68
(lp4478
S'Cache-Control'
p4479
asbag61
(g82
g63
NtRp4480
(dp4481
g66
(dp4482
g93
g94
ssg75
g4471
sg68
(lp4483
S':'
asbag61
(g82
g63
NtRp4484
(dp4485
g66
(dp4486
sg75
g4471
sg68
(lp4487
g61
(g62
g63
NtRp4488
(dp4489
g66
(dp4490
g74
I4
ssg75
g4484
sg68
(lp4491
S'no-store, no-cache, must-revalidate, post-check=0, pre-check=0'
p4492
asbasbasbag61
(g77
g63
NtRp4493
(dp4494
g66
(dp4495
sg75
g4467
sg68
(lp4496
g61
(g82
g63
NtRp4497
(dp4498
g66
(dp4499
g86
g87
ssg75
g4493
sg68
(lp4500
S'Content-Type'
p4501
asbag61
(g82
g63
NtRp4502
(dp4503
g66
(dp4504
g93
g94
ssg75
g4493
sg68
(lp4505
S':'
asbag61
(g82
g63
NtRp4506
(dp4507
g66
(dp4508
sg75
g4493
sg68
(lp4509
g61
(g62
g63
NtRp4510
(dp4511
g66
(dp4512
g74
I4
ssg75
g4506
sg68
(lp4513
S'text/html; charset=utf-8'
p4514
asbasbasbag61
(g77
g63
NtRp4515
(dp4516
g66
(dp4517
sg75
g4467
sg68
(lp4518
g61
(g82
g63
NtRp4519
(dp4520
g66
(dp4521
g86
g87
ssg75
g4515
sg68
(lp4522
S'Expires'
p4523
asbag61
(g82
g63
NtRp4524
(dp4525
g66
(dp4526
g93
g94
ssg75
g4515
sg68
(lp4527
S':'
asbag61
(g82
g63
NtRp4528
(dp4529
g66
(dp4530
sg75
g4515
sg68
(lp4531
g61
(g62
g63
NtRp4532
(dp4533
g66
(dp4534
g74
I4
ssg75
g4528
sg68
(lp4535
S'Fri, 31 Aug 2012 03:08:39 GMT'
p4536
asbasbasbag61
(g77
g63
NtRp4537
(dp4538
g66
(dp4539
sg75
g4467
sg68
(lp4540
g61
(g82
g63
NtRp4541
(dp4542
g66
(dp4543
g86
g87
ssg75
g4537
sg68
(lp4544
S'Pragma'
p4545
asbag61
(g82
g63
NtRp4546
(dp4547
g66
(dp4548
g93
g94
ssg75
g4537
sg68
(lp4549
S':'
asbag61
(g82
g63
NtRp4550
(dp4551
g66
(dp4552
sg75
g4537
sg68
(lp4553
g61
(g62
g63
NtRp4554
(dp4555
g66
(dp4556
g74
I4
ssg75
g4550
sg68
(lp4557
S'no-cache'
p4558
asbasbasbag61
(g77
g63
NtRp4559
(dp4560
g66
(dp4561
sg75
g4467
sg68
(lp4562
g61
(g82
g63
NtRp4563
(dp4564
g66
(dp4565
g86
g87
ssg75
g4559
sg68
(lp4566
S'X-Powered-By'
p4567
asbag61
(g82
g63
NtRp4568
(dp4569
g66
(dp4570
g93
g94
ssg75
g4559
sg68
(lp4571
S':'
asbag61
(g82
g63
NtRp4572
(dp4573
g66
(dp4574
sg75
g4559
sg68
(lp4575
g61
(g62
g63
NtRp4576
(dp4577
g66
(dp4578
g74
I4
ssg75
g4572
sg68
(lp4579
S'web2py'
p4580
asbasbasbasbasbasbasbag61
(g77
g63
NtRp4581
(dp4582
g66
(dp4583
sg75
g4068
sg68
(lp4584
g61
(g82
g63
NtRp4585
(dp4586
g66
(dp4587
g86
g87
ssg75
g4581
sg68
(lp4588
S'menu'
p4589
asbag61
(g82
g63
NtRp4590
(dp4591
g66
(dp4592
g93
g94
ssg75
g4581
sg68
(lp4593
S':'
asbag61
(g82
g63
NtRp4594
(dp4595
g66
(dp4596
sg75
g4581
sg68
(lp4597
g61
(g62
g63
NtRp4598
(dp4599
g66
(dp4600
g74
I5
ssg75
g4594
sg68
(lp4601
g61
(g70
g63
NtRp4602
(dp4603
g66
(dp4604
g74
I4
ssg75
Nsg68
(lp4605
g61
(g77
g63
NtRp4606
(dp4607
g66
(dp4608
sg75
g4602
sg68
(lp4609
g61
(g82
g63
NtRp4610
(dp4611
g66
(dp4612
sg75
g4606
sg68
(lp4613
g61
(g62
g63
NtRp4614
(dp4615
g66
(dp4616
g74
I4
ssg75
g4610
sg68
(lp4617
g61
(g70
g63
NtRp4618
(dp4619
g66
(dp4620
g74
I3
ssg75
Nsg68
(lp4621
g61
(g77
g63
NtRp4622
(dp4623
g66
(dp4624
sg75
g4618
sg68
(lp4625
g61
(g82
g63
NtRp4626
(dp4627
g66
(dp4628
sg75
g4622
sg68
(lp4629
g61
(g62
g63
NtRp4630
(dp4631
g66
(dp4632
g74
I3
ssg75
g4626
sg68
(lp4633
cgluon.languages
lazyT_unpickle
p4634
(S's\x04\x00\x00\x00Home'
tRp4635
asbasbasbag61
(g77
g63
NtRp4636
(dp4637
g66
(dp4638
sg75
g4618
sg68
(lp4639
g61
(g82
g63
NtRp4640
(dp4641
g66
(dp4642
sg75
g4636
sg68
(lp4643
g61
(g62
g63
NtRp4644
(dp4645
g66
(dp4646
g74
I3
ssg75
g4640
sg68
(lp4647
g104
asbasbasbag61
(g77
g63
NtRp4648
(dp4649
g66
(dp4650
sg75
g4618
sg68
(lp4651
g61
(g82
g63
NtRp4652
(dp4653
g66
(dp4654
sg75
g4648
sg68
(lp4655
g61
(g62
g63
NtRp4656
(dp4657
g66
(dp4658
g74
I3
ssg75
g4652
sg68
(lp4659
S'/FotoBuk/default/index'
p4660
asbasbasbag61
(g77
g63
NtRp4661
(dp4662
g66
(dp4663
sg75
g4618
sg68
(lp4664
g61
(g82
g63
NtRp4665
(dp4666
g66
(dp4667
sg75
g4661
sg68
(lp4668
g61
(g62
g63
NtRp4669
(dp4670
g66
(dp4671
g74
I3
ssg75
g4665
sg68
(lp4672
g61
(g70
g63
NtRp4673
(dp4674
g66
(dp4675
g74
I2
ssg75
Nsg68
(lp4676
sbasbasbasbasbasbasbasbag61
(g77
g63
NtRp4677
(dp4678
g66
(dp4679
sg75
g4602
sg68
(lp4680
g61
(g82
g63
NtRp4681
(dp4682
g66
(dp4683
sg75
g4677
sg68
(lp4684
g61
(g62
g63
NtRp4685
(dp4686
g66
(dp4687
g74
I4
ssg75
g4681
sg68
(lp4688
g61
(g70
g63
NtRp4689
(dp4690
g66
(dp4691
g74
I3
ssg75
Nsg68
(lp4692
g61
(g77
g63
NtRp4693
(dp4694
g66
(dp4695
sg75
g4689
sg68
(lp4696
g61
(g82
g63
NtRp4697
(dp4698
g66
(dp4699
sg75
g4693
sg68
(lp4700
g61
(g62
g63
NtRp4701
(dp4702
g66
(dp4703
g74
I3
ssg75
g4697
sg68
(lp4704
g61
(cgluon.html
SPAN
p4705
g63
NtRp4706
(dp4707
g66
(dp4708
g86
S'color:yellow'
p4709
ssg75
Nsg68
(lp4710
g4580
asbasbasbasbag61
(g77
g63
NtRp4711
(dp4712
g66
(dp4713
sg75
g4689
sg68
(lp4714
g61
(g82
g63
NtRp4715
(dp4716
g66
(dp4717
sg75
g4711
sg68
(lp4718
g61
(g62
g63
NtRp4719
(dp4720
g66
(dp4721
g74
I3
ssg75
g4715
sg68
(lp4722
g104
asbasbasbag61
(g77
g63
NtRp4723
(dp4724
g66
(dp4725
sg75
g4689
sg68
(lp4726
g61
(g82
g63
NtRp4727
(dp4728
g66
(dp4729
sg75
g4723
sg68
(lp4730
g61
(g62
g63
NtRp4731
(dp4732
g66
(dp4733
g74
I3
ssg75
g4727
sg68
(lp4734
S'http://web2py.com'
p4735
asbasbasbag61
(g77
g63
NtRp4736
(dp4737
g66
(dp4738
sg75
g4689
sg68
(lp4739
g61
(g82
g63
NtRp4740
(dp4741
g66
(dp4742
sg75
g4736
sg68
(lp4743
g61
(g62
g63
NtRp4744
(dp4745
g66
(dp4746
g74
I3
ssg75
g4740
sg68
(lp4747
g61
(g70
g63
NtRp4748
(dp4749
g66
(dp4750
g74
I2
ssg75
Nsg68
(lp4751
g61
(g77
g63
NtRp4752
(dp4753
g66
(dp4754
sg75
g4748
sg68
(lp4755
g61
(g82
g63
NtRp4756
(dp4757
g66
(dp4758
sg75
g4752
sg68
(lp4759
g61
(g62
g63
NtRp4760
(dp4761
g66
(dp4762
g74
I2
ssg75
g4756
sg68
(lp4763
g61
(g70
g63
NtRp4764
(dp4765
g66
(dp4766
g74
I1
ssg75
Nsg68
(lp4767
g61
(g77
g63
NtRp4768
(dp4769
g66
(dp4770
sg75
g4764
sg68
(lp4771
g61
(g82
g63
NtRp4772
(dp4773
g66
(dp4774
sg75
g4768
sg68
(lp4775
g61
(g62
g63
NtRp4776
(dp4777
g66
(dp4778
g74
I1
ssg75
g4772
sg68
(lp4779
g4634
(S's\x08\x00\x00\x00My Sites'
tRp4780
asbasbasbag61
(g77
g63
NtRp4781
(dp4782
g66
(dp4783
sg75
g4764
sg68
(lp4784
g61
(g82
g63
NtRp4785
(dp4786
g66
(dp4787
sg75
g4781
sg68
(lp4788
g61
(g62
g63
NtRp4789
(dp4790
g66
(dp4791
g74
I1
ssg75
g4785
sg68
(lp4792
I00
asbasbasbag61
(g77
g63
NtRp4793
(dp4794
g66
(dp4795
sg75
g4764
sg68
(lp4796
g61
(g82
g63
NtRp4797
(dp4798
g66
(dp4799
sg75
g4793
sg68
(lp4800
g61
(g62
g63
NtRp4801
(dp4802
g66
(dp4803
g74
I1
ssg75
g4797
sg68
(lp4804
S'/admin/default/site'
p4805
asbasbasbasbasbasbasbag61
(g77
g63
NtRp4806
(dp4807
g66
(dp4808
sg75
g4748
sg68
(lp4809
g61
(g82
g63
NtRp4810
(dp4811
g66
(dp4812
sg75
g4806
sg68
(lp4813
g61
(g62
g63
NtRp4814
(dp4815
g66
(dp4816
g74
I2
ssg75
g4810
sg68
(lp4817
g61
(g70
g63
NtRp4818
(dp4819
g66
(dp4820
g74
I1
ssg75
Nsg68
(lp4821
g61
(g77
g63
NtRp4822
(dp4823
g66
(dp4824
sg75
g4818
sg68
(lp4825
g61
(g82
g63
NtRp4826
(dp4827
g66
(dp4828
sg75
g4822
sg68
(lp4829
g61
(g62
g63
NtRp4830
(dp4831
g66
(dp4832
g74
I1
ssg75
g4826
sg68
(lp4833
g4634
(S's\x08\x00\x00\x00This App'
tRp4834
asbasbasbag61
(g77
g63
NtRp4835
(dp4836
g66
(dp4837
sg75
g4818
sg68
(lp4838
g61
(g82
g63
NtRp4839
(dp4840
g66
(dp4841
sg75
g4835
sg68
(lp4842
g61
(g62
g63
NtRp4843
(dp4844
g66
(dp4845
g74
I1
ssg75
g4839
sg68
(lp4846
I00
asbasbasbag61
(g77
g63
NtRp4847
(dp4848
g66
(dp4849
sg75
g4818
sg68
(lp4850
g61
(g82
g63
NtRp4851
(dp4852
g66
(dp4853
sg75
g4847
sg68
(lp4854
g61
(g62
g63
NtRp4855
(dp4856
g66
(dp4857
g74
I1
ssg75
g4851
sg68
(lp4858
S'/admin/default/design/FotoBuk'
p4859
asbasbasbag61
(g77
g63
NtRp4860
(dp4861
g66
(dp4862
sg75
g4818
sg68
(lp4863
g61
(g82
g63
NtRp4864
(dp4865
g66
(dp4866
sg75
g4860
sg68
(lp4867
g61
(g62
g63
NtRp4868
(dp4869
g66
(dp4870
g74
I1
ssg75
g4864
sg68
(lp4871
(lp4872
(g4634
(S's\n\x00\x00\x00Controller'
tRp4873
I00
S'/admin/default/edit/FotoBuk/controllers/default.py'
tp4874
a(g4634
(S's\x04\x00\x00\x00View'
tRp4875
I00
S'/admin/default/edit/FotoBuk/views/default/show.html'
tp4876
a(g4634
(S's\x06\x00\x00\x00Layout'
tRp4877
I00
S'/admin/default/edit/FotoBuk/views/layout.html'
tp4878
a(g4634
(S's\n\x00\x00\x00Stylesheet'
tRp4879
I00
S'/admin/default/edit/FotoBuk/static/css/web2py.css'
tp4880
a(g4634
(S's\x08\x00\x00\x00DB Model'
tRp4881
I00
S'/admin/default/edit/FotoBuk/models/db.py'
tp4882
a(g4634
(S's\n\x00\x00\x00Menu Model'
tRp4883
I00
S'/admin/default/edit/FotoBuk/models/menu.py'
tp4884
a(g4634
(S's\x08\x00\x00\x00Database'
tRp4885
I00
S'/FotoBuk/appadmin/index'
tp4886
a(g4634
(S's\x06\x00\x00\x00Errors'
tRp4887
I00
S'/admin/default/errors/FotoBuk'
tp4888
a(g4634
(S's\x05\x00\x00\x00About'
tRp4889
I00
S'/admin/default/about/FotoBuk'
tp4890
aasbasbasbasbasbasbasbag61
(g77
g63
NtRp4891
(dp4892
g66
(dp4893
sg75
g4748
sg68
(lp4894
g61
(g82
g63
NtRp4895
(dp4896
g66
(dp4897
sg75
g4891
sg68
(lp4898
g61
(g62
g63
NtRp4899
(dp4900
g66
(dp4901
g74
I2
ssg75
g4895
sg68
(lp4902
g61
(g70
g63
NtRp4903
(dp4904
g66
(dp4905
g74
I1
ssg75
Nsg68
(lp4906
g61
(g77
g63
NtRp4907
(dp4908
g66
(dp4909
sg75
g4903
sg68
(lp4910
g61
(g82
g63
NtRp4911
(dp4912
g66
(dp4913
sg75
g4907
sg68
(lp4914
g61
(g62
g63
NtRp4915
(dp4916
g66
(dp4917
g74
I1
ssg75
g4911
sg68
(lp4918
S'web2py.com'
p4919
asbasbasbag61
(g77
g63
NtRp4920
(dp4921
g66
(dp4922
sg75
g4903
sg68
(lp4923
g61
(g82
g63
NtRp4924
(dp4925
g66
(dp4926
sg75
g4920
sg68
(lp4927
g61
(g62
g63
NtRp4928
(dp4929
g66
(dp4930
g74
I1
ssg75
g4924
sg68
(lp4931
I00
asbasbasbag61
(g77
g63
NtRp4932
(dp4933
g66
(dp4934
sg75
g4903
sg68
(lp4935
g61
(g82
g63
NtRp4936
(dp4937
g66
(dp4938
sg75
g4932
sg68
(lp4939
g61
(g62
g63
NtRp4940
(dp4941
g66
(dp4942
g74
I1
ssg75
g4936
sg68
(lp4943
S'http://www.web2py.com'
p4944
asbasbasbag61
(g77
g63
NtRp4945
(dp4946
g66
(dp4947
sg75
g4903
sg68
(lp4948
g61
(g82
g63
NtRp4949
(dp4950
g66
(dp4951
sg75
g4945
sg68
(lp4952
g61
(g62
g63
NtRp4953
(dp4954
g66
(dp4955
g74
I1
ssg75
g4949
sg68
(lp4956
(lp4957
(g4634
(S's\x08\x00\x00\x00Download'
tRp4958
I00
S'http://www.web2py.com/examples/default/download'
p4959
tp4960
a(g4634
(S's\x07\x00\x00\x00Support'
tRp4961
I00
S'http://www.web2py.com/examples/default/support'
p4962
tp4963
a(g4634
(S's\x04\x00\x00\x00Demo'
tRp4964
I00
S'http://web2py.com/demo_admin'
p4965
tp4966
a(g4634
(S's\x0e\x00\x00\x00Quick Examples'
tRp4967
I00
S'http://web2py.com/examples/default/examples'
p4968
tp4969
a(g4634
(S's\x03\x00\x00\x00FAQ'
tRp4970
I00
S'http://web2py.com/AlterEgo'
p4971
tp4972
a(g4634
(S's\x06\x00\x00\x00Videos'
tRp4973
I00
S'http://www.web2py.com/examples/default/videos/'
p4974
tp4975
a(g4634
(S's\x11\x00\x00\x00Free Applications'
tRp4976
I00
S'http://web2py.com/appliances'
p4977
tp4978
a(g4634
(S's\x07\x00\x00\x00Plugins'
tRp4979
I00
S'http://web2py.com/plugins'
p4980
tp4981
a(g4634
(S's\x07\x00\x00\x00Layouts'
tRp4982
I00
S'http://web2py.com/layouts'
p4983
tp4984
a(g4634
(S's\x07\x00\x00\x00Recipes'
tRp4985
I00
S'http://web2pyslices.com/'
p4986
tp4987
a(g4634
(S's\x08\x00\x00\x00Semantic'
tRp4988
I00
S'http://web2py.com/semantic'
p4989
tp4990
aasbasbasbasbasbasbasbag61
(g77
g63
NtRp4991
(dp4992
g66
(dp4993
sg75
g4748
sg68
(lp4994
g61
(g82
g63
NtRp4995
(dp4996
g66
(dp4997
sg75
g4991
sg68
(lp4998
g61
(g62
g63
NtRp4999
(dp5000
g66
(dp5001
g74
I2
ssg75
g4995
sg68
(lp5002
g61
(g70
g63
NtRp5003
(dp5004
g66
(dp5005
g74
I1
ssg75
Nsg68
(lp5006
g61
(g77
g63
NtRp5007
(dp5008
g66
(dp5009
sg75
g5003
sg68
(lp5010
g61
(g82
g63
NtRp5011
(dp5012
g66
(dp5013
sg75
g5007
sg68
(lp5014
g61
(g62
g63
NtRp5015
(dp5016
g66
(dp5017
g74
I1
ssg75
g5011
sg68
(lp5018
g4634
(S's\r\x00\x00\x00Documentation'
tRp5019
asbasbasbag61
(g77
g63
NtRp5020
(dp5021
g66
(dp5022
sg75
g5003
sg68
(lp5023
g61
(g82
g63
NtRp5024
(dp5025
g66
(dp5026
sg75
g5020
sg68
(lp5027
g61
(g62
g63
NtRp5028
(dp5029
g66
(dp5030
g74
I1
ssg75
g5024
sg68
(lp5031
I00
asbasbasbag61
(g77
g63
NtRp5032
(dp5033
g66
(dp5034
sg75
g5003
sg68
(lp5035
g61
(g82
g63
NtRp5036
(dp5037
g66
(dp5038
sg75
g5032
sg68
(lp5039
g61
(g62
g63
NtRp5040
(dp5041
g66
(dp5042
g74
I1
ssg75
g5036
sg68
(lp5043
S'http://www.web2py.com/book'
p5044
asbasbasbag61
(g77
g63
NtRp5045
(dp5046
g66
(dp5047
sg75
g5003
sg68
(lp5048
g61
(g82
g63
NtRp5049
(dp5050
g66
(dp5051
sg75
g5045
sg68
(lp5052
g61
(g62
g63
NtRp5053
(dp5054
g66
(dp5055
g74
I1
ssg75
g5049
sg68
(lp5056
(lp5057
(g4634
(S's\x07\x00\x00\x00Preface'
tRp5058
I00
S'http://www.web2py.com/book/default/chapter/00'
p5059
tp5060
a(g4634
(S's\x0c\x00\x00\x00Introduction'
tRp5061
I00
S'http://www.web2py.com/book/default/chapter/01'
p5062
tp5063
a(g4634
(S's\x06\x00\x00\x00Python'
tRp5064
I00
S'http://www.web2py.com/book/default/chapter/02'
p5065
tp5066
a(g4634
(S's\x08\x00\x00\x00Overview'
tRp5067
I00
S'http://www.web2py.com/book/default/chapter/03'
p5068
tp5069
a(g4634
(S's\x08\x00\x00\x00The Core'
tRp5070
I00
S'http://www.web2py.com/book/default/chapter/04'
p5071
tp5072
a(g4634
(S's\t\x00\x00\x00The Views'
tRp5073
I00
S'http://www.web2py.com/book/default/chapter/05'
p5074
tp5075
a(g4634
(S's\x08\x00\x00\x00Database'
tRp5076
I00
S'http://www.web2py.com/book/default/chapter/06'
p5077
tp5078
a(g4634
(S's\x14\x00\x00\x00Forms and Validators'
tRp5079
I00
S'http://www.web2py.com/book/default/chapter/07'
p5080
tp5081
a(g4634
(S's\r\x00\x00\x00Email and SMS'
tRp5082
I00
S'http://www.web2py.com/book/default/chapter/08'
p5083
tp5084
a(g4634
(S's\x0e\x00\x00\x00Access Control'
tRp5085
I00
S'http://www.web2py.com/book/default/chapter/09'
p5086
tp5087
a(g4634
(S's\x08\x00\x00\x00Services'
tRp5088
I00
S'http://www.web2py.com/book/default/chapter/10'
p5089
tp5090
a(g4634
(S's\x0c\x00\x00\x00Ajax Recipes'
tRp5091
I00
S'http://www.web2py.com/book/default/chapter/11'
p5092
tp5093
a(g4634
(S's\x16\x00\x00\x00Components and Plugins'
tRp5094
I00
S'http://www.web2py.com/book/default/chapter/12'
p5095
tp5096
a(g4634
(S's\x12\x00\x00\x00Deployment Recipes'
tRp5097
I00
S'http://www.web2py.com/book/default/chapter/13'
p5098
tp5099
a(g4634
(S's\r\x00\x00\x00Other Recipes'
tRp5100
I00
S'http://www.web2py.com/book/default/chapter/14'
p5101
tp5102
a(g4634
(S's\r\x00\x00\x00Buy this book'
tRp5103
I00
S'http://stores.lulu.com/web2py'
p5104
tp5105
aasbasbasbasbasbasbasbag61
(g77
g63
NtRp5106
(dp5107
g66
(dp5108
sg75
g4748
sg68
(lp5109
g61
(g82
g63
NtRp5110
(dp5111
g66
(dp5112
sg75
g5106
sg68
(lp5113
g61
(g62
g63
NtRp5114
(dp5115
g66
(dp5116
g74
I2
ssg75
g5110
sg68
(lp5117
g61
(g70
g63
NtRp5118
(dp5119
g66
(dp5120
g74
I1
ssg75
Nsg68
(lp5121
g61
(g77
g63
NtRp5122
(dp5123
g66
(dp5124
sg75
g5118
sg68
(lp5125
g61
(g82
g63
NtRp5126
(dp5127
g66
(dp5128
sg75
g5122
sg68
(lp5129
g61
(g62
g63
NtRp5130
(dp5131
g66
(dp5132
g74
I1
ssg75
g5126
sg68
(lp5133
g4634
(S's\t\x00\x00\x00Community'
tRp5134
asbasbasbag61
(g77
g63
NtRp5135
(dp5136
g66
(dp5137
sg75
g5118
sg68
(lp5138
g61
(g82
g63
NtRp5139
(dp5140
g66
(dp5141
sg75
g5135
sg68
(lp5142
g61
(g62
g63
NtRp5143
(dp5144
g66
(dp5145
g74
I1
ssg75
g5139
sg68
(lp5146
I00
asbasbasbag61
(g77
g63
NtRp5147
(dp5148
g66
(dp5149
sg75
g5118
sg68
(lp5150
g61
(g82
g63
NtRp5151
(dp5152
g66
(dp5153
sg75
g5147
sg68
(lp5154
g61
(g62
g63
NtRp5155
(dp5156
g66
(dp5157
g74
I1
ssg75
g5151
sg68
(lp5158
Nasbasbasbag61
(g77
g63
NtRp5159
(dp5160
g66
(dp5161
sg75
g5118
sg68
(lp5162
g61
(g82
g63
NtRp5163
(dp5164
g66
(dp5165
sg75
g5159
sg68
(lp5166
g61
(g62
g63
NtRp5167
(dp5168
g66
(dp5169
g74
I1
ssg75
g5163
sg68
(lp5170
(lp5171
(g4634
(S's\x06\x00\x00\x00Groups'
tRp5172
I00
S'http://www.web2py.com/examples/default/usergroups'
p5173
tp5174
a(g4634
(S's\x07\x00\x00\x00Twitter'
tRp5175
I00
S'http://twitter.com/web2py'
p5176
tp5177
a(g4634
(S's\t\x00\x00\x00Live Chat'
tRp5178
I00
S'http://webchat.freenode.net/?channels=web2py'
p5179
tp5180
aasbasbasbasbasbasbasbag61
(g77
g63
NtRp5181
(dp5182
g66
(dp5183
sg75
g4748
sg68
(lp5184
g61
(g82
g63
NtRp5185
(dp5186
g66
(dp5187
sg75
g5181
sg68
(lp5188
g61
(g62
g63
NtRp5189
(dp5190
g66
(dp5191
g74
I2
ssg75
g5185
sg68
(lp5192
g61
(g70
g63
NtRp5193
(dp5194
g66
(dp5195
g74
I1
ssg75
Nsg68
(lp5196
g61
(g77
g63
NtRp5197
(dp5198
g66
(dp5199
sg75
g5193
sg68
(lp5200
g61
(g82
g63
NtRp5201
(dp5202
g66
(dp5203
sg75
g5197
sg68
(lp5204
g61
(g62
g63
NtRp5205
(dp5206
g66
(dp5207
g74
I1
ssg75
g5201
sg68
(lp5208
g4634
(S's\x07\x00\x00\x00Plugins'
tRp5209
asbasbasbag61
(g77
g63
NtRp5210
(dp5211
g66
(dp5212
sg75
g5193
sg68
(lp5213
g61
(g82
g63
NtRp5214
(dp5215
g66
(dp5216
sg75
g5210
sg68
(lp5217
g61
(g62
g63
NtRp5218
(dp5219
g66
(dp5220
g74
I1
ssg75
g5214
sg68
(lp5221
I00
asbasbasbag61
(g77
g63
NtRp5222
(dp5223
g66
(dp5224
sg75
g5193
sg68
(lp5225
g61
(g82
g63
NtRp5226
(dp5227
g66
(dp5228
sg75
g5222
sg68
(lp5229
g61
(g62
g63
NtRp5230
(dp5231
g66
(dp5232
g74
I1
ssg75
g5226
sg68
(lp5233
Nasbasbasbag61
(g77
g63
NtRp5234
(dp5235
g66
(dp5236
sg75
g5193
sg68
(lp5237
g61
(g82
g63
NtRp5238
(dp5239
g66
(dp5240
sg75
g5234
sg68
(lp5241
g61
(g62
g63
NtRp5242
(dp5243
g66
(dp5244
g74
I1
ssg75
g5238
sg68
(lp5245
(lp5246
(S'plugin_wiki'
p5247
I00
S'http://web2py.com/examples/default/download'
p5248
tp5249
a(g4634
(S's\r\x00\x00\x00Other Plugins'
tRp5250
I00
g4980
tp5251
a(g4634
(S's\x0e\x00\x00\x00Layout Plugins'
tRp5252
I00
g4983
tp5253
aasbasbasbasbasbasbasbasbasbasbasbasbasbasbasbasbasbasbasbag61
(g77
g63
NtRp5254
(dp5255
g66
(dp5256
sg75
g4068
sg68
(lp5257
g61
(g82
g63
NtRp5258
(dp5259
g66
(dp5260
g86
g87
ssg75
g5254
sg68
(lp5261
S'meta'
p5262
asbag61
(g82
g63
NtRp5263
(dp5264
g66
(dp5265
g93
g94
ssg75
g5254
sg68
(lp5266
S':'
asbag61
(g82
g63
NtRp5267
(dp5268
g66
(dp5269
sg75
g5254
sg68
(lp5270
g61
(g62
g63
NtRp5271
(dp5272
g66
(dp5273
g74
I5
ssg75
g5267
sg68
(lp5274
g61
(g70
g63
NtRp5275
(dp5276
g66
(dp5277
g74
I4
ssg75
Nsg68
(lp5278
g61
(g77
g63
NtRp5279
(dp5280
g66
(dp5281
sg75
g5275
sg68
(lp5282
g61
(g82
g63
NtRp5283
(dp5284
g66
(dp5285
g86
g87
ssg75
g5279
sg68
(lp5286
S'author'
p5287
asbag61
(g82
g63
NtRp5288
(dp5289
g66
(dp5290
g93
g94
ssg75
g5279
sg68
(lp5291
S':'
asbag61
(g82
g63
NtRp5292
(dp5293
g66
(dp5294
sg75
g5279
sg68
(lp5295
g61
(g62
g63
NtRp5296
(dp5297
g66
(dp5298
g74
I4
ssg75
g5292
sg68
(lp5299
S'Your Name <you@example.com>'
p5300
asbasbasbag61
(g77
g63
NtRp5301
(dp5302
g66
(dp5303
sg75
g5275
sg68
(lp5304
g61
(g82
g63
NtRp5305
(dp5306
g66
(dp5307
g86
g87
ssg75
g5301
sg68
(lp5308
S'description'
p5309
asbag61
(g82
g63
NtRp5310
(dp5311
g66
(dp5312
g93
g94
ssg75
g5301
sg68
(lp5313
S':'
asbag61
(g82
g63
NtRp5314
(dp5315
g66
(dp5316
sg75
g5301
sg68
(lp5317
g61
(g62
g63
NtRp5318
(dp5319
g66
(dp5320
g74
I4
ssg75
g5314
sg68
(lp5321
S'a cool new app'
p5322
asbasbasbag61
(g77
g63
NtRp5323
(dp5324
g66
(dp5325
sg75
g5275
sg68
(lp5326
g61
(g82
g63
NtRp5327
(dp5328
g66
(dp5329
g86
g87
ssg75
g5323
sg68
(lp5330
S'generator'
p5331
asbag61
(g82
g63
NtRp5332
(dp5333
g66
(dp5334
g93
g94
ssg75
g5323
sg68
(lp5335
S':'
asbag61
(g82
g63
NtRp5336
(dp5337
g66
(dp5338
sg75
g5323
sg68
(lp5339
g61
(g62
g63
NtRp5340
(dp5341
g66
(dp5342
g74
I4
ssg75
g5336
sg68
(lp5343
S'Web2py Web Framework'
p5344
asbasbasbag61
(g77
g63
NtRp5345
(dp5346
g66
(dp5347
sg75
g5275
sg68
(lp5348
g61
(g82
g63
NtRp5349
(dp5350
g66
(dp5351
g86
g87
ssg75
g5345
sg68
(lp5352
S'keywords'
p5353
asbag61
(g82
g63
NtRp5354
(dp5355
g66
(dp5356
g93
g94
ssg75
g5345
sg68
(lp5357
S':'
asbag61
(g82
g63
NtRp5358
(dp5359
g66
(dp5360
sg75
g5345
sg68
(lp5361
g61
(g62
g63
NtRp5362
(dp5363
g66
(dp5364
g74
I4
ssg75
g5358
sg68
(lp5365
S'web2py, python, framework'
p5366
asbasbasbasbasbasbasbag61
(g77
g63
NtRp5367
(dp5368
g66
(dp5369
sg75
g4068
sg68
(lp5370
g61
(g82
g63
NtRp5371
(dp5372
g66
(dp5373
g86
g87
ssg75
g5367
sg68
(lp5374
S'postprocessing'
p5375
asbag61
(g82
g63
NtRp5376
(dp5377
g66
(dp5378
g93
g94
ssg75
g5367
sg68
(lp5379
S':'
asbag61
(g82
g63
NtRp5380
(dp5381
g66
(dp5382
sg75
g5367
sg68
(lp5383
g61
(g62
g63
NtRp5384
(dp5385
g66
(dp5386
g74
I5
ssg75
g5380
sg68
(lp5387
g61
(g70
g63
NtRp5388
(dp5389
g66
(dp5390
g74
I4
ssg75
Nsg68
(lp5391
sbasbasbasbag61
(g77
g63
NtRp5392
(dp5393
g66
(dp5394
sg75
g4068
sg68
(lp5395
g61
(g82
g63
NtRp5396
(dp5397
g66
(dp5398
g86
g87
ssg75
g5392
sg68
(lp5399
S'session_file'
p5400
asbag61
(g82
g63
NtRp5401
(dp5402
g66
(dp5403
g93
g94
ssg75
g5392
sg68
(lp5404
S':'
asbag61
(g82
g63
NtRp5405
(dp5406
g66
(dp5407
sg75
g5392
sg68
(lp5408
g61
(g62
g63
NtRp5409
(dp5410
g66
(dp5411
g74
I5
ssg75
g5405
sg68
(lp5412
S"<open file '/home/piyush/web2py/applications/FotoBuk/sessions/127.0.0.1-961e4bc4-dc07-4e6c-b9f7-52a46e56ffd5', mode 'rb+' at 0xaf427a18>"
p5413
asbasbasbag61
(g77
g63
NtRp5414
(dp5415
g66
(dp5416
sg75
g4068
sg68
(lp5417
g61
(g82
g63
NtRp5418
(dp5419
g66
(dp5420
g86
g87
ssg75
g5414
sg68
(lp5421
S'session_filename'
p5422
asbag61
(g82
g63
NtRp5423
(dp5424
g66
(dp5425
g93
g94
ssg75
g5414
sg68
(lp5426
S':'
asbag61
(g82
g63
NtRp5427
(dp5428
g66
(dp5429
sg75
g5414
sg68
(lp5430
g61
(g62
g63
NtRp5431
(dp5432
g66
(dp5433
g74
I5
ssg75
g5427
sg68
(lp5434
S'/home/piyush/web2py/applications/FotoBuk/sessions/127.0.0.1-961e4bc4-dc07-4e6c-b9f7-52a46e56ffd5'
p5435
asbasbasbag61
(g77
g63
NtRp5436
(dp5437
g66
(dp5438
sg75
g4068
sg68
(lp5439
g61
(g82
g63
NtRp5440
(dp5441
g66
(dp5442
g86
g87
ssg75
g5436
sg68
(lp5443
S'session_id'
p5444
asbag61
(g82
g63
NtRp5445
(dp5446
g66
(dp5447
g93
g94
ssg75
g5436
sg68
(lp5448
S':'
asbag61
(g82
g63
NtRp5449
(dp5450
g66
(dp5451
sg75
g5436
sg68
(lp5452
g61
(g62
g63
NtRp5453
(dp5454
g66
(dp5455
g74
I5
ssg75
g5449
sg68
(lp5456
g491
asbasbasbag61
(g77
g63
NtRp5457
(dp5458
g66
(dp5459
sg75
g4068
sg68
(lp5460
g61
(g82
g63
NtRp5461
(dp5462
g66
(dp5463
g86
g87
ssg75
g5457
sg68
(lp5464
S'session_id_name'
p5465
asbag61
(g82
g63
NtRp5466
(dp5467
g66
(dp5468
g93
g94
ssg75
g5457
sg68
(lp5469
S':'
asbag61
(g82
g63
NtRp5470
(dp5471
g66
(dp5472
sg75
g5457
sg68
(lp5473
g61
(g62
g63
NtRp5474
(dp5475
g66
(dp5476
g74
I5
ssg75
g5470
sg68
(lp5477
g4125
asbasbasbag61
(g77
g63
NtRp5478
(dp5479
g66
(dp5480
sg75
g4068
sg68
(lp5481
g61
(g82
g63
NtRp5482
(dp5483
g66
(dp5484
g86
g87
ssg75
g5478
sg68
(lp5485
S'session_locked'
p5486
asbag61
(g82
g63
NtRp5487
(dp5488
g66
(dp5489
g93
g94
ssg75
g5478
sg68
(lp5490
S':'
asbag61
(g82
g63
NtRp5491
(dp5492
g66
(dp5493
sg75
g5478
sg68
(lp5494
g61
(g62
g63
NtRp5495
(dp5496
g66
(dp5497
g74
I5
ssg75
g5491
sg68
(lp5498
g1990
asbasbasbag61
(g77
g63
NtRp5499
(dp5500
g66
(dp5501
sg75
g4068
sg68
(lp5502
g61
(g82
g63
NtRp5503
(dp5504
g66
(dp5505
g86
g87
ssg75
g5499
sg68
(lp5506
S'session_new'
p5507
asbag61
(g82
g63
NtRp5508
(dp5509
g66
(dp5510
g93
g94
ssg75
g5499
sg68
(lp5511
S':'
asbag61
(g82
g63
NtRp5512
(dp5513
g66
(dp5514
sg75
g5499
sg68
(lp5515
g61
(g62
g63
NtRp5516
(dp5517
g66
(dp5518
g74
I5
ssg75
g5512
sg68
(lp5519
g104
asbasbasbag61
(g77
g63
NtRp5520
(dp5521
g66
(dp5522
sg75
g4068
sg68
(lp5523
g61
(g82
g63
NtRp5524
(dp5525
g66
(dp5526
g86
g87
ssg75
g5520
sg68
(lp5527
S'status'
p5528
asbag61
(g82
g63
NtRp5529
(dp5530
g66
(dp5531
g93
g94
ssg75
g5520
sg68
(lp5532
S':'
asbag61
(g82
g63
NtRp5533
(dp5534
g66
(dp5535
sg75
g5520
sg68
(lp5536
g61
(g62
g63
NtRp5537
(dp5538
g66
(dp5539
g74
I5
ssg75
g5533
sg68
(lp5540
S'200'
p5541
asbasbasbag61
(g77
g63
NtRp5542
(dp5543
g66
(dp5544
sg75
g4068
sg68
(lp5545
g61
(g82
g63
NtRp5546
(dp5547
g66
(dp5548
g86
g87
ssg75
g5542
sg68
(lp5549
S'subtitle'
p5550
asbag61
(g82
g63
NtRp5551
(dp5552
g66
(dp5553
g93
g94
ssg75
g5542
sg68
(lp5554
S':'
asbag61
(g82
g63
NtRp5555
(dp5556
g66
(dp5557
sg75
g5542
sg68
(lp5558
g61
(g62
g63
NtRp5559
(dp5560
g66
(dp5561
g74
I5
ssg75
g5555
sg68
(lp5562
g4634
(S's\r\x00\x00\x00customize me!'
tRp5563
asbasbasbag61
(g77
g63
NtRp5564
(dp5565
g66
(dp5566
sg75
g4068
sg68
(lp5567
g61
(g82
g63
NtRp5568
(dp5569
g66
(dp5570
g86
g87
ssg75
g5564
sg68
(lp5571
S'title'
p5572
asbag61
(g82
g63
NtRp5573
(dp5574
g66
(dp5575
g93
g94
ssg75
g5564
sg68
(lp5576
S':'
asbag61
(g82
g63
NtRp5577
(dp5578
g66
(dp5579
sg75
g5564
sg68
(lp5580
g61
(g62
g63
NtRp5581
(dp5582
g66
(dp5583
g74
I5
ssg75
g5577
sg68
(lp5584
S'Fotobuk'
p5585
asbasbasbag61
(g77
g63
NtRp5586
(dp5587
g66
(dp5588
sg75
g4068
sg68
(lp5589
g61
(g82
g63
NtRp5590
(dp5591
g66
(dp5592
g86
g87
ssg75
g5586
sg68
(lp5593
S'view'
p5594
asbag61
(g82
g63
NtRp5595
(dp5596
g66
(dp5597
g93
g94
ssg75
g5586
sg68
(lp5598
S':'
asbag61
(g82
g63
NtRp5599
(dp5600
g66
(dp5601
sg75
g5586
sg68
(lp5602
g61
(g62
g63
NtRp5603
(dp5604
g66
(dp5605
g74
I5
ssg75
g5599
sg68
(lp5606
S'default/show.html'
p5607
asbasbasbasbasbsS'locals'
p5608
(dp5609
S'query'
p5610
S"'INSERT INTO like() VALUES ();'"
p5611
sS'self'
p5612
S'<gluon.dal.SQLiteAdapter object>'
p5613
sS'e'
S'OperationalError(\'near ")": syntax error\',)'
p5614
sS'fields'
p5615
S'[]'
p5616
sS'table'
p5617
S'<Table like (id,like_id,liker,likername)>'
p5618
sssS'traceback'
p5619
S'Traceback (most recent call last):\n  File "/home/piyush/web2py/gluon/restricted.py", line 209, in restricted\n    exec ccode in environment\n  File "/home/piyush/web2py/applications/FotoBuk/controllers/default.py", line 45, in <module>\n  File "/home/piyush/web2py/gluon/globals.py", line 185, in <lambda>\n    self._caller = lambda f: f()\n  File "/home/piyush/web2py/gluon/tools.py", line 2776, in f\n    return action(*a, **b)\n  File "/home/piyush/web2py/applications/FotoBuk/controllers/default.py", line 27, in show\n    if form2.process().accepted:\n  File "/home/piyush/web2py/gluon/html.py", line 2106, in process\n    self.validate(**kwargs)\n  File "/home/piyush/web2py/gluon/html.py", line 2053, in validate\n    if self.accepts(**kwargs):\n  File "/home/piyush/web2py/gluon/sqlhtml.py", line 1403, in accepts\n    self.vars.id = self.table.insert(**fields)\n  File "/home/piyush/web2py/gluon/dal.py", line 7720, in insert\n    ret =  self._db._adapter.insert(self,self._listify(fields))\n  File "/home/piyush/web2py/gluon/dal.py", line 1080, in insert\n    raise e\nOperationalError: near ")": syntax error\n'
p5620
s.