(dp1
S'output'
p2
S"<type 'exceptions.AttributeError'> 'Row' object has no attribute '0'"
p3
sS'layer'
p4
S'/home/piyush/web2py/applications/FotoBuk/controllers/default.py'
p5
sS'code'
p6
S"@auth.requires_login()\ndef index():\n\tli=db(db.image).select()\n\treturn dict(li=li)\n\n@auth.requires_login()\ndef insert():\n    db.image.author.default=auth.user.first_name\n    db.image.author_id=auth.user_id\n    form=SQLFORM(db.image)\n    if form.process().accepted:\n        response.flash = 'your image is posted'\n    return dict(form=form)\n\n@auth.requires_login()\ndef show():\n    flag=0\n    image = db(db.image.id==request.args(0)).select().first()\n    print image[0].author_id\n    db.comment.image_id.default = image.id\n    cur_user=auth.user_id\n    form = SQLFORM(db.comment)\n    likes =db(db.like.like_id==image.id).select()\n    for lik in likes:\n\t    if int(cur_user) == int(lik.liker):\n\t\t    flag=1\n    if flag!=1:\n    \tform2 = SQLFORM(db.like)\n    \tif form2.process().accepted:\n\t\tresponse.flash = 'You have liked the image'\n    \t\tdb.like.insert(likername=auth.user.first_name,liker=auth.user_id,like_id=image.id)\n    if form.process().accepted:\n        response.flash = 'your comment is posted'\n    comments = db(db.comment.image_id==image.id).select()\n    if flag==0:\n    \treturn dict(cur_user=cur_user,flag=flag,image=image, comments=comments, likes=likes, form=form, form2=form2)\n    else:\n\t    return dict(cur_user=cur_user,flag=flag,image=image,comments=comments,likes=likes,form=form)\n\ndef user():\n\treturn dict(form=auth())\n\ndef download():\n\treturn response.download(request,db)\n\nresponse._vars=response._caller(show)\n"
p7
sS'snapshot'
p8
(dp9
S'exception'
p10
(dp11
S'__hash__'
p12
S"<method-wrapper '__hash__' of exceptions.AttributeError object>"
p13
sS'__setattr__'
p14
S"<method-wrapper '__setattr__' of exceptions.AttributeError object>"
p15
sS'__reduce_ex__'
p16
S'<built-in method __reduce_ex__ of exceptions.AttributeError object>'
p17
sS'__getslice__'
p18
S"<method-wrapper '__getslice__' of exceptions.AttributeError object>"
p19
sS'__getitem__'
p20
S"<method-wrapper '__getitem__' of exceptions.AttributeError object>"
p21
sS'__setstate__'
p22
S'<built-in method __setstate__ of exceptions.AttributeError object>'
p23
sS'__reduce__'
p24
S'<built-in method __reduce__ of exceptions.AttributeError object>'
p25
sS'__str__'
p26
S"<method-wrapper '__str__' of exceptions.AttributeError object>"
p27
sS'__format__'
p28
S'<built-in method __format__ of exceptions.AttributeError object>'
p29
sS'__getattribute__'
p30
S"<method-wrapper '__getattribute__' of exceptions.AttributeError object>"
p31
sS'__class__'
p32
S"<type 'exceptions.AttributeError'>"
p33
sS'__unicode__'
p34
S'<built-in method __unicode__ of exceptions.AttributeError object>'
p35
sS'__delattr__'
p36
S"<method-wrapper '__delattr__' of exceptions.AttributeError object>"
p37
sS'__subclasshook__'
p38
S'<built-in method __subclasshook__ of type object>'
p39
sS'__repr__'
p40
S"<method-wrapper '__repr__' of exceptions.AttributeError object>"
p41
sS'args'
p42
S'("\'Row\' object has no attribute \'0\'",)'
p43
sS'__dict__'
p44
S'{}'
p45
sS'__sizeof__'
p46
S'<built-in method __sizeof__ of exceptions.AttributeError object>'
p47
sS'__doc__'
p48
S"'Attribute not found.'"
p49
sS'__init__'
p50
S"<method-wrapper '__init__' of exceptions.AttributeError object>"
p51
sS'__new__'
p52
S'<built-in method __new__ of type object>'
p53
ssS'evalue'
p54
S"'Row' object has no attribute '0'"
p55
sS'request'
p56
ccopy_reg
_reconstructor
p57
(cgluon.html
BEAUTIFY
p58
c__builtin__
object
p59
NtRp60
(dp61
S'attributes'
p62
(dp63
sS'components'
p64
(lp65
g57
(cgluon.html
TABLE
p66
g59
NtRp67
(dp68
g62
(dp69
S'level'
p70
I5
ssS'parent'
p71
Nsg64
(lp72
g57
(cgluon.html
TR
p73
g59
NtRp74
(dp75
g62
(dp76
sg71
g67
sg64
(lp77
g57
(cgluon.html
TD
p78
g59
NtRp79
(dp80
g62
(dp81
S'_style'
p82
S'font-weight:bold;vertical-align:top'
p83
ssg71
g74
sg64
(lp84
S'ajax'
p85
asbag57
(g78
g59
NtRp86
(dp87
g62
(dp88
S'_valign'
p89
S'top'
p90
ssg71
g74
sg64
(lp91
S':'
asbag57
(g78
g59
NtRp92
(dp93
g62
(dp94
sg71
g74
sg64
(lp95
g57
(g58
g59
NtRp96
(dp97
g62
(dp98
g70
I5
ssg71
g92
sg64
(lp99
S'False'
p100
asbasbasbag57
(g73
g59
NtRp101
(dp102
g62
(dp103
sg71
g67
sg64
(lp104
g57
(g78
g59
NtRp105
(dp106
g62
(dp107
g82
g83
ssg71
g101
sg64
(lp108
S'application'
p109
asbag57
(g78
g59
NtRp110
(dp111
g62
(dp112
g89
g90
ssg71
g101
sg64
(lp113
S':'
asbag57
(g78
g59
NtRp114
(dp115
g62
(dp116
sg71
g101
sg64
(lp117
g57
(g58
g59
NtRp118
(dp119
g62
(dp120
g70
I5
ssg71
g114
sg64
(lp121
S'FotoBuk'
p122
asbasbasbag57
(g73
g59
NtRp123
(dp124
g62
(dp125
sg71
g67
sg64
(lp126
g57
(g78
g59
NtRp127
(dp128
g62
(dp129
g82
g83
ssg71
g123
sg64
(lp130
g42
asbag57
(g78
g59
NtRp131
(dp132
g62
(dp133
g89
g90
ssg71
g123
sg64
(lp134
S':'
asbag57
(g78
g59
NtRp135
(dp136
g62
(dp137
sg71
g123
sg64
(lp138
g57
(g58
g59
NtRp139
(dp140
g62
(dp141
g70
I5
ssg71
g135
sg64
(lp142
g57
(g66
g59
NtRp143
(dp144
g62
(dp145
g70
I4
ssg71
Nsg64
(lp146
g57
(g73
g59
NtRp147
(dp148
g62
(dp149
sg71
g143
sg64
(lp150
g57
(g78
g59
NtRp151
(dp152
g62
(dp153
sg71
g147
sg64
(lp154
g57
(g58
g59
NtRp155
(dp156
g62
(dp157
g70
I4
ssg71
g151
sg64
(lp158
S'2'
asbasbasbasbasbasbasbag57
(g73
g59
NtRp159
(dp160
g62
(dp161
sg71
g67
sg64
(lp162
g57
(g78
g59
NtRp163
(dp164
g62
(dp165
g82
g83
ssg71
g159
sg64
(lp166
S'body'
p167
asbag57
(g78
g59
NtRp168
(dp169
g62
(dp170
g89
g90
ssg71
g159
sg64
(lp171
S':'
asbag57
(g78
g59
NtRp172
(dp173
g62
(dp174
sg71
g159
sg64
(lp175
g57
(g58
g59
NtRp176
(dp177
g62
(dp178
g70
I5
ssg71
g172
sg64
(lp179
S"<open file '<fdopen>', mode 'w+b' at 0x90e3ac8>"
p180
asbasbasbag57
(g73
g59
NtRp181
(dp182
g62
(dp183
sg71
g67
sg64
(lp184
g57
(g78
g59
NtRp185
(dp186
g62
(dp187
g82
g83
ssg71
g181
sg64
(lp188
S'cid'
p189
asbag57
(g78
g59
NtRp190
(dp191
g62
(dp192
g89
g90
ssg71
g181
sg64
(lp193
S':'
asbag57
(g78
g59
NtRp194
(dp195
g62
(dp196
sg71
g181
sg64
(lp197
g57
(g58
g59
NtRp198
(dp199
g62
(dp200
g70
I5
ssg71
g194
sg64
(lp201
S'None'
p202
asbasbasbag57
(g73
g59
NtRp203
(dp204
g62
(dp205
sg71
g67
sg64
(lp206
g57
(g78
g59
NtRp207
(dp208
g62
(dp209
g82
g83
ssg71
g203
sg64
(lp210
S'client'
p211
asbag57
(g78
g59
NtRp212
(dp213
g62
(dp214
g89
g90
ssg71
g203
sg64
(lp215
S':'
asbag57
(g78
g59
NtRp216
(dp217
g62
(dp218
sg71
g203
sg64
(lp219
g57
(g58
g59
NtRp220
(dp221
g62
(dp222
g70
I5
ssg71
g216
sg64
(lp223
S'127.0.0.1'
p224
asbasbasbag57
(g73
g59
NtRp225
(dp226
g62
(dp227
sg71
g67
sg64
(lp228
g57
(g78
g59
NtRp229
(dp230
g62
(dp231
g82
g83
ssg71
g225
sg64
(lp232
S'controller'
p233
asbag57
(g78
g59
NtRp234
(dp235
g62
(dp236
g89
g90
ssg71
g225
sg64
(lp237
S':'
asbag57
(g78
g59
NtRp238
(dp239
g62
(dp240
sg71
g225
sg64
(lp241
g57
(g58
g59
NtRp242
(dp243
g62
(dp244
g70
I5
ssg71
g238
sg64
(lp245
S'default'
p246
asbasbasbag57
(g73
g59
NtRp247
(dp248
g62
(dp249
sg71
g67
sg64
(lp250
g57
(g78
g59
NtRp251
(dp252
g62
(dp253
g82
g83
ssg71
g247
sg64
(lp254
S'cookies'
p255
asbag57
(g78
g59
NtRp256
(dp257
g62
(dp258
g89
g90
ssg71
g247
sg64
(lp259
S':'
asbag57
(g78
g59
NtRp260
(dp261
g62
(dp262
sg71
g247
sg64
(lp263
g57
(g58
g59
NtRp264
(dp265
g62
(dp266
g70
I5
ssg71
g260
sg64
(lp267
g57
(g66
g59
NtRp268
(dp269
g62
(dp270
g70
I4
ssg71
Nsg64
(lp271
g57
(g73
g59
NtRp272
(dp273
g62
(dp274
sg71
g268
sg64
(lp275
g57
(g78
g59
NtRp276
(dp277
g62
(dp278
g82
g83
ssg71
g272
sg64
(lp279
S'session_id_admin'
p280
asbag57
(g78
g59
NtRp281
(dp282
g62
(dp283
g89
g90
ssg71
g272
sg64
(lp284
S':'
asbag57
(g78
g59
NtRp285
(dp286
g62
(dp287
sg71
g272
sg64
(lp288
g57
(g58
g59
NtRp289
(dp290
g62
(dp291
g70
I4
ssg71
g285
sg64
(lp292
S'127.0.0.1-f31a16a6-2f0e-474e-b0b5-7ca781ebd64d'
p293
ag57
(g66
g59
NtRp294
(dp295
g62
(dp296
g70
I3
ssg71
Nsg64
(lp297
g57
(g73
g59
NtRp298
(dp299
g62
(dp300
sg71
g294
sg64
(lp301
g57
(g78
g59
NtRp302
(dp303
g62
(dp304
g82
g83
ssg71
g298
sg64
(lp305
S'comment'
p306
asbag57
(g78
g59
NtRp307
(dp308
g62
(dp309
g89
g90
ssg71
g298
sg64
(lp310
S':'
asbag57
(g78
g59
NtRp311
(dp312
g62
(dp313
sg71
g298
sg64
(lp314
g57
(g58
g59
NtRp315
(dp316
g62
(dp317
g70
I3
ssg71
g311
sg64
(lp318
S''
asbasbasbag57
(g73
g59
NtRp319
(dp320
g62
(dp321
sg71
g294
sg64
(lp322
g57
(g78
g59
NtRp323
(dp324
g62
(dp325
g82
g83
ssg71
g319
sg64
(lp326
S'domain'
p327
asbag57
(g78
g59
NtRp328
(dp329
g62
(dp330
g89
g90
ssg71
g319
sg64
(lp331
S':'
asbag57
(g78
g59
NtRp332
(dp333
g62
(dp334
sg71
g319
sg64
(lp335
g57
(g58
g59
NtRp336
(dp337
g62
(dp338
g70
I3
ssg71
g332
sg64
(lp339
S''
asbasbasbag57
(g73
g59
NtRp340
(dp341
g62
(dp342
sg71
g294
sg64
(lp343
g57
(g78
g59
NtRp344
(dp345
g62
(dp346
g82
g83
ssg71
g340
sg64
(lp347
S'expires'
p348
asbag57
(g78
g59
NtRp349
(dp350
g62
(dp351
g89
g90
ssg71
g340
sg64
(lp352
S':'
asbag57
(g78
g59
NtRp353
(dp354
g62
(dp355
sg71
g340
sg64
(lp356
g57
(g58
g59
NtRp357
(dp358
g62
(dp359
g70
I3
ssg71
g353
sg64
(lp360
S''
asbasbasbag57
(g73
g59
NtRp361
(dp362
g62
(dp363
sg71
g294
sg64
(lp364
g57
(g78
g59
NtRp365
(dp366
g62
(dp367
g82
g83
ssg71
g361
sg64
(lp368
S'httponly'
p369
asbag57
(g78
g59
NtRp370
(dp371
g62
(dp372
g89
g90
ssg71
g361
sg64
(lp373
S':'
asbag57
(g78
g59
NtRp374
(dp375
g62
(dp376
sg71
g361
sg64
(lp377
g57
(g58
g59
NtRp378
(dp379
g62
(dp380
g70
I3
ssg71
g374
sg64
(lp381
S''
asbasbasbag57
(g73
g59
NtRp382
(dp383
g62
(dp384
sg71
g294
sg64
(lp385
g57
(g78
g59
NtRp386
(dp387
g62
(dp388
g82
g83
ssg71
g382
sg64
(lp389
S'max-age'
p390
asbag57
(g78
g59
NtRp391
(dp392
g62
(dp393
g89
g90
ssg71
g382
sg64
(lp394
S':'
asbag57
(g78
g59
NtRp395
(dp396
g62
(dp397
sg71
g382
sg64
(lp398
g57
(g58
g59
NtRp399
(dp400
g62
(dp401
g70
I3
ssg71
g395
sg64
(lp402
S''
asbasbasbag57
(g73
g59
NtRp403
(dp404
g62
(dp405
sg71
g294
sg64
(lp406
g57
(g78
g59
NtRp407
(dp408
g62
(dp409
g82
g83
ssg71
g403
sg64
(lp410
S'path'
p411
asbag57
(g78
g59
NtRp412
(dp413
g62
(dp414
g89
g90
ssg71
g403
sg64
(lp415
S':'
asbag57
(g78
g59
NtRp416
(dp417
g62
(dp418
sg71
g403
sg64
(lp419
g57
(g58
g59
NtRp420
(dp421
g62
(dp422
g70
I3
ssg71
g416
sg64
(lp423
S''
asbasbasbag57
(g73
g59
NtRp424
(dp425
g62
(dp426
sg71
g294
sg64
(lp427
g57
(g78
g59
NtRp428
(dp429
g62
(dp430
g82
g83
ssg71
g424
sg64
(lp431
S'secure'
p432
asbag57
(g78
g59
NtRp433
(dp434
g62
(dp435
g89
g90
ssg71
g424
sg64
(lp436
S':'
asbag57
(g78
g59
NtRp437
(dp438
g62
(dp439
sg71
g424
sg64
(lp440
g57
(g58
g59
NtRp441
(dp442
g62
(dp443
g70
I3
ssg71
g437
sg64
(lp444
S''
asbasbasbag57
(g73
g59
NtRp445
(dp446
g62
(dp447
sg71
g294
sg64
(lp448
g57
(g78
g59
NtRp449
(dp450
g62
(dp451
g82
g83
ssg71
g445
sg64
(lp452
S'version'
p453
asbag57
(g78
g59
NtRp454
(dp455
g62
(dp456
g89
g90
ssg71
g445
sg64
(lp457
S':'
asbag57
(g78
g59
NtRp458
(dp459
g62
(dp460
sg71
g445
sg64
(lp461
g57
(g58
g59
NtRp462
(dp463
g62
(dp464
g70
I3
ssg71
g458
sg64
(lp465
S''
asbasbasbasbasbasbasbag57
(g73
g59
NtRp466
(dp467
g62
(dp468
sg71
g268
sg64
(lp469
g57
(g78
g59
NtRp470
(dp471
g62
(dp472
g82
g83
ssg71
g466
sg64
(lp473
S'session_id_fotobuk'
p474
asbag57
(g78
g59
NtRp475
(dp476
g62
(dp477
g89
g90
ssg71
g466
sg64
(lp478
S':'
asbag57
(g78
g59
NtRp479
(dp480
g62
(dp481
sg71
g466
sg64
(lp482
g57
(g58
g59
NtRp483
(dp484
g62
(dp485
g70
I4
ssg71
g479
sg64
(lp486
S'127.0.0.1-961e4bc4-dc07-4e6c-b9f7-52a46e56ffd5'
p487
ag57
(g66
g59
NtRp488
(dp489
g62
(dp490
g70
I3
ssg71
Nsg64
(lp491
g57
(g73
g59
NtRp492
(dp493
g62
(dp494
sg71
g488
sg64
(lp495
g57
(g78
g59
NtRp496
(dp497
g62
(dp498
g82
g83
ssg71
g492
sg64
(lp499
g306
asbag57
(g78
g59
NtRp500
(dp501
g62
(dp502
g89
g90
ssg71
g492
sg64
(lp503
S':'
asbag57
(g78
g59
NtRp504
(dp505
g62
(dp506
sg71
g492
sg64
(lp507
g57
(g58
g59
NtRp508
(dp509
g62
(dp510
g70
I3
ssg71
g504
sg64
(lp511
S''
asbasbasbag57
(g73
g59
NtRp512
(dp513
g62
(dp514
sg71
g488
sg64
(lp515
g57
(g78
g59
NtRp516
(dp517
g62
(dp518
g82
g83
ssg71
g512
sg64
(lp519
g327
asbag57
(g78
g59
NtRp520
(dp521
g62
(dp522
g89
g90
ssg71
g512
sg64
(lp523
S':'
asbag57
(g78
g59
NtRp524
(dp525
g62
(dp526
sg71
g512
sg64
(lp527
g57
(g58
g59
NtRp528
(dp529
g62
(dp530
g70
I3
ssg71
g524
sg64
(lp531
S''
asbasbasbag57
(g73
g59
NtRp532
(dp533
g62
(dp534
sg71
g488
sg64
(lp535
g57
(g78
g59
NtRp536
(dp537
g62
(dp538
g82
g83
ssg71
g532
sg64
(lp539
g348
asbag57
(g78
g59
NtRp540
(dp541
g62
(dp542
g89
g90
ssg71
g532
sg64
(lp543
S':'
asbag57
(g78
g59
NtRp544
(dp545
g62
(dp546
sg71
g532
sg64
(lp547
g57
(g58
g59
NtRp548
(dp549
g62
(dp550
g70
I3
ssg71
g544
sg64
(lp551
S''
asbasbasbag57
(g73
g59
NtRp552
(dp553
g62
(dp554
sg71
g488
sg64
(lp555
g57
(g78
g59
NtRp556
(dp557
g62
(dp558
g82
g83
ssg71
g552
sg64
(lp559
g369
asbag57
(g78
g59
NtRp560
(dp561
g62
(dp562
g89
g90
ssg71
g552
sg64
(lp563
S':'
asbag57
(g78
g59
NtRp564
(dp565
g62
(dp566
sg71
g552
sg64
(lp567
g57
(g58
g59
NtRp568
(dp569
g62
(dp570
g70
I3
ssg71
g564
sg64
(lp571
S''
asbasbasbag57
(g73
g59
NtRp572
(dp573
g62
(dp574
sg71
g488
sg64
(lp575
g57
(g78
g59
NtRp576
(dp577
g62
(dp578
g82
g83
ssg71
g572
sg64
(lp579
g390
asbag57
(g78
g59
NtRp580
(dp581
g62
(dp582
g89
g90
ssg71
g572
sg64
(lp583
S':'
asbag57
(g78
g59
NtRp584
(dp585
g62
(dp586
sg71
g572
sg64
(lp587
g57
(g58
g59
NtRp588
(dp589
g62
(dp590
g70
I3
ssg71
g584
sg64
(lp591
S''
asbasbasbag57
(g73
g59
NtRp592
(dp593
g62
(dp594
sg71
g488
sg64
(lp595
g57
(g78
g59
NtRp596
(dp597
g62
(dp598
g82
g83
ssg71
g592
sg64
(lp599
g411
asbag57
(g78
g59
NtRp600
(dp601
g62
(dp602
g89
g90
ssg71
g592
sg64
(lp603
S':'
asbag57
(g78
g59
NtRp604
(dp605
g62
(dp606
sg71
g592
sg64
(lp607
g57
(g58
g59
NtRp608
(dp609
g62
(dp610
g70
I3
ssg71
g604
sg64
(lp611
S''
asbasbasbag57
(g73
g59
NtRp612
(dp613
g62
(dp614
sg71
g488
sg64
(lp615
g57
(g78
g59
NtRp616
(dp617
g62
(dp618
g82
g83
ssg71
g612
sg64
(lp619
g432
asbag57
(g78
g59
NtRp620
(dp621
g62
(dp622
g89
g90
ssg71
g612
sg64
(lp623
S':'
asbag57
(g78
g59
NtRp624
(dp625
g62
(dp626
sg71
g612
sg64
(lp627
g57
(g58
g59
NtRp628
(dp629
g62
(dp630
g70
I3
ssg71
g624
sg64
(lp631
S''
asbasbasbag57
(g73
g59
NtRp632
(dp633
g62
(dp634
sg71
g488
sg64
(lp635
g57
(g78
g59
NtRp636
(dp637
g62
(dp638
g82
g83
ssg71
g632
sg64
(lp639
g453
asbag57
(g78
g59
NtRp640
(dp641
g62
(dp642
g89
g90
ssg71
g632
sg64
(lp643
S':'
asbag57
(g78
g59
NtRp644
(dp645
g62
(dp646
sg71
g632
sg64
(lp647
g57
(g58
g59
NtRp648
(dp649
g62
(dp650
g70
I3
ssg71
g644
sg64
(lp651
S''
asbasbasbasbasbasbasbag57
(g73
g59
NtRp652
(dp653
g62
(dp654
sg71
g268
sg64
(lp655
g57
(g78
g59
NtRp656
(dp657
g62
(dp658
g82
g83
ssg71
g652
sg64
(lp659
S'session_id_ialbum'
p660
asbag57
(g78
g59
NtRp661
(dp662
g62
(dp663
g89
g90
ssg71
g652
sg64
(lp664
S':'
asbag57
(g78
g59
NtRp665
(dp666
g62
(dp667
sg71
g652
sg64
(lp668
g57
(g58
g59
NtRp669
(dp670
g62
(dp671
g70
I4
ssg71
g665
sg64
(lp672
S'127.0.0.1-8bab57f4-8655-4ca4-8b5d-11fde04576c5'
p673
ag57
(g66
g59
NtRp674
(dp675
g62
(dp676
g70
I3
ssg71
Nsg64
(lp677
g57
(g73
g59
NtRp678
(dp679
g62
(dp680
sg71
g674
sg64
(lp681
g57
(g78
g59
NtRp682
(dp683
g62
(dp684
g82
g83
ssg71
g678
sg64
(lp685
g306
asbag57
(g78
g59
NtRp686
(dp687
g62
(dp688
g89
g90
ssg71
g678
sg64
(lp689
S':'
asbag57
(g78
g59
NtRp690
(dp691
g62
(dp692
sg71
g678
sg64
(lp693
g57
(g58
g59
NtRp694
(dp695
g62
(dp696
g70
I3
ssg71
g690
sg64
(lp697
S''
asbasbasbag57
(g73
g59
NtRp698
(dp699
g62
(dp700
sg71
g674
sg64
(lp701
g57
(g78
g59
NtRp702
(dp703
g62
(dp704
g82
g83
ssg71
g698
sg64
(lp705
g327
asbag57
(g78
g59
NtRp706
(dp707
g62
(dp708
g89
g90
ssg71
g698
sg64
(lp709
S':'
asbag57
(g78
g59
NtRp710
(dp711
g62
(dp712
sg71
g698
sg64
(lp713
g57
(g58
g59
NtRp714
(dp715
g62
(dp716
g70
I3
ssg71
g710
sg64
(lp717
S''
asbasbasbag57
(g73
g59
NtRp718
(dp719
g62
(dp720
sg71
g674
sg64
(lp721
g57
(g78
g59
NtRp722
(dp723
g62
(dp724
g82
g83
ssg71
g718
sg64
(lp725
g348
asbag57
(g78
g59
NtRp726
(dp727
g62
(dp728
g89
g90
ssg71
g718
sg64
(lp729
S':'
asbag57
(g78
g59
NtRp730
(dp731
g62
(dp732
sg71
g718
sg64
(lp733
g57
(g58
g59
NtRp734
(dp735
g62
(dp736
g70
I3
ssg71
g730
sg64
(lp737
S''
asbasbasbag57
(g73
g59
NtRp738
(dp739
g62
(dp740
sg71
g674
sg64
(lp741
g57
(g78
g59
NtRp742
(dp743
g62
(dp744
g82
g83
ssg71
g738
sg64
(lp745
g369
asbag57
(g78
g59
NtRp746
(dp747
g62
(dp748
g89
g90
ssg71
g738
sg64
(lp749
S':'
asbag57
(g78
g59
NtRp750
(dp751
g62
(dp752
sg71
g738
sg64
(lp753
g57
(g58
g59
NtRp754
(dp755
g62
(dp756
g70
I3
ssg71
g750
sg64
(lp757
S''
asbasbasbag57
(g73
g59
NtRp758
(dp759
g62
(dp760
sg71
g674
sg64
(lp761
g57
(g78
g59
NtRp762
(dp763
g62
(dp764
g82
g83
ssg71
g758
sg64
(lp765
g390
asbag57
(g78
g59
NtRp766
(dp767
g62
(dp768
g89
g90
ssg71
g758
sg64
(lp769
S':'
asbag57
(g78
g59
NtRp770
(dp771
g62
(dp772
sg71
g758
sg64
(lp773
g57
(g58
g59
NtRp774
(dp775
g62
(dp776
g70
I3
ssg71
g770
sg64
(lp777
S''
asbasbasbag57
(g73
g59
NtRp778
(dp779
g62
(dp780
sg71
g674
sg64
(lp781
g57
(g78
g59
NtRp782
(dp783
g62
(dp784
g82
g83
ssg71
g778
sg64
(lp785
g411
asbag57
(g78
g59
NtRp786
(dp787
g62
(dp788
g89
g90
ssg71
g778
sg64
(lp789
S':'
asbag57
(g78
g59
NtRp790
(dp791
g62
(dp792
sg71
g778
sg64
(lp793
g57
(g58
g59
NtRp794
(dp795
g62
(dp796
g70
I3
ssg71
g790
sg64
(lp797
S''
asbasbasbag57
(g73
g59
NtRp798
(dp799
g62
(dp800
sg71
g674
sg64
(lp801
g57
(g78
g59
NtRp802
(dp803
g62
(dp804
g82
g83
ssg71
g798
sg64
(lp805
g432
asbag57
(g78
g59
NtRp806
(dp807
g62
(dp808
g89
g90
ssg71
g798
sg64
(lp809
S':'
asbag57
(g78
g59
NtRp810
(dp811
g62
(dp812
sg71
g798
sg64
(lp813
g57
(g58
g59
NtRp814
(dp815
g62
(dp816
g70
I3
ssg71
g810
sg64
(lp817
S''
asbasbasbag57
(g73
g59
NtRp818
(dp819
g62
(dp820
sg71
g674
sg64
(lp821
g57
(g78
g59
NtRp822
(dp823
g62
(dp824
g82
g83
ssg71
g818
sg64
(lp825
g453
asbag57
(g78
g59
NtRp826
(dp827
g62
(dp828
g89
g90
ssg71
g818
sg64
(lp829
S':'
asbag57
(g78
g59
NtRp830
(dp831
g62
(dp832
sg71
g818
sg64
(lp833
g57
(g58
g59
NtRp834
(dp835
g62
(dp836
g70
I3
ssg71
g830
sg64
(lp837
S''
asbasbasbasbasbasbasbag57
(g73
g59
NtRp838
(dp839
g62
(dp840
sg71
g268
sg64
(lp841
g57
(g78
g59
NtRp842
(dp843
g62
(dp844
g82
g83
ssg71
g838
sg64
(lp845
S'session_id_welcome'
p846
asbag57
(g78
g59
NtRp847
(dp848
g62
(dp849
g89
g90
ssg71
g838
sg64
(lp850
S':'
asbag57
(g78
g59
NtRp851
(dp852
g62
(dp853
sg71
g838
sg64
(lp854
g57
(g58
g59
NtRp855
(dp856
g62
(dp857
g70
I4
ssg71
g851
sg64
(lp858
S'127.0.0.1-3299e4b7-9181-4336-a2b6-d67ebc8bfe8e'
p859
ag57
(g66
g59
NtRp860
(dp861
g62
(dp862
g70
I3
ssg71
Nsg64
(lp863
g57
(g73
g59
NtRp864
(dp865
g62
(dp866
sg71
g860
sg64
(lp867
g57
(g78
g59
NtRp868
(dp869
g62
(dp870
g82
g83
ssg71
g864
sg64
(lp871
g306
asbag57
(g78
g59
NtRp872
(dp873
g62
(dp874
g89
g90
ssg71
g864
sg64
(lp875
S':'
asbag57
(g78
g59
NtRp876
(dp877
g62
(dp878
sg71
g864
sg64
(lp879
g57
(g58
g59
NtRp880
(dp881
g62
(dp882
g70
I3
ssg71
g876
sg64
(lp883
S''
asbasbasbag57
(g73
g59
NtRp884
(dp885
g62
(dp886
sg71
g860
sg64
(lp887
g57
(g78
g59
NtRp888
(dp889
g62
(dp890
g82
g83
ssg71
g884
sg64
(lp891
g327
asbag57
(g78
g59
NtRp892
(dp893
g62
(dp894
g89
g90
ssg71
g884
sg64
(lp895
S':'
asbag57
(g78
g59
NtRp896
(dp897
g62
(dp898
sg71
g884
sg64
(lp899
g57
(g58
g59
NtRp900
(dp901
g62
(dp902
g70
I3
ssg71
g896
sg64
(lp903
S''
asbasbasbag57
(g73
g59
NtRp904
(dp905
g62
(dp906
sg71
g860
sg64
(lp907
g57
(g78
g59
NtRp908
(dp909
g62
(dp910
g82
g83
ssg71
g904
sg64
(lp911
g348
asbag57
(g78
g59
NtRp912
(dp913
g62
(dp914
g89
g90
ssg71
g904
sg64
(lp915
S':'
asbag57
(g78
g59
NtRp916
(dp917
g62
(dp918
sg71
g904
sg64
(lp919
g57
(g58
g59
NtRp920
(dp921
g62
(dp922
g70
I3
ssg71
g916
sg64
(lp923
S''
asbasbasbag57
(g73
g59
NtRp924
(dp925
g62
(dp926
sg71
g860
sg64
(lp927
g57
(g78
g59
NtRp928
(dp929
g62
(dp930
g82
g83
ssg71
g924
sg64
(lp931
g369
asbag57
(g78
g59
NtRp932
(dp933
g62
(dp934
g89
g90
ssg71
g924
sg64
(lp935
S':'
asbag57
(g78
g59
NtRp936
(dp937
g62
(dp938
sg71
g924
sg64
(lp939
g57
(g58
g59
NtRp940
(dp941
g62
(dp942
g70
I3
ssg71
g936
sg64
(lp943
S''
asbasbasbag57
(g73
g59
NtRp944
(dp945
g62
(dp946
sg71
g860
sg64
(lp947
g57
(g78
g59
NtRp948
(dp949
g62
(dp950
g82
g83
ssg71
g944
sg64
(lp951
g390
asbag57
(g78
g59
NtRp952
(dp953
g62
(dp954
g89
g90
ssg71
g944
sg64
(lp955
S':'
asbag57
(g78
g59
NtRp956
(dp957
g62
(dp958
sg71
g944
sg64
(lp959
g57
(g58
g59
NtRp960
(dp961
g62
(dp962
g70
I3
ssg71
g956
sg64
(lp963
S''
asbasbasbag57
(g73
g59
NtRp964
(dp965
g62
(dp966
sg71
g860
sg64
(lp967
g57
(g78
g59
NtRp968
(dp969
g62
(dp970
g82
g83
ssg71
g964
sg64
(lp971
g411
asbag57
(g78
g59
NtRp972
(dp973
g62
(dp974
g89
g90
ssg71
g964
sg64
(lp975
S':'
asbag57
(g78
g59
NtRp976
(dp977
g62
(dp978
sg71
g964
sg64
(lp979
g57
(g58
g59
NtRp980
(dp981
g62
(dp982
g70
I3
ssg71
g976
sg64
(lp983
S''
asbasbasbag57
(g73
g59
NtRp984
(dp985
g62
(dp986
sg71
g860
sg64
(lp987
g57
(g78
g59
NtRp988
(dp989
g62
(dp990
g82
g83
ssg71
g984
sg64
(lp991
g432
asbag57
(g78
g59
NtRp992
(dp993
g62
(dp994
g89
g90
ssg71
g984
sg64
(lp995
S':'
asbag57
(g78
g59
NtRp996
(dp997
g62
(dp998
sg71
g984
sg64
(lp999
g57
(g58
g59
NtRp1000
(dp1001
g62
(dp1002
g70
I3
ssg71
g996
sg64
(lp1003
S''
asbasbasbag57
(g73
g59
NtRp1004
(dp1005
g62
(dp1006
sg71
g860
sg64
(lp1007
g57
(g78
g59
NtRp1008
(dp1009
g62
(dp1010
g82
g83
ssg71
g1004
sg64
(lp1011
g453
asbag57
(g78
g59
NtRp1012
(dp1013
g62
(dp1014
g89
g90
ssg71
g1004
sg64
(lp1015
S':'
asbag57
(g78
g59
NtRp1016
(dp1017
g62
(dp1018
sg71
g1004
sg64
(lp1019
g57
(g58
g59
NtRp1020
(dp1021
g62
(dp1022
g70
I3
ssg71
g1016
sg64
(lp1023
S''
asbasbasbasbasbasbasbasbasbasbasbag57
(g73
g59
NtRp1024
(dp1025
g62
(dp1026
sg71
g67
sg64
(lp1027
g57
(g78
g59
NtRp1028
(dp1029
g62
(dp1030
g82
g83
ssg71
g1024
sg64
(lp1031
S'env'
p1032
asbag57
(g78
g59
NtRp1033
(dp1034
g62
(dp1035
g89
g90
ssg71
g1024
sg64
(lp1036
S':'
asbag57
(g78
g59
NtRp1037
(dp1038
g62
(dp1039
sg71
g1024
sg64
(lp1040
g57
(g58
g59
NtRp1041
(dp1042
g62
(dp1043
g70
I5
ssg71
g1037
sg64
(lp1044
g57
(g66
g59
NtRp1045
(dp1046
g62
(dp1047
g70
I4
ssg71
Nsg64
(lp1048
g57
(g73
g59
NtRp1049
(dp1050
g62
(dp1051
sg71
g1045
sg64
(lp1052
g57
(g78
g59
NtRp1053
(dp1054
g62
(dp1055
g82
g83
ssg71
g1049
sg64
(lp1056
S'app_folders'
p1057
asbag57
(g78
g59
NtRp1058
(dp1059
g62
(dp1060
g89
g90
ssg71
g1049
sg64
(lp1061
S':'
asbag57
(g78
g59
NtRp1062
(dp1063
g62
(dp1064
sg71
g1049
sg64
(lp1065
g57
(g58
g59
NtRp1066
(dp1067
g62
(dp1068
g70
I4
ssg71
g1062
sg64
(lp1069
S"set(['/home/piyush/web2py/applications/FotoBuk/', '/home/piyush/web2py/applications/welcome/', '/home/piyush/web2py/applications/admin/'])"
p1070
asbasbasbag57
(g73
g59
NtRp1071
(dp1072
g62
(dp1073
sg71
g1045
sg64
(lp1074
g57
(g78
g59
NtRp1075
(dp1076
g62
(dp1077
g82
g83
ssg71
g1071
sg64
(lp1078
S'applications_parent'
p1079
asbag57
(g78
g59
NtRp1080
(dp1081
g62
(dp1082
g89
g90
ssg71
g1071
sg64
(lp1083
S':'
asbag57
(g78
g59
NtRp1084
(dp1085
g62
(dp1086
sg71
g1071
sg64
(lp1087
g57
(g58
g59
NtRp1088
(dp1089
g62
(dp1090
g70
I4
ssg71
g1084
sg64
(lp1091
S'/home/piyush/web2py'
p1092
asbasbasbag57
(g73
g59
NtRp1093
(dp1094
g62
(dp1095
sg71
g1045
sg64
(lp1096
g57
(g78
g59
NtRp1097
(dp1098
g62
(dp1099
g82
g83
ssg71
g1093
sg64
(lp1100
S'cmd_args'
p1101
asbag57
(g78
g59
NtRp1102
(dp1103
g62
(dp1104
g89
g90
ssg71
g1093
sg64
(lp1105
S':'
asbag57
(g78
g59
NtRp1106
(dp1107
g62
(dp1108
sg71
g1093
sg64
(lp1109
g57
(g58
g59
NtRp1110
(dp1111
g62
(dp1112
g70
I4
ssg71
g1106
sg64
(lp1113
g57
(g66
g59
NtRp1114
(dp1115
g62
(dp1116
g70
I3
ssg71
Nsg64
(lp1117
sbasbasbasbag57
(g73
g59
NtRp1118
(dp1119
g62
(dp1120
sg71
g1045
sg64
(lp1121
g57
(g78
g59
NtRp1122
(dp1123
g62
(dp1124
g82
g83
ssg71
g1118
sg64
(lp1125
S'cmd_options'
p1126
asbag57
(g78
g59
NtRp1127
(dp1128
g62
(dp1129
g89
g90
ssg71
g1118
sg64
(lp1130
S':'
asbag57
(g78
g59
NtRp1131
(dp1132
g62
(dp1133
sg71
g1118
sg64
(lp1134
g57
(g58
g59
NtRp1135
(dp1136
g62
(dp1137
g70
I4
ssg71
g1131
sg64
(lp1138
S"<Values at 0x8d4130c: {'verbose': False, 'ip': '127.0.0.1', 'with_scheduler': False, 'ips': ['10.1.39.167', '10.42.0.1'], 'shutdown_timeout': 5, 'taskbar': False, 'port': 8000, 'maxthreads': None, 'softcron': False, 'server_name': 'Solo', 'bpython': False, 'nogui': False, 'nocron': False, 'extcron': False, 'run_system_tests': False, 'test': None, 'folder': '/home/piyush/web2py', 'config': '', 'import_models': False, 'winservice': '', 'shell': None, 'run': '', 'log_filename': 'httpserver.log', 'debuglevel': 30, 'args': [''], 'socket_timeout': 5, 'ssl_ca_certificate': None, 'scheduler': None, 'profiler_filename': None, 'ssl_private_key': '', 'scheduler_groups': None, 'password': '<ask>', 'request_queue_size': 5, 'ssl_certificate': '', 'cronjob': False, 'numthreads': None, 'quiet': False, 'interfaces': None, 'minthreads': None, 'timeout': 10, 'plain': False, 'nobanner': False, 'pid_filename': 'httpserver.pid'}>"
p1139
asbasbasbag57
(g73
g59
NtRp1140
(dp1141
g62
(dp1142
sg71
g1045
sg64
(lp1143
g57
(g78
g59
NtRp1144
(dp1145
g62
(dp1146
g82
g83
ssg71
g1140
sg64
(lp1147
S'content_length'
p1148
asbag57
(g78
g59
NtRp1149
(dp1150
g62
(dp1151
g89
g90
ssg71
g1140
sg64
(lp1152
S':'
asbag57
(g78
g59
NtRp1153
(dp1154
g62
(dp1155
sg71
g1140
sg64
(lp1156
g57
(g58
g59
NtRp1157
(dp1158
g62
(dp1159
g70
I4
ssg71
g1153
sg64
(lp1160
S'336'
p1161
asbasbasbag57
(g73
g59
NtRp1162
(dp1163
g62
(dp1164
sg71
g1045
sg64
(lp1165
g57
(g78
g59
NtRp1166
(dp1167
g62
(dp1168
g82
g83
ssg71
g1162
sg64
(lp1169
S'content_type'
p1170
asbag57
(g78
g59
NtRp1171
(dp1172
g62
(dp1173
g89
g90
ssg71
g1162
sg64
(lp1174
S':'
asbag57
(g78
g59
NtRp1175
(dp1176
g62
(dp1177
sg71
g1162
sg64
(lp1178
g57
(g58
g59
NtRp1179
(dp1180
g62
(dp1181
g70
I4
ssg71
g1175
sg64
(lp1182
S'multipart/form-data; boundary=---------------------------35304789619147253102008426762'
p1183
asbasbasbag57
(g73
g59
NtRp1184
(dp1185
g62
(dp1186
sg71
g1045
sg64
(lp1187
g57
(g78
g59
NtRp1188
(dp1189
g62
(dp1190
g82
g83
ssg71
g1184
sg64
(lp1191
S'db_sessions'
p1192
asbag57
(g78
g59
NtRp1193
(dp1194
g62
(dp1195
g89
g90
ssg71
g1184
sg64
(lp1196
S':'
asbag57
(g78
g59
NtRp1197
(dp1198
g62
(dp1199
sg71
g1184
sg64
(lp1200
g57
(g58
g59
NtRp1201
(dp1202
g62
(dp1203
g70
I4
ssg71
g1197
sg64
(lp1204
S'set([])'
p1205
asbasbasbag57
(g73
g59
NtRp1206
(dp1207
g62
(dp1208
sg71
g1045
sg64
(lp1209
g57
(g78
g59
NtRp1210
(dp1211
g62
(dp1212
g82
g83
ssg71
g1206
sg64
(lp1213
S'debugging'
p1214
asbag57
(g78
g59
NtRp1215
(dp1216
g62
(dp1217
g89
g90
ssg71
g1206
sg64
(lp1218
S':'
asbag57
(g78
g59
NtRp1219
(dp1220
g62
(dp1221
sg71
g1206
sg64
(lp1222
g57
(g58
g59
NtRp1223
(dp1224
g62
(dp1225
g70
I4
ssg71
g1219
sg64
(lp1226
g100
asbasbasbag57
(g73
g59
NtRp1227
(dp1228
g62
(dp1229
sg71
g1045
sg64
(lp1230
g57
(g78
g59
NtRp1231
(dp1232
g62
(dp1233
g82
g83
ssg71
g1227
sg64
(lp1234
S'gluon_parent'
p1235
asbag57
(g78
g59
NtRp1236
(dp1237
g62
(dp1238
g89
g90
ssg71
g1227
sg64
(lp1239
S':'
asbag57
(g78
g59
NtRp1240
(dp1241
g62
(dp1242
sg71
g1227
sg64
(lp1243
g57
(g58
g59
NtRp1244
(dp1245
g62
(dp1246
g70
I4
ssg71
g1240
sg64
(lp1247
S'/home/piyush/web2py'
p1248
asbasbasbag57
(g73
g59
NtRp1249
(dp1250
g62
(dp1251
sg71
g1045
sg64
(lp1252
g57
(g78
g59
NtRp1253
(dp1254
g62
(dp1255
g82
g83
ssg71
g1249
sg64
(lp1256
S'http_accept'
p1257
asbag57
(g78
g59
NtRp1258
(dp1259
g62
(dp1260
g89
g90
ssg71
g1249
sg64
(lp1261
S':'
asbag57
(g78
g59
NtRp1262
(dp1263
g62
(dp1264
sg71
g1249
sg64
(lp1265
g57
(g58
g59
NtRp1266
(dp1267
g62
(dp1268
g70
I4
ssg71
g1262
sg64
(lp1269
S'text/html,application/xhtml+xml,application/xml;q=0.9,*/*;q=0.8'
p1270
asbasbasbag57
(g73
g59
NtRp1271
(dp1272
g62
(dp1273
sg71
g1045
sg64
(lp1274
g57
(g78
g59
NtRp1275
(dp1276
g62
(dp1277
g82
g83
ssg71
g1271
sg64
(lp1278
S'http_accept_encoding'
p1279
asbag57
(g78
g59
NtRp1280
(dp1281
g62
(dp1282
g89
g90
ssg71
g1271
sg64
(lp1283
S':'
asbag57
(g78
g59
NtRp1284
(dp1285
g62
(dp1286
sg71
g1271
sg64
(lp1287
g57
(g58
g59
NtRp1288
(dp1289
g62
(dp1290
g70
I4
ssg71
g1284
sg64
(lp1291
S'gzip, deflate'
p1292
asbasbasbag57
(g73
g59
NtRp1293
(dp1294
g62
(dp1295
sg71
g1045
sg64
(lp1296
g57
(g78
g59
NtRp1297
(dp1298
g62
(dp1299
g82
g83
ssg71
g1293
sg64
(lp1300
S'http_accept_language'
p1301
asbag57
(g78
g59
NtRp1302
(dp1303
g62
(dp1304
g89
g90
ssg71
g1293
sg64
(lp1305
S':'
asbag57
(g78
g59
NtRp1306
(dp1307
g62
(dp1308
sg71
g1293
sg64
(lp1309
g57
(g58
g59
NtRp1310
(dp1311
g62
(dp1312
g70
I4
ssg71
g1306
sg64
(lp1313
S'en-us,en;q=0.5'
p1314
asbasbasbag57
(g73
g59
NtRp1315
(dp1316
g62
(dp1317
sg71
g1045
sg64
(lp1318
g57
(g78
g59
NtRp1319
(dp1320
g62
(dp1321
g82
g83
ssg71
g1315
sg64
(lp1322
S'http_cache_control'
p1323
asbag57
(g78
g59
NtRp1324
(dp1325
g62
(dp1326
g89
g90
ssg71
g1315
sg64
(lp1327
S':'
asbag57
(g78
g59
NtRp1328
(dp1329
g62
(dp1330
sg71
g1315
sg64
(lp1331
g57
(g58
g59
NtRp1332
(dp1333
g62
(dp1334
g70
I4
ssg71
g1328
sg64
(lp1335
S'max-age=0'
p1336
asbasbasbag57
(g73
g59
NtRp1337
(dp1338
g62
(dp1339
sg71
g1045
sg64
(lp1340
g57
(g78
g59
NtRp1341
(dp1342
g62
(dp1343
g82
g83
ssg71
g1337
sg64
(lp1344
S'http_connection'
p1345
asbag57
(g78
g59
NtRp1346
(dp1347
g62
(dp1348
g89
g90
ssg71
g1337
sg64
(lp1349
S':'
asbag57
(g78
g59
NtRp1350
(dp1351
g62
(dp1352
sg71
g1337
sg64
(lp1353
g57
(g58
g59
NtRp1354
(dp1355
g62
(dp1356
g70
I4
ssg71
g1350
sg64
(lp1357
S'keep-alive'
p1358
asbasbasbag57
(g73
g59
NtRp1359
(dp1360
g62
(dp1361
sg71
g1045
sg64
(lp1362
g57
(g78
g59
NtRp1363
(dp1364
g62
(dp1365
g82
g83
ssg71
g1359
sg64
(lp1366
S'http_content_length'
p1367
asbag57
(g78
g59
NtRp1368
(dp1369
g62
(dp1370
g89
g90
ssg71
g1359
sg64
(lp1371
S':'
asbag57
(g78
g59
NtRp1372
(dp1373
g62
(dp1374
sg71
g1359
sg64
(lp1375
g57
(g58
g59
NtRp1376
(dp1377
g62
(dp1378
g70
I4
ssg71
g1372
sg64
(lp1379
g1161
asbasbasbag57
(g73
g59
NtRp1380
(dp1381
g62
(dp1382
sg71
g1045
sg64
(lp1383
g57
(g78
g59
NtRp1384
(dp1385
g62
(dp1386
g82
g83
ssg71
g1380
sg64
(lp1387
S'http_content_type'
p1388
asbag57
(g78
g59
NtRp1389
(dp1390
g62
(dp1391
g89
g90
ssg71
g1380
sg64
(lp1392
S':'
asbag57
(g78
g59
NtRp1393
(dp1394
g62
(dp1395
sg71
g1380
sg64
(lp1396
g57
(g58
g59
NtRp1397
(dp1398
g62
(dp1399
g70
I4
ssg71
g1393
sg64
(lp1400
g1183
asbasbasbag57
(g73
g59
NtRp1401
(dp1402
g62
(dp1403
sg71
g1045
sg64
(lp1404
g57
(g78
g59
NtRp1405
(dp1406
g62
(dp1407
g82
g83
ssg71
g1401
sg64
(lp1408
S'http_cookie'
p1409
asbag57
(g78
g59
NtRp1410
(dp1411
g62
(dp1412
g89
g90
ssg71
g1401
sg64
(lp1413
S':'
asbag57
(g78
g59
NtRp1414
(dp1415
g62
(dp1416
sg71
g1401
sg64
(lp1417
g57
(g58
g59
NtRp1418
(dp1419
g62
(dp1420
g70
I4
ssg71
g1414
sg64
(lp1421
S'session_id_welcome=127.0.0.1-3299e4b7-9181-4336-a2b6-d67ebc8bfe8e; session_id_admin=127.0.0.1-f31a16a6-2f0e-474e-b0b5-7ca781ebd64d; session_id_ialbum=127.0.0.1-8bab57f4-8655-4ca4-8b5d-11fde04576c5; session_id_fotobuk=127.0.0.1-961e4bc4-dc07-4e6c-b9f7-52a46e56ffd5'
p1422
asbasbasbag57
(g73
g59
NtRp1423
(dp1424
g62
(dp1425
sg71
g1045
sg64
(lp1426
g57
(g78
g59
NtRp1427
(dp1428
g62
(dp1429
g82
g83
ssg71
g1423
sg64
(lp1430
S'http_host'
p1431
asbag57
(g78
g59
NtRp1432
(dp1433
g62
(dp1434
g89
g90
ssg71
g1423
sg64
(lp1435
S':'
asbag57
(g78
g59
NtRp1436
(dp1437
g62
(dp1438
sg71
g1423
sg64
(lp1439
g57
(g58
g59
NtRp1440
(dp1441
g62
(dp1442
g70
I4
ssg71
g1436
sg64
(lp1443
S'localhost:8000'
p1444
asbasbasbag57
(g73
g59
NtRp1445
(dp1446
g62
(dp1447
sg71
g1045
sg64
(lp1448
g57
(g78
g59
NtRp1449
(dp1450
g62
(dp1451
g82
g83
ssg71
g1445
sg64
(lp1452
S'http_referer'
p1453
asbag57
(g78
g59
NtRp1454
(dp1455
g62
(dp1456
g89
g90
ssg71
g1445
sg64
(lp1457
S':'
asbag57
(g78
g59
NtRp1458
(dp1459
g62
(dp1460
sg71
g1445
sg64
(lp1461
g57
(g58
g59
NtRp1462
(dp1463
g62
(dp1464
g70
I4
ssg71
g1458
sg64
(lp1465
S'http://localhost:8000/FotoBuk/default/show/2'
p1466
asbasbasbag57
(g73
g59
NtRp1467
(dp1468
g62
(dp1469
sg71
g1045
sg64
(lp1470
g57
(g78
g59
NtRp1471
(dp1472
g62
(dp1473
g82
g83
ssg71
g1467
sg64
(lp1474
S'http_user_agent'
p1475
asbag57
(g78
g59
NtRp1476
(dp1477
g62
(dp1478
g89
g90
ssg71
g1467
sg64
(lp1479
S':'
asbag57
(g78
g59
NtRp1480
(dp1481
g62
(dp1482
sg71
g1467
sg64
(lp1483
g57
(g58
g59
NtRp1484
(dp1485
g62
(dp1486
g70
I4
ssg71
g1480
sg64
(lp1487
S'Mozilla/5.0 (X11; Linux i686; rv:11.0) Gecko/20100101 Firefox/11.0'
p1488
asbasbasbag57
(g73
g59
NtRp1489
(dp1490
g62
(dp1491
sg71
g1045
sg64
(lp1492
g57
(g78
g59
NtRp1493
(dp1494
g62
(dp1495
g82
g83
ssg71
g1489
sg64
(lp1496
S'is_jython'
p1497
asbag57
(g78
g59
NtRp1498
(dp1499
g62
(dp1500
g89
g90
ssg71
g1489
sg64
(lp1501
S':'
asbag57
(g78
g59
NtRp1502
(dp1503
g62
(dp1504
sg71
g1489
sg64
(lp1505
g57
(g58
g59
NtRp1506
(dp1507
g62
(dp1508
g70
I4
ssg71
g1502
sg64
(lp1509
g100
asbasbasbag57
(g73
g59
NtRp1510
(dp1511
g62
(dp1512
sg71
g1045
sg64
(lp1513
g57
(g78
g59
NtRp1514
(dp1515
g62
(dp1516
g82
g83
ssg71
g1510
sg64
(lp1517
S'is_pypy'
p1518
asbag57
(g78
g59
NtRp1519
(dp1520
g62
(dp1521
g89
g90
ssg71
g1510
sg64
(lp1522
S':'
asbag57
(g78
g59
NtRp1523
(dp1524
g62
(dp1525
sg71
g1510
sg64
(lp1526
g57
(g58
g59
NtRp1527
(dp1528
g62
(dp1529
g70
I4
ssg71
g1523
sg64
(lp1530
g100
asbasbasbag57
(g73
g59
NtRp1531
(dp1532
g62
(dp1533
sg71
g1045
sg64
(lp1534
g57
(g78
g59
NtRp1535
(dp1536
g62
(dp1537
g82
g83
ssg71
g1531
sg64
(lp1538
S'path_info'
p1539
asbag57
(g78
g59
NtRp1540
(dp1541
g62
(dp1542
g89
g90
ssg71
g1531
sg64
(lp1543
S':'
asbag57
(g78
g59
NtRp1544
(dp1545
g62
(dp1546
sg71
g1531
sg64
(lp1547
g57
(g58
g59
NtRp1548
(dp1549
g62
(dp1550
g70
I4
ssg71
g1544
sg64
(lp1551
S'/FotoBuk/default/show/2'
p1552
asbasbasbag57
(g73
g59
NtRp1553
(dp1554
g62
(dp1555
sg71
g1045
sg64
(lp1556
g57
(g78
g59
NtRp1557
(dp1558
g62
(dp1559
g82
g83
ssg71
g1553
sg64
(lp1560
S'query_string'
p1561
asbag57
(g78
g59
NtRp1562
(dp1563
g62
(dp1564
g89
g90
ssg71
g1553
sg64
(lp1565
S':'
asbag57
(g78
g59
NtRp1566
(dp1567
g62
(dp1568
sg71
g1553
sg64
(lp1569
g57
(g58
g59
NtRp1570
(dp1571
g62
(dp1572
g70
I4
ssg71
g1566
sg64
(lp1573
S''
asbasbasbag57
(g73
g59
NtRp1574
(dp1575
g62
(dp1576
sg71
g1045
sg64
(lp1577
g57
(g78
g59
NtRp1578
(dp1579
g62
(dp1580
g82
g83
ssg71
g1574
sg64
(lp1581
S'remote_addr'
p1582
asbag57
(g78
g59
NtRp1583
(dp1584
g62
(dp1585
g89
g90
ssg71
g1574
sg64
(lp1586
S':'
asbag57
(g78
g59
NtRp1587
(dp1588
g62
(dp1589
sg71
g1574
sg64
(lp1590
g57
(g58
g59
NtRp1591
(dp1592
g62
(dp1593
g70
I4
ssg71
g1587
sg64
(lp1594
g224
asbasbasbag57
(g73
g59
NtRp1595
(dp1596
g62
(dp1597
sg71
g1045
sg64
(lp1598
g57
(g78
g59
NtRp1599
(dp1600
g62
(dp1601
g82
g83
ssg71
g1595
sg64
(lp1602
S'remote_port'
p1603
asbag57
(g78
g59
NtRp1604
(dp1605
g62
(dp1606
g89
g90
ssg71
g1595
sg64
(lp1607
S':'
asbag57
(g78
g59
NtRp1608
(dp1609
g62
(dp1610
sg71
g1595
sg64
(lp1611
g57
(g58
g59
NtRp1612
(dp1613
g62
(dp1614
g70
I4
ssg71
g1608
sg64
(lp1615
S'52931'
p1616
asbasbasbag57
(g73
g59
NtRp1617
(dp1618
g62
(dp1619
sg71
g1045
sg64
(lp1620
g57
(g78
g59
NtRp1621
(dp1622
g62
(dp1623
g82
g83
ssg71
g1617
sg64
(lp1624
S'request_method'
p1625
asbag57
(g78
g59
NtRp1626
(dp1627
g62
(dp1628
g89
g90
ssg71
g1617
sg64
(lp1629
S':'
asbag57
(g78
g59
NtRp1630
(dp1631
g62
(dp1632
sg71
g1617
sg64
(lp1633
g57
(g58
g59
NtRp1634
(dp1635
g62
(dp1636
g70
I4
ssg71
g1630
sg64
(lp1637
S'POST'
p1638
asbasbasbag57
(g73
g59
NtRp1639
(dp1640
g62
(dp1641
sg71
g1045
sg64
(lp1642
g57
(g78
g59
NtRp1643
(dp1644
g62
(dp1645
g82
g83
ssg71
g1639
sg64
(lp1646
S'script_name'
p1647
asbag57
(g78
g59
NtRp1648
(dp1649
g62
(dp1650
g89
g90
ssg71
g1639
sg64
(lp1651
S':'
asbag57
(g78
g59
NtRp1652
(dp1653
g62
(dp1654
sg71
g1639
sg64
(lp1655
g57
(g58
g59
NtRp1656
(dp1657
g62
(dp1658
g70
I4
ssg71
g1652
sg64
(lp1659
S''
asbasbasbag57
(g73
g59
NtRp1660
(dp1661
g62
(dp1662
sg71
g1045
sg64
(lp1663
g57
(g78
g59
NtRp1664
(dp1665
g62
(dp1666
g82
g83
ssg71
g1660
sg64
(lp1667
S'server_name'
p1668
asbag57
(g78
g59
NtRp1669
(dp1670
g62
(dp1671
g89
g90
ssg71
g1660
sg64
(lp1672
S':'
asbag57
(g78
g59
NtRp1673
(dp1674
g62
(dp1675
sg71
g1660
sg64
(lp1676
g57
(g58
g59
NtRp1677
(dp1678
g62
(dp1679
g70
I4
ssg71
g1673
sg64
(lp1680
S'Solo'
p1681
asbasbasbag57
(g73
g59
NtRp1682
(dp1683
g62
(dp1684
sg71
g1045
sg64
(lp1685
g57
(g78
g59
NtRp1686
(dp1687
g62
(dp1688
g82
g83
ssg71
g1682
sg64
(lp1689
S'server_port'
p1690
asbag57
(g78
g59
NtRp1691
(dp1692
g62
(dp1693
g89
g90
ssg71
g1682
sg64
(lp1694
S':'
asbag57
(g78
g59
NtRp1695
(dp1696
g62
(dp1697
sg71
g1682
sg64
(lp1698
g57
(g58
g59
NtRp1699
(dp1700
g62
(dp1701
g70
I4
ssg71
g1695
sg64
(lp1702
S'8000'
p1703
asbasbasbag57
(g73
g59
NtRp1704
(dp1705
g62
(dp1706
sg71
g1045
sg64
(lp1707
g57
(g78
g59
NtRp1708
(dp1709
g62
(dp1710
g82
g83
ssg71
g1704
sg64
(lp1711
S'server_protocol'
p1712
asbag57
(g78
g59
NtRp1713
(dp1714
g62
(dp1715
g89
g90
ssg71
g1704
sg64
(lp1716
S':'
asbag57
(g78
g59
NtRp1717
(dp1718
g62
(dp1719
sg71
g1704
sg64
(lp1720
g57
(g58
g59
NtRp1721
(dp1722
g62
(dp1723
g70
I4
ssg71
g1717
sg64
(lp1724
S'HTTP/1.1'
p1725
asbasbasbag57
(g73
g59
NtRp1726
(dp1727
g62
(dp1728
sg71
g1045
sg64
(lp1729
g57
(g78
g59
NtRp1730
(dp1731
g62
(dp1732
g82
g83
ssg71
g1726
sg64
(lp1733
S'server_software'
p1734
asbag57
(g78
g59
NtRp1735
(dp1736
g62
(dp1737
g89
g90
ssg71
g1726
sg64
(lp1738
S':'
asbag57
(g78
g59
NtRp1739
(dp1740
g62
(dp1741
sg71
g1726
sg64
(lp1742
g57
(g58
g59
NtRp1743
(dp1744
g62
(dp1745
g70
I4
ssg71
g1739
sg64
(lp1746
S'Rocket 1.2.4'
p1747
asbasbasbag57
(g73
g59
NtRp1748
(dp1749
g62
(dp1750
sg71
g1045
sg64
(lp1751
g57
(g78
g59
NtRp1752
(dp1753
g62
(dp1754
g82
g83
ssg71
g1748
sg64
(lp1755
S'web2py_crontype'
p1756
asbag57
(g78
g59
NtRp1757
(dp1758
g62
(dp1759
g89
g90
ssg71
g1748
sg64
(lp1760
S':'
asbag57
(g78
g59
NtRp1761
(dp1762
g62
(dp1763
sg71
g1748
sg64
(lp1764
g57
(g58
g59
NtRp1765
(dp1766
g62
(dp1767
g70
I4
ssg71
g1761
sg64
(lp1768
S'hard'
p1769
asbasbasbag57
(g73
g59
NtRp1770
(dp1771
g62
(dp1772
sg71
g1045
sg64
(lp1773
g57
(g78
g59
NtRp1774
(dp1775
g62
(dp1776
g82
g83
ssg71
g1770
sg64
(lp1777
S'web2py_path'
p1778
asbag57
(g78
g59
NtRp1779
(dp1780
g62
(dp1781
g89
g90
ssg71
g1770
sg64
(lp1782
S':'
asbag57
(g78
g59
NtRp1783
(dp1784
g62
(dp1785
sg71
g1770
sg64
(lp1786
g57
(g58
g59
NtRp1787
(dp1788
g62
(dp1789
g70
I4
ssg71
g1783
sg64
(lp1790
g1092
asbasbasbag57
(g73
g59
NtRp1791
(dp1792
g62
(dp1793
sg71
g1045
sg64
(lp1794
g57
(g78
g59
NtRp1795
(dp1796
g62
(dp1797
g82
g83
ssg71
g1791
sg64
(lp1798
S'web2py_version'
p1799
asbag57
(g78
g59
NtRp1800
(dp1801
g62
(dp1802
g89
g90
ssg71
g1791
sg64
(lp1803
S':'
asbag57
(g78
g59
NtRp1804
(dp1805
g62
(dp1806
sg71
g1791
sg64
(lp1807
g57
(g58
g59
NtRp1808
(dp1809
g62
(dp1810
g70
I4
ssg71
g1804
sg64
(lp1811
g57
(g66
g59
NtRp1812
(dp1813
g62
(dp1814
g70
I3
ssg71
Nsg64
(lp1815
g57
(g73
g59
NtRp1816
(dp1817
g62
(dp1818
sg71
g1812
sg64
(lp1819
g57
(g78
g59
NtRp1820
(dp1821
g62
(dp1822
sg71
g1816
sg64
(lp1823
g57
(g58
g59
NtRp1824
(dp1825
g62
(dp1826
g70
I3
ssg71
g1820
sg64
(lp1827
S'2'
asbasbasbag57
(g73
g59
NtRp1828
(dp1829
g62
(dp1830
sg71
g1812
sg64
(lp1831
g57
(g78
g59
NtRp1832
(dp1833
g62
(dp1834
sg71
g1828
sg64
(lp1835
g57
(g58
g59
NtRp1836
(dp1837
g62
(dp1838
g70
I3
ssg71
g1832
sg64
(lp1839
S'0'
asbasbasbag57
(g73
g59
NtRp1840
(dp1841
g62
(dp1842
sg71
g1812
sg64
(lp1843
g57
(g78
g59
NtRp1844
(dp1845
g62
(dp1846
sg71
g1840
sg64
(lp1847
g57
(g58
g59
NtRp1848
(dp1849
g62
(dp1850
g70
I3
ssg71
g1844
sg64
(lp1851
S'2'
asbasbasbag57
(g73
g59
NtRp1852
(dp1853
g62
(dp1854
sg71
g1812
sg64
(lp1855
g57
(g78
g59
NtRp1856
(dp1857
g62
(dp1858
sg71
g1852
sg64
(lp1859
g57
(g58
g59
NtRp1860
(dp1861
g62
(dp1862
g70
I3
ssg71
g1856
sg64
(lp1863
S'datetime.datetime(2012, 8, 30, 4, 8, 18)'
p1864
asbasbasbag57
(g73
g59
NtRp1865
(dp1866
g62
(dp1867
sg71
g1812
sg64
(lp1868
g57
(g78
g59
NtRp1869
(dp1870
g62
(dp1871
sg71
g1865
sg64
(lp1872
g57
(g58
g59
NtRp1873
(dp1874
g62
(dp1875
g70
I3
ssg71
g1869
sg64
(lp1876
S'stable'
p1877
asbasbasbasbasbasbasbag57
(g73
g59
NtRp1878
(dp1879
g62
(dp1880
sg71
g1045
sg64
(lp1881
g57
(g78
g59
NtRp1882
(dp1883
g62
(dp1884
g82
g83
ssg71
g1878
sg64
(lp1885
S'wsgi_errors'
p1886
asbag57
(g78
g59
NtRp1887
(dp1888
g62
(dp1889
g89
g90
ssg71
g1878
sg64
(lp1890
S':'
asbag57
(g78
g59
NtRp1891
(dp1892
g62
(dp1893
sg71
g1878
sg64
(lp1894
g57
(g58
g59
NtRp1895
(dp1896
g62
(dp1897
g70
I4
ssg71
g1891
sg64
(lp1898
S"<open file '<stderr>', mode 'w' at 0xb772d0d0>"
p1899
asbasbasbag57
(g73
g59
NtRp1900
(dp1901
g62
(dp1902
sg71
g1045
sg64
(lp1903
g57
(g78
g59
NtRp1904
(dp1905
g62
(dp1906
g82
g83
ssg71
g1900
sg64
(lp1907
S'wsgi_file_wrapper'
p1908
asbag57
(g78
g59
NtRp1909
(dp1910
g62
(dp1911
g89
g90
ssg71
g1900
sg64
(lp1912
S':'
asbag57
(g78
g59
NtRp1913
(dp1914
g62
(dp1915
sg71
g1900
sg64
(lp1916
g57
(g58
g59
NtRp1917
(dp1918
g62
(dp1919
g70
I4
ssg71
g1913
sg64
(lp1920
S'<class wsgiref.util.FileWrapper at 0x8d0326c>'
p1921
asbasbasbag57
(g73
g59
NtRp1922
(dp1923
g62
(dp1924
sg71
g1045
sg64
(lp1925
g57
(g78
g59
NtRp1926
(dp1927
g62
(dp1928
g82
g83
ssg71
g1922
sg64
(lp1929
S'wsgi_input'
p1930
asbag57
(g78
g59
NtRp1931
(dp1932
g62
(dp1933
g89
g90
ssg71
g1922
sg64
(lp1934
S':'
asbag57
(g78
g59
NtRp1935
(dp1936
g62
(dp1937
sg71
g1922
sg64
(lp1938
g57
(g58
g59
NtRp1939
(dp1940
g62
(dp1941
g70
I4
ssg71
g1935
sg64
(lp1942
S'<socket._fileobject object at 0xb398da2c>'
p1943
asbasbasbag57
(g73
g59
NtRp1944
(dp1945
g62
(dp1946
sg71
g1045
sg64
(lp1947
g57
(g78
g59
NtRp1948
(dp1949
g62
(dp1950
g82
g83
ssg71
g1944
sg64
(lp1951
S'wsgi_multiprocess'
p1952
asbag57
(g78
g59
NtRp1953
(dp1954
g62
(dp1955
g89
g90
ssg71
g1944
sg64
(lp1956
S':'
asbag57
(g78
g59
NtRp1957
(dp1958
g62
(dp1959
sg71
g1944
sg64
(lp1960
g57
(g58
g59
NtRp1961
(dp1962
g62
(dp1963
g70
I4
ssg71
g1957
sg64
(lp1964
g100
asbasbasbag57
(g73
g59
NtRp1965
(dp1966
g62
(dp1967
sg71
g1045
sg64
(lp1968
g57
(g78
g59
NtRp1969
(dp1970
g62
(dp1971
g82
g83
ssg71
g1965
sg64
(lp1972
S'wsgi_multithread'
p1973
asbag57
(g78
g59
NtRp1974
(dp1975
g62
(dp1976
g89
g90
ssg71
g1965
sg64
(lp1977
S':'
asbag57
(g78
g59
NtRp1978
(dp1979
g62
(dp1980
sg71
g1965
sg64
(lp1981
g57
(g58
g59
NtRp1982
(dp1983
g62
(dp1984
g70
I4
ssg71
g1978
sg64
(lp1985
S'True'
p1986
asbasbasbag57
(g73
g59
NtRp1987
(dp1988
g62
(dp1989
sg71
g1045
sg64
(lp1990
g57
(g78
g59
NtRp1991
(dp1992
g62
(dp1993
g82
g83
ssg71
g1987
sg64
(lp1994
S'wsgi_run_once'
p1995
asbag57
(g78
g59
NtRp1996
(dp1997
g62
(dp1998
g89
g90
ssg71
g1987
sg64
(lp1999
S':'
asbag57
(g78
g59
NtRp2000
(dp2001
g62
(dp2002
sg71
g1987
sg64
(lp2003
g57
(g58
g59
NtRp2004
(dp2005
g62
(dp2006
g70
I4
ssg71
g2000
sg64
(lp2007
g100
asbasbasbag57
(g73
g59
NtRp2008
(dp2009
g62
(dp2010
sg71
g1045
sg64
(lp2011
g57
(g78
g59
NtRp2012
(dp2013
g62
(dp2014
g82
g83
ssg71
g2008
sg64
(lp2015
S'wsgi_url_scheme'
p2016
asbag57
(g78
g59
NtRp2017
(dp2018
g62
(dp2019
g89
g90
ssg71
g2008
sg64
(lp2020
S':'
asbag57
(g78
g59
NtRp2021
(dp2022
g62
(dp2023
sg71
g2008
sg64
(lp2024
g57
(g58
g59
NtRp2025
(dp2026
g62
(dp2027
g70
I4
ssg71
g2021
sg64
(lp2028
S'http'
p2029
asbasbasbag57
(g73
g59
NtRp2030
(dp2031
g62
(dp2032
sg71
g1045
sg64
(lp2033
g57
(g78
g59
NtRp2034
(dp2035
g62
(dp2036
g82
g83
ssg71
g2030
sg64
(lp2037
S'wsgi_version'
p2038
asbag57
(g78
g59
NtRp2039
(dp2040
g62
(dp2041
g89
g90
ssg71
g2030
sg64
(lp2042
S':'
asbag57
(g78
g59
NtRp2043
(dp2044
g62
(dp2045
sg71
g2030
sg64
(lp2046
g57
(g58
g59
NtRp2047
(dp2048
g62
(dp2049
g70
I4
ssg71
g2043
sg64
(lp2050
g57
(g66
g59
NtRp2051
(dp2052
g62
(dp2053
g70
I3
ssg71
Nsg64
(lp2054
g57
(g73
g59
NtRp2055
(dp2056
g62
(dp2057
sg71
g2051
sg64
(lp2058
g57
(g78
g59
NtRp2059
(dp2060
g62
(dp2061
sg71
g2055
sg64
(lp2062
g57
(g58
g59
NtRp2063
(dp2064
g62
(dp2065
g70
I3
ssg71
g2059
sg64
(lp2066
S'1'
asbasbasbag57
(g73
g59
NtRp2067
(dp2068
g62
(dp2069
sg71
g2051
sg64
(lp2070
g57
(g78
g59
NtRp2071
(dp2072
g62
(dp2073
sg71
g2067
sg64
(lp2074
g57
(g58
g59
NtRp2075
(dp2076
g62
(dp2077
g70
I3
ssg71
g2071
sg64
(lp2078
S'0'
asbasbasbasbasbasbasbasbasbasbasbag57
(g73
g59
NtRp2079
(dp2080
g62
(dp2081
sg71
g67
sg64
(lp2082
g57
(g78
g59
NtRp2083
(dp2084
g62
(dp2085
g82
g83
ssg71
g2079
sg64
(lp2086
S'extension'
p2087
asbag57
(g78
g59
NtRp2088
(dp2089
g62
(dp2090
g89
g90
ssg71
g2079
sg64
(lp2091
S':'
asbag57
(g78
g59
NtRp2092
(dp2093
g62
(dp2094
sg71
g2079
sg64
(lp2095
g57
(g58
g59
NtRp2096
(dp2097
g62
(dp2098
g70
I5
ssg71
g2092
sg64
(lp2099
S'html'
p2100
asbasbasbag57
(g73
g59
NtRp2101
(dp2102
g62
(dp2103
sg71
g67
sg64
(lp2104
g57
(g78
g59
NtRp2105
(dp2106
g62
(dp2107
g82
g83
ssg71
g2101
sg64
(lp2108
S'folder'
p2109
asbag57
(g78
g59
NtRp2110
(dp2111
g62
(dp2112
g89
g90
ssg71
g2101
sg64
(lp2113
S':'
asbag57
(g78
g59
NtRp2114
(dp2115
g62
(dp2116
sg71
g2101
sg64
(lp2117
g57
(g58
g59
NtRp2118
(dp2119
g62
(dp2120
g70
I5
ssg71
g2114
sg64
(lp2121
S'/home/piyush/web2py/applications/FotoBuk/'
p2122
asbasbasbag57
(g73
g59
NtRp2123
(dp2124
g62
(dp2125
sg71
g67
sg64
(lp2126
g57
(g78
g59
NtRp2127
(dp2128
g62
(dp2129
g82
g83
ssg71
g2123
sg64
(lp2130
S'function'
p2131
asbag57
(g78
g59
NtRp2132
(dp2133
g62
(dp2134
g89
g90
ssg71
g2123
sg64
(lp2135
S':'
asbag57
(g78
g59
NtRp2136
(dp2137
g62
(dp2138
sg71
g2123
sg64
(lp2139
g57
(g58
g59
NtRp2140
(dp2141
g62
(dp2142
g70
I5
ssg71
g2136
sg64
(lp2143
S'show'
p2144
asbasbasbag57
(g73
g59
NtRp2145
(dp2146
g62
(dp2147
sg71
g67
sg64
(lp2148
g57
(g78
g59
NtRp2149
(dp2150
g62
(dp2151
g82
g83
ssg71
g2145
sg64
(lp2152
S'get_vars'
p2153
asbag57
(g78
g59
NtRp2154
(dp2155
g62
(dp2156
g89
g90
ssg71
g2145
sg64
(lp2157
S':'
asbag57
(g78
g59
NtRp2158
(dp2159
g62
(dp2160
sg71
g2145
sg64
(lp2161
g57
(g58
g59
NtRp2162
(dp2163
g62
(dp2164
g70
I5
ssg71
g2158
sg64
(lp2165
g57
(g66
g59
NtRp2166
(dp2167
g62
(dp2168
g70
I4
ssg71
Nsg64
(lp2169
sbasbasbasbag57
(g73
g59
NtRp2170
(dp2171
g62
(dp2172
sg71
g67
sg64
(lp2173
g57
(g78
g59
NtRp2174
(dp2175
g62
(dp2176
g82
g83
ssg71
g2170
sg64
(lp2177
S'global_settings'
p2178
asbag57
(g78
g59
NtRp2179
(dp2180
g62
(dp2181
g89
g90
ssg71
g2170
sg64
(lp2182
S':'
asbag57
(g78
g59
NtRp2183
(dp2184
g62
(dp2185
sg71
g2170
sg64
(lp2186
g57
(g58
g59
NtRp2187
(dp2188
g62
(dp2189
g70
I5
ssg71
g2183
sg64
(lp2190
g57
(g66
g59
NtRp2191
(dp2192
g62
(dp2193
g70
I4
ssg71
Nsg64
(lp2194
g57
(g73
g59
NtRp2195
(dp2196
g62
(dp2197
sg71
g2191
sg64
(lp2198
g57
(g78
g59
NtRp2199
(dp2200
g62
(dp2201
g82
g83
ssg71
g2195
sg64
(lp2202
g1057
asbag57
(g78
g59
NtRp2203
(dp2204
g62
(dp2205
g89
g90
ssg71
g2195
sg64
(lp2206
S':'
asbag57
(g78
g59
NtRp2207
(dp2208
g62
(dp2209
sg71
g2195
sg64
(lp2210
g57
(g58
g59
NtRp2211
(dp2212
g62
(dp2213
g70
I4
ssg71
g2207
sg64
(lp2214
S"set(['/home/piyush/web2py/applications/FotoBuk/', '/home/piyush/web2py/applications/welcome/', '/home/piyush/web2py/applications/admin/'])"
p2215
asbasbasbag57
(g73
g59
NtRp2216
(dp2217
g62
(dp2218
sg71
g2191
sg64
(lp2219
g57
(g78
g59
NtRp2220
(dp2221
g62
(dp2222
g82
g83
ssg71
g2216
sg64
(lp2223
g1079
asbag57
(g78
g59
NtRp2224
(dp2225
g62
(dp2226
g89
g90
ssg71
g2216
sg64
(lp2227
S':'
asbag57
(g78
g59
NtRp2228
(dp2229
g62
(dp2230
sg71
g2216
sg64
(lp2231
g57
(g58
g59
NtRp2232
(dp2233
g62
(dp2234
g70
I4
ssg71
g2228
sg64
(lp2235
g1092
asbasbasbag57
(g73
g59
NtRp2236
(dp2237
g62
(dp2238
sg71
g2191
sg64
(lp2239
g57
(g78
g59
NtRp2240
(dp2241
g62
(dp2242
g82
g83
ssg71
g2236
sg64
(lp2243
g1101
asbag57
(g78
g59
NtRp2244
(dp2245
g62
(dp2246
g89
g90
ssg71
g2236
sg64
(lp2247
S':'
asbag57
(g78
g59
NtRp2248
(dp2249
g62
(dp2250
sg71
g2236
sg64
(lp2251
g57
(g58
g59
NtRp2252
(dp2253
g62
(dp2254
g70
I4
ssg71
g2248
sg64
(lp2255
g57
(g66
g59
NtRp2256
(dp2257
g62
(dp2258
g70
I3
ssg71
Nsg64
(lp2259
sbasbasbasbag57
(g73
g59
NtRp2260
(dp2261
g62
(dp2262
sg71
g2191
sg64
(lp2263
g57
(g78
g59
NtRp2264
(dp2265
g62
(dp2266
g82
g83
ssg71
g2260
sg64
(lp2267
g1126
asbag57
(g78
g59
NtRp2268
(dp2269
g62
(dp2270
g89
g90
ssg71
g2260
sg64
(lp2271
S':'
asbag57
(g78
g59
NtRp2272
(dp2273
g62
(dp2274
sg71
g2260
sg64
(lp2275
g57
(g58
g59
NtRp2276
(dp2277
g62
(dp2278
g70
I4
ssg71
g2272
sg64
(lp2279
S"<Values at 0x8d4130c: {'verbose': False, 'ip': '127.0.0.1', 'with_scheduler': False, 'ips': ['10.1.39.167', '10.42.0.1'], 'shutdown_timeout': 5, 'taskbar': False, 'port': 8000, 'maxthreads': None, 'softcron': False, 'server_name': 'Solo', 'bpython': False, 'nogui': False, 'nocron': False, 'extcron': False, 'run_system_tests': False, 'test': None, 'folder': '/home/piyush/web2py', 'config': '', 'import_models': False, 'winservice': '', 'shell': None, 'run': '', 'log_filename': 'httpserver.log', 'debuglevel': 30, 'args': [''], 'socket_timeout': 5, 'ssl_ca_certificate': None, 'scheduler': None, 'profiler_filename': None, 'ssl_private_key': '', 'scheduler_groups': None, 'password': '<ask>', 'request_queue_size': 5, 'ssl_certificate': '', 'cronjob': False, 'numthreads': None, 'quiet': False, 'interfaces': None, 'minthreads': None, 'timeout': 10, 'plain': False, 'nobanner': False, 'pid_filename': 'httpserver.pid'}>"
p2280
asbasbasbag57
(g73
g59
NtRp2281
(dp2282
g62
(dp2283
sg71
g2191
sg64
(lp2284
g57
(g78
g59
NtRp2285
(dp2286
g62
(dp2287
g82
g83
ssg71
g2281
sg64
(lp2288
g1192
asbag57
(g78
g59
NtRp2289
(dp2290
g62
(dp2291
g89
g90
ssg71
g2281
sg64
(lp2292
S':'
asbag57
(g78
g59
NtRp2293
(dp2294
g62
(dp2295
sg71
g2281
sg64
(lp2296
g57
(g58
g59
NtRp2297
(dp2298
g62
(dp2299
g70
I4
ssg71
g2293
sg64
(lp2300
S'set([])'
p2301
asbasbasbag57
(g73
g59
NtRp2302
(dp2303
g62
(dp2304
sg71
g2191
sg64
(lp2305
g57
(g78
g59
NtRp2306
(dp2307
g62
(dp2308
g82
g83
ssg71
g2302
sg64
(lp2309
g1214
asbag57
(g78
g59
NtRp2310
(dp2311
g62
(dp2312
g89
g90
ssg71
g2302
sg64
(lp2313
S':'
asbag57
(g78
g59
NtRp2314
(dp2315
g62
(dp2316
sg71
g2302
sg64
(lp2317
g57
(g58
g59
NtRp2318
(dp2319
g62
(dp2320
g70
I4
ssg71
g2314
sg64
(lp2321
g100
asbasbasbag57
(g73
g59
NtRp2322
(dp2323
g62
(dp2324
sg71
g2191
sg64
(lp2325
g57
(g78
g59
NtRp2326
(dp2327
g62
(dp2328
g82
g83
ssg71
g2322
sg64
(lp2329
g1235
asbag57
(g78
g59
NtRp2330
(dp2331
g62
(dp2332
g89
g90
ssg71
g2322
sg64
(lp2333
S':'
asbag57
(g78
g59
NtRp2334
(dp2335
g62
(dp2336
sg71
g2322
sg64
(lp2337
g57
(g58
g59
NtRp2338
(dp2339
g62
(dp2340
g70
I4
ssg71
g2334
sg64
(lp2341
g1248
asbasbasbag57
(g73
g59
NtRp2342
(dp2343
g62
(dp2344
sg71
g2191
sg64
(lp2345
g57
(g78
g59
NtRp2346
(dp2347
g62
(dp2348
g82
g83
ssg71
g2342
sg64
(lp2349
g1497
asbag57
(g78
g59
NtRp2350
(dp2351
g62
(dp2352
g89
g90
ssg71
g2342
sg64
(lp2353
S':'
asbag57
(g78
g59
NtRp2354
(dp2355
g62
(dp2356
sg71
g2342
sg64
(lp2357
g57
(g58
g59
NtRp2358
(dp2359
g62
(dp2360
g70
I4
ssg71
g2354
sg64
(lp2361
g100
asbasbasbag57
(g73
g59
NtRp2362
(dp2363
g62
(dp2364
sg71
g2191
sg64
(lp2365
g57
(g78
g59
NtRp2366
(dp2367
g62
(dp2368
g82
g83
ssg71
g2362
sg64
(lp2369
g1518
asbag57
(g78
g59
NtRp2370
(dp2371
g62
(dp2372
g89
g90
ssg71
g2362
sg64
(lp2373
S':'
asbag57
(g78
g59
NtRp2374
(dp2375
g62
(dp2376
sg71
g2362
sg64
(lp2377
g57
(g58
g59
NtRp2378
(dp2379
g62
(dp2380
g70
I4
ssg71
g2374
sg64
(lp2381
g100
asbasbasbag57
(g73
g59
NtRp2382
(dp2383
g62
(dp2384
sg71
g2191
sg64
(lp2385
g57
(g78
g59
NtRp2386
(dp2387
g62
(dp2388
g82
g83
ssg71
g2382
sg64
(lp2389
g1756
asbag57
(g78
g59
NtRp2390
(dp2391
g62
(dp2392
g89
g90
ssg71
g2382
sg64
(lp2393
S':'
asbag57
(g78
g59
NtRp2394
(dp2395
g62
(dp2396
sg71
g2382
sg64
(lp2397
g57
(g58
g59
NtRp2398
(dp2399
g62
(dp2400
g70
I4
ssg71
g2394
sg64
(lp2401
g1769
asbasbasbag57
(g73
g59
NtRp2402
(dp2403
g62
(dp2404
sg71
g2191
sg64
(lp2405
g57
(g78
g59
NtRp2406
(dp2407
g62
(dp2408
g82
g83
ssg71
g2402
sg64
(lp2409
g1799
asbag57
(g78
g59
NtRp2410
(dp2411
g62
(dp2412
g89
g90
ssg71
g2402
sg64
(lp2413
S':'
asbag57
(g78
g59
NtRp2414
(dp2415
g62
(dp2416
sg71
g2402
sg64
(lp2417
g57
(g58
g59
NtRp2418
(dp2419
g62
(dp2420
g70
I4
ssg71
g2414
sg64
(lp2421
g57
(g66
g59
NtRp2422
(dp2423
g62
(dp2424
g70
I3
ssg71
Nsg64
(lp2425
g57
(g73
g59
NtRp2426
(dp2427
g62
(dp2428
sg71
g2422
sg64
(lp2429
g57
(g78
g59
NtRp2430
(dp2431
g62
(dp2432
sg71
g2426
sg64
(lp2433
g57
(g58
g59
NtRp2434
(dp2435
g62
(dp2436
g70
I3
ssg71
g2430
sg64
(lp2437
S'2'
asbasbasbag57
(g73
g59
NtRp2438
(dp2439
g62
(dp2440
sg71
g2422
sg64
(lp2441
g57
(g78
g59
NtRp2442
(dp2443
g62
(dp2444
sg71
g2438
sg64
(lp2445
g57
(g58
g59
NtRp2446
(dp2447
g62
(dp2448
g70
I3
ssg71
g2442
sg64
(lp2449
S'0'
asbasbasbag57
(g73
g59
NtRp2450
(dp2451
g62
(dp2452
sg71
g2422
sg64
(lp2453
g57
(g78
g59
NtRp2454
(dp2455
g62
(dp2456
sg71
g2450
sg64
(lp2457
g57
(g58
g59
NtRp2458
(dp2459
g62
(dp2460
g70
I3
ssg71
g2454
sg64
(lp2461
S'2'
asbasbasbag57
(g73
g59
NtRp2462
(dp2463
g62
(dp2464
sg71
g2422
sg64
(lp2465
g57
(g78
g59
NtRp2466
(dp2467
g62
(dp2468
sg71
g2462
sg64
(lp2469
g57
(g58
g59
NtRp2470
(dp2471
g62
(dp2472
g70
I3
ssg71
g2466
sg64
(lp2473
S'datetime.datetime(2012, 8, 30, 4, 8, 18)'
p2474
asbasbasbag57
(g73
g59
NtRp2475
(dp2476
g62
(dp2477
sg71
g2422
sg64
(lp2478
g57
(g78
g59
NtRp2479
(dp2480
g62
(dp2481
sg71
g2475
sg64
(lp2482
g57
(g58
g59
NtRp2483
(dp2484
g62
(dp2485
g70
I3
ssg71
g2479
sg64
(lp2486
g1877
asbasbasbasbasbasbasbasbasbasbasbag57
(g73
g59
NtRp2487
(dp2488
g62
(dp2489
sg71
g67
sg64
(lp2490
g57
(g78
g59
NtRp2491
(dp2492
g62
(dp2493
g82
g83
ssg71
g2487
sg64
(lp2494
S'is_https'
p2495
asbag57
(g78
g59
NtRp2496
(dp2497
g62
(dp2498
g89
g90
ssg71
g2487
sg64
(lp2499
S':'
asbag57
(g78
g59
NtRp2500
(dp2501
g62
(dp2502
sg71
g2487
sg64
(lp2503
g57
(g58
g59
NtRp2504
(dp2505
g62
(dp2506
g70
I5
ssg71
g2500
sg64
(lp2507
g100
asbasbasbag57
(g73
g59
NtRp2508
(dp2509
g62
(dp2510
sg71
g67
sg64
(lp2511
g57
(g78
g59
NtRp2512
(dp2513
g62
(dp2514
g82
g83
ssg71
g2508
sg64
(lp2515
S'is_local'
p2516
asbag57
(g78
g59
NtRp2517
(dp2518
g62
(dp2519
g89
g90
ssg71
g2508
sg64
(lp2520
S':'
asbag57
(g78
g59
NtRp2521
(dp2522
g62
(dp2523
sg71
g2508
sg64
(lp2524
g57
(g58
g59
NtRp2525
(dp2526
g62
(dp2527
g70
I5
ssg71
g2521
sg64
(lp2528
g1986
asbasbasbag57
(g73
g59
NtRp2529
(dp2530
g62
(dp2531
sg71
g67
sg64
(lp2532
g57
(g78
g59
NtRp2533
(dp2534
g62
(dp2535
g82
g83
ssg71
g2529
sg64
(lp2536
S'is_restful'
p2537
asbag57
(g78
g59
NtRp2538
(dp2539
g62
(dp2540
g89
g90
ssg71
g2529
sg64
(lp2541
S':'
asbag57
(g78
g59
NtRp2542
(dp2543
g62
(dp2544
sg71
g2529
sg64
(lp2545
g57
(g58
g59
NtRp2546
(dp2547
g62
(dp2548
g70
I5
ssg71
g2542
sg64
(lp2549
g100
asbasbasbag57
(g73
g59
NtRp2550
(dp2551
g62
(dp2552
sg71
g67
sg64
(lp2553
g57
(g78
g59
NtRp2554
(dp2555
g62
(dp2556
g82
g83
ssg71
g2550
sg64
(lp2557
S'now'
p2558
asbag57
(g78
g59
NtRp2559
(dp2560
g62
(dp2561
g89
g90
ssg71
g2550
sg64
(lp2562
S':'
asbag57
(g78
g59
NtRp2563
(dp2564
g62
(dp2565
sg71
g2550
sg64
(lp2566
g57
(g58
g59
NtRp2567
(dp2568
g62
(dp2569
g70
I5
ssg71
g2563
sg64
(lp2570
S'datetime.datetime(2012, 8, 31, 9, 41, 1, 904919)'
p2571
asbasbasbag57
(g73
g59
NtRp2572
(dp2573
g62
(dp2574
sg71
g67
sg64
(lp2575
g57
(g78
g59
NtRp2576
(dp2577
g62
(dp2578
g82
g83
ssg71
g2572
sg64
(lp2579
S'post_vars'
p2580
asbag57
(g78
g59
NtRp2581
(dp2582
g62
(dp2583
g89
g90
ssg71
g2572
sg64
(lp2584
S':'
asbag57
(g78
g59
NtRp2585
(dp2586
g62
(dp2587
sg71
g2572
sg64
(lp2588
g57
(g58
g59
NtRp2589
(dp2590
g62
(dp2591
g70
I5
ssg71
g2585
sg64
(lp2592
g57
(g66
g59
NtRp2593
(dp2594
g62
(dp2595
g70
I4
ssg71
Nsg64
(lp2596
sbasbasbasbag57
(g73
g59
NtRp2597
(dp2598
g62
(dp2599
sg71
g67
sg64
(lp2600
g57
(g78
g59
NtRp2601
(dp2602
g62
(dp2603
g82
g83
ssg71
g2597
sg64
(lp2604
S'raw_args'
p2605
asbag57
(g78
g59
NtRp2606
(dp2607
g62
(dp2608
g89
g90
ssg71
g2597
sg64
(lp2609
S':'
asbag57
(g78
g59
NtRp2610
(dp2611
g62
(dp2612
sg71
g2597
sg64
(lp2613
g57
(g58
g59
NtRp2614
(dp2615
g62
(dp2616
g70
I5
ssg71
g2610
sg64
(lp2617
S'2'
asbasbasbag57
(g73
g59
NtRp2618
(dp2619
g62
(dp2620
sg71
g67
sg64
(lp2621
g57
(g78
g59
NtRp2622
(dp2623
g62
(dp2624
g82
g83
ssg71
g2618
sg64
(lp2625
S'raw_extension'
p2626
asbag57
(g78
g59
NtRp2627
(dp2628
g62
(dp2629
g89
g90
ssg71
g2618
sg64
(lp2630
S':'
asbag57
(g78
g59
NtRp2631
(dp2632
g62
(dp2633
sg71
g2618
sg64
(lp2634
g57
(g58
g59
NtRp2635
(dp2636
g62
(dp2637
g70
I5
ssg71
g2631
sg64
(lp2638
S'None'
p2639
asbasbasbag57
(g73
g59
NtRp2640
(dp2641
g62
(dp2642
sg71
g67
sg64
(lp2643
g57
(g78
g59
NtRp2644
(dp2645
g62
(dp2646
g82
g83
ssg71
g2640
sg64
(lp2647
S'url'
p2648
asbag57
(g78
g59
NtRp2649
(dp2650
g62
(dp2651
g89
g90
ssg71
g2640
sg64
(lp2652
S':'
asbag57
(g78
g59
NtRp2653
(dp2654
g62
(dp2655
sg71
g2640
sg64
(lp2656
g57
(g58
g59
NtRp2657
(dp2658
g62
(dp2659
g70
I5
ssg71
g2653
sg64
(lp2660
S'/FotoBuk/default/show/2'
p2661
asbasbasbag57
(g73
g59
NtRp2662
(dp2663
g62
(dp2664
sg71
g67
sg64
(lp2665
g57
(g78
g59
NtRp2666
(dp2667
g62
(dp2668
g82
g83
ssg71
g2662
sg64
(lp2669
S'utcnow'
p2670
asbag57
(g78
g59
NtRp2671
(dp2672
g62
(dp2673
g89
g90
ssg71
g2662
sg64
(lp2674
S':'
asbag57
(g78
g59
NtRp2675
(dp2676
g62
(dp2677
sg71
g2662
sg64
(lp2678
g57
(g58
g59
NtRp2679
(dp2680
g62
(dp2681
g70
I5
ssg71
g2675
sg64
(lp2682
S'datetime.datetime(2012, 8, 31, 4, 11, 1, 904948)'
p2683
asbasbasbag57
(g73
g59
NtRp2684
(dp2685
g62
(dp2686
sg71
g67
sg64
(lp2687
g57
(g78
g59
NtRp2688
(dp2689
g62
(dp2690
g82
g83
ssg71
g2684
sg64
(lp2691
S'uuid'
p2692
asbag57
(g78
g59
NtRp2693
(dp2694
g62
(dp2695
g89
g90
ssg71
g2684
sg64
(lp2696
S':'
asbag57
(g78
g59
NtRp2697
(dp2698
g62
(dp2699
sg71
g2684
sg64
(lp2700
g57
(g58
g59
NtRp2701
(dp2702
g62
(dp2703
g70
I5
ssg71
g2697
sg64
(lp2704
S'FotoBuk/127.0.0.1.2012-08-31.09-41-01.e1c5ddc1-d9db-4d33-ba40-497eb6cd2f6c'
p2705
asbasbasbag57
(g73
g59
NtRp2706
(dp2707
g62
(dp2708
sg71
g67
sg64
(lp2709
g57
(g78
g59
NtRp2710
(dp2711
g62
(dp2712
g82
g83
ssg71
g2706
sg64
(lp2713
S'vars'
p2714
asbag57
(g78
g59
NtRp2715
(dp2716
g62
(dp2717
g89
g90
ssg71
g2706
sg64
(lp2718
S':'
asbag57
(g78
g59
NtRp2719
(dp2720
g62
(dp2721
sg71
g2706
sg64
(lp2722
g57
(g58
g59
NtRp2723
(dp2724
g62
(dp2725
g70
I5
ssg71
g2719
sg64
(lp2726
g57
(g66
g59
NtRp2727
(dp2728
g62
(dp2729
g70
I4
ssg71
Nsg64
(lp2730
sbasbasbasbag57
(g73
g59
NtRp2731
(dp2732
g62
(dp2733
sg71
g67
sg64
(lp2734
g57
(g78
g59
NtRp2735
(dp2736
g62
(dp2737
g82
g83
ssg71
g2731
sg64
(lp2738
S'wsgi'
p2739
asbag57
(g78
g59
NtRp2740
(dp2741
g62
(dp2742
g89
g90
ssg71
g2731
sg64
(lp2743
S':'
asbag57
(g78
g59
NtRp2744
(dp2745
g62
(dp2746
sg71
g2731
sg64
(lp2747
g57
(g58
g59
NtRp2748
(dp2749
g62
(dp2750
g70
I5
ssg71
g2744
sg64
(lp2751
g57
(g66
g59
NtRp2752
(dp2753
g62
(dp2754
g70
I4
ssg71
Nsg64
(lp2755
g57
(g73
g59
NtRp2756
(dp2757
g62
(dp2758
sg71
g2752
sg64
(lp2759
g57
(g78
g59
NtRp2760
(dp2761
g62
(dp2762
g82
g83
ssg71
g2756
sg64
(lp2763
S'environ'
p2764
asbag57
(g78
g59
NtRp2765
(dp2766
g62
(dp2767
g89
g90
ssg71
g2756
sg64
(lp2768
S':'
asbag57
(g78
g59
NtRp2769
(dp2770
g62
(dp2771
sg71
g2756
sg64
(lp2772
g57
(g58
g59
NtRp2773
(dp2774
g62
(dp2775
g70
I4
ssg71
g2769
sg64
(lp2776
g57
(g66
g59
NtRp2777
(dp2778
g62
(dp2779
g70
I3
ssg71
Nsg64
(lp2780
g57
(g73
g59
NtRp2781
(dp2782
g62
(dp2783
sg71
g2777
sg64
(lp2784
g57
(g78
g59
NtRp2785
(dp2786
g62
(dp2787
g82
g83
ssg71
g2781
sg64
(lp2788
S'CONTENT_LENGTH'
p2789
asbag57
(g78
g59
NtRp2790
(dp2791
g62
(dp2792
g89
g90
ssg71
g2781
sg64
(lp2793
S':'
asbag57
(g78
g59
NtRp2794
(dp2795
g62
(dp2796
sg71
g2781
sg64
(lp2797
g57
(g58
g59
NtRp2798
(dp2799
g62
(dp2800
g70
I3
ssg71
g2794
sg64
(lp2801
g1161
asbasbasbag57
(g73
g59
NtRp2802
(dp2803
g62
(dp2804
sg71
g2777
sg64
(lp2805
g57
(g78
g59
NtRp2806
(dp2807
g62
(dp2808
g82
g83
ssg71
g2802
sg64
(lp2809
S'CONTENT_TYPE'
p2810
asbag57
(g78
g59
NtRp2811
(dp2812
g62
(dp2813
g89
g90
ssg71
g2802
sg64
(lp2814
S':'
asbag57
(g78
g59
NtRp2815
(dp2816
g62
(dp2817
sg71
g2802
sg64
(lp2818
g57
(g58
g59
NtRp2819
(dp2820
g62
(dp2821
g70
I3
ssg71
g2815
sg64
(lp2822
g1183
asbasbasbag57
(g73
g59
NtRp2823
(dp2824
g62
(dp2825
sg71
g2777
sg64
(lp2826
g57
(g78
g59
NtRp2827
(dp2828
g62
(dp2829
g82
g83
ssg71
g2823
sg64
(lp2830
S'HTTP_ACCEPT'
p2831
asbag57
(g78
g59
NtRp2832
(dp2833
g62
(dp2834
g89
g90
ssg71
g2823
sg64
(lp2835
S':'
asbag57
(g78
g59
NtRp2836
(dp2837
g62
(dp2838
sg71
g2823
sg64
(lp2839
g57
(g58
g59
NtRp2840
(dp2841
g62
(dp2842
g70
I3
ssg71
g2836
sg64
(lp2843
g1270
asbasbasbag57
(g73
g59
NtRp2844
(dp2845
g62
(dp2846
sg71
g2777
sg64
(lp2847
g57
(g78
g59
NtRp2848
(dp2849
g62
(dp2850
g82
g83
ssg71
g2844
sg64
(lp2851
S'HTTP_ACCEPT_ENCODING'
p2852
asbag57
(g78
g59
NtRp2853
(dp2854
g62
(dp2855
g89
g90
ssg71
g2844
sg64
(lp2856
S':'
asbag57
(g78
g59
NtRp2857
(dp2858
g62
(dp2859
sg71
g2844
sg64
(lp2860
g57
(g58
g59
NtRp2861
(dp2862
g62
(dp2863
g70
I3
ssg71
g2857
sg64
(lp2864
g1292
asbasbasbag57
(g73
g59
NtRp2865
(dp2866
g62
(dp2867
sg71
g2777
sg64
(lp2868
g57
(g78
g59
NtRp2869
(dp2870
g62
(dp2871
g82
g83
ssg71
g2865
sg64
(lp2872
S'HTTP_ACCEPT_LANGUAGE'
p2873
asbag57
(g78
g59
NtRp2874
(dp2875
g62
(dp2876
g89
g90
ssg71
g2865
sg64
(lp2877
S':'
asbag57
(g78
g59
NtRp2878
(dp2879
g62
(dp2880
sg71
g2865
sg64
(lp2881
g57
(g58
g59
NtRp2882
(dp2883
g62
(dp2884
g70
I3
ssg71
g2878
sg64
(lp2885
g1314
asbasbasbag57
(g73
g59
NtRp2886
(dp2887
g62
(dp2888
sg71
g2777
sg64
(lp2889
g57
(g78
g59
NtRp2890
(dp2891
g62
(dp2892
g82
g83
ssg71
g2886
sg64
(lp2893
S'HTTP_CACHE_CONTROL'
p2894
asbag57
(g78
g59
NtRp2895
(dp2896
g62
(dp2897
g89
g90
ssg71
g2886
sg64
(lp2898
S':'
asbag57
(g78
g59
NtRp2899
(dp2900
g62
(dp2901
sg71
g2886
sg64
(lp2902
g57
(g58
g59
NtRp2903
(dp2904
g62
(dp2905
g70
I3
ssg71
g2899
sg64
(lp2906
g1336
asbasbasbag57
(g73
g59
NtRp2907
(dp2908
g62
(dp2909
sg71
g2777
sg64
(lp2910
g57
(g78
g59
NtRp2911
(dp2912
g62
(dp2913
g82
g83
ssg71
g2907
sg64
(lp2914
S'HTTP_CONNECTION'
p2915
asbag57
(g78
g59
NtRp2916
(dp2917
g62
(dp2918
g89
g90
ssg71
g2907
sg64
(lp2919
S':'
asbag57
(g78
g59
NtRp2920
(dp2921
g62
(dp2922
sg71
g2907
sg64
(lp2923
g57
(g58
g59
NtRp2924
(dp2925
g62
(dp2926
g70
I3
ssg71
g2920
sg64
(lp2927
g1358
asbasbasbag57
(g73
g59
NtRp2928
(dp2929
g62
(dp2930
sg71
g2777
sg64
(lp2931
g57
(g78
g59
NtRp2932
(dp2933
g62
(dp2934
g82
g83
ssg71
g2928
sg64
(lp2935
S'HTTP_CONTENT_LENGTH'
p2936
asbag57
(g78
g59
NtRp2937
(dp2938
g62
(dp2939
g89
g90
ssg71
g2928
sg64
(lp2940
S':'
asbag57
(g78
g59
NtRp2941
(dp2942
g62
(dp2943
sg71
g2928
sg64
(lp2944
g57
(g58
g59
NtRp2945
(dp2946
g62
(dp2947
g70
I3
ssg71
g2941
sg64
(lp2948
g1161
asbasbasbag57
(g73
g59
NtRp2949
(dp2950
g62
(dp2951
sg71
g2777
sg64
(lp2952
g57
(g78
g59
NtRp2953
(dp2954
g62
(dp2955
g82
g83
ssg71
g2949
sg64
(lp2956
S'HTTP_CONTENT_TYPE'
p2957
asbag57
(g78
g59
NtRp2958
(dp2959
g62
(dp2960
g89
g90
ssg71
g2949
sg64
(lp2961
S':'
asbag57
(g78
g59
NtRp2962
(dp2963
g62
(dp2964
sg71
g2949
sg64
(lp2965
g57
(g58
g59
NtRp2966
(dp2967
g62
(dp2968
g70
I3
ssg71
g2962
sg64
(lp2969
g1183
asbasbasbag57
(g73
g59
NtRp2970
(dp2971
g62
(dp2972
sg71
g2777
sg64
(lp2973
g57
(g78
g59
NtRp2974
(dp2975
g62
(dp2976
g82
g83
ssg71
g2970
sg64
(lp2977
S'HTTP_COOKIE'
p2978
asbag57
(g78
g59
NtRp2979
(dp2980
g62
(dp2981
g89
g90
ssg71
g2970
sg64
(lp2982
S':'
asbag57
(g78
g59
NtRp2983
(dp2984
g62
(dp2985
sg71
g2970
sg64
(lp2986
g57
(g58
g59
NtRp2987
(dp2988
g62
(dp2989
g70
I3
ssg71
g2983
sg64
(lp2990
g1422
asbasbasbag57
(g73
g59
NtRp2991
(dp2992
g62
(dp2993
sg71
g2777
sg64
(lp2994
g57
(g78
g59
NtRp2995
(dp2996
g62
(dp2997
g82
g83
ssg71
g2991
sg64
(lp2998
S'HTTP_HOST'
p2999
asbag57
(g78
g59
NtRp3000
(dp3001
g62
(dp3002
g89
g90
ssg71
g2991
sg64
(lp3003
S':'
asbag57
(g78
g59
NtRp3004
(dp3005
g62
(dp3006
sg71
g2991
sg64
(lp3007
g57
(g58
g59
NtRp3008
(dp3009
g62
(dp3010
g70
I3
ssg71
g3004
sg64
(lp3011
g1444
asbasbasbag57
(g73
g59
NtRp3012
(dp3013
g62
(dp3014
sg71
g2777
sg64
(lp3015
g57
(g78
g59
NtRp3016
(dp3017
g62
(dp3018
g82
g83
ssg71
g3012
sg64
(lp3019
S'HTTP_REFERER'
p3020
asbag57
(g78
g59
NtRp3021
(dp3022
g62
(dp3023
g89
g90
ssg71
g3012
sg64
(lp3024
S':'
asbag57
(g78
g59
NtRp3025
(dp3026
g62
(dp3027
sg71
g3012
sg64
(lp3028
g57
(g58
g59
NtRp3029
(dp3030
g62
(dp3031
g70
I3
ssg71
g3025
sg64
(lp3032
g1466
asbasbasbag57
(g73
g59
NtRp3033
(dp3034
g62
(dp3035
sg71
g2777
sg64
(lp3036
g57
(g78
g59
NtRp3037
(dp3038
g62
(dp3039
g82
g83
ssg71
g3033
sg64
(lp3040
S'HTTP_USER_AGENT'
p3041
asbag57
(g78
g59
NtRp3042
(dp3043
g62
(dp3044
g89
g90
ssg71
g3033
sg64
(lp3045
S':'
asbag57
(g78
g59
NtRp3046
(dp3047
g62
(dp3048
sg71
g3033
sg64
(lp3049
g57
(g58
g59
NtRp3050
(dp3051
g62
(dp3052
g70
I3
ssg71
g3046
sg64
(lp3053
g1488
asbasbasbag57
(g73
g59
NtRp3054
(dp3055
g62
(dp3056
sg71
g2777
sg64
(lp3057
g57
(g78
g59
NtRp3058
(dp3059
g62
(dp3060
g82
g83
ssg71
g3054
sg64
(lp3061
S'PATH_INFO'
p3062
asbag57
(g78
g59
NtRp3063
(dp3064
g62
(dp3065
g89
g90
ssg71
g3054
sg64
(lp3066
S':'
asbag57
(g78
g59
NtRp3067
(dp3068
g62
(dp3069
sg71
g3054
sg64
(lp3070
g57
(g58
g59
NtRp3071
(dp3072
g62
(dp3073
g70
I3
ssg71
g3067
sg64
(lp3074
g1552
asbasbasbag57
(g73
g59
NtRp3075
(dp3076
g62
(dp3077
sg71
g2777
sg64
(lp3078
g57
(g78
g59
NtRp3079
(dp3080
g62
(dp3081
g82
g83
ssg71
g3075
sg64
(lp3082
S'QUERY_STRING'
p3083
asbag57
(g78
g59
NtRp3084
(dp3085
g62
(dp3086
g89
g90
ssg71
g3075
sg64
(lp3087
S':'
asbag57
(g78
g59
NtRp3088
(dp3089
g62
(dp3090
sg71
g3075
sg64
(lp3091
g57
(g58
g59
NtRp3092
(dp3093
g62
(dp3094
g70
I3
ssg71
g3088
sg64
(lp3095
S''
asbasbasbag57
(g73
g59
NtRp3096
(dp3097
g62
(dp3098
sg71
g2777
sg64
(lp3099
g57
(g78
g59
NtRp3100
(dp3101
g62
(dp3102
g82
g83
ssg71
g3096
sg64
(lp3103
S'REMOTE_ADDR'
p3104
asbag57
(g78
g59
NtRp3105
(dp3106
g62
(dp3107
g89
g90
ssg71
g3096
sg64
(lp3108
S':'
asbag57
(g78
g59
NtRp3109
(dp3110
g62
(dp3111
sg71
g3096
sg64
(lp3112
g57
(g58
g59
NtRp3113
(dp3114
g62
(dp3115
g70
I3
ssg71
g3109
sg64
(lp3116
g224
asbasbasbag57
(g73
g59
NtRp3117
(dp3118
g62
(dp3119
sg71
g2777
sg64
(lp3120
g57
(g78
g59
NtRp3121
(dp3122
g62
(dp3123
g82
g83
ssg71
g3117
sg64
(lp3124
S'REMOTE_PORT'
p3125
asbag57
(g78
g59
NtRp3126
(dp3127
g62
(dp3128
g89
g90
ssg71
g3117
sg64
(lp3129
S':'
asbag57
(g78
g59
NtRp3130
(dp3131
g62
(dp3132
sg71
g3117
sg64
(lp3133
g57
(g58
g59
NtRp3134
(dp3135
g62
(dp3136
g70
I3
ssg71
g3130
sg64
(lp3137
g1616
asbasbasbag57
(g73
g59
NtRp3138
(dp3139
g62
(dp3140
sg71
g2777
sg64
(lp3141
g57
(g78
g59
NtRp3142
(dp3143
g62
(dp3144
g82
g83
ssg71
g3138
sg64
(lp3145
S'REQUEST_METHOD'
p3146
asbag57
(g78
g59
NtRp3147
(dp3148
g62
(dp3149
g89
g90
ssg71
g3138
sg64
(lp3150
S':'
asbag57
(g78
g59
NtRp3151
(dp3152
g62
(dp3153
sg71
g3138
sg64
(lp3154
g57
(g58
g59
NtRp3155
(dp3156
g62
(dp3157
g70
I3
ssg71
g3151
sg64
(lp3158
g1638
asbasbasbag57
(g73
g59
NtRp3159
(dp3160
g62
(dp3161
sg71
g2777
sg64
(lp3162
g57
(g78
g59
NtRp3163
(dp3164
g62
(dp3165
g82
g83
ssg71
g3159
sg64
(lp3166
S'SCRIPT_NAME'
p3167
asbag57
(g78
g59
NtRp3168
(dp3169
g62
(dp3170
g89
g90
ssg71
g3159
sg64
(lp3171
S':'
asbag57
(g78
g59
NtRp3172
(dp3173
g62
(dp3174
sg71
g3159
sg64
(lp3175
g57
(g58
g59
NtRp3176
(dp3177
g62
(dp3178
g70
I3
ssg71
g3172
sg64
(lp3179
S''
asbasbasbag57
(g73
g59
NtRp3180
(dp3181
g62
(dp3182
sg71
g2777
sg64
(lp3183
g57
(g78
g59
NtRp3184
(dp3185
g62
(dp3186
g82
g83
ssg71
g3180
sg64
(lp3187
S'SERVER_NAME'
p3188
asbag57
(g78
g59
NtRp3189
(dp3190
g62
(dp3191
g89
g90
ssg71
g3180
sg64
(lp3192
S':'
asbag57
(g78
g59
NtRp3193
(dp3194
g62
(dp3195
sg71
g3180
sg64
(lp3196
g57
(g58
g59
NtRp3197
(dp3198
g62
(dp3199
g70
I3
ssg71
g3193
sg64
(lp3200
g1681
asbasbasbag57
(g73
g59
NtRp3201
(dp3202
g62
(dp3203
sg71
g2777
sg64
(lp3204
g57
(g78
g59
NtRp3205
(dp3206
g62
(dp3207
g82
g83
ssg71
g3201
sg64
(lp3208
S'SERVER_PORT'
p3209
asbag57
(g78
g59
NtRp3210
(dp3211
g62
(dp3212
g89
g90
ssg71
g3201
sg64
(lp3213
S':'
asbag57
(g78
g59
NtRp3214
(dp3215
g62
(dp3216
sg71
g3201
sg64
(lp3217
g57
(g58
g59
NtRp3218
(dp3219
g62
(dp3220
g70
I3
ssg71
g3214
sg64
(lp3221
g1703
asbasbasbag57
(g73
g59
NtRp3222
(dp3223
g62
(dp3224
sg71
g2777
sg64
(lp3225
g57
(g78
g59
NtRp3226
(dp3227
g62
(dp3228
g82
g83
ssg71
g3222
sg64
(lp3229
S'SERVER_PROTOCOL'
p3230
asbag57
(g78
g59
NtRp3231
(dp3232
g62
(dp3233
g89
g90
ssg71
g3222
sg64
(lp3234
S':'
asbag57
(g78
g59
NtRp3235
(dp3236
g62
(dp3237
sg71
g3222
sg64
(lp3238
g57
(g58
g59
NtRp3239
(dp3240
g62
(dp3241
g70
I3
ssg71
g3235
sg64
(lp3242
g1725
asbasbasbag57
(g73
g59
NtRp3243
(dp3244
g62
(dp3245
sg71
g2777
sg64
(lp3246
g57
(g78
g59
NtRp3247
(dp3248
g62
(dp3249
g82
g83
ssg71
g3243
sg64
(lp3250
S'SERVER_SOFTWARE'
p3251
asbag57
(g78
g59
NtRp3252
(dp3253
g62
(dp3254
g89
g90
ssg71
g3243
sg64
(lp3255
S':'
asbag57
(g78
g59
NtRp3256
(dp3257
g62
(dp3258
sg71
g3243
sg64
(lp3259
g57
(g58
g59
NtRp3260
(dp3261
g62
(dp3262
g70
I3
ssg71
g3256
sg64
(lp3263
g1747
asbasbasbag57
(g73
g59
NtRp3264
(dp3265
g62
(dp3266
sg71
g2777
sg64
(lp3267
g57
(g78
g59
NtRp3268
(dp3269
g62
(dp3270
g82
g83
ssg71
g3264
sg64
(lp3271
S'wsgi.errors'
p3272
asbag57
(g78
g59
NtRp3273
(dp3274
g62
(dp3275
g89
g90
ssg71
g3264
sg64
(lp3276
S':'
asbag57
(g78
g59
NtRp3277
(dp3278
g62
(dp3279
sg71
g3264
sg64
(lp3280
g57
(g58
g59
NtRp3281
(dp3282
g62
(dp3283
g70
I3
ssg71
g3277
sg64
(lp3284
S"<open file '<stderr>', mode 'w' at 0xb772d0d0>"
p3285
asbasbasbag57
(g73
g59
NtRp3286
(dp3287
g62
(dp3288
sg71
g2777
sg64
(lp3289
g57
(g78
g59
NtRp3290
(dp3291
g62
(dp3292
g82
g83
ssg71
g3286
sg64
(lp3293
S'wsgi.file_wrapper'
p3294
asbag57
(g78
g59
NtRp3295
(dp3296
g62
(dp3297
g89
g90
ssg71
g3286
sg64
(lp3298
S':'
asbag57
(g78
g59
NtRp3299
(dp3300
g62
(dp3301
sg71
g3286
sg64
(lp3302
g57
(g58
g59
NtRp3303
(dp3304
g62
(dp3305
g70
I3
ssg71
g3299
sg64
(lp3306
S'<class wsgiref.util.FileWrapper at 0x8d0326c>'
p3307
asbasbasbag57
(g73
g59
NtRp3308
(dp3309
g62
(dp3310
sg71
g2777
sg64
(lp3311
g57
(g78
g59
NtRp3312
(dp3313
g62
(dp3314
g82
g83
ssg71
g3308
sg64
(lp3315
S'wsgi.input'
p3316
asbag57
(g78
g59
NtRp3317
(dp3318
g62
(dp3319
g89
g90
ssg71
g3308
sg64
(lp3320
S':'
asbag57
(g78
g59
NtRp3321
(dp3322
g62
(dp3323
sg71
g3308
sg64
(lp3324
g57
(g58
g59
NtRp3325
(dp3326
g62
(dp3327
g70
I3
ssg71
g3321
sg64
(lp3328
S"<open file '<fdopen>', mode 'w+b' at 0x90e3ac8>"
p3329
asbasbasbag57
(g73
g59
NtRp3330
(dp3331
g62
(dp3332
sg71
g2777
sg64
(lp3333
g57
(g78
g59
NtRp3334
(dp3335
g62
(dp3336
g82
g83
ssg71
g3330
sg64
(lp3337
S'wsgi.multiprocess'
p3338
asbag57
(g78
g59
NtRp3339
(dp3340
g62
(dp3341
g89
g90
ssg71
g3330
sg64
(lp3342
S':'
asbag57
(g78
g59
NtRp3343
(dp3344
g62
(dp3345
sg71
g3330
sg64
(lp3346
g57
(g58
g59
NtRp3347
(dp3348
g62
(dp3349
g70
I3
ssg71
g3343
sg64
(lp3350
g100
asbasbasbag57
(g73
g59
NtRp3351
(dp3352
g62
(dp3353
sg71
g2777
sg64
(lp3354
g57
(g78
g59
NtRp3355
(dp3356
g62
(dp3357
g82
g83
ssg71
g3351
sg64
(lp3358
S'wsgi.multithread'
p3359
asbag57
(g78
g59
NtRp3360
(dp3361
g62
(dp3362
g89
g90
ssg71
g3351
sg64
(lp3363
S':'
asbag57
(g78
g59
NtRp3364
(dp3365
g62
(dp3366
sg71
g3351
sg64
(lp3367
g57
(g58
g59
NtRp3368
(dp3369
g62
(dp3370
g70
I3
ssg71
g3364
sg64
(lp3371
g1986
asbasbasbag57
(g73
g59
NtRp3372
(dp3373
g62
(dp3374
sg71
g2777
sg64
(lp3375
g57
(g78
g59
NtRp3376
(dp3377
g62
(dp3378
g82
g83
ssg71
g3372
sg64
(lp3379
S'wsgi.run_once'
p3380
asbag57
(g78
g59
NtRp3381
(dp3382
g62
(dp3383
g89
g90
ssg71
g3372
sg64
(lp3384
S':'
asbag57
(g78
g59
NtRp3385
(dp3386
g62
(dp3387
sg71
g3372
sg64
(lp3388
g57
(g58
g59
NtRp3389
(dp3390
g62
(dp3391
g70
I3
ssg71
g3385
sg64
(lp3392
g100
asbasbasbag57
(g73
g59
NtRp3393
(dp3394
g62
(dp3395
sg71
g2777
sg64
(lp3396
g57
(g78
g59
NtRp3397
(dp3398
g62
(dp3399
g82
g83
ssg71
g3393
sg64
(lp3400
S'wsgi.url_scheme'
p3401
asbag57
(g78
g59
NtRp3402
(dp3403
g62
(dp3404
g89
g90
ssg71
g3393
sg64
(lp3405
S':'
asbag57
(g78
g59
NtRp3406
(dp3407
g62
(dp3408
sg71
g3393
sg64
(lp3409
g57
(g58
g59
NtRp3410
(dp3411
g62
(dp3412
g70
I3
ssg71
g3406
sg64
(lp3413
g2029
asbasbasbag57
(g73
g59
NtRp3414
(dp3415
g62
(dp3416
sg71
g2777
sg64
(lp3417
g57
(g78
g59
NtRp3418
(dp3419
g62
(dp3420
g82
g83
ssg71
g3414
sg64
(lp3421
S'wsgi.version'
p3422
asbag57
(g78
g59
NtRp3423
(dp3424
g62
(dp3425
g89
g90
ssg71
g3414
sg64
(lp3426
S':'
asbag57
(g78
g59
NtRp3427
(dp3428
g62
(dp3429
sg71
g3414
sg64
(lp3430
g57
(g58
g59
NtRp3431
(dp3432
g62
(dp3433
g70
I3
ssg71
g3427
sg64
(lp3434
S'1'
asbasbasbasbasbasbasbasbasbasbasbasbasbsS'frames'
p3435
(lp3436
(dp3437
S'file'
p3438
S'/home/piyush/web2py/gluon/restricted.py'
p3439
sS'dump'
p3440
(dp3441
S'environment'
p3442
S"{'A': <class 'gluon.html.A'>, 'Auth': <class 'gluon.tools.Auth'>, 'B': <class 'gluon.html.B'>, 'BEAUTIFY': <class 'gluon.html.BEAUTIFY'>, 'BODY': <class 'gluon.html.BODY'>, 'BR': <class 'gluon.html.BR'>, 'BUTTON': <class 'gluon.html.BUTTON'>, 'CAT': <class 'gluon.html.CAT'>, 'CENTER': <class 'gluon.html.CENTER'>, 'CLEANUP': <class 'gluon.validators.CLEANUP'>, ...}"
p3443
sS'ccode'
p3444
S'<code object <module> at 0xaeb6f608, file "/home...ications/FotoBuk/controllers/default.py", line 1>'
p3445
ssS'lnum'
p3446
I209
sS'lines'
p3447
(dp3448
I204
S'    try:'
p3449
sI205
S'        if type(code) == types.CodeType:'
p3450
sI206
S'            ccode = code'
p3451
sI207
S'        else:'
p3452
sI208
S'            ccode = compile2(code,layer)'
p3453
sI209
S'        exec ccode in environment'
p3454
sI210
S'    except HTTP:'
p3455
sI211
S'        raise'
p3456
sI212
S'    except RestrictedError:'
p3457
sI213
S'        # do not encapsulate (obfuscate) the original RestrictedError'
p3458
ssS'call'
p3459
S"(code='@auth.requires_login()\\ndef index():\\n\\tli=db(db.im...quest,db)\\n\\nresponse._vars=response._caller(show)\\n', environment={'A': <class 'gluon.html.A'>, 'Auth': <class 'gluon.tools.Auth'>, 'B': <class 'gluon.html.B'>, 'BEAUTIFY': <class 'gluon.html.BEAUTIFY'>, 'BODY': <class 'gluon.html.BODY'>, 'BR': <class 'gluon.html.BR'>, 'BUTTON': <class 'gluon.html.BUTTON'>, 'CAT': <class 'gluon.html.CAT'>, 'CENTER': <class 'gluon.html.CENTER'>, 'CLEANUP': <class 'gluon.validators.CLEANUP'>, ...}, layer='/home/piyush/web2py/applications/FotoBuk/controllers/default.py')"
p3460
sS'func'
p3461
S'restricted'
p3462
sa(dp3463
g3438
S'/home/piyush/web2py/applications/FotoBuk/controllers/default.py'
p3464
sg3440
(dp3465
sg3446
I46
sg3447
(dp3466
I35
S'    if flag==0:'
p3467
sI36
S'    \treturn dict(cur_user=cur_user,flag=flag,image=image, comments=comments, likes=likes, form=form, form2=form2)'
p3468
sI37
S'    else:'
p3469
sI38
S'\t    return dict(cur_user=cur_user,flag=flag,image=image,comments=comments,likes=likes,form=form)'
p3470
sI39
S''
sI40
S'def user():'
p3471
sI41
S'\treturn dict(form=auth())'
p3472
sI42
S''
sI43
S'def download():'
p3473
sI44
S'\treturn response.download(request,db)'
p3474
ssg3459
S'()'
p3475
sg3461
S'<module>'
p3476
sa(dp3477
g3438
S'/home/piyush/web2py/gluon/globals.py'
p3478
sg3440
(dp3479
S'self'
p3480
S'undefined'
p3481
sS'f'
S'<function show>'
p3482
ssg3446
I185
sg3447
(dp3483
I180
S'        self.menu = []             # used by the default view layout'
p3484
sI181
S'        self.files = []            # used by web2py_ajax.html'
p3485
sI182
S'        self.generic_patterns = [] # patterns to allow generic views'
p3486
sI183
S"        self.delimiters = ('{{','}}')"
p3487
sI184
S'        self._vars = None'
p3488
sI185
S'        self._caller = lambda f: f()'
p3489
sI186
S'        self._view_environment = None'
p3490
sI187
S'        self._custom_commit = None'
p3491
sI188
S'        self._custom_rollback = None'
p3492
sI189
S''
ssg3459
S'(f=<function show>)'
p3493
sg3461
S'<lambda>'
p3494
sa(dp3495
g3438
S'/home/piyush/web2py/gluon/tools.py'
p3496
sg3440
(dp3497
S'action'
p3498
S'<function show>'
p3499
sS'a'
S'()'
p3500
sS'b'
g45
ssg3446
I2776
sg3447
(dp3501
I2771
S'                    flag = condition'
p3502
sI2772
S'                if not flag:'
p3503
sI2773
S'                    current.session.flash = self.messages.access_denied'
p3504
sI2774
S'                    return call_or_redirect('
p3505
sI2775
S'                        self.settings.on_failed_authorization)'
p3506
sI2776
S'                return action(*a, **b)'
p3507
sI2777
S'            f.__doc__ = action.__doc__'
p3508
sI2778
S'            f.__name__ = action.__name__'
p3509
sI2779
S'            f.__dict__.update(action.__dict__)'
p3510
sI2780
S'            return f'
p3511
ssg3459
S'(*a=(), **b={})'
p3512
sg3461
S'f'
sa(dp3513
g3438
S'/home/piyush/web2py/applications/FotoBuk/controllers/default.py'
p3514
sg3440
(dp3515
S'image'
p3516
S"<Row {'comment': <Set (comment.image_id = 2)>, '... <gluon.dal.RecordDeleter object at 0xada81bec>}>"
p3517
sS'].author_id'
p3518
g3481
ssg3446
I19
sg3447
(dp3519
I14
S''
sI15
S'@auth.requires_login()'
p3520
sI16
S'def show():'
p3521
sI17
S'    flag=0'
p3522
sI18
S'    image = db(db.image.id==request.args(0)).select().first()'
p3523
sI19
S'    print image[0].author_id'
p3524
sI20
S'    db.comment.image_id.default = image.id'
p3525
sI21
S'    cur_user=auth.user_id'
p3526
sI22
S'    form = SQLFORM(db.comment)'
p3527
sI23
S'    likes =db(db.like.like_id==image.id).select()'
p3528
ssg3459
S'()'
p3529
sg3461
S'show'
p3530
sa(dp3531
g3438
S'/home/piyush/web2py/gluon/dal.py'
p3532
sg3440
(dp3533
S'self'
p3534
S"<Row {'comment': <Set (comment.image_id = 2)>, '... <gluon.dal.RecordDeleter object at 0xada81bec>}>"
p3535
sS'global ogetattr'
p3536
S"<slot wrapper '__getattribute__' of 'object' objects>"
p3537
sS'key'
p3538
S"'0'"
p3539
ssg3446
I6376
sg3447
(dp3540
I6371
S'        elif m:'
p3541
sI6372
S'            try:'
p3542
sI6373
S'                return ogetattr(self, m.group(1))[m.group(2)]'
p3543
sI6374
S'            except (KeyError,AttributeError,TypeError):'
p3544
sI6375
S'                key = m.group(2)'
p3545
sI6376
S'        return ogetattr(self, key)'
p3546
sI6377
S''
sI6378
S'    def __setitem__(self, key, value):'
p3547
sI6379
S'        setattr(self, str(key), value)'
p3548
sI6380
S''
ssg3459
S"(self=<Row {'comment': <Set (comment.image_id = 2)>, '... <gluon.dal.RecordDeleter object at 0xada81bec>}>, key='0')"
p3549
sg3461
g20
sasS'pyver'
p3550
S'Python 2.7.2: /usr/bin/python'
p3551
sS'session'
p3552
g57
(g58
g59
NtRp3553
(dp3554
g62
(dp3555
sg64
(lp3556
g57
(g66
g59
NtRp3557
(dp3558
g62
(dp3559
g70
I5
ssg71
Nsg64
(lp3560
g57
(g73
g59
NtRp3561
(dp3562
g62
(dp3563
sg71
g3557
sg64
(lp3564
g57
(g78
g59
NtRp3565
(dp3566
g62
(dp3567
g82
g83
ssg71
g3561
sg64
(lp3568
S'auth'
p3569
asbag57
(g78
g59
NtRp3570
(dp3571
g62
(dp3572
g89
g90
ssg71
g3561
sg64
(lp3573
S':'
asbag57
(g78
g59
NtRp3574
(dp3575
g62
(dp3576
sg71
g3561
sg64
(lp3577
g57
(g58
g59
NtRp3578
(dp3579
g62
(dp3580
g70
I5
ssg71
g3574
sg64
(lp3581
g57
(g66
g59
NtRp3582
(dp3583
g62
(dp3584
g70
I4
ssg71
Nsg64
(lp3585
g57
(g73
g59
NtRp3586
(dp3587
g62
(dp3588
sg71
g3582
sg64
(lp3589
g57
(g78
g59
NtRp3590
(dp3591
g62
(dp3592
g82
g83
ssg71
g3586
sg64
(lp3593
S'expiration'
p3594
asbag57
(g78
g59
NtRp3595
(dp3596
g62
(dp3597
g89
g90
ssg71
g3586
sg64
(lp3598
S':'
asbag57
(g78
g59
NtRp3599
(dp3600
g62
(dp3601
sg71
g3586
sg64
(lp3602
g57
(g58
g59
NtRp3603
(dp3604
g62
(dp3605
g70
I4
ssg71
g3599
sg64
(lp3606
S'3600'
p3607
asbasbasbag57
(g73
g59
NtRp3608
(dp3609
g62
(dp3610
sg71
g3582
sg64
(lp3611
g57
(g78
g59
NtRp3612
(dp3613
g62
(dp3614
g82
g83
ssg71
g3608
sg64
(lp3615
S'hmac_key'
p3616
asbag57
(g78
g59
NtRp3617
(dp3618
g62
(dp3619
g89
g90
ssg71
g3608
sg64
(lp3620
S':'
asbag57
(g78
g59
NtRp3621
(dp3622
g62
(dp3623
sg71
g3608
sg64
(lp3624
g57
(g58
g59
NtRp3625
(dp3626
g62
(dp3627
g70
I4
ssg71
g3621
sg64
(lp3628
S'b651b504-02b8-43bc-bebc-1e7ada2c3fd8'
p3629
asbasbasbag57
(g73
g59
NtRp3630
(dp3631
g62
(dp3632
sg71
g3582
sg64
(lp3633
g57
(g78
g59
NtRp3634
(dp3635
g62
(dp3636
g82
g83
ssg71
g3630
sg64
(lp3637
S'last_visit'
p3638
asbag57
(g78
g59
NtRp3639
(dp3640
g62
(dp3641
g89
g90
ssg71
g3630
sg64
(lp3642
S':'
asbag57
(g78
g59
NtRp3643
(dp3644
g62
(dp3645
sg71
g3630
sg64
(lp3646
g57
(g58
g59
NtRp3647
(dp3648
g62
(dp3649
g70
I4
ssg71
g3643
sg64
(lp3650
S'datetime.datetime(2012, 8, 31, 9, 41, 1, 904919)'
p3651
asbasbasbag57
(g73
g59
NtRp3652
(dp3653
g62
(dp3654
sg71
g3582
sg64
(lp3655
g57
(g78
g59
NtRp3656
(dp3657
g62
(dp3658
g82
g83
ssg71
g3652
sg64
(lp3659
S'user'
p3660
asbag57
(g78
g59
NtRp3661
(dp3662
g62
(dp3663
g89
g90
ssg71
g3652
sg64
(lp3664
S':'
asbag57
(g78
g59
NtRp3665
(dp3666
g62
(dp3667
sg71
g3652
sg64
(lp3668
g57
(g58
g59
NtRp3669
(dp3670
g62
(dp3671
g70
I4
ssg71
g3665
sg64
(lp3672
g57
(g66
g59
NtRp3673
(dp3674
g62
(dp3675
g70
I3
ssg71
Nsg64
(lp3676
g57
(g73
g59
NtRp3677
(dp3678
g62
(dp3679
sg71
g3673
sg64
(lp3680
g57
(g78
g59
NtRp3681
(dp3682
g62
(dp3683
g82
g83
ssg71
g3677
sg64
(lp3684
S'email'
p3685
asbag57
(g78
g59
NtRp3686
(dp3687
g62
(dp3688
g89
g90
ssg71
g3677
sg64
(lp3689
S':'
asbag57
(g78
g59
NtRp3690
(dp3691
g62
(dp3692
sg71
g3677
sg64
(lp3693
g57
(g58
g59
NtRp3694
(dp3695
g62
(dp3696
g70
I3
ssg71
g3690
sg64
(lp3697
S'test@test.com'
p3698
asbasbasbag57
(g73
g59
NtRp3699
(dp3700
g62
(dp3701
sg71
g3673
sg64
(lp3702
g57
(g78
g59
NtRp3703
(dp3704
g62
(dp3705
g82
g83
ssg71
g3699
sg64
(lp3706
S'first_name'
p3707
asbag57
(g78
g59
NtRp3708
(dp3709
g62
(dp3710
g89
g90
ssg71
g3699
sg64
(lp3711
S':'
asbag57
(g78
g59
NtRp3712
(dp3713
g62
(dp3714
sg71
g3699
sg64
(lp3715
g57
(g58
g59
NtRp3716
(dp3717
g62
(dp3718
g70
I3
ssg71
g3712
sg64
(lp3719
S'test1'
p3720
asbasbasbag57
(g73
g59
NtRp3721
(dp3722
g62
(dp3723
sg71
g3673
sg64
(lp3724
g57
(g78
g59
NtRp3725
(dp3726
g62
(dp3727
g82
g83
ssg71
g3721
sg64
(lp3728
S'id'
p3729
asbag57
(g78
g59
NtRp3730
(dp3731
g62
(dp3732
g89
g90
ssg71
g3721
sg64
(lp3733
S':'
asbag57
(g78
g59
NtRp3734
(dp3735
g62
(dp3736
sg71
g3721
sg64
(lp3737
g57
(g58
g59
NtRp3738
(dp3739
g62
(dp3740
g70
I3
ssg71
g3734
sg64
(lp3741
S'2'
asbasbasbag57
(g73
g59
NtRp3742
(dp3743
g62
(dp3744
sg71
g3673
sg64
(lp3745
g57
(g78
g59
NtRp3746
(dp3747
g62
(dp3748
g82
g83
ssg71
g3742
sg64
(lp3749
S'last_name'
p3750
asbag57
(g78
g59
NtRp3751
(dp3752
g62
(dp3753
g89
g90
ssg71
g3742
sg64
(lp3754
S':'
asbag57
(g78
g59
NtRp3755
(dp3756
g62
(dp3757
sg71
g3742
sg64
(lp3758
g57
(g58
g59
NtRp3759
(dp3760
g62
(dp3761
g70
I3
ssg71
g3755
sg64
(lp3762
S'test2'
p3763
asbasbasbag57
(g73
g59
NtRp3764
(dp3765
g62
(dp3766
sg71
g3673
sg64
(lp3767
g57
(g78
g59
NtRp3768
(dp3769
g62
(dp3770
g82
g83
ssg71
g3764
sg64
(lp3771
S'password'
p3772
asbag57
(g78
g59
NtRp3773
(dp3774
g62
(dp3775
g89
g90
ssg71
g3764
sg64
(lp3776
S':'
asbag57
(g78
g59
NtRp3777
(dp3778
g62
(dp3779
sg71
g3764
sg64
(lp3780
g57
(g58
g59
NtRp3781
(dp3782
g62
(dp3783
g70
I3
ssg71
g3777
sg64
(lp3784
S'pbkdf2(1000,20,sha512)$bf1b0cd5effc57ad$cd5a5dc22ea4c46296a9202ea5ffd2563ba2f85c'
p3785
asbasbasbag57
(g73
g59
NtRp3786
(dp3787
g62
(dp3788
sg71
g3673
sg64
(lp3789
g57
(g78
g59
NtRp3790
(dp3791
g62
(dp3792
g82
g83
ssg71
g3786
sg64
(lp3793
S'registration_id'
p3794
asbag57
(g78
g59
NtRp3795
(dp3796
g62
(dp3797
g89
g90
ssg71
g3786
sg64
(lp3798
S':'
asbag57
(g78
g59
NtRp3799
(dp3800
g62
(dp3801
sg71
g3786
sg64
(lp3802
g57
(g58
g59
NtRp3803
(dp3804
g62
(dp3805
g70
I3
ssg71
g3799
sg64
(lp3806
S''
asbasbasbag57
(g73
g59
NtRp3807
(dp3808
g62
(dp3809
sg71
g3673
sg64
(lp3810
g57
(g78
g59
NtRp3811
(dp3812
g62
(dp3813
g82
g83
ssg71
g3807
sg64
(lp3814
S'registration_key'
p3815
asbag57
(g78
g59
NtRp3816
(dp3817
g62
(dp3818
g89
g90
ssg71
g3807
sg64
(lp3819
S':'
asbag57
(g78
g59
NtRp3820
(dp3821
g62
(dp3822
sg71
g3807
sg64
(lp3823
g57
(g58
g59
NtRp3824
(dp3825
g62
(dp3826
g70
I3
ssg71
g3820
sg64
(lp3827
S''
asbasbasbag57
(g73
g59
NtRp3828
(dp3829
g62
(dp3830
sg71
g3673
sg64
(lp3831
g57
(g78
g59
NtRp3832
(dp3833
g62
(dp3834
g82
g83
ssg71
g3828
sg64
(lp3835
S'reset_password_key'
p3836
asbag57
(g78
g59
NtRp3837
(dp3838
g62
(dp3839
g89
g90
ssg71
g3828
sg64
(lp3840
S':'
asbag57
(g78
g59
NtRp3841
(dp3842
g62
(dp3843
sg71
g3828
sg64
(lp3844
g57
(g58
g59
NtRp3845
(dp3846
g62
(dp3847
g70
I3
ssg71
g3841
sg64
(lp3848
S''
asbasbasbasbasbasbasbag57
(g73
g59
NtRp3849
(dp3850
g62
(dp3851
sg71
g3582
sg64
(lp3852
g57
(g78
g59
NtRp3853
(dp3854
g62
(dp3855
g82
g83
ssg71
g3849
sg64
(lp3856
S'user_groups'
p3857
asbag57
(g78
g59
NtRp3858
(dp3859
g62
(dp3860
g89
g90
ssg71
g3849
sg64
(lp3861
S':'
asbag57
(g78
g59
NtRp3862
(dp3863
g62
(dp3864
sg71
g3849
sg64
(lp3865
g57
(g58
g59
NtRp3866
(dp3867
g62
(dp3868
g70
I4
ssg71
g3862
sg64
(lp3869
g57
(g66
g59
NtRp3870
(dp3871
g62
(dp3872
g70
I3
ssg71
Nsg64
(lp3873
g57
(g73
g59
NtRp3874
(dp3875
g62
(dp3876
sg71
g3870
sg64
(lp3877
g57
(g78
g59
NtRp3878
(dp3879
g62
(dp3880
g82
g83
ssg71
g3874
sg64
(lp3881
S'2'
asbag57
(g78
g59
NtRp3882
(dp3883
g62
(dp3884
g89
g90
ssg71
g3874
sg64
(lp3885
S':'
asbag57
(g78
g59
NtRp3886
(dp3887
g62
(dp3888
sg71
g3874
sg64
(lp3889
g57
(g58
g59
NtRp3890
(dp3891
g62
(dp3892
g70
I3
ssg71
g3886
sg64
(lp3893
S'user_2'
p3894
asbasbasbasbasbasbasbasbasbasbasbag57
(g73
g59
NtRp3895
(dp3896
g62
(dp3897
sg71
g3557
sg64
(lp3898
g57
(g78
g59
NtRp3899
(dp3900
g62
(dp3901
g82
g83
ssg71
g3895
sg64
(lp3902
S'flash'
p3903
asbag57
(g78
g59
NtRp3904
(dp3905
g62
(dp3906
g89
g90
ssg71
g3895
sg64
(lp3907
S':'
asbag57
(g78
g59
NtRp3908
(dp3909
g62
(dp3910
sg71
g3895
sg64
(lp3911
g57
(g58
g59
NtRp3912
(dp3913
g62
(dp3914
g70
I5
ssg71
g3908
sg64
(lp3915
S'None'
p3916
asbasbasbag57
(g73
g59
NtRp3917
(dp3918
g62
(dp3919
sg71
g3557
sg64
(lp3920
g57
(g78
g59
NtRp3921
(dp3922
g62
(dp3923
g82
g83
ssg71
g3917
sg64
(lp3924
S'last_orderby'
p3925
asbag57
(g78
g59
NtRp3926
(dp3927
g62
(dp3928
g89
g90
ssg71
g3917
sg64
(lp3929
S':'
asbag57
(g78
g59
NtRp3930
(dp3931
g62
(dp3932
sg71
g3917
sg64
(lp3933
g57
(g58
g59
NtRp3934
(dp3935
g62
(dp3936
g70
I5
ssg71
g3930
sg64
(lp3937
S'None'
p3938
asbasbasbag57
(g73
g59
NtRp3939
(dp3940
g62
(dp3941
sg71
g3557
sg64
(lp3942
g57
(g78
g59
NtRp3943
(dp3944
g62
(dp3945
g82
g83
ssg71
g3939
sg64
(lp3946
S'last_query'
p3947
asbag57
(g78
g59
NtRp3948
(dp3949
g62
(dp3950
g89
g90
ssg71
g3939
sg64
(lp3951
S':'
asbag57
(g78
g59
NtRp3952
(dp3953
g62
(dp3954
sg71
g3939
sg64
(lp3955
g57
(g58
g59
NtRp3956
(dp3957
g62
(dp3958
g70
I5
ssg71
g3952
sg64
(lp3959
S'db.image.id>0'
p3960
asbasbasbasbasbsS'etype'
p3961
S"<type 'exceptions.AttributeError'>"
p3962
sS'date'
p3963
S'Fri Aug 31 09:41:01 2012'
p3964
sS'response'
p3965
g57
(g58
g59
NtRp3966
(dp3967
g62
(dp3968
sg64
(lp3969
g57
(g66
g59
NtRp3970
(dp3971
g62
(dp3972
g70
I5
ssg71
Nsg64
(lp3973
g57
(g73
g59
NtRp3974
(dp3975
g62
(dp3976
sg71
g3970
sg64
(lp3977
g57
(g78
g59
NtRp3978
(dp3979
g62
(dp3980
g82
g83
ssg71
g3974
sg64
(lp3981
g167
asbag57
(g78
g59
NtRp3982
(dp3983
g62
(dp3984
g89
g90
ssg71
g3974
sg64
(lp3985
S':'
asbag57
(g78
g59
NtRp3986
(dp3987
g62
(dp3988
sg71
g3974
sg64
(lp3989
g57
(g58
g59
NtRp3990
(dp3991
g62
(dp3992
g70
I5
ssg71
g3986
sg64
(lp3993
S'<cStringIO.StringO object at 0x8d5a700>'
p3994
asbasbasbag57
(g73
g59
NtRp3995
(dp3996
g62
(dp3997
sg71
g3970
sg64
(lp3998
g57
(g78
g59
NtRp3999
(dp4000
g62
(dp4001
g82
g83
ssg71
g3995
sg64
(lp4002
g255
asbag57
(g78
g59
NtRp4003
(dp4004
g62
(dp4005
g89
g90
ssg71
g3995
sg64
(lp4006
S':'
asbag57
(g78
g59
NtRp4007
(dp4008
g62
(dp4009
sg71
g3995
sg64
(lp4010
g57
(g58
g59
NtRp4011
(dp4012
g62
(dp4013
g70
I5
ssg71
g4007
sg64
(lp4014
g57
(g66
g59
NtRp4015
(dp4016
g62
(dp4017
g70
I4
ssg71
Nsg64
(lp4018
g57
(g73
g59
NtRp4019
(dp4020
g62
(dp4021
sg71
g4015
sg64
(lp4022
g57
(g78
g59
NtRp4023
(dp4024
g62
(dp4025
g82
g83
ssg71
g4019
sg64
(lp4026
S'session_id_fotobuk'
p4027
asbag57
(g78
g59
NtRp4028
(dp4029
g62
(dp4030
g89
g90
ssg71
g4019
sg64
(lp4031
S':'
asbag57
(g78
g59
NtRp4032
(dp4033
g62
(dp4034
sg71
g4019
sg64
(lp4035
g57
(g58
g59
NtRp4036
(dp4037
g62
(dp4038
g70
I4
ssg71
g4032
sg64
(lp4039
g487
ag57
(g66
g59
NtRp4040
(dp4041
g62
(dp4042
g70
I3
ssg71
Nsg64
(lp4043
g57
(g73
g59
NtRp4044
(dp4045
g62
(dp4046
sg71
g4040
sg64
(lp4047
g57
(g78
g59
NtRp4048
(dp4049
g62
(dp4050
g82
g83
ssg71
g4044
sg64
(lp4051
g306
asbag57
(g78
g59
NtRp4052
(dp4053
g62
(dp4054
g89
g90
ssg71
g4044
sg64
(lp4055
S':'
asbag57
(g78
g59
NtRp4056
(dp4057
g62
(dp4058
sg71
g4044
sg64
(lp4059
g57
(g58
g59
NtRp4060
(dp4061
g62
(dp4062
g70
I3
ssg71
g4056
sg64
(lp4063
S''
asbasbasbag57
(g73
g59
NtRp4064
(dp4065
g62
(dp4066
sg71
g4040
sg64
(lp4067
g57
(g78
g59
NtRp4068
(dp4069
g62
(dp4070
g82
g83
ssg71
g4064
sg64
(lp4071
g327
asbag57
(g78
g59
NtRp4072
(dp4073
g62
(dp4074
g89
g90
ssg71
g4064
sg64
(lp4075
S':'
asbag57
(g78
g59
NtRp4076
(dp4077
g62
(dp4078
sg71
g4064
sg64
(lp4079
g57
(g58
g59
NtRp4080
(dp4081
g62
(dp4082
g70
I3
ssg71
g4076
sg64
(lp4083
S''
asbasbasbag57
(g73
g59
NtRp4084
(dp4085
g62
(dp4086
sg71
g4040
sg64
(lp4087
g57
(g78
g59
NtRp4088
(dp4089
g62
(dp4090
g82
g83
ssg71
g4084
sg64
(lp4091
g348
asbag57
(g78
g59
NtRp4092
(dp4093
g62
(dp4094
g89
g90
ssg71
g4084
sg64
(lp4095
S':'
asbag57
(g78
g59
NtRp4096
(dp4097
g62
(dp4098
sg71
g4084
sg64
(lp4099
g57
(g58
g59
NtRp4100
(dp4101
g62
(dp4102
g70
I3
ssg71
g4096
sg64
(lp4103
S''
asbasbasbag57
(g73
g59
NtRp4104
(dp4105
g62
(dp4106
sg71
g4040
sg64
(lp4107
g57
(g78
g59
NtRp4108
(dp4109
g62
(dp4110
g82
g83
ssg71
g4104
sg64
(lp4111
g369
asbag57
(g78
g59
NtRp4112
(dp4113
g62
(dp4114
g89
g90
ssg71
g4104
sg64
(lp4115
S':'
asbag57
(g78
g59
NtRp4116
(dp4117
g62
(dp4118
sg71
g4104
sg64
(lp4119
g57
(g58
g59
NtRp4120
(dp4121
g62
(dp4122
g70
I3
ssg71
g4116
sg64
(lp4123
S''
asbasbasbag57
(g73
g59
NtRp4124
(dp4125
g62
(dp4126
sg71
g4040
sg64
(lp4127
g57
(g78
g59
NtRp4128
(dp4129
g62
(dp4130
g82
g83
ssg71
g4124
sg64
(lp4131
g390
asbag57
(g78
g59
NtRp4132
(dp4133
g62
(dp4134
g89
g90
ssg71
g4124
sg64
(lp4135
S':'
asbag57
(g78
g59
NtRp4136
(dp4137
g62
(dp4138
sg71
g4124
sg64
(lp4139
g57
(g58
g59
NtRp4140
(dp4141
g62
(dp4142
g70
I3
ssg71
g4136
sg64
(lp4143
S''
asbasbasbag57
(g73
g59
NtRp4144
(dp4145
g62
(dp4146
sg71
g4040
sg64
(lp4147
g57
(g78
g59
NtRp4148
(dp4149
g62
(dp4150
g82
g83
ssg71
g4144
sg64
(lp4151
g411
asbag57
(g78
g59
NtRp4152
(dp4153
g62
(dp4154
g89
g90
ssg71
g4144
sg64
(lp4155
S':'
asbag57
(g78
g59
NtRp4156
(dp4157
g62
(dp4158
sg71
g4144
sg64
(lp4159
g57
(g58
g59
NtRp4160
(dp4161
g62
(dp4162
g70
I3
ssg71
g4156
sg64
(lp4163
S'/'
asbasbasbag57
(g73
g59
NtRp4164
(dp4165
g62
(dp4166
sg71
g4040
sg64
(lp4167
g57
(g78
g59
NtRp4168
(dp4169
g62
(dp4170
g82
g83
ssg71
g4164
sg64
(lp4171
g432
asbag57
(g78
g59
NtRp4172
(dp4173
g62
(dp4174
g89
g90
ssg71
g4164
sg64
(lp4175
S':'
asbag57
(g78
g59
NtRp4176
(dp4177
g62
(dp4178
sg71
g4164
sg64
(lp4179
g57
(g58
g59
NtRp4180
(dp4181
g62
(dp4182
g70
I3
ssg71
g4176
sg64
(lp4183
S''
asbasbasbag57
(g73
g59
NtRp4184
(dp4185
g62
(dp4186
sg71
g4040
sg64
(lp4187
g57
(g78
g59
NtRp4188
(dp4189
g62
(dp4190
g82
g83
ssg71
g4184
sg64
(lp4191
g453
asbag57
(g78
g59
NtRp4192
(dp4193
g62
(dp4194
g89
g90
ssg71
g4184
sg64
(lp4195
S':'
asbag57
(g78
g59
NtRp4196
(dp4197
g62
(dp4198
sg71
g4184
sg64
(lp4199
g57
(g58
g59
NtRp4200
(dp4201
g62
(dp4202
g70
I3
ssg71
g4196
sg64
(lp4203
S''
asbasbasbasbasbasbasbasbasbasbasbag57
(g73
g59
NtRp4204
(dp4205
g62
(dp4206
sg71
g3970
sg64
(lp4207
g57
(g78
g59
NtRp4208
(dp4209
g62
(dp4210
g82
g83
ssg71
g4204
sg64
(lp4211
S'delimiters'
p4212
asbag57
(g78
g59
NtRp4213
(dp4214
g62
(dp4215
g89
g90
ssg71
g4204
sg64
(lp4216
S':'
asbag57
(g78
g59
NtRp4217
(dp4218
g62
(dp4219
sg71
g4204
sg64
(lp4220
g57
(g58
g59
NtRp4221
(dp4222
g62
(dp4223
g70
I5
ssg71
g4217
sg64
(lp4224
g57
(g66
g59
NtRp4225
(dp4226
g62
(dp4227
g70
I4
ssg71
Nsg64
(lp4228
g57
(g73
g59
NtRp4229
(dp4230
g62
(dp4231
sg71
g4225
sg64
(lp4232
g57
(g78
g59
NtRp4233
(dp4234
g62
(dp4235
sg71
g4229
sg64
(lp4236
g57
(g58
g59
NtRp4237
(dp4238
g62
(dp4239
g70
I4
ssg71
g4233
sg64
(lp4240
S'{{'
p4241
asbasbasbag57
(g73
g59
NtRp4242
(dp4243
g62
(dp4244
sg71
g4225
sg64
(lp4245
g57
(g78
g59
NtRp4246
(dp4247
g62
(dp4248
sg71
g4242
sg64
(lp4249
g57
(g58
g59
NtRp4250
(dp4251
g62
(dp4252
g70
I4
ssg71
g4246
sg64
(lp4253
S'}}'
p4254
asbasbasbasbasbasbasbag57
(g73
g59
NtRp4255
(dp4256
g62
(dp4257
sg71
g3970
sg64
(lp4258
g57
(g78
g59
NtRp4259
(dp4260
g62
(dp4261
g82
g83
ssg71
g4255
sg64
(lp4262
S'files'
p4263
asbag57
(g78
g59
NtRp4264
(dp4265
g62
(dp4266
g89
g90
ssg71
g4255
sg64
(lp4267
S':'
asbag57
(g78
g59
NtRp4268
(dp4269
g62
(dp4270
sg71
g4255
sg64
(lp4271
g57
(g58
g59
NtRp4272
(dp4273
g62
(dp4274
g70
I5
ssg71
g4268
sg64
(lp4275
g57
(g66
g59
NtRp4276
(dp4277
g62
(dp4278
g70
I4
ssg71
Nsg64
(lp4279
sbasbasbasbag57
(g73
g59
NtRp4280
(dp4281
g62
(dp4282
sg71
g3970
sg64
(lp4283
g57
(g78
g59
NtRp4284
(dp4285
g62
(dp4286
g82
g83
ssg71
g4280
sg64
(lp4287
S'flash'
p4288
asbag57
(g78
g59
NtRp4289
(dp4290
g62
(dp4291
g89
g90
ssg71
g4280
sg64
(lp4292
S':'
asbag57
(g78
g59
NtRp4293
(dp4294
g62
(dp4295
sg71
g4280
sg64
(lp4296
g57
(g58
g59
NtRp4297
(dp4298
g62
(dp4299
g70
I5
ssg71
g4293
sg64
(lp4300
S''
asbasbasbag57
(g73
g59
NtRp4301
(dp4302
g62
(dp4303
sg71
g3970
sg64
(lp4304
g57
(g78
g59
NtRp4305
(dp4306
g62
(dp4307
g82
g83
ssg71
g4301
sg64
(lp4308
S'generic_patterns'
p4309
asbag57
(g78
g59
NtRp4310
(dp4311
g62
(dp4312
g89
g90
ssg71
g4301
sg64
(lp4313
S':'
asbag57
(g78
g59
NtRp4314
(dp4315
g62
(dp4316
sg71
g4301
sg64
(lp4317
g57
(g58
g59
NtRp4318
(dp4319
g62
(dp4320
g70
I5
ssg71
g4314
sg64
(lp4321
g57
(g66
g59
NtRp4322
(dp4323
g62
(dp4324
g70
I4
ssg71
Nsg64
(lp4325
sbasbasbasbag57
(g73
g59
NtRp4326
(dp4327
g62
(dp4328
sg71
g3970
sg64
(lp4329
g57
(g78
g59
NtRp4330
(dp4331
g62
(dp4332
g82
g83
ssg71
g4326
sg64
(lp4333
S'google_analytics_id'
p4334
asbag57
(g78
g59
NtRp4335
(dp4336
g62
(dp4337
g89
g90
ssg71
g4326
sg64
(lp4338
S':'
asbag57
(g78
g59
NtRp4339
(dp4340
g62
(dp4341
sg71
g4326
sg64
(lp4342
g57
(g58
g59
NtRp4343
(dp4344
g62
(dp4345
g70
I5
ssg71
g4339
sg64
(lp4346
S'None'
p4347
asbasbasbag57
(g73
g59
NtRp4348
(dp4349
g62
(dp4350
sg71
g3970
sg64
(lp4351
g57
(g78
g59
NtRp4352
(dp4353
g62
(dp4354
g82
g83
ssg71
g4348
sg64
(lp4355
S'headers'
p4356
asbag57
(g78
g59
NtRp4357
(dp4358
g62
(dp4359
g89
g90
ssg71
g4348
sg64
(lp4360
S':'
asbag57
(g78
g59
NtRp4361
(dp4362
g62
(dp4363
sg71
g4348
sg64
(lp4364
g57
(g58
g59
NtRp4365
(dp4366
g62
(dp4367
g70
I5
ssg71
g4361
sg64
(lp4368
g57
(g66
g59
NtRp4369
(dp4370
g62
(dp4371
g70
I4
ssg71
Nsg64
(lp4372
g57
(g73
g59
NtRp4373
(dp4374
g62
(dp4375
sg71
g4369
sg64
(lp4376
g57
(g78
g59
NtRp4377
(dp4378
g62
(dp4379
g82
g83
ssg71
g4373
sg64
(lp4380
S'Cache-Control'
p4381
asbag57
(g78
g59
NtRp4382
(dp4383
g62
(dp4384
g89
g90
ssg71
g4373
sg64
(lp4385
S':'
asbag57
(g78
g59
NtRp4386
(dp4387
g62
(dp4388
sg71
g4373
sg64
(lp4389
g57
(g58
g59
NtRp4390
(dp4391
g62
(dp4392
g70
I4
ssg71
g4386
sg64
(lp4393
S'no-store, no-cache, must-revalidate, post-check=0, pre-check=0'
p4394
asbasbasbag57
(g73
g59
NtRp4395
(dp4396
g62
(dp4397
sg71
g4369
sg64
(lp4398
g57
(g78
g59
NtRp4399
(dp4400
g62
(dp4401
g82
g83
ssg71
g4395
sg64
(lp4402
S'Content-Type'
p4403
asbag57
(g78
g59
NtRp4404
(dp4405
g62
(dp4406
g89
g90
ssg71
g4395
sg64
(lp4407
S':'
asbag57
(g78
g59
NtRp4408
(dp4409
g62
(dp4410
sg71
g4395
sg64
(lp4411
g57
(g58
g59
NtRp4412
(dp4413
g62
(dp4414
g70
I4
ssg71
g4408
sg64
(lp4415
S'text/html; charset=utf-8'
p4416
asbasbasbag57
(g73
g59
NtRp4417
(dp4418
g62
(dp4419
sg71
g4369
sg64
(lp4420
g57
(g78
g59
NtRp4421
(dp4422
g62
(dp4423
g82
g83
ssg71
g4417
sg64
(lp4424
S'Expires'
p4425
asbag57
(g78
g59
NtRp4426
(dp4427
g62
(dp4428
g89
g90
ssg71
g4417
sg64
(lp4429
S':'
asbag57
(g78
g59
NtRp4430
(dp4431
g62
(dp4432
sg71
g4417
sg64
(lp4433
g57
(g58
g59
NtRp4434
(dp4435
g62
(dp4436
g70
I4
ssg71
g4430
sg64
(lp4437
S'Fri, 31 Aug 2012 04:11:01 GMT'
p4438
asbasbasbag57
(g73
g59
NtRp4439
(dp4440
g62
(dp4441
sg71
g4369
sg64
(lp4442
g57
(g78
g59
NtRp4443
(dp4444
g62
(dp4445
g82
g83
ssg71
g4439
sg64
(lp4446
S'Pragma'
p4447
asbag57
(g78
g59
NtRp4448
(dp4449
g62
(dp4450
g89
g90
ssg71
g4439
sg64
(lp4451
S':'
asbag57
(g78
g59
NtRp4452
(dp4453
g62
(dp4454
sg71
g4439
sg64
(lp4455
g57
(g58
g59
NtRp4456
(dp4457
g62
(dp4458
g70
I4
ssg71
g4452
sg64
(lp4459
S'no-cache'
p4460
asbasbasbag57
(g73
g59
NtRp4461
(dp4462
g62
(dp4463
sg71
g4369
sg64
(lp4464
g57
(g78
g59
NtRp4465
(dp4466
g62
(dp4467
g82
g83
ssg71
g4461
sg64
(lp4468
S'X-Powered-By'
p4469
asbag57
(g78
g59
NtRp4470
(dp4471
g62
(dp4472
g89
g90
ssg71
g4461
sg64
(lp4473
S':'
asbag57
(g78
g59
NtRp4474
(dp4475
g62
(dp4476
sg71
g4461
sg64
(lp4477
g57
(g58
g59
NtRp4478
(dp4479
g62
(dp4480
g70
I4
ssg71
g4474
sg64
(lp4481
S'web2py'
p4482
asbasbasbasbasbasbasbag57
(g73
g59
NtRp4483
(dp4484
g62
(dp4485
sg71
g3970
sg64
(lp4486
g57
(g78
g59
NtRp4487
(dp4488
g62
(dp4489
g82
g83
ssg71
g4483
sg64
(lp4490
S'menu'
p4491
asbag57
(g78
g59
NtRp4492
(dp4493
g62
(dp4494
g89
g90
ssg71
g4483
sg64
(lp4495
S':'
asbag57
(g78
g59
NtRp4496
(dp4497
g62
(dp4498
sg71
g4483
sg64
(lp4499
g57
(g58
g59
NtRp4500
(dp4501
g62
(dp4502
g70
I5
ssg71
g4496
sg64
(lp4503
g57
(g66
g59
NtRp4504
(dp4505
g62
(dp4506
g70
I4
ssg71
Nsg64
(lp4507
g57
(g73
g59
NtRp4508
(dp4509
g62
(dp4510
sg71
g4504
sg64
(lp4511
g57
(g78
g59
NtRp4512
(dp4513
g62
(dp4514
sg71
g4508
sg64
(lp4515
g57
(g58
g59
NtRp4516
(dp4517
g62
(dp4518
g70
I4
ssg71
g4512
sg64
(lp4519
g57
(g66
g59
NtRp4520
(dp4521
g62
(dp4522
g70
I3
ssg71
Nsg64
(lp4523
g57
(g73
g59
NtRp4524
(dp4525
g62
(dp4526
sg71
g4520
sg64
(lp4527
g57
(g78
g59
NtRp4528
(dp4529
g62
(dp4530
sg71
g4524
sg64
(lp4531
g57
(g58
g59
NtRp4532
(dp4533
g62
(dp4534
g70
I3
ssg71
g4528
sg64
(lp4535
cgluon.languages
lazyT_unpickle
p4536
(S's\x04\x00\x00\x00Home'
tRp4537
asbasbasbag57
(g73
g59
NtRp4538
(dp4539
g62
(dp4540
sg71
g4520
sg64
(lp4541
g57
(g78
g59
NtRp4542
(dp4543
g62
(dp4544
sg71
g4538
sg64
(lp4545
g57
(g58
g59
NtRp4546
(dp4547
g62
(dp4548
g70
I3
ssg71
g4542
sg64
(lp4549
g100
asbasbasbag57
(g73
g59
NtRp4550
(dp4551
g62
(dp4552
sg71
g4520
sg64
(lp4553
g57
(g78
g59
NtRp4554
(dp4555
g62
(dp4556
sg71
g4550
sg64
(lp4557
g57
(g58
g59
NtRp4558
(dp4559
g62
(dp4560
g70
I3
ssg71
g4554
sg64
(lp4561
S'/FotoBuk/default/index'
p4562
asbasbasbag57
(g73
g59
NtRp4563
(dp4564
g62
(dp4565
sg71
g4520
sg64
(lp4566
g57
(g78
g59
NtRp4567
(dp4568
g62
(dp4569
sg71
g4563
sg64
(lp4570
g57
(g58
g59
NtRp4571
(dp4572
g62
(dp4573
g70
I3
ssg71
g4567
sg64
(lp4574
g57
(g66
g59
NtRp4575
(dp4576
g62
(dp4577
g70
I2
ssg71
Nsg64
(lp4578
sbasbasbasbasbasbasbasbag57
(g73
g59
NtRp4579
(dp4580
g62
(dp4581
sg71
g4504
sg64
(lp4582
g57
(g78
g59
NtRp4583
(dp4584
g62
(dp4585
sg71
g4579
sg64
(lp4586
g57
(g58
g59
NtRp4587
(dp4588
g62
(dp4589
g70
I4
ssg71
g4583
sg64
(lp4590
g57
(g66
g59
NtRp4591
(dp4592
g62
(dp4593
g70
I3
ssg71
Nsg64
(lp4594
g57
(g73
g59
NtRp4595
(dp4596
g62
(dp4597
sg71
g4591
sg64
(lp4598
g57
(g78
g59
NtRp4599
(dp4600
g62
(dp4601
sg71
g4595
sg64
(lp4602
g57
(g58
g59
NtRp4603
(dp4604
g62
(dp4605
g70
I3
ssg71
g4599
sg64
(lp4606
g57
(cgluon.html
SPAN
p4607
g59
NtRp4608
(dp4609
g62
(dp4610
g82
S'color:yellow'
p4611
ssg71
Nsg64
(lp4612
g4482
asbasbasbasbag57
(g73
g59
NtRp4613
(dp4614
g62
(dp4615
sg71
g4591
sg64
(lp4616
g57
(g78
g59
NtRp4617
(dp4618
g62
(dp4619
sg71
g4613
sg64
(lp4620
g57
(g58
g59
NtRp4621
(dp4622
g62
(dp4623
g70
I3
ssg71
g4617
sg64
(lp4624
g100
asbasbasbag57
(g73
g59
NtRp4625
(dp4626
g62
(dp4627
sg71
g4591
sg64
(lp4628
g57
(g78
g59
NtRp4629
(dp4630
g62
(dp4631
sg71
g4625
sg64
(lp4632
g57
(g58
g59
NtRp4633
(dp4634
g62
(dp4635
g70
I3
ssg71
g4629
sg64
(lp4636
S'http://web2py.com'
p4637
asbasbasbag57
(g73
g59
NtRp4638
(dp4639
g62
(dp4640
sg71
g4591
sg64
(lp4641
g57
(g78
g59
NtRp4642
(dp4643
g62
(dp4644
sg71
g4638
sg64
(lp4645
g57
(g58
g59
NtRp4646
(dp4647
g62
(dp4648
g70
I3
ssg71
g4642
sg64
(lp4649
g57
(g66
g59
NtRp4650
(dp4651
g62
(dp4652
g70
I2
ssg71
Nsg64
(lp4653
g57
(g73
g59
NtRp4654
(dp4655
g62
(dp4656
sg71
g4650
sg64
(lp4657
g57
(g78
g59
NtRp4658
(dp4659
g62
(dp4660
sg71
g4654
sg64
(lp4661
g57
(g58
g59
NtRp4662
(dp4663
g62
(dp4664
g70
I2
ssg71
g4658
sg64
(lp4665
g57
(g66
g59
NtRp4666
(dp4667
g62
(dp4668
g70
I1
ssg71
Nsg64
(lp4669
g57
(g73
g59
NtRp4670
(dp4671
g62
(dp4672
sg71
g4666
sg64
(lp4673
g57
(g78
g59
NtRp4674
(dp4675
g62
(dp4676
sg71
g4670
sg64
(lp4677
g57
(g58
g59
NtRp4678
(dp4679
g62
(dp4680
g70
I1
ssg71
g4674
sg64
(lp4681
g4536
(S's\x08\x00\x00\x00My Sites'
tRp4682
asbasbasbag57
(g73
g59
NtRp4683
(dp4684
g62
(dp4685
sg71
g4666
sg64
(lp4686
g57
(g78
g59
NtRp4687
(dp4688
g62
(dp4689
sg71
g4683
sg64
(lp4690
g57
(g58
g59
NtRp4691
(dp4692
g62
(dp4693
g70
I1
ssg71
g4687
sg64
(lp4694
I00
asbasbasbag57
(g73
g59
NtRp4695
(dp4696
g62
(dp4697
sg71
g4666
sg64
(lp4698
g57
(g78
g59
NtRp4699
(dp4700
g62
(dp4701
sg71
g4695
sg64
(lp4702
g57
(g58
g59
NtRp4703
(dp4704
g62
(dp4705
g70
I1
ssg71
g4699
sg64
(lp4706
S'/admin/default/site'
p4707
asbasbasbasbasbasbasbag57
(g73
g59
NtRp4708
(dp4709
g62
(dp4710
sg71
g4650
sg64
(lp4711
g57
(g78
g59
NtRp4712
(dp4713
g62
(dp4714
sg71
g4708
sg64
(lp4715
g57
(g58
g59
NtRp4716
(dp4717
g62
(dp4718
g70
I2
ssg71
g4712
sg64
(lp4719
g57
(g66
g59
NtRp4720
(dp4721
g62
(dp4722
g70
I1
ssg71
Nsg64
(lp4723
g57
(g73
g59
NtRp4724
(dp4725
g62
(dp4726
sg71
g4720
sg64
(lp4727
g57
(g78
g59
NtRp4728
(dp4729
g62
(dp4730
sg71
g4724
sg64
(lp4731
g57
(g58
g59
NtRp4732
(dp4733
g62
(dp4734
g70
I1
ssg71
g4728
sg64
(lp4735
g4536
(S's\x08\x00\x00\x00This App'
tRp4736
asbasbasbag57
(g73
g59
NtRp4737
(dp4738
g62
(dp4739
sg71
g4720
sg64
(lp4740
g57
(g78
g59
NtRp4741
(dp4742
g62
(dp4743
sg71
g4737
sg64
(lp4744
g57
(g58
g59
NtRp4745
(dp4746
g62
(dp4747
g70
I1
ssg71
g4741
sg64
(lp4748
I00
asbasbasbag57
(g73
g59
NtRp4749
(dp4750
g62
(dp4751
sg71
g4720
sg64
(lp4752
g57
(g78
g59
NtRp4753
(dp4754
g62
(dp4755
sg71
g4749
sg64
(lp4756
g57
(g58
g59
NtRp4757
(dp4758
g62
(dp4759
g70
I1
ssg71
g4753
sg64
(lp4760
S'/admin/default/design/FotoBuk'
p4761
asbasbasbag57
(g73
g59
NtRp4762
(dp4763
g62
(dp4764
sg71
g4720
sg64
(lp4765
g57
(g78
g59
NtRp4766
(dp4767
g62
(dp4768
sg71
g4762
sg64
(lp4769
g57
(g58
g59
NtRp4770
(dp4771
g62
(dp4772
g70
I1
ssg71
g4766
sg64
(lp4773
(lp4774
(g4536
(S's\n\x00\x00\x00Controller'
tRp4775
I00
S'/admin/default/edit/FotoBuk/controllers/default.py'
tp4776
a(g4536
(S's\x04\x00\x00\x00View'
tRp4777
I00
S'/admin/default/edit/FotoBuk/views/default/show.html'
tp4778
a(g4536
(S's\x06\x00\x00\x00Layout'
tRp4779
I00
S'/admin/default/edit/FotoBuk/views/layout.html'
tp4780
a(g4536
(S's\n\x00\x00\x00Stylesheet'
tRp4781
I00
S'/admin/default/edit/FotoBuk/static/css/web2py.css'
tp4782
a(g4536
(S's\x08\x00\x00\x00DB Model'
tRp4783
I00
S'/admin/default/edit/FotoBuk/models/db.py'
tp4784
a(g4536
(S's\n\x00\x00\x00Menu Model'
tRp4785
I00
S'/admin/default/edit/FotoBuk/models/menu.py'
tp4786
a(g4536
(S's\x08\x00\x00\x00Database'
tRp4787
I00
S'/FotoBuk/appadmin/index'
tp4788
a(g4536
(S's\x06\x00\x00\x00Errors'
tRp4789
I00
S'/admin/default/errors/FotoBuk'
tp4790
a(g4536
(S's\x05\x00\x00\x00About'
tRp4791
I00
S'/admin/default/about/FotoBuk'
tp4792
aasbasbasbasbasbasbasbag57
(g73
g59
NtRp4793
(dp4794
g62
(dp4795
sg71
g4650
sg64
(lp4796
g57
(g78
g59
NtRp4797
(dp4798
g62
(dp4799
sg71
g4793
sg64
(lp4800
g57
(g58
g59
NtRp4801
(dp4802
g62
(dp4803
g70
I2
ssg71
g4797
sg64
(lp4804
g57
(g66
g59
NtRp4805
(dp4806
g62
(dp4807
g70
I1
ssg71
Nsg64
(lp4808
g57
(g73
g59
NtRp4809
(dp4810
g62
(dp4811
sg71
g4805
sg64
(lp4812
g57
(g78
g59
NtRp4813
(dp4814
g62
(dp4815
sg71
g4809
sg64
(lp4816
g57
(g58
g59
NtRp4817
(dp4818
g62
(dp4819
g70
I1
ssg71
g4813
sg64
(lp4820
S'web2py.com'
p4821
asbasbasbag57
(g73
g59
NtRp4822
(dp4823
g62
(dp4824
sg71
g4805
sg64
(lp4825
g57
(g78
g59
NtRp4826
(dp4827
g62
(dp4828
sg71
g4822
sg64
(lp4829
g57
(g58
g59
NtRp4830
(dp4831
g62
(dp4832
g70
I1
ssg71
g4826
sg64
(lp4833
I00
asbasbasbag57
(g73
g59
NtRp4834
(dp4835
g62
(dp4836
sg71
g4805
sg64
(lp4837
g57
(g78
g59
NtRp4838
(dp4839
g62
(dp4840
sg71
g4834
sg64
(lp4841
g57
(g58
g59
NtRp4842
(dp4843
g62
(dp4844
g70
I1
ssg71
g4838
sg64
(lp4845
S'http://www.web2py.com'
p4846
asbasbasbag57
(g73
g59
NtRp4847
(dp4848
g62
(dp4849
sg71
g4805
sg64
(lp4850
g57
(g78
g59
NtRp4851
(dp4852
g62
(dp4853
sg71
g4847
sg64
(lp4854
g57
(g58
g59
NtRp4855
(dp4856
g62
(dp4857
g70
I1
ssg71
g4851
sg64
(lp4858
(lp4859
(g4536
(S's\x08\x00\x00\x00Download'
tRp4860
I00
S'http://www.web2py.com/examples/default/download'
p4861
tp4862
a(g4536
(S's\x07\x00\x00\x00Support'
tRp4863
I00
S'http://www.web2py.com/examples/default/support'
p4864
tp4865
a(g4536
(S's\x04\x00\x00\x00Demo'
tRp4866
I00
S'http://web2py.com/demo_admin'
p4867
tp4868
a(g4536
(S's\x0e\x00\x00\x00Quick Examples'
tRp4869
I00
S'http://web2py.com/examples/default/examples'
p4870
tp4871
a(g4536
(S's\x03\x00\x00\x00FAQ'
tRp4872
I00
S'http://web2py.com/AlterEgo'
p4873
tp4874
a(g4536
(S's\x06\x00\x00\x00Videos'
tRp4875
I00
S'http://www.web2py.com/examples/default/videos/'
p4876
tp4877
a(g4536
(S's\x11\x00\x00\x00Free Applications'
tRp4878
I00
S'http://web2py.com/appliances'
p4879
tp4880
a(g4536
(S's\x07\x00\x00\x00Plugins'
tRp4881
I00
S'http://web2py.com/plugins'
p4882
tp4883
a(g4536
(S's\x07\x00\x00\x00Layouts'
tRp4884
I00
S'http://web2py.com/layouts'
p4885
tp4886
a(g4536
(S's\x07\x00\x00\x00Recipes'
tRp4887
I00
S'http://web2pyslices.com/'
p4888
tp4889
a(g4536
(S's\x08\x00\x00\x00Semantic'
tRp4890
I00
S'http://web2py.com/semantic'
p4891
tp4892
aasbasbasbasbasbasbasbag57
(g73
g59
NtRp4893
(dp4894
g62
(dp4895
sg71
g4650
sg64
(lp4896
g57
(g78
g59
NtRp4897
(dp4898
g62
(dp4899
sg71
g4893
sg64
(lp4900
g57
(g58
g59
NtRp4901
(dp4902
g62
(dp4903
g70
I2
ssg71
g4897
sg64
(lp4904
g57
(g66
g59
NtRp4905
(dp4906
g62
(dp4907
g70
I1
ssg71
Nsg64
(lp4908
g57
(g73
g59
NtRp4909
(dp4910
g62
(dp4911
sg71
g4905
sg64
(lp4912
g57
(g78
g59
NtRp4913
(dp4914
g62
(dp4915
sg71
g4909
sg64
(lp4916
g57
(g58
g59
NtRp4917
(dp4918
g62
(dp4919
g70
I1
ssg71
g4913
sg64
(lp4920
g4536
(S's\r\x00\x00\x00Documentation'
tRp4921
asbasbasbag57
(g73
g59
NtRp4922
(dp4923
g62
(dp4924
sg71
g4905
sg64
(lp4925
g57
(g78
g59
NtRp4926
(dp4927
g62
(dp4928
sg71
g4922
sg64
(lp4929
g57
(g58
g59
NtRp4930
(dp4931
g62
(dp4932
g70
I1
ssg71
g4926
sg64
(lp4933
I00
asbasbasbag57
(g73
g59
NtRp4934
(dp4935
g62
(dp4936
sg71
g4905
sg64
(lp4937
g57
(g78
g59
NtRp4938
(dp4939
g62
(dp4940
sg71
g4934
sg64
(lp4941
g57
(g58
g59
NtRp4942
(dp4943
g62
(dp4944
g70
I1
ssg71
g4938
sg64
(lp4945
S'http://www.web2py.com/book'
p4946
asbasbasbag57
(g73
g59
NtRp4947
(dp4948
g62
(dp4949
sg71
g4905
sg64
(lp4950
g57
(g78
g59
NtRp4951
(dp4952
g62
(dp4953
sg71
g4947
sg64
(lp4954
g57
(g58
g59
NtRp4955
(dp4956
g62
(dp4957
g70
I1
ssg71
g4951
sg64
(lp4958
(lp4959
(g4536
(S's\x07\x00\x00\x00Preface'
tRp4960
I00
S'http://www.web2py.com/book/default/chapter/00'
p4961
tp4962
a(g4536
(S's\x0c\x00\x00\x00Introduction'
tRp4963
I00
S'http://www.web2py.com/book/default/chapter/01'
p4964
tp4965
a(g4536
(S's\x06\x00\x00\x00Python'
tRp4966
I00
S'http://www.web2py.com/book/default/chapter/02'
p4967
tp4968
a(g4536
(S's\x08\x00\x00\x00Overview'
tRp4969
I00
S'http://www.web2py.com/book/default/chapter/03'
p4970
tp4971
a(g4536
(S's\x08\x00\x00\x00The Core'
tRp4972
I00
S'http://www.web2py.com/book/default/chapter/04'
p4973
tp4974
a(g4536
(S's\t\x00\x00\x00The Views'
tRp4975
I00
S'http://www.web2py.com/book/default/chapter/05'
p4976
tp4977
a(g4536
(S's\x08\x00\x00\x00Database'
tRp4978
I00
S'http://www.web2py.com/book/default/chapter/06'
p4979
tp4980
a(g4536
(S's\x14\x00\x00\x00Forms and Validators'
tRp4981
I00
S'http://www.web2py.com/book/default/chapter/07'
p4982
tp4983
a(g4536
(S's\r\x00\x00\x00Email and SMS'
tRp4984
I00
S'http://www.web2py.com/book/default/chapter/08'
p4985
tp4986
a(g4536
(S's\x0e\x00\x00\x00Access Control'
tRp4987
I00
S'http://www.web2py.com/book/default/chapter/09'
p4988
tp4989
a(g4536
(S's\x08\x00\x00\x00Services'
tRp4990
I00
S'http://www.web2py.com/book/default/chapter/10'
p4991
tp4992
a(g4536
(S's\x0c\x00\x00\x00Ajax Recipes'
tRp4993
I00
S'http://www.web2py.com/book/default/chapter/11'
p4994
tp4995
a(g4536
(S's\x16\x00\x00\x00Components and Plugins'
tRp4996
I00
S'http://www.web2py.com/book/default/chapter/12'
p4997
tp4998
a(g4536
(S's\x12\x00\x00\x00Deployment Recipes'
tRp4999
I00
S'http://www.web2py.com/book/default/chapter/13'
p5000
tp5001
a(g4536
(S's\r\x00\x00\x00Other Recipes'
tRp5002
I00
S'http://www.web2py.com/book/default/chapter/14'
p5003
tp5004
a(g4536
(S's\r\x00\x00\x00Buy this book'
tRp5005
I00
S'http://stores.lulu.com/web2py'
p5006
tp5007
aasbasbasbasbasbasbasbag57
(g73
g59
NtRp5008
(dp5009
g62
(dp5010
sg71
g4650
sg64
(lp5011
g57
(g78
g59
NtRp5012
(dp5013
g62
(dp5014
sg71
g5008
sg64
(lp5015
g57
(g58
g59
NtRp5016
(dp5017
g62
(dp5018
g70
I2
ssg71
g5012
sg64
(lp5019
g57
(g66
g59
NtRp5020
(dp5021
g62
(dp5022
g70
I1
ssg71
Nsg64
(lp5023
g57
(g73
g59
NtRp5024
(dp5025
g62
(dp5026
sg71
g5020
sg64
(lp5027
g57
(g78
g59
NtRp5028
(dp5029
g62
(dp5030
sg71
g5024
sg64
(lp5031
g57
(g58
g59
NtRp5032
(dp5033
g62
(dp5034
g70
I1
ssg71
g5028
sg64
(lp5035
g4536
(S's\t\x00\x00\x00Community'
tRp5036
asbasbasbag57
(g73
g59
NtRp5037
(dp5038
g62
(dp5039
sg71
g5020
sg64
(lp5040
g57
(g78
g59
NtRp5041
(dp5042
g62
(dp5043
sg71
g5037
sg64
(lp5044
g57
(g58
g59
NtRp5045
(dp5046
g62
(dp5047
g70
I1
ssg71
g5041
sg64
(lp5048
I00
asbasbasbag57
(g73
g59
NtRp5049
(dp5050
g62
(dp5051
sg71
g5020
sg64
(lp5052
g57
(g78
g59
NtRp5053
(dp5054
g62
(dp5055
sg71
g5049
sg64
(lp5056
g57
(g58
g59
NtRp5057
(dp5058
g62
(dp5059
g70
I1
ssg71
g5053
sg64
(lp5060
Nasbasbasbag57
(g73
g59
NtRp5061
(dp5062
g62
(dp5063
sg71
g5020
sg64
(lp5064
g57
(g78
g59
NtRp5065
(dp5066
g62
(dp5067
sg71
g5061
sg64
(lp5068
g57
(g58
g59
NtRp5069
(dp5070
g62
(dp5071
g70
I1
ssg71
g5065
sg64
(lp5072
(lp5073
(g4536
(S's\x06\x00\x00\x00Groups'
tRp5074
I00
S'http://www.web2py.com/examples/default/usergroups'
p5075
tp5076
a(g4536
(S's\x07\x00\x00\x00Twitter'
tRp5077
I00
S'http://twitter.com/web2py'
p5078
tp5079
a(g4536
(S's\t\x00\x00\x00Live Chat'
tRp5080
I00
S'http://webchat.freenode.net/?channels=web2py'
p5081
tp5082
aasbasbasbasbasbasbasbag57
(g73
g59
NtRp5083
(dp5084
g62
(dp5085
sg71
g4650
sg64
(lp5086
g57
(g78
g59
NtRp5087
(dp5088
g62
(dp5089
sg71
g5083
sg64
(lp5090
g57
(g58
g59
NtRp5091
(dp5092
g62
(dp5093
g70
I2
ssg71
g5087
sg64
(lp5094
g57
(g66
g59
NtRp5095
(dp5096
g62
(dp5097
g70
I1
ssg71
Nsg64
(lp5098
g57
(g73
g59
NtRp5099
(dp5100
g62
(dp5101
sg71
g5095
sg64
(lp5102
g57
(g78
g59
NtRp5103
(dp5104
g62
(dp5105
sg71
g5099
sg64
(lp5106
g57
(g58
g59
NtRp5107
(dp5108
g62
(dp5109
g70
I1
ssg71
g5103
sg64
(lp5110
g4536
(S's\x07\x00\x00\x00Plugins'
tRp5111
asbasbasbag57
(g73
g59
NtRp5112
(dp5113
g62
(dp5114
sg71
g5095
sg64
(lp5115
g57
(g78
g59
NtRp5116
(dp5117
g62
(dp5118
sg71
g5112
sg64
(lp5119
g57
(g58
g59
NtRp5120
(dp5121
g62
(dp5122
g70
I1
ssg71
g5116
sg64
(lp5123
I00
asbasbasbag57
(g73
g59
NtRp5124
(dp5125
g62
(dp5126
sg71
g5095
sg64
(lp5127
g57
(g78
g59
NtRp5128
(dp5129
g62
(dp5130
sg71
g5124
sg64
(lp5131
g57
(g58
g59
NtRp5132
(dp5133
g62
(dp5134
g70
I1
ssg71
g5128
sg64
(lp5135
Nasbasbasbag57
(g73
g59
NtRp5136
(dp5137
g62
(dp5138
sg71
g5095
sg64
(lp5139
g57
(g78
g59
NtRp5140
(dp5141
g62
(dp5142
sg71
g5136
sg64
(lp5143
g57
(g58
g59
NtRp5144
(dp5145
g62
(dp5146
g70
I1
ssg71
g5140
sg64
(lp5147
(lp5148
(S'plugin_wiki'
p5149
I00
S'http://web2py.com/examples/default/download'
p5150
tp5151
a(g4536
(S's\r\x00\x00\x00Other Plugins'
tRp5152
I00
g4882
tp5153
a(g4536
(S's\x0e\x00\x00\x00Layout Plugins'
tRp5154
I00
g4885
tp5155
aasbasbasbasbasbasbasbasbasbasbasbasbasbasbasbasbasbasbasbag57
(g73
g59
NtRp5156
(dp5157
g62
(dp5158
sg71
g3970
sg64
(lp5159
g57
(g78
g59
NtRp5160
(dp5161
g62
(dp5162
g82
g83
ssg71
g5156
sg64
(lp5163
S'meta'
p5164
asbag57
(g78
g59
NtRp5165
(dp5166
g62
(dp5167
g89
g90
ssg71
g5156
sg64
(lp5168
S':'
asbag57
(g78
g59
NtRp5169
(dp5170
g62
(dp5171
sg71
g5156
sg64
(lp5172
g57
(g58
g59
NtRp5173
(dp5174
g62
(dp5175
g70
I5
ssg71
g5169
sg64
(lp5176
g57
(g66
g59
NtRp5177
(dp5178
g62
(dp5179
g70
I4
ssg71
Nsg64
(lp5180
g57
(g73
g59
NtRp5181
(dp5182
g62
(dp5183
sg71
g5177
sg64
(lp5184
g57
(g78
g59
NtRp5185
(dp5186
g62
(dp5187
g82
g83
ssg71
g5181
sg64
(lp5188
S'author'
p5189
asbag57
(g78
g59
NtRp5190
(dp5191
g62
(dp5192
g89
g90
ssg71
g5181
sg64
(lp5193
S':'
asbag57
(g78
g59
NtRp5194
(dp5195
g62
(dp5196
sg71
g5181
sg64
(lp5197
g57
(g58
g59
NtRp5198
(dp5199
g62
(dp5200
g70
I4
ssg71
g5194
sg64
(lp5201
S'Your Name <you@example.com>'
p5202
asbasbasbag57
(g73
g59
NtRp5203
(dp5204
g62
(dp5205
sg71
g5177
sg64
(lp5206
g57
(g78
g59
NtRp5207
(dp5208
g62
(dp5209
g82
g83
ssg71
g5203
sg64
(lp5210
S'description'
p5211
asbag57
(g78
g59
NtRp5212
(dp5213
g62
(dp5214
g89
g90
ssg71
g5203
sg64
(lp5215
S':'
asbag57
(g78
g59
NtRp5216
(dp5217
g62
(dp5218
sg71
g5203
sg64
(lp5219
g57
(g58
g59
NtRp5220
(dp5221
g62
(dp5222
g70
I4
ssg71
g5216
sg64
(lp5223
S'a cool new app'
p5224
asbasbasbag57
(g73
g59
NtRp5225
(dp5226
g62
(dp5227
sg71
g5177
sg64
(lp5228
g57
(g78
g59
NtRp5229
(dp5230
g62
(dp5231
g82
g83
ssg71
g5225
sg64
(lp5232
S'generator'
p5233
asbag57
(g78
g59
NtRp5234
(dp5235
g62
(dp5236
g89
g90
ssg71
g5225
sg64
(lp5237
S':'
asbag57
(g78
g59
NtRp5238
(dp5239
g62
(dp5240
sg71
g5225
sg64
(lp5241
g57
(g58
g59
NtRp5242
(dp5243
g62
(dp5244
g70
I4
ssg71
g5238
sg64
(lp5245
S'Web2py Web Framework'
p5246
asbasbasbag57
(g73
g59
NtRp5247
(dp5248
g62
(dp5249
sg71
g5177
sg64
(lp5250
g57
(g78
g59
NtRp5251
(dp5252
g62
(dp5253
g82
g83
ssg71
g5247
sg64
(lp5254
S'keywords'
p5255
asbag57
(g78
g59
NtRp5256
(dp5257
g62
(dp5258
g89
g90
ssg71
g5247
sg64
(lp5259
S':'
asbag57
(g78
g59
NtRp5260
(dp5261
g62
(dp5262
sg71
g5247
sg64
(lp5263
g57
(g58
g59
NtRp5264
(dp5265
g62
(dp5266
g70
I4
ssg71
g5260
sg64
(lp5267
S'web2py, python, framework'
p5268
asbasbasbasbasbasbasbag57
(g73
g59
NtRp5269
(dp5270
g62
(dp5271
sg71
g3970
sg64
(lp5272
g57
(g78
g59
NtRp5273
(dp5274
g62
(dp5275
g82
g83
ssg71
g5269
sg64
(lp5276
S'postprocessing'
p5277
asbag57
(g78
g59
NtRp5278
(dp5279
g62
(dp5280
g89
g90
ssg71
g5269
sg64
(lp5281
S':'
asbag57
(g78
g59
NtRp5282
(dp5283
g62
(dp5284
sg71
g5269
sg64
(lp5285
g57
(g58
g59
NtRp5286
(dp5287
g62
(dp5288
g70
I5
ssg71
g5282
sg64
(lp5289
g57
(g66
g59
NtRp5290
(dp5291
g62
(dp5292
g70
I4
ssg71
Nsg64
(lp5293
sbasbasbasbag57
(g73
g59
NtRp5294
(dp5295
g62
(dp5296
sg71
g3970
sg64
(lp5297
g57
(g78
g59
NtRp5298
(dp5299
g62
(dp5300
g82
g83
ssg71
g5294
sg64
(lp5301
S'session_file'
p5302
asbag57
(g78
g59
NtRp5303
(dp5304
g62
(dp5305
g89
g90
ssg71
g5294
sg64
(lp5306
S':'
asbag57
(g78
g59
NtRp5307
(dp5308
g62
(dp5309
sg71
g5294
sg64
(lp5310
g57
(g58
g59
NtRp5311
(dp5312
g62
(dp5313
g70
I5
ssg71
g5307
sg64
(lp5314
S"<open file '/home/piyush/web2py/applications/FotoBuk/sessions/127.0.0.1-961e4bc4-dc07-4e6c-b9f7-52a46e56ffd5', mode 'rb+' at 0xaec494f0>"
p5315
asbasbasbag57
(g73
g59
NtRp5316
(dp5317
g62
(dp5318
sg71
g3970
sg64
(lp5319
g57
(g78
g59
NtRp5320
(dp5321
g62
(dp5322
g82
g83
ssg71
g5316
sg64
(lp5323
S'session_filename'
p5324
asbag57
(g78
g59
NtRp5325
(dp5326
g62
(dp5327
g89
g90
ssg71
g5316
sg64
(lp5328
S':'
asbag57
(g78
g59
NtRp5329
(dp5330
g62
(dp5331
sg71
g5316
sg64
(lp5332
g57
(g58
g59
NtRp5333
(dp5334
g62
(dp5335
g70
I5
ssg71
g5329
sg64
(lp5336
S'/home/piyush/web2py/applications/FotoBuk/sessions/127.0.0.1-961e4bc4-dc07-4e6c-b9f7-52a46e56ffd5'
p5337
asbasbasbag57
(g73
g59
NtRp5338
(dp5339
g62
(dp5340
sg71
g3970
sg64
(lp5341
g57
(g78
g59
NtRp5342
(dp5343
g62
(dp5344
g82
g83
ssg71
g5338
sg64
(lp5345
S'session_id'
p5346
asbag57
(g78
g59
NtRp5347
(dp5348
g62
(dp5349
g89
g90
ssg71
g5338
sg64
(lp5350
S':'
asbag57
(g78
g59
NtRp5351
(dp5352
g62
(dp5353
sg71
g5338
sg64
(lp5354
g57
(g58
g59
NtRp5355
(dp5356
g62
(dp5357
g70
I5
ssg71
g5351
sg64
(lp5358
g487
asbasbasbag57
(g73
g59
NtRp5359
(dp5360
g62
(dp5361
sg71
g3970
sg64
(lp5362
g57
(g78
g59
NtRp5363
(dp5364
g62
(dp5365
g82
g83
ssg71
g5359
sg64
(lp5366
S'session_id_name'
p5367
asbag57
(g78
g59
NtRp5368
(dp5369
g62
(dp5370
g89
g90
ssg71
g5359
sg64
(lp5371
S':'
asbag57
(g78
g59
NtRp5372
(dp5373
g62
(dp5374
sg71
g5359
sg64
(lp5375
g57
(g58
g59
NtRp5376
(dp5377
g62
(dp5378
g70
I5
ssg71
g5372
sg64
(lp5379
g4027
asbasbasbag57
(g73
g59
NtRp5380
(dp5381
g62
(dp5382
sg71
g3970
sg64
(lp5383
g57
(g78
g59
NtRp5384
(dp5385
g62
(dp5386
g82
g83
ssg71
g5380
sg64
(lp5387
S'session_locked'
p5388
asbag57
(g78
g59
NtRp5389
(dp5390
g62
(dp5391
g89
g90
ssg71
g5380
sg64
(lp5392
S':'
asbag57
(g78
g59
NtRp5393
(dp5394
g62
(dp5395
sg71
g5380
sg64
(lp5396
g57
(g58
g59
NtRp5397
(dp5398
g62
(dp5399
g70
I5
ssg71
g5393
sg64
(lp5400
g1986
asbasbasbag57
(g73
g59
NtRp5401
(dp5402
g62
(dp5403
sg71
g3970
sg64
(lp5404
g57
(g78
g59
NtRp5405
(dp5406
g62
(dp5407
g82
g83
ssg71
g5401
sg64
(lp5408
S'session_new'
p5409
asbag57
(g78
g59
NtRp5410
(dp5411
g62
(dp5412
g89
g90
ssg71
g5401
sg64
(lp5413
S':'
asbag57
(g78
g59
NtRp5414
(dp5415
g62
(dp5416
sg71
g5401
sg64
(lp5417
g57
(g58
g59
NtRp5418
(dp5419
g62
(dp5420
g70
I5
ssg71
g5414
sg64
(lp5421
g100
asbasbasbag57
(g73
g59
NtRp5422
(dp5423
g62
(dp5424
sg71
g3970
sg64
(lp5425
g57
(g78
g59
NtRp5426
(dp5427
g62
(dp5428
g82
g83
ssg71
g5422
sg64
(lp5429
S'status'
p5430
asbag57
(g78
g59
NtRp5431
(dp5432
g62
(dp5433
g89
g90
ssg71
g5422
sg64
(lp5434
S':'
asbag57
(g78
g59
NtRp5435
(dp5436
g62
(dp5437
sg71
g5422
sg64
(lp5438
g57
(g58
g59
NtRp5439
(dp5440
g62
(dp5441
g70
I5
ssg71
g5435
sg64
(lp5442
S'200'
p5443
asbasbasbag57
(g73
g59
NtRp5444
(dp5445
g62
(dp5446
sg71
g3970
sg64
(lp5447
g57
(g78
g59
NtRp5448
(dp5449
g62
(dp5450
g82
g83
ssg71
g5444
sg64
(lp5451
S'subtitle'
p5452
asbag57
(g78
g59
NtRp5453
(dp5454
g62
(dp5455
g89
g90
ssg71
g5444
sg64
(lp5456
S':'
asbag57
(g78
g59
NtRp5457
(dp5458
g62
(dp5459
sg71
g5444
sg64
(lp5460
g57
(g58
g59
NtRp5461
(dp5462
g62
(dp5463
g70
I5
ssg71
g5457
sg64
(lp5464
g4536
(S's\r\x00\x00\x00customize me!'
tRp5465
asbasbasbag57
(g73
g59
NtRp5466
(dp5467
g62
(dp5468
sg71
g3970
sg64
(lp5469
g57
(g78
g59
NtRp5470
(dp5471
g62
(dp5472
g82
g83
ssg71
g5466
sg64
(lp5473
S'title'
p5474
asbag57
(g78
g59
NtRp5475
(dp5476
g62
(dp5477
g89
g90
ssg71
g5466
sg64
(lp5478
S':'
asbag57
(g78
g59
NtRp5479
(dp5480
g62
(dp5481
sg71
g5466
sg64
(lp5482
g57
(g58
g59
NtRp5483
(dp5484
g62
(dp5485
g70
I5
ssg71
g5479
sg64
(lp5486
S'Fotobuk'
p5487
asbasbasbag57
(g73
g59
NtRp5488
(dp5489
g62
(dp5490
sg71
g3970
sg64
(lp5491
g57
(g78
g59
NtRp5492
(dp5493
g62
(dp5494
g82
g83
ssg71
g5488
sg64
(lp5495
S'view'
p5496
asbag57
(g78
g59
NtRp5497
(dp5498
g62
(dp5499
g89
g90
ssg71
g5488
sg64
(lp5500
S':'
asbag57
(g78
g59
NtRp5501
(dp5502
g62
(dp5503
sg71
g5488
sg64
(lp5504
g57
(g58
g59
NtRp5505
(dp5506
g62
(dp5507
g70
I5
ssg71
g5501
sg64
(lp5508
S'default/show.html'
p5509
asbasbasbasbasbsS'locals'
p5510
(dp5511
S'self'
p5512
S"<Row {'comment': <Set (comment.image_id = 2)>, '... <gluon.dal.RecordDeleter object at 0xada81bec>}>"
p5513
sS'm'
S'None'
p5514
sS'key'
p5515
S"'0'"
p5516
sssS'traceback'
p5517
S'Traceback (most recent call last):\n  File "/home/piyush/web2py/gluon/restricted.py", line 209, in restricted\n    exec ccode in environment\n  File "/home/piyush/web2py/applications/FotoBuk/controllers/default.py", line 46, in <module>\n  File "/home/piyush/web2py/gluon/globals.py", line 185, in <lambda>\n    self._caller = lambda f: f()\n  File "/home/piyush/web2py/gluon/tools.py", line 2776, in f\n    return action(*a, **b)\n  File "/home/piyush/web2py/applications/FotoBuk/controllers/default.py", line 19, in show\n    print image[0].author_id\n  File "/home/piyush/web2py/gluon/dal.py", line 6376, in __getitem__\n    return ogetattr(self, key)\nAttributeError: \'Row\' object has no attribute \'0\'\n'
p5518
s.