(dp1
S'output'
p2
S'<class \'sqlite3.OperationalError\'> near ")": syntax error'
p3
sS'layer'
p4
S'/home/piyush/web2py/applications/FotoBuk/controllers/default.py'
p5
sS'code'
p6
S"@auth.requires_login()\ndef index():\n\tli=db(db.image).select()\n\treturn dict(li=li)\n\n@auth.requires_login()\ndef insert():\n    db.image.author.default=auth.user.first_name\n    db.image.author_id=auth.user_id\n    form=SQLFORM(db.image)\n    if form.process().accepted:\n        response.flash = 'your image is posted'\n    return dict(form=form)\n\n@auth.requires_login()\ndef show():\n    flag=0\n    imaged=db(db.image.id==request.args(0)).select()\n    print imaged\n    image = db(db.image.id==request.args(0)).select().first()\n    db.comment.image_id.default = image.id\n    cur_user=auth.user_id\n    form = SQLFORM(db.comment)\n    likes =db(db.like.like_id==image.id).select()\n    for lik in likes:\n\t    if int(cur_user) == int(lik.liker):\n\t\t    flag=1\n    print flag\n    form2 = SQLFORM(db.like)\n    if form2.process().accepted:\n\tresponse.flash = 'You have liked the image'\n    \tdb.like.insert(likername=auth.user.first_name,liker=auth.user_id,like_id=image.id)\n    if form.process().accepted:\n        response.flash = 'your comment is posted'\n    comments = db(db.comment.image_id==image.id).select()\n    return dict(cur_user=cur_user,flag=flag,image=image, comments=comments, likes=likes, form=form, form2=form2)\n\ndef delete():\n    image = db(db.image.id==request.args(0)).select()\n\ndef user():\n\treturn dict(form=auth())\n\ndef download():\n\treturn response.download(request,db)\n\nresponse._vars=response._caller(show)\n"
p7
sS'snapshot'
p8
(dp9
S'exception'
p10
(dp11
S'__module__'
p12
S"'sqlite3'"
p13
sS'__getslice__'
p14
S"<method-wrapper '__getslice__' of OperationalError object>"
p15
sS'__str__'
p16
S"<method-wrapper '__str__' of OperationalError object>"
p17
sS'__reduce__'
p18
S'<built-in method __reduce__ of OperationalError object>'
p19
sS'__dict__'
p20
S'{}'
p21
sS'__sizeof__'
p22
S'<built-in method __sizeof__ of OperationalError object>'
p23
sS'__weakref__'
p24
S'None'
p25
sS'__init__'
p26
S"<method-wrapper '__init__' of OperationalError object>"
p27
sS'__setattr__'
p28
S"<method-wrapper '__setattr__' of OperationalError object>"
p29
sS'__reduce_ex__'
p30
S'<built-in method __reduce_ex__ of OperationalError object>'
p31
sS'__new__'
p32
S'<built-in method __new__ of type object>'
p33
sS'__format__'
p34
S'<built-in method __format__ of OperationalError object>'
p35
sS'__class__'
p36
S"<class 'sqlite3.OperationalError'>"
p37
sS'__doc__'
p38
S'None'
p39
sS'__getitem__'
p40
S"<method-wrapper '__getitem__' of OperationalError object>"
p41
sS'__setstate__'
p42
S'<built-in method __setstate__ of OperationalError object>'
p43
sS'__getattribute__'
p44
S"<method-wrapper '__getattribute__' of OperationalError object>"
p45
sS'args'
p46
S'(\'near ")": syntax error\',)'
p47
sS'__subclasshook__'
p48
S'<built-in method __subclasshook__ of type object>'
p49
sS'__unicode__'
p50
S'<built-in method __unicode__ of OperationalError object>'
p51
sS'__delattr__'
p52
S"<method-wrapper '__delattr__' of OperationalError object>"
p53
sS'__repr__'
p54
S"<method-wrapper '__repr__' of OperationalError object>"
p55
sS'__hash__'
p56
S"<method-wrapper '__hash__' of OperationalError object>"
p57
ssS'evalue'
p58
S'near ")": syntax error'
p59
sS'request'
p60
ccopy_reg
_reconstructor
p61
(cgluon.html
BEAUTIFY
p62
c__builtin__
object
p63
NtRp64
(dp65
S'attributes'
p66
(dp67
sS'components'
p68
(lp69
g61
(cgluon.html
TABLE
p70
g63
NtRp71
(dp72
g66
(dp73
S'level'
p74
I5
ssS'parent'
p75
Nsg68
(lp76
g61
(cgluon.html
TR
p77
g63
NtRp78
(dp79
g66
(dp80
sg75
g71
sg68
(lp81
g61
(cgluon.html
TD
p82
g63
NtRp83
(dp84
g66
(dp85
S'_style'
p86
S'font-weight:bold;vertical-align:top'
p87
ssg75
g78
sg68
(lp88
S'ajax'
p89
asbag61
(g82
g63
NtRp90
(dp91
g66
(dp92
S'_valign'
p93
S'top'
p94
ssg75
g78
sg68
(lp95
S':'
asbag61
(g82
g63
NtRp96
(dp97
g66
(dp98
sg75
g78
sg68
(lp99
g61
(g62
g63
NtRp100
(dp101
g66
(dp102
g74
I5
ssg75
g96
sg68
(lp103
S'False'
p104
asbasbasbag61
(g77
g63
NtRp105
(dp106
g66
(dp107
sg75
g71
sg68
(lp108
g61
(g82
g63
NtRp109
(dp110
g66
(dp111
g86
g87
ssg75
g105
sg68
(lp112
S'application'
p113
asbag61
(g82
g63
NtRp114
(dp115
g66
(dp116
g93
g94
ssg75
g105
sg68
(lp117
S':'
asbag61
(g82
g63
NtRp118
(dp119
g66
(dp120
sg75
g105
sg68
(lp121
g61
(g62
g63
NtRp122
(dp123
g66
(dp124
g74
I5
ssg75
g118
sg68
(lp125
S'FotoBuk'
p126
asbasbasbag61
(g77
g63
NtRp127
(dp128
g66
(dp129
sg75
g71
sg68
(lp130
g61
(g82
g63
NtRp131
(dp132
g66
(dp133
g86
g87
ssg75
g127
sg68
(lp134
g46
asbag61
(g82
g63
NtRp135
(dp136
g66
(dp137
g93
g94
ssg75
g127
sg68
(lp138
S':'
asbag61
(g82
g63
NtRp139
(dp140
g66
(dp141
sg75
g127
sg68
(lp142
g61
(g62
g63
NtRp143
(dp144
g66
(dp145
g74
I5
ssg75
g139
sg68
(lp146
g61
(g70
g63
NtRp147
(dp148
g66
(dp149
g74
I4
ssg75
Nsg68
(lp150
g61
(g77
g63
NtRp151
(dp152
g66
(dp153
sg75
g147
sg68
(lp154
g61
(g82
g63
NtRp155
(dp156
g66
(dp157
sg75
g151
sg68
(lp158
g61
(g62
g63
NtRp159
(dp160
g66
(dp161
g74
I4
ssg75
g155
sg68
(lp162
S'4'
asbasbasbasbasbasbasbag61
(g77
g63
NtRp163
(dp164
g66
(dp165
sg75
g71
sg68
(lp166
g61
(g82
g63
NtRp167
(dp168
g66
(dp169
g86
g87
ssg75
g163
sg68
(lp170
S'body'
p171
asbag61
(g82
g63
NtRp172
(dp173
g66
(dp174
g93
g94
ssg75
g163
sg68
(lp175
S':'
asbag61
(g82
g63
NtRp176
(dp177
g66
(dp178
sg75
g163
sg68
(lp179
g61
(g62
g63
NtRp180
(dp181
g66
(dp182
g74
I5
ssg75
g176
sg68
(lp183
S"<open file '<fdopen>', mode 'w+b' at 0xadc5e2e0>"
p184
asbasbasbag61
(g77
g63
NtRp185
(dp186
g66
(dp187
sg75
g71
sg68
(lp188
g61
(g82
g63
NtRp189
(dp190
g66
(dp191
g86
g87
ssg75
g185
sg68
(lp192
S'cid'
p193
asbag61
(g82
g63
NtRp194
(dp195
g66
(dp196
g93
g94
ssg75
g185
sg68
(lp197
S':'
asbag61
(g82
g63
NtRp198
(dp199
g66
(dp200
sg75
g185
sg68
(lp201
g61
(g62
g63
NtRp202
(dp203
g66
(dp204
g74
I5
ssg75
g198
sg68
(lp205
S'None'
p206
asbasbasbag61
(g77
g63
NtRp207
(dp208
g66
(dp209
sg75
g71
sg68
(lp210
g61
(g82
g63
NtRp211
(dp212
g66
(dp213
g86
g87
ssg75
g207
sg68
(lp214
S'client'
p215
asbag61
(g82
g63
NtRp216
(dp217
g66
(dp218
g93
g94
ssg75
g207
sg68
(lp219
S':'
asbag61
(g82
g63
NtRp220
(dp221
g66
(dp222
sg75
g207
sg68
(lp223
g61
(g62
g63
NtRp224
(dp225
g66
(dp226
g74
I5
ssg75
g220
sg68
(lp227
S'127.0.0.1'
p228
asbasbasbag61
(g77
g63
NtRp229
(dp230
g66
(dp231
sg75
g71
sg68
(lp232
g61
(g82
g63
NtRp233
(dp234
g66
(dp235
g86
g87
ssg75
g229
sg68
(lp236
S'controller'
p237
asbag61
(g82
g63
NtRp238
(dp239
g66
(dp240
g93
g94
ssg75
g229
sg68
(lp241
S':'
asbag61
(g82
g63
NtRp242
(dp243
g66
(dp244
sg75
g229
sg68
(lp245
g61
(g62
g63
NtRp246
(dp247
g66
(dp248
g74
I5
ssg75
g242
sg68
(lp249
S'default'
p250
asbasbasbag61
(g77
g63
NtRp251
(dp252
g66
(dp253
sg75
g71
sg68
(lp254
g61
(g82
g63
NtRp255
(dp256
g66
(dp257
g86
g87
ssg75
g251
sg68
(lp258
S'cookies'
p259
asbag61
(g82
g63
NtRp260
(dp261
g66
(dp262
g93
g94
ssg75
g251
sg68
(lp263
S':'
asbag61
(g82
g63
NtRp264
(dp265
g66
(dp266
sg75
g251
sg68
(lp267
g61
(g62
g63
NtRp268
(dp269
g66
(dp270
g74
I5
ssg75
g264
sg68
(lp271
g61
(g70
g63
NtRp272
(dp273
g66
(dp274
g74
I4
ssg75
Nsg68
(lp275
g61
(g77
g63
NtRp276
(dp277
g66
(dp278
sg75
g272
sg68
(lp279
g61
(g82
g63
NtRp280
(dp281
g66
(dp282
g86
g87
ssg75
g276
sg68
(lp283
S'session_id_admin'
p284
asbag61
(g82
g63
NtRp285
(dp286
g66
(dp287
g93
g94
ssg75
g276
sg68
(lp288
S':'
asbag61
(g82
g63
NtRp289
(dp290
g66
(dp291
sg75
g276
sg68
(lp292
g61
(g62
g63
NtRp293
(dp294
g66
(dp295
g74
I4
ssg75
g289
sg68
(lp296
S'127.0.0.1-f31a16a6-2f0e-474e-b0b5-7ca781ebd64d'
p297
ag61
(g70
g63
NtRp298
(dp299
g66
(dp300
g74
I3
ssg75
Nsg68
(lp301
g61
(g77
g63
NtRp302
(dp303
g66
(dp304
sg75
g298
sg68
(lp305
g61
(g82
g63
NtRp306
(dp307
g66
(dp308
g86
g87
ssg75
g302
sg68
(lp309
S'comment'
p310
asbag61
(g82
g63
NtRp311
(dp312
g66
(dp313
g93
g94
ssg75
g302
sg68
(lp314
S':'
asbag61
(g82
g63
NtRp315
(dp316
g66
(dp317
sg75
g302
sg68
(lp318
g61
(g62
g63
NtRp319
(dp320
g66
(dp321
g74
I3
ssg75
g315
sg68
(lp322
S''
asbasbasbag61
(g77
g63
NtRp323
(dp324
g66
(dp325
sg75
g298
sg68
(lp326
g61
(g82
g63
NtRp327
(dp328
g66
(dp329
g86
g87
ssg75
g323
sg68
(lp330
S'domain'
p331
asbag61
(g82
g63
NtRp332
(dp333
g66
(dp334
g93
g94
ssg75
g323
sg68
(lp335
S':'
asbag61
(g82
g63
NtRp336
(dp337
g66
(dp338
sg75
g323
sg68
(lp339
g61
(g62
g63
NtRp340
(dp341
g66
(dp342
g74
I3
ssg75
g336
sg68
(lp343
S''
asbasbasbag61
(g77
g63
NtRp344
(dp345
g66
(dp346
sg75
g298
sg68
(lp347
g61
(g82
g63
NtRp348
(dp349
g66
(dp350
g86
g87
ssg75
g344
sg68
(lp351
S'expires'
p352
asbag61
(g82
g63
NtRp353
(dp354
g66
(dp355
g93
g94
ssg75
g344
sg68
(lp356
S':'
asbag61
(g82
g63
NtRp357
(dp358
g66
(dp359
sg75
g344
sg68
(lp360
g61
(g62
g63
NtRp361
(dp362
g66
(dp363
g74
I3
ssg75
g357
sg68
(lp364
S''
asbasbasbag61
(g77
g63
NtRp365
(dp366
g66
(dp367
sg75
g298
sg68
(lp368
g61
(g82
g63
NtRp369
(dp370
g66
(dp371
g86
g87
ssg75
g365
sg68
(lp372
S'httponly'
p373
asbag61
(g82
g63
NtRp374
(dp375
g66
(dp376
g93
g94
ssg75
g365
sg68
(lp377
S':'
asbag61
(g82
g63
NtRp378
(dp379
g66
(dp380
sg75
g365
sg68
(lp381
g61
(g62
g63
NtRp382
(dp383
g66
(dp384
g74
I3
ssg75
g378
sg68
(lp385
S''
asbasbasbag61
(g77
g63
NtRp386
(dp387
g66
(dp388
sg75
g298
sg68
(lp389
g61
(g82
g63
NtRp390
(dp391
g66
(dp392
g86
g87
ssg75
g386
sg68
(lp393
S'max-age'
p394
asbag61
(g82
g63
NtRp395
(dp396
g66
(dp397
g93
g94
ssg75
g386
sg68
(lp398
S':'
asbag61
(g82
g63
NtRp399
(dp400
g66
(dp401
sg75
g386
sg68
(lp402
g61
(g62
g63
NtRp403
(dp404
g66
(dp405
g74
I3
ssg75
g399
sg68
(lp406
S''
asbasbasbag61
(g77
g63
NtRp407
(dp408
g66
(dp409
sg75
g298
sg68
(lp410
g61
(g82
g63
NtRp411
(dp412
g66
(dp413
g86
g87
ssg75
g407
sg68
(lp414
S'path'
p415
asbag61
(g82
g63
NtRp416
(dp417
g66
(dp418
g93
g94
ssg75
g407
sg68
(lp419
S':'
asbag61
(g82
g63
NtRp420
(dp421
g66
(dp422
sg75
g407
sg68
(lp423
g61
(g62
g63
NtRp424
(dp425
g66
(dp426
g74
I3
ssg75
g420
sg68
(lp427
S''
asbasbasbag61
(g77
g63
NtRp428
(dp429
g66
(dp430
sg75
g298
sg68
(lp431
g61
(g82
g63
NtRp432
(dp433
g66
(dp434
g86
g87
ssg75
g428
sg68
(lp435
S'secure'
p436
asbag61
(g82
g63
NtRp437
(dp438
g66
(dp439
g93
g94
ssg75
g428
sg68
(lp440
S':'
asbag61
(g82
g63
NtRp441
(dp442
g66
(dp443
sg75
g428
sg68
(lp444
g61
(g62
g63
NtRp445
(dp446
g66
(dp447
g74
I3
ssg75
g441
sg68
(lp448
S''
asbasbasbag61
(g77
g63
NtRp449
(dp450
g66
(dp451
sg75
g298
sg68
(lp452
g61
(g82
g63
NtRp453
(dp454
g66
(dp455
g86
g87
ssg75
g449
sg68
(lp456
S'version'
p457
asbag61
(g82
g63
NtRp458
(dp459
g66
(dp460
g93
g94
ssg75
g449
sg68
(lp461
S':'
asbag61
(g82
g63
NtRp462
(dp463
g66
(dp464
sg75
g449
sg68
(lp465
g61
(g62
g63
NtRp466
(dp467
g66
(dp468
g74
I3
ssg75
g462
sg68
(lp469
S''
asbasbasbasbasbasbasbag61
(g77
g63
NtRp470
(dp471
g66
(dp472
sg75
g272
sg68
(lp473
g61
(g82
g63
NtRp474
(dp475
g66
(dp476
g86
g87
ssg75
g470
sg68
(lp477
S'session_id_fotobuk'
p478
asbag61
(g82
g63
NtRp479
(dp480
g66
(dp481
g93
g94
ssg75
g470
sg68
(lp482
S':'
asbag61
(g82
g63
NtRp483
(dp484
g66
(dp485
sg75
g470
sg68
(lp486
g61
(g62
g63
NtRp487
(dp488
g66
(dp489
g74
I4
ssg75
g483
sg68
(lp490
S'127.0.0.1-961e4bc4-dc07-4e6c-b9f7-52a46e56ffd5'
p491
ag61
(g70
g63
NtRp492
(dp493
g66
(dp494
g74
I3
ssg75
Nsg68
(lp495
g61
(g77
g63
NtRp496
(dp497
g66
(dp498
sg75
g492
sg68
(lp499
g61
(g82
g63
NtRp500
(dp501
g66
(dp502
g86
g87
ssg75
g496
sg68
(lp503
g310
asbag61
(g82
g63
NtRp504
(dp505
g66
(dp506
g93
g94
ssg75
g496
sg68
(lp507
S':'
asbag61
(g82
g63
NtRp508
(dp509
g66
(dp510
sg75
g496
sg68
(lp511
g61
(g62
g63
NtRp512
(dp513
g66
(dp514
g74
I3
ssg75
g508
sg68
(lp515
S''
asbasbasbag61
(g77
g63
NtRp516
(dp517
g66
(dp518
sg75
g492
sg68
(lp519
g61
(g82
g63
NtRp520
(dp521
g66
(dp522
g86
g87
ssg75
g516
sg68
(lp523
g331
asbag61
(g82
g63
NtRp524
(dp525
g66
(dp526
g93
g94
ssg75
g516
sg68
(lp527
S':'
asbag61
(g82
g63
NtRp528
(dp529
g66
(dp530
sg75
g516
sg68
(lp531
g61
(g62
g63
NtRp532
(dp533
g66
(dp534
g74
I3
ssg75
g528
sg68
(lp535
S''
asbasbasbag61
(g77
g63
NtRp536
(dp537
g66
(dp538
sg75
g492
sg68
(lp539
g61
(g82
g63
NtRp540
(dp541
g66
(dp542
g86
g87
ssg75
g536
sg68
(lp543
g352
asbag61
(g82
g63
NtRp544
(dp545
g66
(dp546
g93
g94
ssg75
g536
sg68
(lp547
S':'
asbag61
(g82
g63
NtRp548
(dp549
g66
(dp550
sg75
g536
sg68
(lp551
g61
(g62
g63
NtRp552
(dp553
g66
(dp554
g74
I3
ssg75
g548
sg68
(lp555
S''
asbasbasbag61
(g77
g63
NtRp556
(dp557
g66
(dp558
sg75
g492
sg68
(lp559
g61
(g82
g63
NtRp560
(dp561
g66
(dp562
g86
g87
ssg75
g556
sg68
(lp563
g373
asbag61
(g82
g63
NtRp564
(dp565
g66
(dp566
g93
g94
ssg75
g556
sg68
(lp567
S':'
asbag61
(g82
g63
NtRp568
(dp569
g66
(dp570
sg75
g556
sg68
(lp571
g61
(g62
g63
NtRp572
(dp573
g66
(dp574
g74
I3
ssg75
g568
sg68
(lp575
S''
asbasbasbag61
(g77
g63
NtRp576
(dp577
g66
(dp578
sg75
g492
sg68
(lp579
g61
(g82
g63
NtRp580
(dp581
g66
(dp582
g86
g87
ssg75
g576
sg68
(lp583
g394
asbag61
(g82
g63
NtRp584
(dp585
g66
(dp586
g93
g94
ssg75
g576
sg68
(lp587
S':'
asbag61
(g82
g63
NtRp588
(dp589
g66
(dp590
sg75
g576
sg68
(lp591
g61
(g62
g63
NtRp592
(dp593
g66
(dp594
g74
I3
ssg75
g588
sg68
(lp595
S''
asbasbasbag61
(g77
g63
NtRp596
(dp597
g66
(dp598
sg75
g492
sg68
(lp599
g61
(g82
g63
NtRp600
(dp601
g66
(dp602
g86
g87
ssg75
g596
sg68
(lp603
g415
asbag61
(g82
g63
NtRp604
(dp605
g66
(dp606
g93
g94
ssg75
g596
sg68
(lp607
S':'
asbag61
(g82
g63
NtRp608
(dp609
g66
(dp610
sg75
g596
sg68
(lp611
g61
(g62
g63
NtRp612
(dp613
g66
(dp614
g74
I3
ssg75
g608
sg68
(lp615
S''
asbasbasbag61
(g77
g63
NtRp616
(dp617
g66
(dp618
sg75
g492
sg68
(lp619
g61
(g82
g63
NtRp620
(dp621
g66
(dp622
g86
g87
ssg75
g616
sg68
(lp623
g436
asbag61
(g82
g63
NtRp624
(dp625
g66
(dp626
g93
g94
ssg75
g616
sg68
(lp627
S':'
asbag61
(g82
g63
NtRp628
(dp629
g66
(dp630
sg75
g616
sg68
(lp631
g61
(g62
g63
NtRp632
(dp633
g66
(dp634
g74
I3
ssg75
g628
sg68
(lp635
S''
asbasbasbag61
(g77
g63
NtRp636
(dp637
g66
(dp638
sg75
g492
sg68
(lp639
g61
(g82
g63
NtRp640
(dp641
g66
(dp642
g86
g87
ssg75
g636
sg68
(lp643
g457
asbag61
(g82
g63
NtRp644
(dp645
g66
(dp646
g93
g94
ssg75
g636
sg68
(lp647
S':'
asbag61
(g82
g63
NtRp648
(dp649
g66
(dp650
sg75
g636
sg68
(lp651
g61
(g62
g63
NtRp652
(dp653
g66
(dp654
g74
I3
ssg75
g648
sg68
(lp655
S''
asbasbasbasbasbasbasbag61
(g77
g63
NtRp656
(dp657
g66
(dp658
sg75
g272
sg68
(lp659
g61
(g82
g63
NtRp660
(dp661
g66
(dp662
g86
g87
ssg75
g656
sg68
(lp663
S'session_id_ialbum'
p664
asbag61
(g82
g63
NtRp665
(dp666
g66
(dp667
g93
g94
ssg75
g656
sg68
(lp668
S':'
asbag61
(g82
g63
NtRp669
(dp670
g66
(dp671
sg75
g656
sg68
(lp672
g61
(g62
g63
NtRp673
(dp674
g66
(dp675
g74
I4
ssg75
g669
sg68
(lp676
S'127.0.0.1-8bab57f4-8655-4ca4-8b5d-11fde04576c5'
p677
ag61
(g70
g63
NtRp678
(dp679
g66
(dp680
g74
I3
ssg75
Nsg68
(lp681
g61
(g77
g63
NtRp682
(dp683
g66
(dp684
sg75
g678
sg68
(lp685
g61
(g82
g63
NtRp686
(dp687
g66
(dp688
g86
g87
ssg75
g682
sg68
(lp689
g310
asbag61
(g82
g63
NtRp690
(dp691
g66
(dp692
g93
g94
ssg75
g682
sg68
(lp693
S':'
asbag61
(g82
g63
NtRp694
(dp695
g66
(dp696
sg75
g682
sg68
(lp697
g61
(g62
g63
NtRp698
(dp699
g66
(dp700
g74
I3
ssg75
g694
sg68
(lp701
S''
asbasbasbag61
(g77
g63
NtRp702
(dp703
g66
(dp704
sg75
g678
sg68
(lp705
g61
(g82
g63
NtRp706
(dp707
g66
(dp708
g86
g87
ssg75
g702
sg68
(lp709
g331
asbag61
(g82
g63
NtRp710
(dp711
g66
(dp712
g93
g94
ssg75
g702
sg68
(lp713
S':'
asbag61
(g82
g63
NtRp714
(dp715
g66
(dp716
sg75
g702
sg68
(lp717
g61
(g62
g63
NtRp718
(dp719
g66
(dp720
g74
I3
ssg75
g714
sg68
(lp721
S''
asbasbasbag61
(g77
g63
NtRp722
(dp723
g66
(dp724
sg75
g678
sg68
(lp725
g61
(g82
g63
NtRp726
(dp727
g66
(dp728
g86
g87
ssg75
g722
sg68
(lp729
g352
asbag61
(g82
g63
NtRp730
(dp731
g66
(dp732
g93
g94
ssg75
g722
sg68
(lp733
S':'
asbag61
(g82
g63
NtRp734
(dp735
g66
(dp736
sg75
g722
sg68
(lp737
g61
(g62
g63
NtRp738
(dp739
g66
(dp740
g74
I3
ssg75
g734
sg68
(lp741
S''
asbasbasbag61
(g77
g63
NtRp742
(dp743
g66
(dp744
sg75
g678
sg68
(lp745
g61
(g82
g63
NtRp746
(dp747
g66
(dp748
g86
g87
ssg75
g742
sg68
(lp749
g373
asbag61
(g82
g63
NtRp750
(dp751
g66
(dp752
g93
g94
ssg75
g742
sg68
(lp753
S':'
asbag61
(g82
g63
NtRp754
(dp755
g66
(dp756
sg75
g742
sg68
(lp757
g61
(g62
g63
NtRp758
(dp759
g66
(dp760
g74
I3
ssg75
g754
sg68
(lp761
S''
asbasbasbag61
(g77
g63
NtRp762
(dp763
g66
(dp764
sg75
g678
sg68
(lp765
g61
(g82
g63
NtRp766
(dp767
g66
(dp768
g86
g87
ssg75
g762
sg68
(lp769
g394
asbag61
(g82
g63
NtRp770
(dp771
g66
(dp772
g93
g94
ssg75
g762
sg68
(lp773
S':'
asbag61
(g82
g63
NtRp774
(dp775
g66
(dp776
sg75
g762
sg68
(lp777
g61
(g62
g63
NtRp778
(dp779
g66
(dp780
g74
I3
ssg75
g774
sg68
(lp781
S''
asbasbasbag61
(g77
g63
NtRp782
(dp783
g66
(dp784
sg75
g678
sg68
(lp785
g61
(g82
g63
NtRp786
(dp787
g66
(dp788
g86
g87
ssg75
g782
sg68
(lp789
g415
asbag61
(g82
g63
NtRp790
(dp791
g66
(dp792
g93
g94
ssg75
g782
sg68
(lp793
S':'
asbag61
(g82
g63
NtRp794
(dp795
g66
(dp796
sg75
g782
sg68
(lp797
g61
(g62
g63
NtRp798
(dp799
g66
(dp800
g74
I3
ssg75
g794
sg68
(lp801
S''
asbasbasbag61
(g77
g63
NtRp802
(dp803
g66
(dp804
sg75
g678
sg68
(lp805
g61
(g82
g63
NtRp806
(dp807
g66
(dp808
g86
g87
ssg75
g802
sg68
(lp809
g436
asbag61
(g82
g63
NtRp810
(dp811
g66
(dp812
g93
g94
ssg75
g802
sg68
(lp813
S':'
asbag61
(g82
g63
NtRp814
(dp815
g66
(dp816
sg75
g802
sg68
(lp817
g61
(g62
g63
NtRp818
(dp819
g66
(dp820
g74
I3
ssg75
g814
sg68
(lp821
S''
asbasbasbag61
(g77
g63
NtRp822
(dp823
g66
(dp824
sg75
g678
sg68
(lp825
g61
(g82
g63
NtRp826
(dp827
g66
(dp828
g86
g87
ssg75
g822
sg68
(lp829
g457
asbag61
(g82
g63
NtRp830
(dp831
g66
(dp832
g93
g94
ssg75
g822
sg68
(lp833
S':'
asbag61
(g82
g63
NtRp834
(dp835
g66
(dp836
sg75
g822
sg68
(lp837
g61
(g62
g63
NtRp838
(dp839
g66
(dp840
g74
I3
ssg75
g834
sg68
(lp841
S''
asbasbasbasbasbasbasbag61
(g77
g63
NtRp842
(dp843
g66
(dp844
sg75
g272
sg68
(lp845
g61
(g82
g63
NtRp846
(dp847
g66
(dp848
g86
g87
ssg75
g842
sg68
(lp849
S'session_id_welcome'
p850
asbag61
(g82
g63
NtRp851
(dp852
g66
(dp853
g93
g94
ssg75
g842
sg68
(lp854
S':'
asbag61
(g82
g63
NtRp855
(dp856
g66
(dp857
sg75
g842
sg68
(lp858
g61
(g62
g63
NtRp859
(dp860
g66
(dp861
g74
I4
ssg75
g855
sg68
(lp862
S'127.0.0.1-3299e4b7-9181-4336-a2b6-d67ebc8bfe8e'
p863
ag61
(g70
g63
NtRp864
(dp865
g66
(dp866
g74
I3
ssg75
Nsg68
(lp867
g61
(g77
g63
NtRp868
(dp869
g66
(dp870
sg75
g864
sg68
(lp871
g61
(g82
g63
NtRp872
(dp873
g66
(dp874
g86
g87
ssg75
g868
sg68
(lp875
g310
asbag61
(g82
g63
NtRp876
(dp877
g66
(dp878
g93
g94
ssg75
g868
sg68
(lp879
S':'
asbag61
(g82
g63
NtRp880
(dp881
g66
(dp882
sg75
g868
sg68
(lp883
g61
(g62
g63
NtRp884
(dp885
g66
(dp886
g74
I3
ssg75
g880
sg68
(lp887
S''
asbasbasbag61
(g77
g63
NtRp888
(dp889
g66
(dp890
sg75
g864
sg68
(lp891
g61
(g82
g63
NtRp892
(dp893
g66
(dp894
g86
g87
ssg75
g888
sg68
(lp895
g331
asbag61
(g82
g63
NtRp896
(dp897
g66
(dp898
g93
g94
ssg75
g888
sg68
(lp899
S':'
asbag61
(g82
g63
NtRp900
(dp901
g66
(dp902
sg75
g888
sg68
(lp903
g61
(g62
g63
NtRp904
(dp905
g66
(dp906
g74
I3
ssg75
g900
sg68
(lp907
S''
asbasbasbag61
(g77
g63
NtRp908
(dp909
g66
(dp910
sg75
g864
sg68
(lp911
g61
(g82
g63
NtRp912
(dp913
g66
(dp914
g86
g87
ssg75
g908
sg68
(lp915
g352
asbag61
(g82
g63
NtRp916
(dp917
g66
(dp918
g93
g94
ssg75
g908
sg68
(lp919
S':'
asbag61
(g82
g63
NtRp920
(dp921
g66
(dp922
sg75
g908
sg68
(lp923
g61
(g62
g63
NtRp924
(dp925
g66
(dp926
g74
I3
ssg75
g920
sg68
(lp927
S''
asbasbasbag61
(g77
g63
NtRp928
(dp929
g66
(dp930
sg75
g864
sg68
(lp931
g61
(g82
g63
NtRp932
(dp933
g66
(dp934
g86
g87
ssg75
g928
sg68
(lp935
g373
asbag61
(g82
g63
NtRp936
(dp937
g66
(dp938
g93
g94
ssg75
g928
sg68
(lp939
S':'
asbag61
(g82
g63
NtRp940
(dp941
g66
(dp942
sg75
g928
sg68
(lp943
g61
(g62
g63
NtRp944
(dp945
g66
(dp946
g74
I3
ssg75
g940
sg68
(lp947
S''
asbasbasbag61
(g77
g63
NtRp948
(dp949
g66
(dp950
sg75
g864
sg68
(lp951
g61
(g82
g63
NtRp952
(dp953
g66
(dp954
g86
g87
ssg75
g948
sg68
(lp955
g394
asbag61
(g82
g63
NtRp956
(dp957
g66
(dp958
g93
g94
ssg75
g948
sg68
(lp959
S':'
asbag61
(g82
g63
NtRp960
(dp961
g66
(dp962
sg75
g948
sg68
(lp963
g61
(g62
g63
NtRp964
(dp965
g66
(dp966
g74
I3
ssg75
g960
sg68
(lp967
S''
asbasbasbag61
(g77
g63
NtRp968
(dp969
g66
(dp970
sg75
g864
sg68
(lp971
g61
(g82
g63
NtRp972
(dp973
g66
(dp974
g86
g87
ssg75
g968
sg68
(lp975
g415
asbag61
(g82
g63
NtRp976
(dp977
g66
(dp978
g93
g94
ssg75
g968
sg68
(lp979
S':'
asbag61
(g82
g63
NtRp980
(dp981
g66
(dp982
sg75
g968
sg68
(lp983
g61
(g62
g63
NtRp984
(dp985
g66
(dp986
g74
I3
ssg75
g980
sg68
(lp987
S''
asbasbasbag61
(g77
g63
NtRp988
(dp989
g66
(dp990
sg75
g864
sg68
(lp991
g61
(g82
g63
NtRp992
(dp993
g66
(dp994
g86
g87
ssg75
g988
sg68
(lp995
g436
asbag61
(g82
g63
NtRp996
(dp997
g66
(dp998
g93
g94
ssg75
g988
sg68
(lp999
S':'
asbag61
(g82
g63
NtRp1000
(dp1001
g66
(dp1002
sg75
g988
sg68
(lp1003
g61
(g62
g63
NtRp1004
(dp1005
g66
(dp1006
g74
I3
ssg75
g1000
sg68
(lp1007
S''
asbasbasbag61
(g77
g63
NtRp1008
(dp1009
g66
(dp1010
sg75
g864
sg68
(lp1011
g61
(g82
g63
NtRp1012
(dp1013
g66
(dp1014
g86
g87
ssg75
g1008
sg68
(lp1015
g457
asbag61
(g82
g63
NtRp1016
(dp1017
g66
(dp1018
g93
g94
ssg75
g1008
sg68
(lp1019
S':'
asbag61
(g82
g63
NtRp1020
(dp1021
g66
(dp1022
sg75
g1008
sg68
(lp1023
g61
(g62
g63
NtRp1024
(dp1025
g66
(dp1026
g74
I3
ssg75
g1020
sg68
(lp1027
S''
asbasbasbasbasbasbasbasbasbasbasbag61
(g77
g63
NtRp1028
(dp1029
g66
(dp1030
sg75
g71
sg68
(lp1031
g61
(g82
g63
NtRp1032
(dp1033
g66
(dp1034
g86
g87
ssg75
g1028
sg68
(lp1035
S'env'
p1036
asbag61
(g82
g63
NtRp1037
(dp1038
g66
(dp1039
g93
g94
ssg75
g1028
sg68
(lp1040
S':'
asbag61
(g82
g63
NtRp1041
(dp1042
g66
(dp1043
sg75
g1028
sg68
(lp1044
g61
(g62
g63
NtRp1045
(dp1046
g66
(dp1047
g74
I5
ssg75
g1041
sg68
(lp1048
g61
(g70
g63
NtRp1049
(dp1050
g66
(dp1051
g74
I4
ssg75
Nsg68
(lp1052
g61
(g77
g63
NtRp1053
(dp1054
g66
(dp1055
sg75
g1049
sg68
(lp1056
g61
(g82
g63
NtRp1057
(dp1058
g66
(dp1059
g86
g87
ssg75
g1053
sg68
(lp1060
S'app_folders'
p1061
asbag61
(g82
g63
NtRp1062
(dp1063
g66
(dp1064
g93
g94
ssg75
g1053
sg68
(lp1065
S':'
asbag61
(g82
g63
NtRp1066
(dp1067
g66
(dp1068
sg75
g1053
sg68
(lp1069
g61
(g62
g63
NtRp1070
(dp1071
g66
(dp1072
g74
I4
ssg75
g1066
sg68
(lp1073
S"set(['/home/piyush/web2py/applications/FotoBuk/', '/home/piyush/web2py/applications/welcome/', '/home/piyush/web2py/applications/admin/'])"
p1074
asbasbasbag61
(g77
g63
NtRp1075
(dp1076
g66
(dp1077
sg75
g1049
sg68
(lp1078
g61
(g82
g63
NtRp1079
(dp1080
g66
(dp1081
g86
g87
ssg75
g1075
sg68
(lp1082
S'applications_parent'
p1083
asbag61
(g82
g63
NtRp1084
(dp1085
g66
(dp1086
g93
g94
ssg75
g1075
sg68
(lp1087
S':'
asbag61
(g82
g63
NtRp1088
(dp1089
g66
(dp1090
sg75
g1075
sg68
(lp1091
g61
(g62
g63
NtRp1092
(dp1093
g66
(dp1094
g74
I4
ssg75
g1088
sg68
(lp1095
S'/home/piyush/web2py'
p1096
asbasbasbag61
(g77
g63
NtRp1097
(dp1098
g66
(dp1099
sg75
g1049
sg68
(lp1100
g61
(g82
g63
NtRp1101
(dp1102
g66
(dp1103
g86
g87
ssg75
g1097
sg68
(lp1104
S'cmd_args'
p1105
asbag61
(g82
g63
NtRp1106
(dp1107
g66
(dp1108
g93
g94
ssg75
g1097
sg68
(lp1109
S':'
asbag61
(g82
g63
NtRp1110
(dp1111
g66
(dp1112
sg75
g1097
sg68
(lp1113
g61
(g62
g63
NtRp1114
(dp1115
g66
(dp1116
g74
I4
ssg75
g1110
sg68
(lp1117
g61
(g70
g63
NtRp1118
(dp1119
g66
(dp1120
g74
I3
ssg75
Nsg68
(lp1121
sbasbasbasbag61
(g77
g63
NtRp1122
(dp1123
g66
(dp1124
sg75
g1049
sg68
(lp1125
g61
(g82
g63
NtRp1126
(dp1127
g66
(dp1128
g86
g87
ssg75
g1122
sg68
(lp1129
S'cmd_options'
p1130
asbag61
(g82
g63
NtRp1131
(dp1132
g66
(dp1133
g93
g94
ssg75
g1122
sg68
(lp1134
S':'
asbag61
(g82
g63
NtRp1135
(dp1136
g66
(dp1137
sg75
g1122
sg68
(lp1138
g61
(g62
g63
NtRp1139
(dp1140
g66
(dp1141
g74
I4
ssg75
g1135
sg68
(lp1142
S"<Values at 0x8d4130c: {'verbose': False, 'ip': '127.0.0.1', 'with_scheduler': False, 'ips': ['10.1.39.167', '10.42.0.1'], 'shutdown_timeout': 5, 'taskbar': False, 'port': 8000, 'maxthreads': None, 'softcron': False, 'server_name': 'Solo', 'bpython': False, 'nogui': False, 'nocron': False, 'extcron': False, 'run_system_tests': False, 'test': None, 'folder': '/home/piyush/web2py', 'config': '', 'import_models': False, 'winservice': '', 'shell': None, 'run': '', 'log_filename': 'httpserver.log', 'debuglevel': 30, 'args': [''], 'socket_timeout': 5, 'ssl_ca_certificate': None, 'scheduler': None, 'profiler_filename': None, 'ssl_private_key': '', 'scheduler_groups': None, 'password': '<ask>', 'request_queue_size': 5, 'ssl_certificate': '', 'cronjob': False, 'numthreads': None, 'quiet': False, 'interfaces': None, 'minthreads': None, 'timeout': 10, 'plain': False, 'nobanner': False, 'pid_filename': 'httpserver.pid'}>"
p1143
asbasbasbag61
(g77
g63
NtRp1144
(dp1145
g66
(dp1146
sg75
g1049
sg68
(lp1147
g61
(g82
g63
NtRp1148
(dp1149
g66
(dp1150
g86
g87
ssg75
g1144
sg68
(lp1151
S'content_length'
p1152
asbag61
(g82
g63
NtRp1153
(dp1154
g66
(dp1155
g93
g94
ssg75
g1144
sg68
(lp1156
S':'
asbag61
(g82
g63
NtRp1157
(dp1158
g66
(dp1159
sg75
g1144
sg68
(lp1160
g61
(g62
g63
NtRp1161
(dp1162
g66
(dp1163
g74
I4
ssg75
g1157
sg68
(lp1164
S'339'
p1165
asbasbasbag61
(g77
g63
NtRp1166
(dp1167
g66
(dp1168
sg75
g1049
sg68
(lp1169
g61
(g82
g63
NtRp1170
(dp1171
g66
(dp1172
g86
g87
ssg75
g1166
sg68
(lp1173
S'content_type'
p1174
asbag61
(g82
g63
NtRp1175
(dp1176
g66
(dp1177
g93
g94
ssg75
g1166
sg68
(lp1178
S':'
asbag61
(g82
g63
NtRp1179
(dp1180
g66
(dp1181
sg75
g1166
sg68
(lp1182
g61
(g62
g63
NtRp1183
(dp1184
g66
(dp1185
g74
I4
ssg75
g1179
sg68
(lp1186
S'multipart/form-data; boundary=---------------------------101704877121150088441961496897'
p1187
asbasbasbag61
(g77
g63
NtRp1188
(dp1189
g66
(dp1190
sg75
g1049
sg68
(lp1191
g61
(g82
g63
NtRp1192
(dp1193
g66
(dp1194
g86
g87
ssg75
g1188
sg68
(lp1195
S'db_sessions'
p1196
asbag61
(g82
g63
NtRp1197
(dp1198
g66
(dp1199
g93
g94
ssg75
g1188
sg68
(lp1200
S':'
asbag61
(g82
g63
NtRp1201
(dp1202
g66
(dp1203
sg75
g1188
sg68
(lp1204
g61
(g62
g63
NtRp1205
(dp1206
g66
(dp1207
g74
I4
ssg75
g1201
sg68
(lp1208
S'set([])'
p1209
asbasbasbag61
(g77
g63
NtRp1210
(dp1211
g66
(dp1212
sg75
g1049
sg68
(lp1213
g61
(g82
g63
NtRp1214
(dp1215
g66
(dp1216
g86
g87
ssg75
g1210
sg68
(lp1217
S'debugging'
p1218
asbag61
(g82
g63
NtRp1219
(dp1220
g66
(dp1221
g93
g94
ssg75
g1210
sg68
(lp1222
S':'
asbag61
(g82
g63
NtRp1223
(dp1224
g66
(dp1225
sg75
g1210
sg68
(lp1226
g61
(g62
g63
NtRp1227
(dp1228
g66
(dp1229
g74
I4
ssg75
g1223
sg68
(lp1230
g104
asbasbasbag61
(g77
g63
NtRp1231
(dp1232
g66
(dp1233
sg75
g1049
sg68
(lp1234
g61
(g82
g63
NtRp1235
(dp1236
g66
(dp1237
g86
g87
ssg75
g1231
sg68
(lp1238
S'gluon_parent'
p1239
asbag61
(g82
g63
NtRp1240
(dp1241
g66
(dp1242
g93
g94
ssg75
g1231
sg68
(lp1243
S':'
asbag61
(g82
g63
NtRp1244
(dp1245
g66
(dp1246
sg75
g1231
sg68
(lp1247
g61
(g62
g63
NtRp1248
(dp1249
g66
(dp1250
g74
I4
ssg75
g1244
sg68
(lp1251
S'/home/piyush/web2py'
p1252
asbasbasbag61
(g77
g63
NtRp1253
(dp1254
g66
(dp1255
sg75
g1049
sg68
(lp1256
g61
(g82
g63
NtRp1257
(dp1258
g66
(dp1259
g86
g87
ssg75
g1253
sg68
(lp1260
S'http_accept'
p1261
asbag61
(g82
g63
NtRp1262
(dp1263
g66
(dp1264
g93
g94
ssg75
g1253
sg68
(lp1265
S':'
asbag61
(g82
g63
NtRp1266
(dp1267
g66
(dp1268
sg75
g1253
sg68
(lp1269
g61
(g62
g63
NtRp1270
(dp1271
g66
(dp1272
g74
I4
ssg75
g1266
sg68
(lp1273
S'text/html,application/xhtml+xml,application/xml;q=0.9,*/*;q=0.8'
p1274
asbasbasbag61
(g77
g63
NtRp1275
(dp1276
g66
(dp1277
sg75
g1049
sg68
(lp1278
g61
(g82
g63
NtRp1279
(dp1280
g66
(dp1281
g86
g87
ssg75
g1275
sg68
(lp1282
S'http_accept_encoding'
p1283
asbag61
(g82
g63
NtRp1284
(dp1285
g66
(dp1286
g93
g94
ssg75
g1275
sg68
(lp1287
S':'
asbag61
(g82
g63
NtRp1288
(dp1289
g66
(dp1290
sg75
g1275
sg68
(lp1291
g61
(g62
g63
NtRp1292
(dp1293
g66
(dp1294
g74
I4
ssg75
g1288
sg68
(lp1295
S'gzip, deflate'
p1296
asbasbasbag61
(g77
g63
NtRp1297
(dp1298
g66
(dp1299
sg75
g1049
sg68
(lp1300
g61
(g82
g63
NtRp1301
(dp1302
g66
(dp1303
g86
g87
ssg75
g1297
sg68
(lp1304
S'http_accept_language'
p1305
asbag61
(g82
g63
NtRp1306
(dp1307
g66
(dp1308
g93
g94
ssg75
g1297
sg68
(lp1309
S':'
asbag61
(g82
g63
NtRp1310
(dp1311
g66
(dp1312
sg75
g1297
sg68
(lp1313
g61
(g62
g63
NtRp1314
(dp1315
g66
(dp1316
g74
I4
ssg75
g1310
sg68
(lp1317
S'en-us,en;q=0.5'
p1318
asbasbasbag61
(g77
g63
NtRp1319
(dp1320
g66
(dp1321
sg75
g1049
sg68
(lp1322
g61
(g82
g63
NtRp1323
(dp1324
g66
(dp1325
g86
g87
ssg75
g1319
sg68
(lp1326
S'http_cache_control'
p1327
asbag61
(g82
g63
NtRp1328
(dp1329
g66
(dp1330
g93
g94
ssg75
g1319
sg68
(lp1331
S':'
asbag61
(g82
g63
NtRp1332
(dp1333
g66
(dp1334
sg75
g1319
sg68
(lp1335
g61
(g62
g63
NtRp1336
(dp1337
g66
(dp1338
g74
I4
ssg75
g1332
sg68
(lp1339
S'max-age=0'
p1340
asbasbasbag61
(g77
g63
NtRp1341
(dp1342
g66
(dp1343
sg75
g1049
sg68
(lp1344
g61
(g82
g63
NtRp1345
(dp1346
g66
(dp1347
g86
g87
ssg75
g1341
sg68
(lp1348
S'http_connection'
p1349
asbag61
(g82
g63
NtRp1350
(dp1351
g66
(dp1352
g93
g94
ssg75
g1341
sg68
(lp1353
S':'
asbag61
(g82
g63
NtRp1354
(dp1355
g66
(dp1356
sg75
g1341
sg68
(lp1357
g61
(g62
g63
NtRp1358
(dp1359
g66
(dp1360
g74
I4
ssg75
g1354
sg68
(lp1361
S'keep-alive'
p1362
asbasbasbag61
(g77
g63
NtRp1363
(dp1364
g66
(dp1365
sg75
g1049
sg68
(lp1366
g61
(g82
g63
NtRp1367
(dp1368
g66
(dp1369
g86
g87
ssg75
g1363
sg68
(lp1370
S'http_content_length'
p1371
asbag61
(g82
g63
NtRp1372
(dp1373
g66
(dp1374
g93
g94
ssg75
g1363
sg68
(lp1375
S':'
asbag61
(g82
g63
NtRp1376
(dp1377
g66
(dp1378
sg75
g1363
sg68
(lp1379
g61
(g62
g63
NtRp1380
(dp1381
g66
(dp1382
g74
I4
ssg75
g1376
sg68
(lp1383
g1165
asbasbasbag61
(g77
g63
NtRp1384
(dp1385
g66
(dp1386
sg75
g1049
sg68
(lp1387
g61
(g82
g63
NtRp1388
(dp1389
g66
(dp1390
g86
g87
ssg75
g1384
sg68
(lp1391
S'http_content_type'
p1392
asbag61
(g82
g63
NtRp1393
(dp1394
g66
(dp1395
g93
g94
ssg75
g1384
sg68
(lp1396
S':'
asbag61
(g82
g63
NtRp1397
(dp1398
g66
(dp1399
sg75
g1384
sg68
(lp1400
g61
(g62
g63
NtRp1401
(dp1402
g66
(dp1403
g74
I4
ssg75
g1397
sg68
(lp1404
g1187
asbasbasbag61
(g77
g63
NtRp1405
(dp1406
g66
(dp1407
sg75
g1049
sg68
(lp1408
g61
(g82
g63
NtRp1409
(dp1410
g66
(dp1411
g86
g87
ssg75
g1405
sg68
(lp1412
S'http_cookie'
p1413
asbag61
(g82
g63
NtRp1414
(dp1415
g66
(dp1416
g93
g94
ssg75
g1405
sg68
(lp1417
S':'
asbag61
(g82
g63
NtRp1418
(dp1419
g66
(dp1420
sg75
g1405
sg68
(lp1421
g61
(g62
g63
NtRp1422
(dp1423
g66
(dp1424
g74
I4
ssg75
g1418
sg68
(lp1425
S'session_id_welcome=127.0.0.1-3299e4b7-9181-4336-a2b6-d67ebc8bfe8e; session_id_admin=127.0.0.1-f31a16a6-2f0e-474e-b0b5-7ca781ebd64d; session_id_ialbum=127.0.0.1-8bab57f4-8655-4ca4-8b5d-11fde04576c5; session_id_fotobuk=127.0.0.1-961e4bc4-dc07-4e6c-b9f7-52a46e56ffd5'
p1426
asbasbasbag61
(g77
g63
NtRp1427
(dp1428
g66
(dp1429
sg75
g1049
sg68
(lp1430
g61
(g82
g63
NtRp1431
(dp1432
g66
(dp1433
g86
g87
ssg75
g1427
sg68
(lp1434
S'http_host'
p1435
asbag61
(g82
g63
NtRp1436
(dp1437
g66
(dp1438
g93
g94
ssg75
g1427
sg68
(lp1439
S':'
asbag61
(g82
g63
NtRp1440
(dp1441
g66
(dp1442
sg75
g1427
sg68
(lp1443
g61
(g62
g63
NtRp1444
(dp1445
g66
(dp1446
g74
I4
ssg75
g1440
sg68
(lp1447
S'localhost:8000'
p1448
asbasbasbag61
(g77
g63
NtRp1449
(dp1450
g66
(dp1451
sg75
g1049
sg68
(lp1452
g61
(g82
g63
NtRp1453
(dp1454
g66
(dp1455
g86
g87
ssg75
g1449
sg68
(lp1456
S'http_referer'
p1457
asbag61
(g82
g63
NtRp1458
(dp1459
g66
(dp1460
g93
g94
ssg75
g1449
sg68
(lp1461
S':'
asbag61
(g82
g63
NtRp1462
(dp1463
g66
(dp1464
sg75
g1449
sg68
(lp1465
g61
(g62
g63
NtRp1466
(dp1467
g66
(dp1468
g74
I4
ssg75
g1462
sg68
(lp1469
S'http://localhost:8000/FotoBuk/default/show/4'
p1470
asbasbasbag61
(g77
g63
NtRp1471
(dp1472
g66
(dp1473
sg75
g1049
sg68
(lp1474
g61
(g82
g63
NtRp1475
(dp1476
g66
(dp1477
g86
g87
ssg75
g1471
sg68
(lp1478
S'http_user_agent'
p1479
asbag61
(g82
g63
NtRp1480
(dp1481
g66
(dp1482
g93
g94
ssg75
g1471
sg68
(lp1483
S':'
asbag61
(g82
g63
NtRp1484
(dp1485
g66
(dp1486
sg75
g1471
sg68
(lp1487
g61
(g62
g63
NtRp1488
(dp1489
g66
(dp1490
g74
I4
ssg75
g1484
sg68
(lp1491
S'Mozilla/5.0 (X11; Linux i686; rv:11.0) Gecko/20100101 Firefox/11.0'
p1492
asbasbasbag61
(g77
g63
NtRp1493
(dp1494
g66
(dp1495
sg75
g1049
sg68
(lp1496
g61
(g82
g63
NtRp1497
(dp1498
g66
(dp1499
g86
g87
ssg75
g1493
sg68
(lp1500
S'is_jython'
p1501
asbag61
(g82
g63
NtRp1502
(dp1503
g66
(dp1504
g93
g94
ssg75
g1493
sg68
(lp1505
S':'
asbag61
(g82
g63
NtRp1506
(dp1507
g66
(dp1508
sg75
g1493
sg68
(lp1509
g61
(g62
g63
NtRp1510
(dp1511
g66
(dp1512
g74
I4
ssg75
g1506
sg68
(lp1513
g104
asbasbasbag61
(g77
g63
NtRp1514
(dp1515
g66
(dp1516
sg75
g1049
sg68
(lp1517
g61
(g82
g63
NtRp1518
(dp1519
g66
(dp1520
g86
g87
ssg75
g1514
sg68
(lp1521
S'is_pypy'
p1522
asbag61
(g82
g63
NtRp1523
(dp1524
g66
(dp1525
g93
g94
ssg75
g1514
sg68
(lp1526
S':'
asbag61
(g82
g63
NtRp1527
(dp1528
g66
(dp1529
sg75
g1514
sg68
(lp1530
g61
(g62
g63
NtRp1531
(dp1532
g66
(dp1533
g74
I4
ssg75
g1527
sg68
(lp1534
g104
asbasbasbag61
(g77
g63
NtRp1535
(dp1536
g66
(dp1537
sg75
g1049
sg68
(lp1538
g61
(g82
g63
NtRp1539
(dp1540
g66
(dp1541
g86
g87
ssg75
g1535
sg68
(lp1542
S'path_info'
p1543
asbag61
(g82
g63
NtRp1544
(dp1545
g66
(dp1546
g93
g94
ssg75
g1535
sg68
(lp1547
S':'
asbag61
(g82
g63
NtRp1548
(dp1549
g66
(dp1550
sg75
g1535
sg68
(lp1551
g61
(g62
g63
NtRp1552
(dp1553
g66
(dp1554
g74
I4
ssg75
g1548
sg68
(lp1555
S'/FotoBuk/default/show/4'
p1556
asbasbasbag61
(g77
g63
NtRp1557
(dp1558
g66
(dp1559
sg75
g1049
sg68
(lp1560
g61
(g82
g63
NtRp1561
(dp1562
g66
(dp1563
g86
g87
ssg75
g1557
sg68
(lp1564
S'query_string'
p1565
asbag61
(g82
g63
NtRp1566
(dp1567
g66
(dp1568
g93
g94
ssg75
g1557
sg68
(lp1569
S':'
asbag61
(g82
g63
NtRp1570
(dp1571
g66
(dp1572
sg75
g1557
sg68
(lp1573
g61
(g62
g63
NtRp1574
(dp1575
g66
(dp1576
g74
I4
ssg75
g1570
sg68
(lp1577
S''
asbasbasbag61
(g77
g63
NtRp1578
(dp1579
g66
(dp1580
sg75
g1049
sg68
(lp1581
g61
(g82
g63
NtRp1582
(dp1583
g66
(dp1584
g86
g87
ssg75
g1578
sg68
(lp1585
S'remote_addr'
p1586
asbag61
(g82
g63
NtRp1587
(dp1588
g66
(dp1589
g93
g94
ssg75
g1578
sg68
(lp1590
S':'
asbag61
(g82
g63
NtRp1591
(dp1592
g66
(dp1593
sg75
g1578
sg68
(lp1594
g61
(g62
g63
NtRp1595
(dp1596
g66
(dp1597
g74
I4
ssg75
g1591
sg68
(lp1598
g228
asbasbasbag61
(g77
g63
NtRp1599
(dp1600
g66
(dp1601
sg75
g1049
sg68
(lp1602
g61
(g82
g63
NtRp1603
(dp1604
g66
(dp1605
g86
g87
ssg75
g1599
sg68
(lp1606
S'remote_port'
p1607
asbag61
(g82
g63
NtRp1608
(dp1609
g66
(dp1610
g93
g94
ssg75
g1599
sg68
(lp1611
S':'
asbag61
(g82
g63
NtRp1612
(dp1613
g66
(dp1614
sg75
g1599
sg68
(lp1615
g61
(g62
g63
NtRp1616
(dp1617
g66
(dp1618
g74
I4
ssg75
g1612
sg68
(lp1619
S'52967'
p1620
asbasbasbag61
(g77
g63
NtRp1621
(dp1622
g66
(dp1623
sg75
g1049
sg68
(lp1624
g61
(g82
g63
NtRp1625
(dp1626
g66
(dp1627
g86
g87
ssg75
g1621
sg68
(lp1628
S'request_method'
p1629
asbag61
(g82
g63
NtRp1630
(dp1631
g66
(dp1632
g93
g94
ssg75
g1621
sg68
(lp1633
S':'
asbag61
(g82
g63
NtRp1634
(dp1635
g66
(dp1636
sg75
g1621
sg68
(lp1637
g61
(g62
g63
NtRp1638
(dp1639
g66
(dp1640
g74
I4
ssg75
g1634
sg68
(lp1641
S'POST'
p1642
asbasbasbag61
(g77
g63
NtRp1643
(dp1644
g66
(dp1645
sg75
g1049
sg68
(lp1646
g61
(g82
g63
NtRp1647
(dp1648
g66
(dp1649
g86
g87
ssg75
g1643
sg68
(lp1650
S'script_name'
p1651
asbag61
(g82
g63
NtRp1652
(dp1653
g66
(dp1654
g93
g94
ssg75
g1643
sg68
(lp1655
S':'
asbag61
(g82
g63
NtRp1656
(dp1657
g66
(dp1658
sg75
g1643
sg68
(lp1659
g61
(g62
g63
NtRp1660
(dp1661
g66
(dp1662
g74
I4
ssg75
g1656
sg68
(lp1663
S''
asbasbasbag61
(g77
g63
NtRp1664
(dp1665
g66
(dp1666
sg75
g1049
sg68
(lp1667
g61
(g82
g63
NtRp1668
(dp1669
g66
(dp1670
g86
g87
ssg75
g1664
sg68
(lp1671
S'server_name'
p1672
asbag61
(g82
g63
NtRp1673
(dp1674
g66
(dp1675
g93
g94
ssg75
g1664
sg68
(lp1676
S':'
asbag61
(g82
g63
NtRp1677
(dp1678
g66
(dp1679
sg75
g1664
sg68
(lp1680
g61
(g62
g63
NtRp1681
(dp1682
g66
(dp1683
g74
I4
ssg75
g1677
sg68
(lp1684
S'Solo'
p1685
asbasbasbag61
(g77
g63
NtRp1686
(dp1687
g66
(dp1688
sg75
g1049
sg68
(lp1689
g61
(g82
g63
NtRp1690
(dp1691
g66
(dp1692
g86
g87
ssg75
g1686
sg68
(lp1693
S'server_port'
p1694
asbag61
(g82
g63
NtRp1695
(dp1696
g66
(dp1697
g93
g94
ssg75
g1686
sg68
(lp1698
S':'
asbag61
(g82
g63
NtRp1699
(dp1700
g66
(dp1701
sg75
g1686
sg68
(lp1702
g61
(g62
g63
NtRp1703
(dp1704
g66
(dp1705
g74
I4
ssg75
g1699
sg68
(lp1706
S'8000'
p1707
asbasbasbag61
(g77
g63
NtRp1708
(dp1709
g66
(dp1710
sg75
g1049
sg68
(lp1711
g61
(g82
g63
NtRp1712
(dp1713
g66
(dp1714
g86
g87
ssg75
g1708
sg68
(lp1715
S'server_protocol'
p1716
asbag61
(g82
g63
NtRp1717
(dp1718
g66
(dp1719
g93
g94
ssg75
g1708
sg68
(lp1720
S':'
asbag61
(g82
g63
NtRp1721
(dp1722
g66
(dp1723
sg75
g1708
sg68
(lp1724
g61
(g62
g63
NtRp1725
(dp1726
g66
(dp1727
g74
I4
ssg75
g1721
sg68
(lp1728
S'HTTP/1.1'
p1729
asbasbasbag61
(g77
g63
NtRp1730
(dp1731
g66
(dp1732
sg75
g1049
sg68
(lp1733
g61
(g82
g63
NtRp1734
(dp1735
g66
(dp1736
g86
g87
ssg75
g1730
sg68
(lp1737
S'server_software'
p1738
asbag61
(g82
g63
NtRp1739
(dp1740
g66
(dp1741
g93
g94
ssg75
g1730
sg68
(lp1742
S':'
asbag61
(g82
g63
NtRp1743
(dp1744
g66
(dp1745
sg75
g1730
sg68
(lp1746
g61
(g62
g63
NtRp1747
(dp1748
g66
(dp1749
g74
I4
ssg75
g1743
sg68
(lp1750
S'Rocket 1.2.4'
p1751
asbasbasbag61
(g77
g63
NtRp1752
(dp1753
g66
(dp1754
sg75
g1049
sg68
(lp1755
g61
(g82
g63
NtRp1756
(dp1757
g66
(dp1758
g86
g87
ssg75
g1752
sg68
(lp1759
S'web2py_crontype'
p1760
asbag61
(g82
g63
NtRp1761
(dp1762
g66
(dp1763
g93
g94
ssg75
g1752
sg68
(lp1764
S':'
asbag61
(g82
g63
NtRp1765
(dp1766
g66
(dp1767
sg75
g1752
sg68
(lp1768
g61
(g62
g63
NtRp1769
(dp1770
g66
(dp1771
g74
I4
ssg75
g1765
sg68
(lp1772
S'hard'
p1773
asbasbasbag61
(g77
g63
NtRp1774
(dp1775
g66
(dp1776
sg75
g1049
sg68
(lp1777
g61
(g82
g63
NtRp1778
(dp1779
g66
(dp1780
g86
g87
ssg75
g1774
sg68
(lp1781
S'web2py_path'
p1782
asbag61
(g82
g63
NtRp1783
(dp1784
g66
(dp1785
g93
g94
ssg75
g1774
sg68
(lp1786
S':'
asbag61
(g82
g63
NtRp1787
(dp1788
g66
(dp1789
sg75
g1774
sg68
(lp1790
g61
(g62
g63
NtRp1791
(dp1792
g66
(dp1793
g74
I4
ssg75
g1787
sg68
(lp1794
g1096
asbasbasbag61
(g77
g63
NtRp1795
(dp1796
g66
(dp1797
sg75
g1049
sg68
(lp1798
g61
(g82
g63
NtRp1799
(dp1800
g66
(dp1801
g86
g87
ssg75
g1795
sg68
(lp1802
S'web2py_version'
p1803
asbag61
(g82
g63
NtRp1804
(dp1805
g66
(dp1806
g93
g94
ssg75
g1795
sg68
(lp1807
S':'
asbag61
(g82
g63
NtRp1808
(dp1809
g66
(dp1810
sg75
g1795
sg68
(lp1811
g61
(g62
g63
NtRp1812
(dp1813
g66
(dp1814
g74
I4
ssg75
g1808
sg68
(lp1815
g61
(g70
g63
NtRp1816
(dp1817
g66
(dp1818
g74
I3
ssg75
Nsg68
(lp1819
g61
(g77
g63
NtRp1820
(dp1821
g66
(dp1822
sg75
g1816
sg68
(lp1823
g61
(g82
g63
NtRp1824
(dp1825
g66
(dp1826
sg75
g1820
sg68
(lp1827
g61
(g62
g63
NtRp1828
(dp1829
g66
(dp1830
g74
I3
ssg75
g1824
sg68
(lp1831
S'2'
asbasbasbag61
(g77
g63
NtRp1832
(dp1833
g66
(dp1834
sg75
g1816
sg68
(lp1835
g61
(g82
g63
NtRp1836
(dp1837
g66
(dp1838
sg75
g1832
sg68
(lp1839
g61
(g62
g63
NtRp1840
(dp1841
g66
(dp1842
g74
I3
ssg75
g1836
sg68
(lp1843
S'0'
asbasbasbag61
(g77
g63
NtRp1844
(dp1845
g66
(dp1846
sg75
g1816
sg68
(lp1847
g61
(g82
g63
NtRp1848
(dp1849
g66
(dp1850
sg75
g1844
sg68
(lp1851
g61
(g62
g63
NtRp1852
(dp1853
g66
(dp1854
g74
I3
ssg75
g1848
sg68
(lp1855
S'2'
asbasbasbag61
(g77
g63
NtRp1856
(dp1857
g66
(dp1858
sg75
g1816
sg68
(lp1859
g61
(g82
g63
NtRp1860
(dp1861
g66
(dp1862
sg75
g1856
sg68
(lp1863
g61
(g62
g63
NtRp1864
(dp1865
g66
(dp1866
g74
I3
ssg75
g1860
sg68
(lp1867
S'datetime.datetime(2012, 8, 30, 4, 8, 18)'
p1868
asbasbasbag61
(g77
g63
NtRp1869
(dp1870
g66
(dp1871
sg75
g1816
sg68
(lp1872
g61
(g82
g63
NtRp1873
(dp1874
g66
(dp1875
sg75
g1869
sg68
(lp1876
g61
(g62
g63
NtRp1877
(dp1878
g66
(dp1879
g74
I3
ssg75
g1873
sg68
(lp1880
S'stable'
p1881
asbasbasbasbasbasbasbag61
(g77
g63
NtRp1882
(dp1883
g66
(dp1884
sg75
g1049
sg68
(lp1885
g61
(g82
g63
NtRp1886
(dp1887
g66
(dp1888
g86
g87
ssg75
g1882
sg68
(lp1889
S'wsgi_errors'
p1890
asbag61
(g82
g63
NtRp1891
(dp1892
g66
(dp1893
g93
g94
ssg75
g1882
sg68
(lp1894
S':'
asbag61
(g82
g63
NtRp1895
(dp1896
g66
(dp1897
sg75
g1882
sg68
(lp1898
g61
(g62
g63
NtRp1899
(dp1900
g66
(dp1901
g74
I4
ssg75
g1895
sg68
(lp1902
S"<open file '<stderr>', mode 'w' at 0xb772d0d0>"
p1903
asbasbasbag61
(g77
g63
NtRp1904
(dp1905
g66
(dp1906
sg75
g1049
sg68
(lp1907
g61
(g82
g63
NtRp1908
(dp1909
g66
(dp1910
g86
g87
ssg75
g1904
sg68
(lp1911
S'wsgi_file_wrapper'
p1912
asbag61
(g82
g63
NtRp1913
(dp1914
g66
(dp1915
g93
g94
ssg75
g1904
sg68
(lp1916
S':'
asbag61
(g82
g63
NtRp1917
(dp1918
g66
(dp1919
sg75
g1904
sg68
(lp1920
g61
(g62
g63
NtRp1921
(dp1922
g66
(dp1923
g74
I4
ssg75
g1917
sg68
(lp1924
S'<class wsgiref.util.FileWrapper at 0x8d0326c>'
p1925
asbasbasbag61
(g77
g63
NtRp1926
(dp1927
g66
(dp1928
sg75
g1049
sg68
(lp1929
g61
(g82
g63
NtRp1930
(dp1931
g66
(dp1932
g86
g87
ssg75
g1926
sg68
(lp1933
S'wsgi_input'
p1934
asbag61
(g82
g63
NtRp1935
(dp1936
g66
(dp1937
g93
g94
ssg75
g1926
sg68
(lp1938
S':'
asbag61
(g82
g63
NtRp1939
(dp1940
g66
(dp1941
sg75
g1926
sg68
(lp1942
g61
(g62
g63
NtRp1943
(dp1944
g66
(dp1945
g74
I4
ssg75
g1939
sg68
(lp1946
S'<socket._fileobject object at 0xaea0deac>'
p1947
asbasbasbag61
(g77
g63
NtRp1948
(dp1949
g66
(dp1950
sg75
g1049
sg68
(lp1951
g61
(g82
g63
NtRp1952
(dp1953
g66
(dp1954
g86
g87
ssg75
g1948
sg68
(lp1955
S'wsgi_multiprocess'
p1956
asbag61
(g82
g63
NtRp1957
(dp1958
g66
(dp1959
g93
g94
ssg75
g1948
sg68
(lp1960
S':'
asbag61
(g82
g63
NtRp1961
(dp1962
g66
(dp1963
sg75
g1948
sg68
(lp1964
g61
(g62
g63
NtRp1965
(dp1966
g66
(dp1967
g74
I4
ssg75
g1961
sg68
(lp1968
g104
asbasbasbag61
(g77
g63
NtRp1969
(dp1970
g66
(dp1971
sg75
g1049
sg68
(lp1972
g61
(g82
g63
NtRp1973
(dp1974
g66
(dp1975
g86
g87
ssg75
g1969
sg68
(lp1976
S'wsgi_multithread'
p1977
asbag61
(g82
g63
NtRp1978
(dp1979
g66
(dp1980
g93
g94
ssg75
g1969
sg68
(lp1981
S':'
asbag61
(g82
g63
NtRp1982
(dp1983
g66
(dp1984
sg75
g1969
sg68
(lp1985
g61
(g62
g63
NtRp1986
(dp1987
g66
(dp1988
g74
I4
ssg75
g1982
sg68
(lp1989
S'True'
p1990
asbasbasbag61
(g77
g63
NtRp1991
(dp1992
g66
(dp1993
sg75
g1049
sg68
(lp1994
g61
(g82
g63
NtRp1995
(dp1996
g66
(dp1997
g86
g87
ssg75
g1991
sg68
(lp1998
S'wsgi_run_once'
p1999
asbag61
(g82
g63
NtRp2000
(dp2001
g66
(dp2002
g93
g94
ssg75
g1991
sg68
(lp2003
S':'
asbag61
(g82
g63
NtRp2004
(dp2005
g66
(dp2006
sg75
g1991
sg68
(lp2007
g61
(g62
g63
NtRp2008
(dp2009
g66
(dp2010
g74
I4
ssg75
g2004
sg68
(lp2011
g104
asbasbasbag61
(g77
g63
NtRp2012
(dp2013
g66
(dp2014
sg75
g1049
sg68
(lp2015
g61
(g82
g63
NtRp2016
(dp2017
g66
(dp2018
g86
g87
ssg75
g2012
sg68
(lp2019
S'wsgi_url_scheme'
p2020
asbag61
(g82
g63
NtRp2021
(dp2022
g66
(dp2023
g93
g94
ssg75
g2012
sg68
(lp2024
S':'
asbag61
(g82
g63
NtRp2025
(dp2026
g66
(dp2027
sg75
g2012
sg68
(lp2028
g61
(g62
g63
NtRp2029
(dp2030
g66
(dp2031
g74
I4
ssg75
g2025
sg68
(lp2032
S'http'
p2033
asbasbasbag61
(g77
g63
NtRp2034
(dp2035
g66
(dp2036
sg75
g1049
sg68
(lp2037
g61
(g82
g63
NtRp2038
(dp2039
g66
(dp2040
g86
g87
ssg75
g2034
sg68
(lp2041
S'wsgi_version'
p2042
asbag61
(g82
g63
NtRp2043
(dp2044
g66
(dp2045
g93
g94
ssg75
g2034
sg68
(lp2046
S':'
asbag61
(g82
g63
NtRp2047
(dp2048
g66
(dp2049
sg75
g2034
sg68
(lp2050
g61
(g62
g63
NtRp2051
(dp2052
g66
(dp2053
g74
I4
ssg75
g2047
sg68
(lp2054
g61
(g70
g63
NtRp2055
(dp2056
g66
(dp2057
g74
I3
ssg75
Nsg68
(lp2058
g61
(g77
g63
NtRp2059
(dp2060
g66
(dp2061
sg75
g2055
sg68
(lp2062
g61
(g82
g63
NtRp2063
(dp2064
g66
(dp2065
sg75
g2059
sg68
(lp2066
g61
(g62
g63
NtRp2067
(dp2068
g66
(dp2069
g74
I3
ssg75
g2063
sg68
(lp2070
S'1'
asbasbasbag61
(g77
g63
NtRp2071
(dp2072
g66
(dp2073
sg75
g2055
sg68
(lp2074
g61
(g82
g63
NtRp2075
(dp2076
g66
(dp2077
sg75
g2071
sg68
(lp2078
g61
(g62
g63
NtRp2079
(dp2080
g66
(dp2081
g74
I3
ssg75
g2075
sg68
(lp2082
S'0'
asbasbasbasbasbasbasbasbasbasbasbag61
(g77
g63
NtRp2083
(dp2084
g66
(dp2085
sg75
g71
sg68
(lp2086
g61
(g82
g63
NtRp2087
(dp2088
g66
(dp2089
g86
g87
ssg75
g2083
sg68
(lp2090
S'extension'
p2091
asbag61
(g82
g63
NtRp2092
(dp2093
g66
(dp2094
g93
g94
ssg75
g2083
sg68
(lp2095
S':'
asbag61
(g82
g63
NtRp2096
(dp2097
g66
(dp2098
sg75
g2083
sg68
(lp2099
g61
(g62
g63
NtRp2100
(dp2101
g66
(dp2102
g74
I5
ssg75
g2096
sg68
(lp2103
S'html'
p2104
asbasbasbag61
(g77
g63
NtRp2105
(dp2106
g66
(dp2107
sg75
g71
sg68
(lp2108
g61
(g82
g63
NtRp2109
(dp2110
g66
(dp2111
g86
g87
ssg75
g2105
sg68
(lp2112
S'folder'
p2113
asbag61
(g82
g63
NtRp2114
(dp2115
g66
(dp2116
g93
g94
ssg75
g2105
sg68
(lp2117
S':'
asbag61
(g82
g63
NtRp2118
(dp2119
g66
(dp2120
sg75
g2105
sg68
(lp2121
g61
(g62
g63
NtRp2122
(dp2123
g66
(dp2124
g74
I5
ssg75
g2118
sg68
(lp2125
S'/home/piyush/web2py/applications/FotoBuk/'
p2126
asbasbasbag61
(g77
g63
NtRp2127
(dp2128
g66
(dp2129
sg75
g71
sg68
(lp2130
g61
(g82
g63
NtRp2131
(dp2132
g66
(dp2133
g86
g87
ssg75
g2127
sg68
(lp2134
S'function'
p2135
asbag61
(g82
g63
NtRp2136
(dp2137
g66
(dp2138
g93
g94
ssg75
g2127
sg68
(lp2139
S':'
asbag61
(g82
g63
NtRp2140
(dp2141
g66
(dp2142
sg75
g2127
sg68
(lp2143
g61
(g62
g63
NtRp2144
(dp2145
g66
(dp2146
g74
I5
ssg75
g2140
sg68
(lp2147
S'show'
p2148
asbasbasbag61
(g77
g63
NtRp2149
(dp2150
g66
(dp2151
sg75
g71
sg68
(lp2152
g61
(g82
g63
NtRp2153
(dp2154
g66
(dp2155
g86
g87
ssg75
g2149
sg68
(lp2156
S'get_vars'
p2157
asbag61
(g82
g63
NtRp2158
(dp2159
g66
(dp2160
g93
g94
ssg75
g2149
sg68
(lp2161
S':'
asbag61
(g82
g63
NtRp2162
(dp2163
g66
(dp2164
sg75
g2149
sg68
(lp2165
g61
(g62
g63
NtRp2166
(dp2167
g66
(dp2168
g74
I5
ssg75
g2162
sg68
(lp2169
g61
(g70
g63
NtRp2170
(dp2171
g66
(dp2172
g74
I4
ssg75
Nsg68
(lp2173
sbasbasbasbag61
(g77
g63
NtRp2174
(dp2175
g66
(dp2176
sg75
g71
sg68
(lp2177
g61
(g82
g63
NtRp2178
(dp2179
g66
(dp2180
g86
g87
ssg75
g2174
sg68
(lp2181
S'global_settings'
p2182
asbag61
(g82
g63
NtRp2183
(dp2184
g66
(dp2185
g93
g94
ssg75
g2174
sg68
(lp2186
S':'
asbag61
(g82
g63
NtRp2187
(dp2188
g66
(dp2189
sg75
g2174
sg68
(lp2190
g61
(g62
g63
NtRp2191
(dp2192
g66
(dp2193
g74
I5
ssg75
g2187
sg68
(lp2194
g61
(g70
g63
NtRp2195
(dp2196
g66
(dp2197
g74
I4
ssg75
Nsg68
(lp2198
g61
(g77
g63
NtRp2199
(dp2200
g66
(dp2201
sg75
g2195
sg68
(lp2202
g61
(g82
g63
NtRp2203
(dp2204
g66
(dp2205
g86
g87
ssg75
g2199
sg68
(lp2206
g1061
asbag61
(g82
g63
NtRp2207
(dp2208
g66
(dp2209
g93
g94
ssg75
g2199
sg68
(lp2210
S':'
asbag61
(g82
g63
NtRp2211
(dp2212
g66
(dp2213
sg75
g2199
sg68
(lp2214
g61
(g62
g63
NtRp2215
(dp2216
g66
(dp2217
g74
I4
ssg75
g2211
sg68
(lp2218
S"set(['/home/piyush/web2py/applications/FotoBuk/', '/home/piyush/web2py/applications/welcome/', '/home/piyush/web2py/applications/admin/'])"
p2219
asbasbasbag61
(g77
g63
NtRp2220
(dp2221
g66
(dp2222
sg75
g2195
sg68
(lp2223
g61
(g82
g63
NtRp2224
(dp2225
g66
(dp2226
g86
g87
ssg75
g2220
sg68
(lp2227
g1083
asbag61
(g82
g63
NtRp2228
(dp2229
g66
(dp2230
g93
g94
ssg75
g2220
sg68
(lp2231
S':'
asbag61
(g82
g63
NtRp2232
(dp2233
g66
(dp2234
sg75
g2220
sg68
(lp2235
g61
(g62
g63
NtRp2236
(dp2237
g66
(dp2238
g74
I4
ssg75
g2232
sg68
(lp2239
g1096
asbasbasbag61
(g77
g63
NtRp2240
(dp2241
g66
(dp2242
sg75
g2195
sg68
(lp2243
g61
(g82
g63
NtRp2244
(dp2245
g66
(dp2246
g86
g87
ssg75
g2240
sg68
(lp2247
g1105
asbag61
(g82
g63
NtRp2248
(dp2249
g66
(dp2250
g93
g94
ssg75
g2240
sg68
(lp2251
S':'
asbag61
(g82
g63
NtRp2252
(dp2253
g66
(dp2254
sg75
g2240
sg68
(lp2255
g61
(g62
g63
NtRp2256
(dp2257
g66
(dp2258
g74
I4
ssg75
g2252
sg68
(lp2259
g61
(g70
g63
NtRp2260
(dp2261
g66
(dp2262
g74
I3
ssg75
Nsg68
(lp2263
sbasbasbasbag61
(g77
g63
NtRp2264
(dp2265
g66
(dp2266
sg75
g2195
sg68
(lp2267
g61
(g82
g63
NtRp2268
(dp2269
g66
(dp2270
g86
g87
ssg75
g2264
sg68
(lp2271
g1130
asbag61
(g82
g63
NtRp2272
(dp2273
g66
(dp2274
g93
g94
ssg75
g2264
sg68
(lp2275
S':'
asbag61
(g82
g63
NtRp2276
(dp2277
g66
(dp2278
sg75
g2264
sg68
(lp2279
g61
(g62
g63
NtRp2280
(dp2281
g66
(dp2282
g74
I4
ssg75
g2276
sg68
(lp2283
S"<Values at 0x8d4130c: {'verbose': False, 'ip': '127.0.0.1', 'with_scheduler': False, 'ips': ['10.1.39.167', '10.42.0.1'], 'shutdown_timeout': 5, 'taskbar': False, 'port': 8000, 'maxthreads': None, 'softcron': False, 'server_name': 'Solo', 'bpython': False, 'nogui': False, 'nocron': False, 'extcron': False, 'run_system_tests': False, 'test': None, 'folder': '/home/piyush/web2py', 'config': '', 'import_models': False, 'winservice': '', 'shell': None, 'run': '', 'log_filename': 'httpserver.log', 'debuglevel': 30, 'args': [''], 'socket_timeout': 5, 'ssl_ca_certificate': None, 'scheduler': None, 'profiler_filename': None, 'ssl_private_key': '', 'scheduler_groups': None, 'password': '<ask>', 'request_queue_size': 5, 'ssl_certificate': '', 'cronjob': False, 'numthreads': None, 'quiet': False, 'interfaces': None, 'minthreads': None, 'timeout': 10, 'plain': False, 'nobanner': False, 'pid_filename': 'httpserver.pid'}>"
p2284
asbasbasbag61
(g77
g63
NtRp2285
(dp2286
g66
(dp2287
sg75
g2195
sg68
(lp2288
g61
(g82
g63
NtRp2289
(dp2290
g66
(dp2291
g86
g87
ssg75
g2285
sg68
(lp2292
g1196
asbag61
(g82
g63
NtRp2293
(dp2294
g66
(dp2295
g93
g94
ssg75
g2285
sg68
(lp2296
S':'
asbag61
(g82
g63
NtRp2297
(dp2298
g66
(dp2299
sg75
g2285
sg68
(lp2300
g61
(g62
g63
NtRp2301
(dp2302
g66
(dp2303
g74
I4
ssg75
g2297
sg68
(lp2304
S'set([])'
p2305
asbasbasbag61
(g77
g63
NtRp2306
(dp2307
g66
(dp2308
sg75
g2195
sg68
(lp2309
g61
(g82
g63
NtRp2310
(dp2311
g66
(dp2312
g86
g87
ssg75
g2306
sg68
(lp2313
g1218
asbag61
(g82
g63
NtRp2314
(dp2315
g66
(dp2316
g93
g94
ssg75
g2306
sg68
(lp2317
S':'
asbag61
(g82
g63
NtRp2318
(dp2319
g66
(dp2320
sg75
g2306
sg68
(lp2321
g61
(g62
g63
NtRp2322
(dp2323
g66
(dp2324
g74
I4
ssg75
g2318
sg68
(lp2325
g104
asbasbasbag61
(g77
g63
NtRp2326
(dp2327
g66
(dp2328
sg75
g2195
sg68
(lp2329
g61
(g82
g63
NtRp2330
(dp2331
g66
(dp2332
g86
g87
ssg75
g2326
sg68
(lp2333
g1239
asbag61
(g82
g63
NtRp2334
(dp2335
g66
(dp2336
g93
g94
ssg75
g2326
sg68
(lp2337
S':'
asbag61
(g82
g63
NtRp2338
(dp2339
g66
(dp2340
sg75
g2326
sg68
(lp2341
g61
(g62
g63
NtRp2342
(dp2343
g66
(dp2344
g74
I4
ssg75
g2338
sg68
(lp2345
g1252
asbasbasbag61
(g77
g63
NtRp2346
(dp2347
g66
(dp2348
sg75
g2195
sg68
(lp2349
g61
(g82
g63
NtRp2350
(dp2351
g66
(dp2352
g86
g87
ssg75
g2346
sg68
(lp2353
g1501
asbag61
(g82
g63
NtRp2354
(dp2355
g66
(dp2356
g93
g94
ssg75
g2346
sg68
(lp2357
S':'
asbag61
(g82
g63
NtRp2358
(dp2359
g66
(dp2360
sg75
g2346
sg68
(lp2361
g61
(g62
g63
NtRp2362
(dp2363
g66
(dp2364
g74
I4
ssg75
g2358
sg68
(lp2365
g104
asbasbasbag61
(g77
g63
NtRp2366
(dp2367
g66
(dp2368
sg75
g2195
sg68
(lp2369
g61
(g82
g63
NtRp2370
(dp2371
g66
(dp2372
g86
g87
ssg75
g2366
sg68
(lp2373
g1522
asbag61
(g82
g63
NtRp2374
(dp2375
g66
(dp2376
g93
g94
ssg75
g2366
sg68
(lp2377
S':'
asbag61
(g82
g63
NtRp2378
(dp2379
g66
(dp2380
sg75
g2366
sg68
(lp2381
g61
(g62
g63
NtRp2382
(dp2383
g66
(dp2384
g74
I4
ssg75
g2378
sg68
(lp2385
g104
asbasbasbag61
(g77
g63
NtRp2386
(dp2387
g66
(dp2388
sg75
g2195
sg68
(lp2389
g61
(g82
g63
NtRp2390
(dp2391
g66
(dp2392
g86
g87
ssg75
g2386
sg68
(lp2393
g1760
asbag61
(g82
g63
NtRp2394
(dp2395
g66
(dp2396
g93
g94
ssg75
g2386
sg68
(lp2397
S':'
asbag61
(g82
g63
NtRp2398
(dp2399
g66
(dp2400
sg75
g2386
sg68
(lp2401
g61
(g62
g63
NtRp2402
(dp2403
g66
(dp2404
g74
I4
ssg75
g2398
sg68
(lp2405
g1773
asbasbasbag61
(g77
g63
NtRp2406
(dp2407
g66
(dp2408
sg75
g2195
sg68
(lp2409
g61
(g82
g63
NtRp2410
(dp2411
g66
(dp2412
g86
g87
ssg75
g2406
sg68
(lp2413
g1803
asbag61
(g82
g63
NtRp2414
(dp2415
g66
(dp2416
g93
g94
ssg75
g2406
sg68
(lp2417
S':'
asbag61
(g82
g63
NtRp2418
(dp2419
g66
(dp2420
sg75
g2406
sg68
(lp2421
g61
(g62
g63
NtRp2422
(dp2423
g66
(dp2424
g74
I4
ssg75
g2418
sg68
(lp2425
g61
(g70
g63
NtRp2426
(dp2427
g66
(dp2428
g74
I3
ssg75
Nsg68
(lp2429
g61
(g77
g63
NtRp2430
(dp2431
g66
(dp2432
sg75
g2426
sg68
(lp2433
g61
(g82
g63
NtRp2434
(dp2435
g66
(dp2436
sg75
g2430
sg68
(lp2437
g61
(g62
g63
NtRp2438
(dp2439
g66
(dp2440
g74
I3
ssg75
g2434
sg68
(lp2441
S'2'
asbasbasbag61
(g77
g63
NtRp2442
(dp2443
g66
(dp2444
sg75
g2426
sg68
(lp2445
g61
(g82
g63
NtRp2446
(dp2447
g66
(dp2448
sg75
g2442
sg68
(lp2449
g61
(g62
g63
NtRp2450
(dp2451
g66
(dp2452
g74
I3
ssg75
g2446
sg68
(lp2453
S'0'
asbasbasbag61
(g77
g63
NtRp2454
(dp2455
g66
(dp2456
sg75
g2426
sg68
(lp2457
g61
(g82
g63
NtRp2458
(dp2459
g66
(dp2460
sg75
g2454
sg68
(lp2461
g61
(g62
g63
NtRp2462
(dp2463
g66
(dp2464
g74
I3
ssg75
g2458
sg68
(lp2465
S'2'
asbasbasbag61
(g77
g63
NtRp2466
(dp2467
g66
(dp2468
sg75
g2426
sg68
(lp2469
g61
(g82
g63
NtRp2470
(dp2471
g66
(dp2472
sg75
g2466
sg68
(lp2473
g61
(g62
g63
NtRp2474
(dp2475
g66
(dp2476
g74
I3
ssg75
g2470
sg68
(lp2477
S'datetime.datetime(2012, 8, 30, 4, 8, 18)'
p2478
asbasbasbag61
(g77
g63
NtRp2479
(dp2480
g66
(dp2481
sg75
g2426
sg68
(lp2482
g61
(g82
g63
NtRp2483
(dp2484
g66
(dp2485
sg75
g2479
sg68
(lp2486
g61
(g62
g63
NtRp2487
(dp2488
g66
(dp2489
g74
I3
ssg75
g2483
sg68
(lp2490
g1881
asbasbasbasbasbasbasbasbasbasbasbag61
(g77
g63
NtRp2491
(dp2492
g66
(dp2493
sg75
g71
sg68
(lp2494
g61
(g82
g63
NtRp2495
(dp2496
g66
(dp2497
g86
g87
ssg75
g2491
sg68
(lp2498
S'is_https'
p2499
asbag61
(g82
g63
NtRp2500
(dp2501
g66
(dp2502
g93
g94
ssg75
g2491
sg68
(lp2503
S':'
asbag61
(g82
g63
NtRp2504
(dp2505
g66
(dp2506
sg75
g2491
sg68
(lp2507
g61
(g62
g63
NtRp2508
(dp2509
g66
(dp2510
g74
I5
ssg75
g2504
sg68
(lp2511
g104
asbasbasbag61
(g77
g63
NtRp2512
(dp2513
g66
(dp2514
sg75
g71
sg68
(lp2515
g61
(g82
g63
NtRp2516
(dp2517
g66
(dp2518
g86
g87
ssg75
g2512
sg68
(lp2519
S'is_local'
p2520
asbag61
(g82
g63
NtRp2521
(dp2522
g66
(dp2523
g93
g94
ssg75
g2512
sg68
(lp2524
S':'
asbag61
(g82
g63
NtRp2525
(dp2526
g66
(dp2527
sg75
g2512
sg68
(lp2528
g61
(g62
g63
NtRp2529
(dp2530
g66
(dp2531
g74
I5
ssg75
g2525
sg68
(lp2532
g1990
asbasbasbag61
(g77
g63
NtRp2533
(dp2534
g66
(dp2535
sg75
g71
sg68
(lp2536
g61
(g82
g63
NtRp2537
(dp2538
g66
(dp2539
g86
g87
ssg75
g2533
sg68
(lp2540
S'is_restful'
p2541
asbag61
(g82
g63
NtRp2542
(dp2543
g66
(dp2544
g93
g94
ssg75
g2533
sg68
(lp2545
S':'
asbag61
(g82
g63
NtRp2546
(dp2547
g66
(dp2548
sg75
g2533
sg68
(lp2549
g61
(g62
g63
NtRp2550
(dp2551
g66
(dp2552
g74
I5
ssg75
g2546
sg68
(lp2553
g104
asbasbasbag61
(g77
g63
NtRp2554
(dp2555
g66
(dp2556
sg75
g71
sg68
(lp2557
g61
(g82
g63
NtRp2558
(dp2559
g66
(dp2560
g86
g87
ssg75
g2554
sg68
(lp2561
S'now'
p2562
asbag61
(g82
g63
NtRp2563
(dp2564
g66
(dp2565
g93
g94
ssg75
g2554
sg68
(lp2566
S':'
asbag61
(g82
g63
NtRp2567
(dp2568
g66
(dp2569
sg75
g2554
sg68
(lp2570
g61
(g62
g63
NtRp2571
(dp2572
g66
(dp2573
g74
I5
ssg75
g2567
sg68
(lp2574
S'datetime.datetime(2012, 8, 31, 10, 3, 13, 117474)'
p2575
asbasbasbag61
(g77
g63
NtRp2576
(dp2577
g66
(dp2578
sg75
g71
sg68
(lp2579
g61
(g82
g63
NtRp2580
(dp2581
g66
(dp2582
g86
g87
ssg75
g2576
sg68
(lp2583
S'post_vars'
p2584
asbag61
(g82
g63
NtRp2585
(dp2586
g66
(dp2587
g93
g94
ssg75
g2576
sg68
(lp2588
S':'
asbag61
(g82
g63
NtRp2589
(dp2590
g66
(dp2591
sg75
g2576
sg68
(lp2592
g61
(g62
g63
NtRp2593
(dp2594
g66
(dp2595
g74
I5
ssg75
g2589
sg68
(lp2596
g61
(g70
g63
NtRp2597
(dp2598
g66
(dp2599
g74
I4
ssg75
Nsg68
(lp2600
sbasbasbasbag61
(g77
g63
NtRp2601
(dp2602
g66
(dp2603
sg75
g71
sg68
(lp2604
g61
(g82
g63
NtRp2605
(dp2606
g66
(dp2607
g86
g87
ssg75
g2601
sg68
(lp2608
S'raw_args'
p2609
asbag61
(g82
g63
NtRp2610
(dp2611
g66
(dp2612
g93
g94
ssg75
g2601
sg68
(lp2613
S':'
asbag61
(g82
g63
NtRp2614
(dp2615
g66
(dp2616
sg75
g2601
sg68
(lp2617
g61
(g62
g63
NtRp2618
(dp2619
g66
(dp2620
g74
I5
ssg75
g2614
sg68
(lp2621
S'4'
asbasbasbag61
(g77
g63
NtRp2622
(dp2623
g66
(dp2624
sg75
g71
sg68
(lp2625
g61
(g82
g63
NtRp2626
(dp2627
g66
(dp2628
g86
g87
ssg75
g2622
sg68
(lp2629
S'raw_extension'
p2630
asbag61
(g82
g63
NtRp2631
(dp2632
g66
(dp2633
g93
g94
ssg75
g2622
sg68
(lp2634
S':'
asbag61
(g82
g63
NtRp2635
(dp2636
g66
(dp2637
sg75
g2622
sg68
(lp2638
g61
(g62
g63
NtRp2639
(dp2640
g66
(dp2641
g74
I5
ssg75
g2635
sg68
(lp2642
S'None'
p2643
asbasbasbag61
(g77
g63
NtRp2644
(dp2645
g66
(dp2646
sg75
g71
sg68
(lp2647
g61
(g82
g63
NtRp2648
(dp2649
g66
(dp2650
g86
g87
ssg75
g2644
sg68
(lp2651
S'url'
p2652
asbag61
(g82
g63
NtRp2653
(dp2654
g66
(dp2655
g93
g94
ssg75
g2644
sg68
(lp2656
S':'
asbag61
(g82
g63
NtRp2657
(dp2658
g66
(dp2659
sg75
g2644
sg68
(lp2660
g61
(g62
g63
NtRp2661
(dp2662
g66
(dp2663
g74
I5
ssg75
g2657
sg68
(lp2664
S'/FotoBuk/default/show/4'
p2665
asbasbasbag61
(g77
g63
NtRp2666
(dp2667
g66
(dp2668
sg75
g71
sg68
(lp2669
g61
(g82
g63
NtRp2670
(dp2671
g66
(dp2672
g86
g87
ssg75
g2666
sg68
(lp2673
S'utcnow'
p2674
asbag61
(g82
g63
NtRp2675
(dp2676
g66
(dp2677
g93
g94
ssg75
g2666
sg68
(lp2678
S':'
asbag61
(g82
g63
NtRp2679
(dp2680
g66
(dp2681
sg75
g2666
sg68
(lp2682
g61
(g62
g63
NtRp2683
(dp2684
g66
(dp2685
g74
I5
ssg75
g2679
sg68
(lp2686
S'datetime.datetime(2012, 8, 31, 4, 33, 13, 117502)'
p2687
asbasbasbag61
(g77
g63
NtRp2688
(dp2689
g66
(dp2690
sg75
g71
sg68
(lp2691
g61
(g82
g63
NtRp2692
(dp2693
g66
(dp2694
g86
g87
ssg75
g2688
sg68
(lp2695
S'uuid'
p2696
asbag61
(g82
g63
NtRp2697
(dp2698
g66
(dp2699
g93
g94
ssg75
g2688
sg68
(lp2700
S':'
asbag61
(g82
g63
NtRp2701
(dp2702
g66
(dp2703
sg75
g2688
sg68
(lp2704
g61
(g62
g63
NtRp2705
(dp2706
g66
(dp2707
g74
I5
ssg75
g2701
sg68
(lp2708
S'FotoBuk/127.0.0.1.2012-08-31.10-03-13.5b7a857e-8201-4ba7-b8d2-0b00a3b846b6'
p2709
asbasbasbag61
(g77
g63
NtRp2710
(dp2711
g66
(dp2712
sg75
g71
sg68
(lp2713
g61
(g82
g63
NtRp2714
(dp2715
g66
(dp2716
g86
g87
ssg75
g2710
sg68
(lp2717
S'vars'
p2718
asbag61
(g82
g63
NtRp2719
(dp2720
g66
(dp2721
g93
g94
ssg75
g2710
sg68
(lp2722
S':'
asbag61
(g82
g63
NtRp2723
(dp2724
g66
(dp2725
sg75
g2710
sg68
(lp2726
g61
(g62
g63
NtRp2727
(dp2728
g66
(dp2729
g74
I5
ssg75
g2723
sg68
(lp2730
g61
(g70
g63
NtRp2731
(dp2732
g66
(dp2733
g74
I4
ssg75
Nsg68
(lp2734
sbasbasbasbag61
(g77
g63
NtRp2735
(dp2736
g66
(dp2737
sg75
g71
sg68
(lp2738
g61
(g82
g63
NtRp2739
(dp2740
g66
(dp2741
g86
g87
ssg75
g2735
sg68
(lp2742
S'wsgi'
p2743
asbag61
(g82
g63
NtRp2744
(dp2745
g66
(dp2746
g93
g94
ssg75
g2735
sg68
(lp2747
S':'
asbag61
(g82
g63
NtRp2748
(dp2749
g66
(dp2750
sg75
g2735
sg68
(lp2751
g61
(g62
g63
NtRp2752
(dp2753
g66
(dp2754
g74
I5
ssg75
g2748
sg68
(lp2755
g61
(g70
g63
NtRp2756
(dp2757
g66
(dp2758
g74
I4
ssg75
Nsg68
(lp2759
g61
(g77
g63
NtRp2760
(dp2761
g66
(dp2762
sg75
g2756
sg68
(lp2763
g61
(g82
g63
NtRp2764
(dp2765
g66
(dp2766
g86
g87
ssg75
g2760
sg68
(lp2767
S'environ'
p2768
asbag61
(g82
g63
NtRp2769
(dp2770
g66
(dp2771
g93
g94
ssg75
g2760
sg68
(lp2772
S':'
asbag61
(g82
g63
NtRp2773
(dp2774
g66
(dp2775
sg75
g2760
sg68
(lp2776
g61
(g62
g63
NtRp2777
(dp2778
g66
(dp2779
g74
I4
ssg75
g2773
sg68
(lp2780
g61
(g70
g63
NtRp2781
(dp2782
g66
(dp2783
g74
I3
ssg75
Nsg68
(lp2784
g61
(g77
g63
NtRp2785
(dp2786
g66
(dp2787
sg75
g2781
sg68
(lp2788
g61
(g82
g63
NtRp2789
(dp2790
g66
(dp2791
g86
g87
ssg75
g2785
sg68
(lp2792
S'CONTENT_LENGTH'
p2793
asbag61
(g82
g63
NtRp2794
(dp2795
g66
(dp2796
g93
g94
ssg75
g2785
sg68
(lp2797
S':'
asbag61
(g82
g63
NtRp2798
(dp2799
g66
(dp2800
sg75
g2785
sg68
(lp2801
g61
(g62
g63
NtRp2802
(dp2803
g66
(dp2804
g74
I3
ssg75
g2798
sg68
(lp2805
g1165
asbasbasbag61
(g77
g63
NtRp2806
(dp2807
g66
(dp2808
sg75
g2781
sg68
(lp2809
g61
(g82
g63
NtRp2810
(dp2811
g66
(dp2812
g86
g87
ssg75
g2806
sg68
(lp2813
S'CONTENT_TYPE'
p2814
asbag61
(g82
g63
NtRp2815
(dp2816
g66
(dp2817
g93
g94
ssg75
g2806
sg68
(lp2818
S':'
asbag61
(g82
g63
NtRp2819
(dp2820
g66
(dp2821
sg75
g2806
sg68
(lp2822
g61
(g62
g63
NtRp2823
(dp2824
g66
(dp2825
g74
I3
ssg75
g2819
sg68
(lp2826
g1187
asbasbasbag61
(g77
g63
NtRp2827
(dp2828
g66
(dp2829
sg75
g2781
sg68
(lp2830
g61
(g82
g63
NtRp2831
(dp2832
g66
(dp2833
g86
g87
ssg75
g2827
sg68
(lp2834
S'HTTP_ACCEPT'
p2835
asbag61
(g82
g63
NtRp2836
(dp2837
g66
(dp2838
g93
g94
ssg75
g2827
sg68
(lp2839
S':'
asbag61
(g82
g63
NtRp2840
(dp2841
g66
(dp2842
sg75
g2827
sg68
(lp2843
g61
(g62
g63
NtRp2844
(dp2845
g66
(dp2846
g74
I3
ssg75
g2840
sg68
(lp2847
g1274
asbasbasbag61
(g77
g63
NtRp2848
(dp2849
g66
(dp2850
sg75
g2781
sg68
(lp2851
g61
(g82
g63
NtRp2852
(dp2853
g66
(dp2854
g86
g87
ssg75
g2848
sg68
(lp2855
S'HTTP_ACCEPT_ENCODING'
p2856
asbag61
(g82
g63
NtRp2857
(dp2858
g66
(dp2859
g93
g94
ssg75
g2848
sg68
(lp2860
S':'
asbag61
(g82
g63
NtRp2861
(dp2862
g66
(dp2863
sg75
g2848
sg68
(lp2864
g61
(g62
g63
NtRp2865
(dp2866
g66
(dp2867
g74
I3
ssg75
g2861
sg68
(lp2868
g1296
asbasbasbag61
(g77
g63
NtRp2869
(dp2870
g66
(dp2871
sg75
g2781
sg68
(lp2872
g61
(g82
g63
NtRp2873
(dp2874
g66
(dp2875
g86
g87
ssg75
g2869
sg68
(lp2876
S'HTTP_ACCEPT_LANGUAGE'
p2877
asbag61
(g82
g63
NtRp2878
(dp2879
g66
(dp2880
g93
g94
ssg75
g2869
sg68
(lp2881
S':'
asbag61
(g82
g63
NtRp2882
(dp2883
g66
(dp2884
sg75
g2869
sg68
(lp2885
g61
(g62
g63
NtRp2886
(dp2887
g66
(dp2888
g74
I3
ssg75
g2882
sg68
(lp2889
g1318
asbasbasbag61
(g77
g63
NtRp2890
(dp2891
g66
(dp2892
sg75
g2781
sg68
(lp2893
g61
(g82
g63
NtRp2894
(dp2895
g66
(dp2896
g86
g87
ssg75
g2890
sg68
(lp2897
S'HTTP_CACHE_CONTROL'
p2898
asbag61
(g82
g63
NtRp2899
(dp2900
g66
(dp2901
g93
g94
ssg75
g2890
sg68
(lp2902
S':'
asbag61
(g82
g63
NtRp2903
(dp2904
g66
(dp2905
sg75
g2890
sg68
(lp2906
g61
(g62
g63
NtRp2907
(dp2908
g66
(dp2909
g74
I3
ssg75
g2903
sg68
(lp2910
g1340
asbasbasbag61
(g77
g63
NtRp2911
(dp2912
g66
(dp2913
sg75
g2781
sg68
(lp2914
g61
(g82
g63
NtRp2915
(dp2916
g66
(dp2917
g86
g87
ssg75
g2911
sg68
(lp2918
S'HTTP_CONNECTION'
p2919
asbag61
(g82
g63
NtRp2920
(dp2921
g66
(dp2922
g93
g94
ssg75
g2911
sg68
(lp2923
S':'
asbag61
(g82
g63
NtRp2924
(dp2925
g66
(dp2926
sg75
g2911
sg68
(lp2927
g61
(g62
g63
NtRp2928
(dp2929
g66
(dp2930
g74
I3
ssg75
g2924
sg68
(lp2931
g1362
asbasbasbag61
(g77
g63
NtRp2932
(dp2933
g66
(dp2934
sg75
g2781
sg68
(lp2935
g61
(g82
g63
NtRp2936
(dp2937
g66
(dp2938
g86
g87
ssg75
g2932
sg68
(lp2939
S'HTTP_CONTENT_LENGTH'
p2940
asbag61
(g82
g63
NtRp2941
(dp2942
g66
(dp2943
g93
g94
ssg75
g2932
sg68
(lp2944
S':'
asbag61
(g82
g63
NtRp2945
(dp2946
g66
(dp2947
sg75
g2932
sg68
(lp2948
g61
(g62
g63
NtRp2949
(dp2950
g66
(dp2951
g74
I3
ssg75
g2945
sg68
(lp2952
g1165
asbasbasbag61
(g77
g63
NtRp2953
(dp2954
g66
(dp2955
sg75
g2781
sg68
(lp2956
g61
(g82
g63
NtRp2957
(dp2958
g66
(dp2959
g86
g87
ssg75
g2953
sg68
(lp2960
S'HTTP_CONTENT_TYPE'
p2961
asbag61
(g82
g63
NtRp2962
(dp2963
g66
(dp2964
g93
g94
ssg75
g2953
sg68
(lp2965
S':'
asbag61
(g82
g63
NtRp2966
(dp2967
g66
(dp2968
sg75
g2953
sg68
(lp2969
g61
(g62
g63
NtRp2970
(dp2971
g66
(dp2972
g74
I3
ssg75
g2966
sg68
(lp2973
g1187
asbasbasbag61
(g77
g63
NtRp2974
(dp2975
g66
(dp2976
sg75
g2781
sg68
(lp2977
g61
(g82
g63
NtRp2978
(dp2979
g66
(dp2980
g86
g87
ssg75
g2974
sg68
(lp2981
S'HTTP_COOKIE'
p2982
asbag61
(g82
g63
NtRp2983
(dp2984
g66
(dp2985
g93
g94
ssg75
g2974
sg68
(lp2986
S':'
asbag61
(g82
g63
NtRp2987
(dp2988
g66
(dp2989
sg75
g2974
sg68
(lp2990
g61
(g62
g63
NtRp2991
(dp2992
g66
(dp2993
g74
I3
ssg75
g2987
sg68
(lp2994
g1426
asbasbasbag61
(g77
g63
NtRp2995
(dp2996
g66
(dp2997
sg75
g2781
sg68
(lp2998
g61
(g82
g63
NtRp2999
(dp3000
g66
(dp3001
g86
g87
ssg75
g2995
sg68
(lp3002
S'HTTP_HOST'
p3003
asbag61
(g82
g63
NtRp3004
(dp3005
g66
(dp3006
g93
g94
ssg75
g2995
sg68
(lp3007
S':'
asbag61
(g82
g63
NtRp3008
(dp3009
g66
(dp3010
sg75
g2995
sg68
(lp3011
g61
(g62
g63
NtRp3012
(dp3013
g66
(dp3014
g74
I3
ssg75
g3008
sg68
(lp3015
g1448
asbasbasbag61
(g77
g63
NtRp3016
(dp3017
g66
(dp3018
sg75
g2781
sg68
(lp3019
g61
(g82
g63
NtRp3020
(dp3021
g66
(dp3022
g86
g87
ssg75
g3016
sg68
(lp3023
S'HTTP_REFERER'
p3024
asbag61
(g82
g63
NtRp3025
(dp3026
g66
(dp3027
g93
g94
ssg75
g3016
sg68
(lp3028
S':'
asbag61
(g82
g63
NtRp3029
(dp3030
g66
(dp3031
sg75
g3016
sg68
(lp3032
g61
(g62
g63
NtRp3033
(dp3034
g66
(dp3035
g74
I3
ssg75
g3029
sg68
(lp3036
g1470
asbasbasbag61
(g77
g63
NtRp3037
(dp3038
g66
(dp3039
sg75
g2781
sg68
(lp3040
g61
(g82
g63
NtRp3041
(dp3042
g66
(dp3043
g86
g87
ssg75
g3037
sg68
(lp3044
S'HTTP_USER_AGENT'
p3045
asbag61
(g82
g63
NtRp3046
(dp3047
g66
(dp3048
g93
g94
ssg75
g3037
sg68
(lp3049
S':'
asbag61
(g82
g63
NtRp3050
(dp3051
g66
(dp3052
sg75
g3037
sg68
(lp3053
g61
(g62
g63
NtRp3054
(dp3055
g66
(dp3056
g74
I3
ssg75
g3050
sg68
(lp3057
g1492
asbasbasbag61
(g77
g63
NtRp3058
(dp3059
g66
(dp3060
sg75
g2781
sg68
(lp3061
g61
(g82
g63
NtRp3062
(dp3063
g66
(dp3064
g86
g87
ssg75
g3058
sg68
(lp3065
S'PATH_INFO'
p3066
asbag61
(g82
g63
NtRp3067
(dp3068
g66
(dp3069
g93
g94
ssg75
g3058
sg68
(lp3070
S':'
asbag61
(g82
g63
NtRp3071
(dp3072
g66
(dp3073
sg75
g3058
sg68
(lp3074
g61
(g62
g63
NtRp3075
(dp3076
g66
(dp3077
g74
I3
ssg75
g3071
sg68
(lp3078
g1556
asbasbasbag61
(g77
g63
NtRp3079
(dp3080
g66
(dp3081
sg75
g2781
sg68
(lp3082
g61
(g82
g63
NtRp3083
(dp3084
g66
(dp3085
g86
g87
ssg75
g3079
sg68
(lp3086
S'QUERY_STRING'
p3087
asbag61
(g82
g63
NtRp3088
(dp3089
g66
(dp3090
g93
g94
ssg75
g3079
sg68
(lp3091
S':'
asbag61
(g82
g63
NtRp3092
(dp3093
g66
(dp3094
sg75
g3079
sg68
(lp3095
g61
(g62
g63
NtRp3096
(dp3097
g66
(dp3098
g74
I3
ssg75
g3092
sg68
(lp3099
S''
asbasbasbag61
(g77
g63
NtRp3100
(dp3101
g66
(dp3102
sg75
g2781
sg68
(lp3103
g61
(g82
g63
NtRp3104
(dp3105
g66
(dp3106
g86
g87
ssg75
g3100
sg68
(lp3107
S'REMOTE_ADDR'
p3108
asbag61
(g82
g63
NtRp3109
(dp3110
g66
(dp3111
g93
g94
ssg75
g3100
sg68
(lp3112
S':'
asbag61
(g82
g63
NtRp3113
(dp3114
g66
(dp3115
sg75
g3100
sg68
(lp3116
g61
(g62
g63
NtRp3117
(dp3118
g66
(dp3119
g74
I3
ssg75
g3113
sg68
(lp3120
g228
asbasbasbag61
(g77
g63
NtRp3121
(dp3122
g66
(dp3123
sg75
g2781
sg68
(lp3124
g61
(g82
g63
NtRp3125
(dp3126
g66
(dp3127
g86
g87
ssg75
g3121
sg68
(lp3128
S'REMOTE_PORT'
p3129
asbag61
(g82
g63
NtRp3130
(dp3131
g66
(dp3132
g93
g94
ssg75
g3121
sg68
(lp3133
S':'
asbag61
(g82
g63
NtRp3134
(dp3135
g66
(dp3136
sg75
g3121
sg68
(lp3137
g61
(g62
g63
NtRp3138
(dp3139
g66
(dp3140
g74
I3
ssg75
g3134
sg68
(lp3141
g1620
asbasbasbag61
(g77
g63
NtRp3142
(dp3143
g66
(dp3144
sg75
g2781
sg68
(lp3145
g61
(g82
g63
NtRp3146
(dp3147
g66
(dp3148
g86
g87
ssg75
g3142
sg68
(lp3149
S'REQUEST_METHOD'
p3150
asbag61
(g82
g63
NtRp3151
(dp3152
g66
(dp3153
g93
g94
ssg75
g3142
sg68
(lp3154
S':'
asbag61
(g82
g63
NtRp3155
(dp3156
g66
(dp3157
sg75
g3142
sg68
(lp3158
g61
(g62
g63
NtRp3159
(dp3160
g66
(dp3161
g74
I3
ssg75
g3155
sg68
(lp3162
g1642
asbasbasbag61
(g77
g63
NtRp3163
(dp3164
g66
(dp3165
sg75
g2781
sg68
(lp3166
g61
(g82
g63
NtRp3167
(dp3168
g66
(dp3169
g86
g87
ssg75
g3163
sg68
(lp3170
S'SCRIPT_NAME'
p3171
asbag61
(g82
g63
NtRp3172
(dp3173
g66
(dp3174
g93
g94
ssg75
g3163
sg68
(lp3175
S':'
asbag61
(g82
g63
NtRp3176
(dp3177
g66
(dp3178
sg75
g3163
sg68
(lp3179
g61
(g62
g63
NtRp3180
(dp3181
g66
(dp3182
g74
I3
ssg75
g3176
sg68
(lp3183
S''
asbasbasbag61
(g77
g63
NtRp3184
(dp3185
g66
(dp3186
sg75
g2781
sg68
(lp3187
g61
(g82
g63
NtRp3188
(dp3189
g66
(dp3190
g86
g87
ssg75
g3184
sg68
(lp3191
S'SERVER_NAME'
p3192
asbag61
(g82
g63
NtRp3193
(dp3194
g66
(dp3195
g93
g94
ssg75
g3184
sg68
(lp3196
S':'
asbag61
(g82
g63
NtRp3197
(dp3198
g66
(dp3199
sg75
g3184
sg68
(lp3200
g61
(g62
g63
NtRp3201
(dp3202
g66
(dp3203
g74
I3
ssg75
g3197
sg68
(lp3204
g1685
asbasbasbag61
(g77
g63
NtRp3205
(dp3206
g66
(dp3207
sg75
g2781
sg68
(lp3208
g61
(g82
g63
NtRp3209
(dp3210
g66
(dp3211
g86
g87
ssg75
g3205
sg68
(lp3212
S'SERVER_PORT'
p3213
asbag61
(g82
g63
NtRp3214
(dp3215
g66
(dp3216
g93
g94
ssg75
g3205
sg68
(lp3217
S':'
asbag61
(g82
g63
NtRp3218
(dp3219
g66
(dp3220
sg75
g3205
sg68
(lp3221
g61
(g62
g63
NtRp3222
(dp3223
g66
(dp3224
g74
I3
ssg75
g3218
sg68
(lp3225
g1707
asbasbasbag61
(g77
g63
NtRp3226
(dp3227
g66
(dp3228
sg75
g2781
sg68
(lp3229
g61
(g82
g63
NtRp3230
(dp3231
g66
(dp3232
g86
g87
ssg75
g3226
sg68
(lp3233
S'SERVER_PROTOCOL'
p3234
asbag61
(g82
g63
NtRp3235
(dp3236
g66
(dp3237
g93
g94
ssg75
g3226
sg68
(lp3238
S':'
asbag61
(g82
g63
NtRp3239
(dp3240
g66
(dp3241
sg75
g3226
sg68
(lp3242
g61
(g62
g63
NtRp3243
(dp3244
g66
(dp3245
g74
I3
ssg75
g3239
sg68
(lp3246
g1729
asbasbasbag61
(g77
g63
NtRp3247
(dp3248
g66
(dp3249
sg75
g2781
sg68
(lp3250
g61
(g82
g63
NtRp3251
(dp3252
g66
(dp3253
g86
g87
ssg75
g3247
sg68
(lp3254
S'SERVER_SOFTWARE'
p3255
asbag61
(g82
g63
NtRp3256
(dp3257
g66
(dp3258
g93
g94
ssg75
g3247
sg68
(lp3259
S':'
asbag61
(g82
g63
NtRp3260
(dp3261
g66
(dp3262
sg75
g3247
sg68
(lp3263
g61
(g62
g63
NtRp3264
(dp3265
g66
(dp3266
g74
I3
ssg75
g3260
sg68
(lp3267
g1751
asbasbasbag61
(g77
g63
NtRp3268
(dp3269
g66
(dp3270
sg75
g2781
sg68
(lp3271
g61
(g82
g63
NtRp3272
(dp3273
g66
(dp3274
g86
g87
ssg75
g3268
sg68
(lp3275
S'wsgi.errors'
p3276
asbag61
(g82
g63
NtRp3277
(dp3278
g66
(dp3279
g93
g94
ssg75
g3268
sg68
(lp3280
S':'
asbag61
(g82
g63
NtRp3281
(dp3282
g66
(dp3283
sg75
g3268
sg68
(lp3284
g61
(g62
g63
NtRp3285
(dp3286
g66
(dp3287
g74
I3
ssg75
g3281
sg68
(lp3288
S"<open file '<stderr>', mode 'w' at 0xb772d0d0>"
p3289
asbasbasbag61
(g77
g63
NtRp3290
(dp3291
g66
(dp3292
sg75
g2781
sg68
(lp3293
g61
(g82
g63
NtRp3294
(dp3295
g66
(dp3296
g86
g87
ssg75
g3290
sg68
(lp3297
S'wsgi.file_wrapper'
p3298
asbag61
(g82
g63
NtRp3299
(dp3300
g66
(dp3301
g93
g94
ssg75
g3290
sg68
(lp3302
S':'
asbag61
(g82
g63
NtRp3303
(dp3304
g66
(dp3305
sg75
g3290
sg68
(lp3306
g61
(g62
g63
NtRp3307
(dp3308
g66
(dp3309
g74
I3
ssg75
g3303
sg68
(lp3310
S'<class wsgiref.util.FileWrapper at 0x8d0326c>'
p3311
asbasbasbag61
(g77
g63
NtRp3312
(dp3313
g66
(dp3314
sg75
g2781
sg68
(lp3315
g61
(g82
g63
NtRp3316
(dp3317
g66
(dp3318
g86
g87
ssg75
g3312
sg68
(lp3319
S'wsgi.input'
p3320
asbag61
(g82
g63
NtRp3321
(dp3322
g66
(dp3323
g93
g94
ssg75
g3312
sg68
(lp3324
S':'
asbag61
(g82
g63
NtRp3325
(dp3326
g66
(dp3327
sg75
g3312
sg68
(lp3328
g61
(g62
g63
NtRp3329
(dp3330
g66
(dp3331
g74
I3
ssg75
g3325
sg68
(lp3332
S"<open file '<fdopen>', mode 'w+b' at 0xadc5e2e0>"
p3333
asbasbasbag61
(g77
g63
NtRp3334
(dp3335
g66
(dp3336
sg75
g2781
sg68
(lp3337
g61
(g82
g63
NtRp3338
(dp3339
g66
(dp3340
g86
g87
ssg75
g3334
sg68
(lp3341
S'wsgi.multiprocess'
p3342
asbag61
(g82
g63
NtRp3343
(dp3344
g66
(dp3345
g93
g94
ssg75
g3334
sg68
(lp3346
S':'
asbag61
(g82
g63
NtRp3347
(dp3348
g66
(dp3349
sg75
g3334
sg68
(lp3350
g61
(g62
g63
NtRp3351
(dp3352
g66
(dp3353
g74
I3
ssg75
g3347
sg68
(lp3354
g104
asbasbasbag61
(g77
g63
NtRp3355
(dp3356
g66
(dp3357
sg75
g2781
sg68
(lp3358
g61
(g82
g63
NtRp3359
(dp3360
g66
(dp3361
g86
g87
ssg75
g3355
sg68
(lp3362
S'wsgi.multithread'
p3363
asbag61
(g82
g63
NtRp3364
(dp3365
g66
(dp3366
g93
g94
ssg75
g3355
sg68
(lp3367
S':'
asbag61
(g82
g63
NtRp3368
(dp3369
g66
(dp3370
sg75
g3355
sg68
(lp3371
g61
(g62
g63
NtRp3372
(dp3373
g66
(dp3374
g74
I3
ssg75
g3368
sg68
(lp3375
g1990
asbasbasbag61
(g77
g63
NtRp3376
(dp3377
g66
(dp3378
sg75
g2781
sg68
(lp3379
g61
(g82
g63
NtRp3380
(dp3381
g66
(dp3382
g86
g87
ssg75
g3376
sg68
(lp3383
S'wsgi.run_once'
p3384
asbag61
(g82
g63
NtRp3385
(dp3386
g66
(dp3387
g93
g94
ssg75
g3376
sg68
(lp3388
S':'
asbag61
(g82
g63
NtRp3389
(dp3390
g66
(dp3391
sg75
g3376
sg68
(lp3392
g61
(g62
g63
NtRp3393
(dp3394
g66
(dp3395
g74
I3
ssg75
g3389
sg68
(lp3396
g104
asbasbasbag61
(g77
g63
NtRp3397
(dp3398
g66
(dp3399
sg75
g2781
sg68
(lp3400
g61
(g82
g63
NtRp3401
(dp3402
g66
(dp3403
g86
g87
ssg75
g3397
sg68
(lp3404
S'wsgi.url_scheme'
p3405
asbag61
(g82
g63
NtRp3406
(dp3407
g66
(dp3408
g93
g94
ssg75
g3397
sg68
(lp3409
S':'
asbag61
(g82
g63
NtRp3410
(dp3411
g66
(dp3412
sg75
g3397
sg68
(lp3413
g61
(g62
g63
NtRp3414
(dp3415
g66
(dp3416
g74
I3
ssg75
g3410
sg68
(lp3417
g2033
asbasbasbag61
(g77
g63
NtRp3418
(dp3419
g66
(dp3420
sg75
g2781
sg68
(lp3421
g61
(g82
g63
NtRp3422
(dp3423
g66
(dp3424
g86
g87
ssg75
g3418
sg68
(lp3425
S'wsgi.version'
p3426
asbag61
(g82
g63
NtRp3427
(dp3428
g66
(dp3429
g93
g94
ssg75
g3418
sg68
(lp3430
S':'
asbag61
(g82
g63
NtRp3431
(dp3432
g66
(dp3433
sg75
g3418
sg68
(lp3434
g61
(g62
g63
NtRp3435
(dp3436
g66
(dp3437
g74
I3
ssg75
g3431
sg68
(lp3438
S'1'
asbasbasbasbasbasbasbasbasbasbasbasbasbsS'frames'
p3439
(lp3440
(dp3441
S'file'
p3442
S'/home/piyush/web2py/gluon/restricted.py'
p3443
sS'dump'
p3444
(dp3445
S'environment'
p3446
S"{'A': <class 'gluon.html.A'>, 'Auth': <class 'gluon.tools.Auth'>, 'B': <class 'gluon.html.B'>, 'BEAUTIFY': <class 'gluon.html.BEAUTIFY'>, 'BODY': <class 'gluon.html.BODY'>, 'BR': <class 'gluon.html.BR'>, 'BUTTON': <class 'gluon.html.BUTTON'>, 'CAT': <class 'gluon.html.CAT'>, 'CENTER': <class 'gluon.html.CENTER'>, 'CLEANUP': <class 'gluon.validators.CLEANUP'>, ...}"
p3447
sS'ccode'
p3448
S'<code object <module> at 0xb576b2f0, file "/home...ications/FotoBuk/controllers/default.py", line 1>'
p3449
ssS'lnum'
p3450
I209
sS'lines'
p3451
(dp3452
I204
S'    try:'
p3453
sI205
S'        if type(code) == types.CodeType:'
p3454
sI206
S'            ccode = code'
p3455
sI207
S'        else:'
p3456
sI208
S'            ccode = compile2(code,layer)'
p3457
sI209
S'        exec ccode in environment'
p3458
sI210
S'    except HTTP:'
p3459
sI211
S'        raise'
p3460
sI212
S'    except RestrictedError:'
p3461
sI213
S'        # do not encapsulate (obfuscate) the original RestrictedError'
p3462
ssS'call'
p3463
S"(code='@auth.requires_login()\\ndef index():\\n\\tli=db(db.im...quest,db)\\n\\nresponse._vars=response._caller(show)\\n', environment={'A': <class 'gluon.html.A'>, 'Auth': <class 'gluon.tools.Auth'>, 'B': <class 'gluon.html.B'>, 'BEAUTIFY': <class 'gluon.html.BEAUTIFY'>, 'BODY': <class 'gluon.html.BODY'>, 'BR': <class 'gluon.html.BR'>, 'BUTTON': <class 'gluon.html.BUTTON'>, 'CAT': <class 'gluon.html.CAT'>, 'CENTER': <class 'gluon.html.CENTER'>, 'CLEANUP': <class 'gluon.validators.CLEANUP'>, ...}, layer='/home/piyush/web2py/applications/FotoBuk/controllers/default.py')"
p3464
sS'func'
p3465
S'restricted'
p3466
sa(dp3467
g3442
S'/home/piyush/web2py/applications/FotoBuk/controllers/default.py'
p3468
sg3444
(dp3469
sg3450
I47
sg3451
(dp3470
I36
S'    return dict(cur_user=cur_user,flag=flag,image=image, comments=comments, likes=likes, form=form, form2=form2)'
p3471
sI37
S''
sI38
S'def delete():'
p3472
sI39
S'    image = db(db.image.id==request.args(0)).select()'
p3473
sI40
S''
sI41
S'def user():'
p3474
sI42
S'\treturn dict(form=auth())'
p3475
sI43
S''
sI44
S'def download():'
p3476
sI45
S'\treturn response.download(request,db)'
p3477
ssg3463
S'()'
p3478
sg3465
S'<module>'
p3479
sa(dp3480
g3442
S'/home/piyush/web2py/gluon/globals.py'
p3481
sg3444
(dp3482
S'self'
p3483
S'undefined'
p3484
sS'f'
S'<function show>'
p3485
ssg3450
I185
sg3451
(dp3486
I180
S'        self.menu = []             # used by the default view layout'
p3487
sI181
S'        self.files = []            # used by web2py_ajax.html'
p3488
sI182
S'        self.generic_patterns = [] # patterns to allow generic views'
p3489
sI183
S"        self.delimiters = ('{{','}}')"
p3490
sI184
S'        self._vars = None'
p3491
sI185
S'        self._caller = lambda f: f()'
p3492
sI186
S'        self._view_environment = None'
p3493
sI187
S'        self._custom_commit = None'
p3494
sI188
S'        self._custom_rollback = None'
p3495
sI189
S''
ssg3463
S'(f=<function show>)'
p3496
sg3465
S'<lambda>'
p3497
sa(dp3498
g3442
S'/home/piyush/web2py/gluon/tools.py'
p3499
sg3444
(dp3500
S'action'
p3501
S'<function show>'
p3502
sS'a'
S'()'
p3503
sS'b'
g21
ssg3450
I2776
sg3451
(dp3504
I2771
S'                    flag = condition'
p3505
sI2772
S'                if not flag:'
p3506
sI2773
S'                    current.session.flash = self.messages.access_denied'
p3507
sI2774
S'                    return call_or_redirect('
p3508
sI2775
S'                        self.settings.on_failed_authorization)'
p3509
sI2776
S'                return action(*a, **b)'
p3510
sI2777
S'            f.__doc__ = action.__doc__'
p3511
sI2778
S'            f.__name__ = action.__name__'
p3512
sI2779
S'            f.__dict__.update(action.__dict__)'
p3513
sI2780
S'            return f'
p3514
ssg3463
S'(*a=(), **b={})'
p3515
sg3465
S'f'
sa(dp3516
g3442
S'/home/piyush/web2py/applications/FotoBuk/controllers/default.py'
p3517
sg3444
(dp3518
S'form2'
p3519
S'<gluon.sqlhtml.SQLFORM object>'
p3520
sS'form2.process'
p3521
S'<bound method SQLFORM.process of <gluon.sqlhtml.SQLFORM object>>'
p3522
sS').accepted'
p3523
g3484
ssg3450
I30
sg3451
(dp3524
I32
S'    \tdb.like.insert(likername=auth.user.first_name,liker=auth.user_id,like_id=image.id)'
p3525
sI33
S'    if form.process().accepted:'
p3526
sI34
S"        response.flash = 'your comment is posted'"
p3527
sI25
S'    for lik in likes:'
p3528
sI26
S'\t    if int(cur_user) == int(lik.liker):'
p3529
sI27
S'\t\t    flag=1'
p3530
sI28
S'    print flag'
p3531
sI29
S'    form2 = SQLFORM(db.like)'
p3532
sI30
S'    if form2.process().accepted:'
p3533
sI31
S"\tresponse.flash = 'You have liked the image'"
p3534
ssg3463
S'()'
p3535
sg3465
S'show'
p3536
sa(dp3537
g3442
S'/home/piyush/web2py/gluon/html.py'
p3538
sg3444
(dp3539
S'self'
p3540
S'<gluon.sqlhtml.SQLFORM object>'
p3541
sS'self.validate'
p3542
S'<bound method SQLFORM.validate of <gluon.sqlhtml.SQLFORM object>>'
p3543
sS'kwargs'
p3544
S"{'dbio': True}"
p3545
ssg3450
I2106
sg3451
(dp3546
I2101
S'        # or a function name to use as callback or None to do nothing.'
p3547
sI2102
S'        def action():'
p3548
sI2103
S'            return dict(form=SQLFORM(db.table).process(onsuccess=my_callback)'
p3549
sI2104
S'        """'
p3550
sI2105
S"        kwargs['dbio'] = kwargs.get('dbio',True) # necessary for SQLHTML forms"
p3551
sI2106
S'        self.validate(**kwargs)'
p3552
sI2107
S'        return self'
p3553
sI2108
S''
sI2109
S'    REDIRECT_JS = "window.location=\'%s\';return false"'
p3554
sI2110
S''
ssg3463
S"(self=<gluon.sqlhtml.SQLFORM object>, **kwargs={'dbio': True})"
p3555
sg3465
S'process'
p3556
sa(dp3557
g3442
S'/home/piyush/web2py/gluon/html.py'
p3558
sg3444
(dp3559
S'self'
p3560
S'<gluon.sqlhtml.SQLFORM object>'
p3561
sS'self.accepts'
p3562
S'<bound method SQLFORM.accepts of <gluon.sqlhtml.SQLFORM object>>'
p3563
sS'kwargs'
p3564
S"{'dbio': True, 'request_vars': <Storage {'_formkey': 'c07a96ef-f8ba-40f4-ad7f-f51480f56a51', '_formname': 'like/create'}>, 'session': <Storage {'_formkey[comment/create]': '93a07e07-...login]': '9e8228a6-3689-4272-bc5c-59d40c4fc0e0'}>}"
p3565
ssg3450
I2053
sg3451
(dp3566
I2048
S"        for key in ('message_onsuccess','message_onfailure','onsuccess',"
p3567
sI2049
S"                    'onfailure','next'):"
p3568
sI2050
S'            if key in kwargs:'
p3569
sI2051
S'                del kwargs[key]'
p3570
sI2052
S''
sI2053
S'        if self.accepts(**kwargs):'
p3571
sI2054
S"            if onsuccess == 'flash':"
p3572
sI2055
S'                if next:'
p3573
sI2056
S'                    current.session.flash = message_onsuccess'
p3574
sI2057
S'                else:'
p3575
ssg3463
S"(self=<gluon.sqlhtml.SQLFORM object>, **kwargs={'dbio': True, 'request_vars': <Storage {'_formkey': 'c07a96ef-f8ba-40f4-ad7f-f51480f56a51', '_formname': 'like/create'}>, 'session': <Storage {'_formkey[comment/create]': '93a07e07-...login]': '9e8228a6-3689-4272-bc5c-59d40c4fc0e0'}>})"
p3576
sg3465
S'validate'
p3577
sa(dp3578
g3442
S'/home/piyush/web2py/gluon/sqlhtml.py'
p3579
sg3444
(dp3580
S'self.vars.id'
p3581
S'None'
p3582
sS'fields'
p3583
g21
sS'self'
p3584
S'<gluon.sqlhtml.SQLFORM object>'
p3585
sS'self.vars'
p3586
S'<Storage {}>'
p3587
sS'self.table.insert'
p3588
S'<bound method Table.insert of <Table like (id,like_id,liker,likername)>>'
p3589
sS'self.table'
p3590
S'<Table like (id,like_id,liker,likername)>'
p3591
ssg3450
I1403
sg3451
(dp3592
I1398
S'                if record_id:'
p3593
sI1399
S'                    self.vars.id = self.record[self.id_field_name]'
p3594
sI1400
S'                    if fields:'
p3595
sI1401
S'                        self.table._db(self.table._id == self.record[self.id_field_name]).update(**fields)'
p3596
sI1402
S'                else:'
p3597
sI1403
S'                    self.vars.id = self.table.insert(**fields)'
p3598
sI1404
S'        self.accepted = ret'
p3599
sI1405
S'        return ret'
p3600
sI1406
S''
sI1407
S'    AUTOTYPES = {'
p3601
ssg3463
S"(self=<gluon.sqlhtml.SQLFORM object>, request_vars=<Storage {'_formkey': 'c07a96ef-f8ba-40f4-ad7f-f51480f56a51', '_formname': 'like/create'}>, session=<Storage {'_formkey[comment/create]': '93a07e07-...login]': '9e8228a6-3689-4272-bc5c-59d40c4fc0e0'}>, formname='like/create', keepvalues=False, onvalidation=None, dbio=True, hideerror=False, detect_record_change=False)"
p3602
sg3465
S'accepts'
p3603
sa(dp3604
g3442
S'/home/piyush/web2py/gluon/dal.py'
p3605
sg3444
(dp3606
S'self._listify'
p3607
S'<bound method Table._listify of <Table like (id,like_id,liker,likername)>>'
p3608
sS'fields'
p3609
g21
sS'self'
p3610
S'<Table like (id,like_id,liker,likername)>'
p3611
sS'ret'
p3612
g3484
sS'self._db._adapter'
p3613
S'<gluon.dal.SQLiteAdapter object>'
p3614
sS'self._db._adapter.insert'
p3615
S'<bound method SQLiteAdapter.insert of <gluon.dal.SQLiteAdapter object>>'
p3616
sS'self._db'
p3617
S'<DAL sqlite://storage.sqlite>'
p3618
ssg3450
I7720
sg3451
(dp3619
I7715
S'        return self._db._adapter._insert(self,self._listify(fields))'
p3620
sI7716
S''
sI7717
S'    def insert(self, **fields):'
p3621
sI7718
S'        self._attempt_upload(fields)'
p3622
sI7719
S'        if any(f(fields) for f in self._before_insert): return 0'
p3623
sI7720
S'        ret =  self._db._adapter.insert(self,self._listify(fields))'
p3624
sI7721
S'        if ret and self._after_insert:'
p3625
sI7722
S'            fields = Row(fields)'
p3626
sI7723
S'            [f(fields,ret) for f in self._after_insert]'
p3627
sI7724
S'        return ret'
p3628
ssg3463
S'(self=<Table like (id,like_id,liker,likername)>, **fields={})'
p3629
sg3465
S'insert'
p3630
sa(dp3631
g3442
S'/home/piyush/web2py/gluon/dal.py'
p3632
sg3444
(dp3633
S'e'
S'OperationalError(\'near ")": syntax error\',)'
p3634
ssg3450
I1080
sg3451
(dp3635
I1075
S'        try:'
p3636
sI1076
S'            self.execute(query)'
p3637
sI1077
S'        except Exception, e:'
p3638
sI1078
S'            if isinstance(e,self.integrity_error_class()):'
p3639
sI1079
S'                return None'
p3640
sI1080
S'            raise e'
p3641
sI1081
S"        if hasattr(table,'_primarykey'):"
p3642
sI1082
S'            return dict([(k[0].name, k[1]) for k in fields \\'
p3643
sI1083
S'                             if k[0].name in table._primarykey])'
p3644
sI1084
S'        id = self.lastrowid(table)'
p3645
ssg3463
S'(self=<gluon.dal.SQLiteAdapter object>, table=<Table like (id,like_id,liker,likername)>, fields=[])'
p3646
sg3465
g3630
sasS'pyver'
p3647
S'Python 2.7.2: /usr/bin/python'
p3648
sS'session'
p3649
g61
(g62
g63
NtRp3650
(dp3651
g66
(dp3652
sg68
(lp3653
g61
(g70
g63
NtRp3654
(dp3655
g66
(dp3656
g74
I5
ssg75
Nsg68
(lp3657
g61
(g77
g63
NtRp3658
(dp3659
g66
(dp3660
sg75
g3654
sg68
(lp3661
g61
(g82
g63
NtRp3662
(dp3663
g66
(dp3664
g86
g87
ssg75
g3658
sg68
(lp3665
S'auth'
p3666
asbag61
(g82
g63
NtRp3667
(dp3668
g66
(dp3669
g93
g94
ssg75
g3658
sg68
(lp3670
S':'
asbag61
(g82
g63
NtRp3671
(dp3672
g66
(dp3673
sg75
g3658
sg68
(lp3674
g61
(g62
g63
NtRp3675
(dp3676
g66
(dp3677
g74
I5
ssg75
g3671
sg68
(lp3678
g61
(g70
g63
NtRp3679
(dp3680
g66
(dp3681
g74
I4
ssg75
Nsg68
(lp3682
g61
(g77
g63
NtRp3683
(dp3684
g66
(dp3685
sg75
g3679
sg68
(lp3686
g61
(g82
g63
NtRp3687
(dp3688
g66
(dp3689
g86
g87
ssg75
g3683
sg68
(lp3690
S'expiration'
p3691
asbag61
(g82
g63
NtRp3692
(dp3693
g66
(dp3694
g93
g94
ssg75
g3683
sg68
(lp3695
S':'
asbag61
(g82
g63
NtRp3696
(dp3697
g66
(dp3698
sg75
g3683
sg68
(lp3699
g61
(g62
g63
NtRp3700
(dp3701
g66
(dp3702
g74
I4
ssg75
g3696
sg68
(lp3703
S'3600'
p3704
asbasbasbag61
(g77
g63
NtRp3705
(dp3706
g66
(dp3707
sg75
g3679
sg68
(lp3708
g61
(g82
g63
NtRp3709
(dp3710
g66
(dp3711
g86
g87
ssg75
g3705
sg68
(lp3712
S'hmac_key'
p3713
asbag61
(g82
g63
NtRp3714
(dp3715
g66
(dp3716
g93
g94
ssg75
g3705
sg68
(lp3717
S':'
asbag61
(g82
g63
NtRp3718
(dp3719
g66
(dp3720
sg75
g3705
sg68
(lp3721
g61
(g62
g63
NtRp3722
(dp3723
g66
(dp3724
g74
I4
ssg75
g3718
sg68
(lp3725
S'b651b504-02b8-43bc-bebc-1e7ada2c3fd8'
p3726
asbasbasbag61
(g77
g63
NtRp3727
(dp3728
g66
(dp3729
sg75
g3679
sg68
(lp3730
g61
(g82
g63
NtRp3731
(dp3732
g66
(dp3733
g86
g87
ssg75
g3727
sg68
(lp3734
S'last_visit'
p3735
asbag61
(g82
g63
NtRp3736
(dp3737
g66
(dp3738
g93
g94
ssg75
g3727
sg68
(lp3739
S':'
asbag61
(g82
g63
NtRp3740
(dp3741
g66
(dp3742
sg75
g3727
sg68
(lp3743
g61
(g62
g63
NtRp3744
(dp3745
g66
(dp3746
g74
I4
ssg75
g3740
sg68
(lp3747
S'datetime.datetime(2012, 8, 31, 9, 59, 18, 304220)'
p3748
asbasbasbag61
(g77
g63
NtRp3749
(dp3750
g66
(dp3751
sg75
g3679
sg68
(lp3752
g61
(g82
g63
NtRp3753
(dp3754
g66
(dp3755
g86
g87
ssg75
g3749
sg68
(lp3756
S'user'
p3757
asbag61
(g82
g63
NtRp3758
(dp3759
g66
(dp3760
g93
g94
ssg75
g3749
sg68
(lp3761
S':'
asbag61
(g82
g63
NtRp3762
(dp3763
g66
(dp3764
sg75
g3749
sg68
(lp3765
g61
(g62
g63
NtRp3766
(dp3767
g66
(dp3768
g74
I4
ssg75
g3762
sg68
(lp3769
g61
(g70
g63
NtRp3770
(dp3771
g66
(dp3772
g74
I3
ssg75
Nsg68
(lp3773
g61
(g77
g63
NtRp3774
(dp3775
g66
(dp3776
sg75
g3770
sg68
(lp3777
g61
(g82
g63
NtRp3778
(dp3779
g66
(dp3780
g86
g87
ssg75
g3774
sg68
(lp3781
S'email'
p3782
asbag61
(g82
g63
NtRp3783
(dp3784
g66
(dp3785
g93
g94
ssg75
g3774
sg68
(lp3786
S':'
asbag61
(g82
g63
NtRp3787
(dp3788
g66
(dp3789
sg75
g3774
sg68
(lp3790
g61
(g62
g63
NtRp3791
(dp3792
g66
(dp3793
g74
I3
ssg75
g3787
sg68
(lp3794
S'test@test.com'
p3795
asbasbasbag61
(g77
g63
NtRp3796
(dp3797
g66
(dp3798
sg75
g3770
sg68
(lp3799
g61
(g82
g63
NtRp3800
(dp3801
g66
(dp3802
g86
g87
ssg75
g3796
sg68
(lp3803
S'first_name'
p3804
asbag61
(g82
g63
NtRp3805
(dp3806
g66
(dp3807
g93
g94
ssg75
g3796
sg68
(lp3808
S':'
asbag61
(g82
g63
NtRp3809
(dp3810
g66
(dp3811
sg75
g3796
sg68
(lp3812
g61
(g62
g63
NtRp3813
(dp3814
g66
(dp3815
g74
I3
ssg75
g3809
sg68
(lp3816
S'test1'
p3817
asbasbasbag61
(g77
g63
NtRp3818
(dp3819
g66
(dp3820
sg75
g3770
sg68
(lp3821
g61
(g82
g63
NtRp3822
(dp3823
g66
(dp3824
g86
g87
ssg75
g3818
sg68
(lp3825
S'id'
p3826
asbag61
(g82
g63
NtRp3827
(dp3828
g66
(dp3829
g93
g94
ssg75
g3818
sg68
(lp3830
S':'
asbag61
(g82
g63
NtRp3831
(dp3832
g66
(dp3833
sg75
g3818
sg68
(lp3834
g61
(g62
g63
NtRp3835
(dp3836
g66
(dp3837
g74
I3
ssg75
g3831
sg68
(lp3838
S'2'
asbasbasbag61
(g77
g63
NtRp3839
(dp3840
g66
(dp3841
sg75
g3770
sg68
(lp3842
g61
(g82
g63
NtRp3843
(dp3844
g66
(dp3845
g86
g87
ssg75
g3839
sg68
(lp3846
S'last_name'
p3847
asbag61
(g82
g63
NtRp3848
(dp3849
g66
(dp3850
g93
g94
ssg75
g3839
sg68
(lp3851
S':'
asbag61
(g82
g63
NtRp3852
(dp3853
g66
(dp3854
sg75
g3839
sg68
(lp3855
g61
(g62
g63
NtRp3856
(dp3857
g66
(dp3858
g74
I3
ssg75
g3852
sg68
(lp3859
S'test2'
p3860
asbasbasbag61
(g77
g63
NtRp3861
(dp3862
g66
(dp3863
sg75
g3770
sg68
(lp3864
g61
(g82
g63
NtRp3865
(dp3866
g66
(dp3867
g86
g87
ssg75
g3861
sg68
(lp3868
S'password'
p3869
asbag61
(g82
g63
NtRp3870
(dp3871
g66
(dp3872
g93
g94
ssg75
g3861
sg68
(lp3873
S':'
asbag61
(g82
g63
NtRp3874
(dp3875
g66
(dp3876
sg75
g3861
sg68
(lp3877
g61
(g62
g63
NtRp3878
(dp3879
g66
(dp3880
g74
I3
ssg75
g3874
sg68
(lp3881
S'pbkdf2(1000,20,sha512)$bf1b0cd5effc57ad$cd5a5dc22ea4c46296a9202ea5ffd2563ba2f85c'
p3882
asbasbasbag61
(g77
g63
NtRp3883
(dp3884
g66
(dp3885
sg75
g3770
sg68
(lp3886
g61
(g82
g63
NtRp3887
(dp3888
g66
(dp3889
g86
g87
ssg75
g3883
sg68
(lp3890
S'registration_id'
p3891
asbag61
(g82
g63
NtRp3892
(dp3893
g66
(dp3894
g93
g94
ssg75
g3883
sg68
(lp3895
S':'
asbag61
(g82
g63
NtRp3896
(dp3897
g66
(dp3898
sg75
g3883
sg68
(lp3899
g61
(g62
g63
NtRp3900
(dp3901
g66
(dp3902
g74
I3
ssg75
g3896
sg68
(lp3903
S''
asbasbasbag61
(g77
g63
NtRp3904
(dp3905
g66
(dp3906
sg75
g3770
sg68
(lp3907
g61
(g82
g63
NtRp3908
(dp3909
g66
(dp3910
g86
g87
ssg75
g3904
sg68
(lp3911
S'registration_key'
p3912
asbag61
(g82
g63
NtRp3913
(dp3914
g66
(dp3915
g93
g94
ssg75
g3904
sg68
(lp3916
S':'
asbag61
(g82
g63
NtRp3917
(dp3918
g66
(dp3919
sg75
g3904
sg68
(lp3920
g61
(g62
g63
NtRp3921
(dp3922
g66
(dp3923
g74
I3
ssg75
g3917
sg68
(lp3924
S''
asbasbasbag61
(g77
g63
NtRp3925
(dp3926
g66
(dp3927
sg75
g3770
sg68
(lp3928
g61
(g82
g63
NtRp3929
(dp3930
g66
(dp3931
g86
g87
ssg75
g3925
sg68
(lp3932
S'reset_password_key'
p3933
asbag61
(g82
g63
NtRp3934
(dp3935
g66
(dp3936
g93
g94
ssg75
g3925
sg68
(lp3937
S':'
asbag61
(g82
g63
NtRp3938
(dp3939
g66
(dp3940
sg75
g3925
sg68
(lp3941
g61
(g62
g63
NtRp3942
(dp3943
g66
(dp3944
g74
I3
ssg75
g3938
sg68
(lp3945
S''
asbasbasbasbasbasbasbag61
(g77
g63
NtRp3946
(dp3947
g66
(dp3948
sg75
g3679
sg68
(lp3949
g61
(g82
g63
NtRp3950
(dp3951
g66
(dp3952
g86
g87
ssg75
g3946
sg68
(lp3953
S'user_groups'
p3954
asbag61
(g82
g63
NtRp3955
(dp3956
g66
(dp3957
g93
g94
ssg75
g3946
sg68
(lp3958
S':'
asbag61
(g82
g63
NtRp3959
(dp3960
g66
(dp3961
sg75
g3946
sg68
(lp3962
g61
(g62
g63
NtRp3963
(dp3964
g66
(dp3965
g74
I4
ssg75
g3959
sg68
(lp3966
g61
(g70
g63
NtRp3967
(dp3968
g66
(dp3969
g74
I3
ssg75
Nsg68
(lp3970
g61
(g77
g63
NtRp3971
(dp3972
g66
(dp3973
sg75
g3967
sg68
(lp3974
g61
(g82
g63
NtRp3975
(dp3976
g66
(dp3977
g86
g87
ssg75
g3971
sg68
(lp3978
S'2'
asbag61
(g82
g63
NtRp3979
(dp3980
g66
(dp3981
g93
g94
ssg75
g3971
sg68
(lp3982
S':'
asbag61
(g82
g63
NtRp3983
(dp3984
g66
(dp3985
sg75
g3971
sg68
(lp3986
g61
(g62
g63
NtRp3987
(dp3988
g66
(dp3989
g74
I3
ssg75
g3983
sg68
(lp3990
S'user_2'
p3991
asbasbasbasbasbasbasbasbasbasbasbag61
(g77
g63
NtRp3992
(dp3993
g66
(dp3994
sg75
g3654
sg68
(lp3995
g61
(g82
g63
NtRp3996
(dp3997
g66
(dp3998
g86
g87
ssg75
g3992
sg68
(lp3999
S'flash'
p4000
asbag61
(g82
g63
NtRp4001
(dp4002
g66
(dp4003
g93
g94
ssg75
g3992
sg68
(lp4004
S':'
asbag61
(g82
g63
NtRp4005
(dp4006
g66
(dp4007
sg75
g3992
sg68
(lp4008
g61
(g62
g63
NtRp4009
(dp4010
g66
(dp4011
g74
I5
ssg75
g4005
sg68
(lp4012
S'None'
p4013
asbasbasbag61
(g77
g63
NtRp4014
(dp4015
g66
(dp4016
sg75
g3654
sg68
(lp4017
g61
(g82
g63
NtRp4018
(dp4019
g66
(dp4020
g86
g87
ssg75
g4014
sg68
(lp4021
S'last_orderby'
p4022
asbag61
(g82
g63
NtRp4023
(dp4024
g66
(dp4025
g93
g94
ssg75
g4014
sg68
(lp4026
S':'
asbag61
(g82
g63
NtRp4027
(dp4028
g66
(dp4029
sg75
g4014
sg68
(lp4030
g61
(g62
g63
NtRp4031
(dp4032
g66
(dp4033
g74
I5
ssg75
g4027
sg68
(lp4034
S'None'
p4035
asbasbasbag61
(g77
g63
NtRp4036
(dp4037
g66
(dp4038
sg75
g3654
sg68
(lp4039
g61
(g82
g63
NtRp4040
(dp4041
g66
(dp4042
g86
g87
ssg75
g4036
sg68
(lp4043
S'last_query'
p4044
asbag61
(g82
g63
NtRp4045
(dp4046
g66
(dp4047
g93
g94
ssg75
g4036
sg68
(lp4048
S':'
asbag61
(g82
g63
NtRp4049
(dp4050
g66
(dp4051
sg75
g4036
sg68
(lp4052
g61
(g62
g63
NtRp4053
(dp4054
g66
(dp4055
g74
I5
ssg75
g4049
sg68
(lp4056
S'db.image.id>0'
p4057
asbasbasbasbasbsS'etype'
p4058
S"<class 'sqlite3.OperationalError'>"
p4059
sS'date'
p4060
S'Fri Aug 31 10:03:13 2012'
p4061
sS'response'
p4062
g61
(g62
g63
NtRp4063
(dp4064
g66
(dp4065
sg68
(lp4066
g61
(g70
g63
NtRp4067
(dp4068
g66
(dp4069
g74
I5
ssg75
Nsg68
(lp4070
g61
(g77
g63
NtRp4071
(dp4072
g66
(dp4073
sg75
g4067
sg68
(lp4074
g61
(g82
g63
NtRp4075
(dp4076
g66
(dp4077
g86
g87
ssg75
g4071
sg68
(lp4078
g171
asbag61
(g82
g63
NtRp4079
(dp4080
g66
(dp4081
g93
g94
ssg75
g4071
sg68
(lp4082
S':'
asbag61
(g82
g63
NtRp4083
(dp4084
g66
(dp4085
sg75
g4071
sg68
(lp4086
g61
(g62
g63
NtRp4087
(dp4088
g66
(dp4089
g74
I5
ssg75
g4083
sg68
(lp4090
S'<cStringIO.StringO object at 0xaecb9d00>'
p4091
asbasbasbag61
(g77
g63
NtRp4092
(dp4093
g66
(dp4094
sg75
g4067
sg68
(lp4095
g61
(g82
g63
NtRp4096
(dp4097
g66
(dp4098
g86
g87
ssg75
g4092
sg68
(lp4099
g259
asbag61
(g82
g63
NtRp4100
(dp4101
g66
(dp4102
g93
g94
ssg75
g4092
sg68
(lp4103
S':'
asbag61
(g82
g63
NtRp4104
(dp4105
g66
(dp4106
sg75
g4092
sg68
(lp4107
g61
(g62
g63
NtRp4108
(dp4109
g66
(dp4110
g74
I5
ssg75
g4104
sg68
(lp4111
g61
(g70
g63
NtRp4112
(dp4113
g66
(dp4114
g74
I4
ssg75
Nsg68
(lp4115
g61
(g77
g63
NtRp4116
(dp4117
g66
(dp4118
sg75
g4112
sg68
(lp4119
g61
(g82
g63
NtRp4120
(dp4121
g66
(dp4122
g86
g87
ssg75
g4116
sg68
(lp4123
S'session_id_fotobuk'
p4124
asbag61
(g82
g63
NtRp4125
(dp4126
g66
(dp4127
g93
g94
ssg75
g4116
sg68
(lp4128
S':'
asbag61
(g82
g63
NtRp4129
(dp4130
g66
(dp4131
sg75
g4116
sg68
(lp4132
g61
(g62
g63
NtRp4133
(dp4134
g66
(dp4135
g74
I4
ssg75
g4129
sg68
(lp4136
g491
ag61
(g70
g63
NtRp4137
(dp4138
g66
(dp4139
g74
I3
ssg75
Nsg68
(lp4140
g61
(g77
g63
NtRp4141
(dp4142
g66
(dp4143
sg75
g4137
sg68
(lp4144
g61
(g82
g63
NtRp4145
(dp4146
g66
(dp4147
g86
g87
ssg75
g4141
sg68
(lp4148
g310
asbag61
(g82
g63
NtRp4149
(dp4150
g66
(dp4151
g93
g94
ssg75
g4141
sg68
(lp4152
S':'
asbag61
(g82
g63
NtRp4153
(dp4154
g66
(dp4155
sg75
g4141
sg68
(lp4156
g61
(g62
g63
NtRp4157
(dp4158
g66
(dp4159
g74
I3
ssg75
g4153
sg68
(lp4160
S''
asbasbasbag61
(g77
g63
NtRp4161
(dp4162
g66
(dp4163
sg75
g4137
sg68
(lp4164
g61
(g82
g63
NtRp4165
(dp4166
g66
(dp4167
g86
g87
ssg75
g4161
sg68
(lp4168
g331
asbag61
(g82
g63
NtRp4169
(dp4170
g66
(dp4171
g93
g94
ssg75
g4161
sg68
(lp4172
S':'
asbag61
(g82
g63
NtRp4173
(dp4174
g66
(dp4175
sg75
g4161
sg68
(lp4176
g61
(g62
g63
NtRp4177
(dp4178
g66
(dp4179
g74
I3
ssg75
g4173
sg68
(lp4180
S''
asbasbasbag61
(g77
g63
NtRp4181
(dp4182
g66
(dp4183
sg75
g4137
sg68
(lp4184
g61
(g82
g63
NtRp4185
(dp4186
g66
(dp4187
g86
g87
ssg75
g4181
sg68
(lp4188
g352
asbag61
(g82
g63
NtRp4189
(dp4190
g66
(dp4191
g93
g94
ssg75
g4181
sg68
(lp4192
S':'
asbag61
(g82
g63
NtRp4193
(dp4194
g66
(dp4195
sg75
g4181
sg68
(lp4196
g61
(g62
g63
NtRp4197
(dp4198
g66
(dp4199
g74
I3
ssg75
g4193
sg68
(lp4200
S''
asbasbasbag61
(g77
g63
NtRp4201
(dp4202
g66
(dp4203
sg75
g4137
sg68
(lp4204
g61
(g82
g63
NtRp4205
(dp4206
g66
(dp4207
g86
g87
ssg75
g4201
sg68
(lp4208
g373
asbag61
(g82
g63
NtRp4209
(dp4210
g66
(dp4211
g93
g94
ssg75
g4201
sg68
(lp4212
S':'
asbag61
(g82
g63
NtRp4213
(dp4214
g66
(dp4215
sg75
g4201
sg68
(lp4216
g61
(g62
g63
NtRp4217
(dp4218
g66
(dp4219
g74
I3
ssg75
g4213
sg68
(lp4220
S''
asbasbasbag61
(g77
g63
NtRp4221
(dp4222
g66
(dp4223
sg75
g4137
sg68
(lp4224
g61
(g82
g63
NtRp4225
(dp4226
g66
(dp4227
g86
g87
ssg75
g4221
sg68
(lp4228
g394
asbag61
(g82
g63
NtRp4229
(dp4230
g66
(dp4231
g93
g94
ssg75
g4221
sg68
(lp4232
S':'
asbag61
(g82
g63
NtRp4233
(dp4234
g66
(dp4235
sg75
g4221
sg68
(lp4236
g61
(g62
g63
NtRp4237
(dp4238
g66
(dp4239
g74
I3
ssg75
g4233
sg68
(lp4240
S''
asbasbasbag61
(g77
g63
NtRp4241
(dp4242
g66
(dp4243
sg75
g4137
sg68
(lp4244
g61
(g82
g63
NtRp4245
(dp4246
g66
(dp4247
g86
g87
ssg75
g4241
sg68
(lp4248
g415
asbag61
(g82
g63
NtRp4249
(dp4250
g66
(dp4251
g93
g94
ssg75
g4241
sg68
(lp4252
S':'
asbag61
(g82
g63
NtRp4253
(dp4254
g66
(dp4255
sg75
g4241
sg68
(lp4256
g61
(g62
g63
NtRp4257
(dp4258
g66
(dp4259
g74
I3
ssg75
g4253
sg68
(lp4260
S'/'
asbasbasbag61
(g77
g63
NtRp4261
(dp4262
g66
(dp4263
sg75
g4137
sg68
(lp4264
g61
(g82
g63
NtRp4265
(dp4266
g66
(dp4267
g86
g87
ssg75
g4261
sg68
(lp4268
g436
asbag61
(g82
g63
NtRp4269
(dp4270
g66
(dp4271
g93
g94
ssg75
g4261
sg68
(lp4272
S':'
asbag61
(g82
g63
NtRp4273
(dp4274
g66
(dp4275
sg75
g4261
sg68
(lp4276
g61
(g62
g63
NtRp4277
(dp4278
g66
(dp4279
g74
I3
ssg75
g4273
sg68
(lp4280
S''
asbasbasbag61
(g77
g63
NtRp4281
(dp4282
g66
(dp4283
sg75
g4137
sg68
(lp4284
g61
(g82
g63
NtRp4285
(dp4286
g66
(dp4287
g86
g87
ssg75
g4281
sg68
(lp4288
g457
asbag61
(g82
g63
NtRp4289
(dp4290
g66
(dp4291
g93
g94
ssg75
g4281
sg68
(lp4292
S':'
asbag61
(g82
g63
NtRp4293
(dp4294
g66
(dp4295
sg75
g4281
sg68
(lp4296
g61
(g62
g63
NtRp4297
(dp4298
g66
(dp4299
g74
I3
ssg75
g4293
sg68
(lp4300
S''
asbasbasbasbasbasbasbasbasbasbasbag61
(g77
g63
NtRp4301
(dp4302
g66
(dp4303
sg75
g4067
sg68
(lp4304
g61
(g82
g63
NtRp4305
(dp4306
g66
(dp4307
g86
g87
ssg75
g4301
sg68
(lp4308
S'delimiters'
p4309
asbag61
(g82
g63
NtRp4310
(dp4311
g66
(dp4312
g93
g94
ssg75
g4301
sg68
(lp4313
S':'
asbag61
(g82
g63
NtRp4314
(dp4315
g66
(dp4316
sg75
g4301
sg68
(lp4317
g61
(g62
g63
NtRp4318
(dp4319
g66
(dp4320
g74
I5
ssg75
g4314
sg68
(lp4321
g61
(g70
g63
NtRp4322
(dp4323
g66
(dp4324
g74
I4
ssg75
Nsg68
(lp4325
g61
(g77
g63
NtRp4326
(dp4327
g66
(dp4328
sg75
g4322
sg68
(lp4329
g61
(g82
g63
NtRp4330
(dp4331
g66
(dp4332
sg75
g4326
sg68
(lp4333
g61
(g62
g63
NtRp4334
(dp4335
g66
(dp4336
g74
I4
ssg75
g4330
sg68
(lp4337
S'{{'
p4338
asbasbasbag61
(g77
g63
NtRp4339
(dp4340
g66
(dp4341
sg75
g4322
sg68
(lp4342
g61
(g82
g63
NtRp4343
(dp4344
g66
(dp4345
sg75
g4339
sg68
(lp4346
g61
(g62
g63
NtRp4347
(dp4348
g66
(dp4349
g74
I4
ssg75
g4343
sg68
(lp4350
S'}}'
p4351
asbasbasbasbasbasbasbag61
(g77
g63
NtRp4352
(dp4353
g66
(dp4354
sg75
g4067
sg68
(lp4355
g61
(g82
g63
NtRp4356
(dp4357
g66
(dp4358
g86
g87
ssg75
g4352
sg68
(lp4359
S'files'
p4360
asbag61
(g82
g63
NtRp4361
(dp4362
g66
(dp4363
g93
g94
ssg75
g4352
sg68
(lp4364
S':'
asbag61
(g82
g63
NtRp4365
(dp4366
g66
(dp4367
sg75
g4352
sg68
(lp4368
g61
(g62
g63
NtRp4369
(dp4370
g66
(dp4371
g74
I5
ssg75
g4365
sg68
(lp4372
g61
(g70
g63
NtRp4373
(dp4374
g66
(dp4375
g74
I4
ssg75
Nsg68
(lp4376
sbasbasbasbag61
(g77
g63
NtRp4377
(dp4378
g66
(dp4379
sg75
g4067
sg68
(lp4380
g61
(g82
g63
NtRp4381
(dp4382
g66
(dp4383
g86
g87
ssg75
g4377
sg68
(lp4384
S'flash'
p4385
asbag61
(g82
g63
NtRp4386
(dp4387
g66
(dp4388
g93
g94
ssg75
g4377
sg68
(lp4389
S':'
asbag61
(g82
g63
NtRp4390
(dp4391
g66
(dp4392
sg75
g4377
sg68
(lp4393
g61
(g62
g63
NtRp4394
(dp4395
g66
(dp4396
g74
I5
ssg75
g4390
sg68
(lp4397
S''
asbasbasbag61
(g77
g63
NtRp4398
(dp4399
g66
(dp4400
sg75
g4067
sg68
(lp4401
g61
(g82
g63
NtRp4402
(dp4403
g66
(dp4404
g86
g87
ssg75
g4398
sg68
(lp4405
S'generic_patterns'
p4406
asbag61
(g82
g63
NtRp4407
(dp4408
g66
(dp4409
g93
g94
ssg75
g4398
sg68
(lp4410
S':'
asbag61
(g82
g63
NtRp4411
(dp4412
g66
(dp4413
sg75
g4398
sg68
(lp4414
g61
(g62
g63
NtRp4415
(dp4416
g66
(dp4417
g74
I5
ssg75
g4411
sg68
(lp4418
g61
(g70
g63
NtRp4419
(dp4420
g66
(dp4421
g74
I4
ssg75
Nsg68
(lp4422
sbasbasbasbag61
(g77
g63
NtRp4423
(dp4424
g66
(dp4425
sg75
g4067
sg68
(lp4426
g61
(g82
g63
NtRp4427
(dp4428
g66
(dp4429
g86
g87
ssg75
g4423
sg68
(lp4430
S'google_analytics_id'
p4431
asbag61
(g82
g63
NtRp4432
(dp4433
g66
(dp4434
g93
g94
ssg75
g4423
sg68
(lp4435
S':'
asbag61
(g82
g63
NtRp4436
(dp4437
g66
(dp4438
sg75
g4423
sg68
(lp4439
g61
(g62
g63
NtRp4440
(dp4441
g66
(dp4442
g74
I5
ssg75
g4436
sg68
(lp4443
S'None'
p4444
asbasbasbag61
(g77
g63
NtRp4445
(dp4446
g66
(dp4447
sg75
g4067
sg68
(lp4448
g61
(g82
g63
NtRp4449
(dp4450
g66
(dp4451
g86
g87
ssg75
g4445
sg68
(lp4452
S'headers'
p4453
asbag61
(g82
g63
NtRp4454
(dp4455
g66
(dp4456
g93
g94
ssg75
g4445
sg68
(lp4457
S':'
asbag61
(g82
g63
NtRp4458
(dp4459
g66
(dp4460
sg75
g4445
sg68
(lp4461
g61
(g62
g63
NtRp4462
(dp4463
g66
(dp4464
g74
I5
ssg75
g4458
sg68
(lp4465
g61
(g70
g63
NtRp4466
(dp4467
g66
(dp4468
g74
I4
ssg75
Nsg68
(lp4469
g61
(g77
g63
NtRp4470
(dp4471
g66
(dp4472
sg75
g4466
sg68
(lp4473
g61
(g82
g63
NtRp4474
(dp4475
g66
(dp4476
g86
g87
ssg75
g4470
sg68
(lp4477
S'Cache-Control'
p4478
asbag61
(g82
g63
NtRp4479
(dp4480
g66
(dp4481
g93
g94
ssg75
g4470
sg68
(lp4482
S':'
asbag61
(g82
g63
NtRp4483
(dp4484
g66
(dp4485
sg75
g4470
sg68
(lp4486
g61
(g62
g63
NtRp4487
(dp4488
g66
(dp4489
g74
I4
ssg75
g4483
sg68
(lp4490
S'no-store, no-cache, must-revalidate, post-check=0, pre-check=0'
p4491
asbasbasbag61
(g77
g63
NtRp4492
(dp4493
g66
(dp4494
sg75
g4466
sg68
(lp4495
g61
(g82
g63
NtRp4496
(dp4497
g66
(dp4498
g86
g87
ssg75
g4492
sg68
(lp4499
S'Content-Type'
p4500
asbag61
(g82
g63
NtRp4501
(dp4502
g66
(dp4503
g93
g94
ssg75
g4492
sg68
(lp4504
S':'
asbag61
(g82
g63
NtRp4505
(dp4506
g66
(dp4507
sg75
g4492
sg68
(lp4508
g61
(g62
g63
NtRp4509
(dp4510
g66
(dp4511
g74
I4
ssg75
g4505
sg68
(lp4512
S'text/html; charset=utf-8'
p4513
asbasbasbag61
(g77
g63
NtRp4514
(dp4515
g66
(dp4516
sg75
g4466
sg68
(lp4517
g61
(g82
g63
NtRp4518
(dp4519
g66
(dp4520
g86
g87
ssg75
g4514
sg68
(lp4521
S'Expires'
p4522
asbag61
(g82
g63
NtRp4523
(dp4524
g66
(dp4525
g93
g94
ssg75
g4514
sg68
(lp4526
S':'
asbag61
(g82
g63
NtRp4527
(dp4528
g66
(dp4529
sg75
g4514
sg68
(lp4530
g61
(g62
g63
NtRp4531
(dp4532
g66
(dp4533
g74
I4
ssg75
g4527
sg68
(lp4534
S'Fri, 31 Aug 2012 04:33:13 GMT'
p4535
asbasbasbag61
(g77
g63
NtRp4536
(dp4537
g66
(dp4538
sg75
g4466
sg68
(lp4539
g61
(g82
g63
NtRp4540
(dp4541
g66
(dp4542
g86
g87
ssg75
g4536
sg68
(lp4543
S'Pragma'
p4544
asbag61
(g82
g63
NtRp4545
(dp4546
g66
(dp4547
g93
g94
ssg75
g4536
sg68
(lp4548
S':'
asbag61
(g82
g63
NtRp4549
(dp4550
g66
(dp4551
sg75
g4536
sg68
(lp4552
g61
(g62
g63
NtRp4553
(dp4554
g66
(dp4555
g74
I4
ssg75
g4549
sg68
(lp4556
S'no-cache'
p4557
asbasbasbag61
(g77
g63
NtRp4558
(dp4559
g66
(dp4560
sg75
g4466
sg68
(lp4561
g61
(g82
g63
NtRp4562
(dp4563
g66
(dp4564
g86
g87
ssg75
g4558
sg68
(lp4565
S'X-Powered-By'
p4566
asbag61
(g82
g63
NtRp4567
(dp4568
g66
(dp4569
g93
g94
ssg75
g4558
sg68
(lp4570
S':'
asbag61
(g82
g63
NtRp4571
(dp4572
g66
(dp4573
sg75
g4558
sg68
(lp4574
g61
(g62
g63
NtRp4575
(dp4576
g66
(dp4577
g74
I4
ssg75
g4571
sg68
(lp4578
S'web2py'
p4579
asbasbasbasbasbasbasbag61
(g77
g63
NtRp4580
(dp4581
g66
(dp4582
sg75
g4067
sg68
(lp4583
g61
(g82
g63
NtRp4584
(dp4585
g66
(dp4586
g86
g87
ssg75
g4580
sg68
(lp4587
S'menu'
p4588
asbag61
(g82
g63
NtRp4589
(dp4590
g66
(dp4591
g93
g94
ssg75
g4580
sg68
(lp4592
S':'
asbag61
(g82
g63
NtRp4593
(dp4594
g66
(dp4595
sg75
g4580
sg68
(lp4596
g61
(g62
g63
NtRp4597
(dp4598
g66
(dp4599
g74
I5
ssg75
g4593
sg68
(lp4600
g61
(g70
g63
NtRp4601
(dp4602
g66
(dp4603
g74
I4
ssg75
Nsg68
(lp4604
g61
(g77
g63
NtRp4605
(dp4606
g66
(dp4607
sg75
g4601
sg68
(lp4608
g61
(g82
g63
NtRp4609
(dp4610
g66
(dp4611
sg75
g4605
sg68
(lp4612
g61
(g62
g63
NtRp4613
(dp4614
g66
(dp4615
g74
I4
ssg75
g4609
sg68
(lp4616
g61
(g70
g63
NtRp4617
(dp4618
g66
(dp4619
g74
I3
ssg75
Nsg68
(lp4620
g61
(g77
g63
NtRp4621
(dp4622
g66
(dp4623
sg75
g4617
sg68
(lp4624
g61
(g82
g63
NtRp4625
(dp4626
g66
(dp4627
sg75
g4621
sg68
(lp4628
g61
(g62
g63
NtRp4629
(dp4630
g66
(dp4631
g74
I3
ssg75
g4625
sg68
(lp4632
cgluon.languages
lazyT_unpickle
p4633
(S's\x04\x00\x00\x00Home'
tRp4634
asbasbasbag61
(g77
g63
NtRp4635
(dp4636
g66
(dp4637
sg75
g4617
sg68
(lp4638
g61
(g82
g63
NtRp4639
(dp4640
g66
(dp4641
sg75
g4635
sg68
(lp4642
g61
(g62
g63
NtRp4643
(dp4644
g66
(dp4645
g74
I3
ssg75
g4639
sg68
(lp4646
g104
asbasbasbag61
(g77
g63
NtRp4647
(dp4648
g66
(dp4649
sg75
g4617
sg68
(lp4650
g61
(g82
g63
NtRp4651
(dp4652
g66
(dp4653
sg75
g4647
sg68
(lp4654
g61
(g62
g63
NtRp4655
(dp4656
g66
(dp4657
g74
I3
ssg75
g4651
sg68
(lp4658
S'/FotoBuk/default/index'
p4659
asbasbasbag61
(g77
g63
NtRp4660
(dp4661
g66
(dp4662
sg75
g4617
sg68
(lp4663
g61
(g82
g63
NtRp4664
(dp4665
g66
(dp4666
sg75
g4660
sg68
(lp4667
g61
(g62
g63
NtRp4668
(dp4669
g66
(dp4670
g74
I3
ssg75
g4664
sg68
(lp4671
g61
(g70
g63
NtRp4672
(dp4673
g66
(dp4674
g74
I2
ssg75
Nsg68
(lp4675
sbasbasbasbasbasbasbasbag61
(g77
g63
NtRp4676
(dp4677
g66
(dp4678
sg75
g4601
sg68
(lp4679
g61
(g82
g63
NtRp4680
(dp4681
g66
(dp4682
sg75
g4676
sg68
(lp4683
g61
(g62
g63
NtRp4684
(dp4685
g66
(dp4686
g74
I4
ssg75
g4680
sg68
(lp4687
g61
(g70
g63
NtRp4688
(dp4689
g66
(dp4690
g74
I3
ssg75
Nsg68
(lp4691
g61
(g77
g63
NtRp4692
(dp4693
g66
(dp4694
sg75
g4688
sg68
(lp4695
g61
(g82
g63
NtRp4696
(dp4697
g66
(dp4698
sg75
g4692
sg68
(lp4699
g61
(g62
g63
NtRp4700
(dp4701
g66
(dp4702
g74
I3
ssg75
g4696
sg68
(lp4703
g61
(cgluon.html
SPAN
p4704
g63
NtRp4705
(dp4706
g66
(dp4707
g86
S'color:yellow'
p4708
ssg75
Nsg68
(lp4709
g4579
asbasbasbasbag61
(g77
g63
NtRp4710
(dp4711
g66
(dp4712
sg75
g4688
sg68
(lp4713
g61
(g82
g63
NtRp4714
(dp4715
g66
(dp4716
sg75
g4710
sg68
(lp4717
g61
(g62
g63
NtRp4718
(dp4719
g66
(dp4720
g74
I3
ssg75
g4714
sg68
(lp4721
g104
asbasbasbag61
(g77
g63
NtRp4722
(dp4723
g66
(dp4724
sg75
g4688
sg68
(lp4725
g61
(g82
g63
NtRp4726
(dp4727
g66
(dp4728
sg75
g4722
sg68
(lp4729
g61
(g62
g63
NtRp4730
(dp4731
g66
(dp4732
g74
I3
ssg75
g4726
sg68
(lp4733
S'http://web2py.com'
p4734
asbasbasbag61
(g77
g63
NtRp4735
(dp4736
g66
(dp4737
sg75
g4688
sg68
(lp4738
g61
(g82
g63
NtRp4739
(dp4740
g66
(dp4741
sg75
g4735
sg68
(lp4742
g61
(g62
g63
NtRp4743
(dp4744
g66
(dp4745
g74
I3
ssg75
g4739
sg68
(lp4746
g61
(g70
g63
NtRp4747
(dp4748
g66
(dp4749
g74
I2
ssg75
Nsg68
(lp4750
g61
(g77
g63
NtRp4751
(dp4752
g66
(dp4753
sg75
g4747
sg68
(lp4754
g61
(g82
g63
NtRp4755
(dp4756
g66
(dp4757
sg75
g4751
sg68
(lp4758
g61
(g62
g63
NtRp4759
(dp4760
g66
(dp4761
g74
I2
ssg75
g4755
sg68
(lp4762
g61
(g70
g63
NtRp4763
(dp4764
g66
(dp4765
g74
I1
ssg75
Nsg68
(lp4766
g61
(g77
g63
NtRp4767
(dp4768
g66
(dp4769
sg75
g4763
sg68
(lp4770
g61
(g82
g63
NtRp4771
(dp4772
g66
(dp4773
sg75
g4767
sg68
(lp4774
g61
(g62
g63
NtRp4775
(dp4776
g66
(dp4777
g74
I1
ssg75
g4771
sg68
(lp4778
g4633
(S's\x08\x00\x00\x00My Sites'
tRp4779
asbasbasbag61
(g77
g63
NtRp4780
(dp4781
g66
(dp4782
sg75
g4763
sg68
(lp4783
g61
(g82
g63
NtRp4784
(dp4785
g66
(dp4786
sg75
g4780
sg68
(lp4787
g61
(g62
g63
NtRp4788
(dp4789
g66
(dp4790
g74
I1
ssg75
g4784
sg68
(lp4791
I00
asbasbasbag61
(g77
g63
NtRp4792
(dp4793
g66
(dp4794
sg75
g4763
sg68
(lp4795
g61
(g82
g63
NtRp4796
(dp4797
g66
(dp4798
sg75
g4792
sg68
(lp4799
g61
(g62
g63
NtRp4800
(dp4801
g66
(dp4802
g74
I1
ssg75
g4796
sg68
(lp4803
S'/admin/default/site'
p4804
asbasbasbasbasbasbasbag61
(g77
g63
NtRp4805
(dp4806
g66
(dp4807
sg75
g4747
sg68
(lp4808
g61
(g82
g63
NtRp4809
(dp4810
g66
(dp4811
sg75
g4805
sg68
(lp4812
g61
(g62
g63
NtRp4813
(dp4814
g66
(dp4815
g74
I2
ssg75
g4809
sg68
(lp4816
g61
(g70
g63
NtRp4817
(dp4818
g66
(dp4819
g74
I1
ssg75
Nsg68
(lp4820
g61
(g77
g63
NtRp4821
(dp4822
g66
(dp4823
sg75
g4817
sg68
(lp4824
g61
(g82
g63
NtRp4825
(dp4826
g66
(dp4827
sg75
g4821
sg68
(lp4828
g61
(g62
g63
NtRp4829
(dp4830
g66
(dp4831
g74
I1
ssg75
g4825
sg68
(lp4832
g4633
(S's\x08\x00\x00\x00This App'
tRp4833
asbasbasbag61
(g77
g63
NtRp4834
(dp4835
g66
(dp4836
sg75
g4817
sg68
(lp4837
g61
(g82
g63
NtRp4838
(dp4839
g66
(dp4840
sg75
g4834
sg68
(lp4841
g61
(g62
g63
NtRp4842
(dp4843
g66
(dp4844
g74
I1
ssg75
g4838
sg68
(lp4845
I00
asbasbasbag61
(g77
g63
NtRp4846
(dp4847
g66
(dp4848
sg75
g4817
sg68
(lp4849
g61
(g82
g63
NtRp4850
(dp4851
g66
(dp4852
sg75
g4846
sg68
(lp4853
g61
(g62
g63
NtRp4854
(dp4855
g66
(dp4856
g74
I1
ssg75
g4850
sg68
(lp4857
S'/admin/default/design/FotoBuk'
p4858
asbasbasbag61
(g77
g63
NtRp4859
(dp4860
g66
(dp4861
sg75
g4817
sg68
(lp4862
g61
(g82
g63
NtRp4863
(dp4864
g66
(dp4865
sg75
g4859
sg68
(lp4866
g61
(g62
g63
NtRp4867
(dp4868
g66
(dp4869
g74
I1
ssg75
g4863
sg68
(lp4870
(lp4871
(g4633
(S's\n\x00\x00\x00Controller'
tRp4872
I00
S'/admin/default/edit/FotoBuk/controllers/default.py'
tp4873
a(g4633
(S's\x04\x00\x00\x00View'
tRp4874
I00
S'/admin/default/edit/FotoBuk/views/default/show.html'
tp4875
a(g4633
(S's\x06\x00\x00\x00Layout'
tRp4876
I00
S'/admin/default/edit/FotoBuk/views/layout.html'
tp4877
a(g4633
(S's\n\x00\x00\x00Stylesheet'
tRp4878
I00
S'/admin/default/edit/FotoBuk/static/css/web2py.css'
tp4879
a(g4633
(S's\x08\x00\x00\x00DB Model'
tRp4880
I00
S'/admin/default/edit/FotoBuk/models/db.py'
tp4881
a(g4633
(S's\n\x00\x00\x00Menu Model'
tRp4882
I00
S'/admin/default/edit/FotoBuk/models/menu.py'
tp4883
a(g4633
(S's\x08\x00\x00\x00Database'
tRp4884
I00
S'/FotoBuk/appadmin/index'
tp4885
a(g4633
(S's\x06\x00\x00\x00Errors'
tRp4886
I00
S'/admin/default/errors/FotoBuk'
tp4887
a(g4633
(S's\x05\x00\x00\x00About'
tRp4888
I00
S'/admin/default/about/FotoBuk'
tp4889
aasbasbasbasbasbasbasbag61
(g77
g63
NtRp4890
(dp4891
g66
(dp4892
sg75
g4747
sg68
(lp4893
g61
(g82
g63
NtRp4894
(dp4895
g66
(dp4896
sg75
g4890
sg68
(lp4897
g61
(g62
g63
NtRp4898
(dp4899
g66
(dp4900
g74
I2
ssg75
g4894
sg68
(lp4901
g61
(g70
g63
NtRp4902
(dp4903
g66
(dp4904
g74
I1
ssg75
Nsg68
(lp4905
g61
(g77
g63
NtRp4906
(dp4907
g66
(dp4908
sg75
g4902
sg68
(lp4909
g61
(g82
g63
NtRp4910
(dp4911
g66
(dp4912
sg75
g4906
sg68
(lp4913
g61
(g62
g63
NtRp4914
(dp4915
g66
(dp4916
g74
I1
ssg75
g4910
sg68
(lp4917
S'web2py.com'
p4918
asbasbasbag61
(g77
g63
NtRp4919
(dp4920
g66
(dp4921
sg75
g4902
sg68
(lp4922
g61
(g82
g63
NtRp4923
(dp4924
g66
(dp4925
sg75
g4919
sg68
(lp4926
g61
(g62
g63
NtRp4927
(dp4928
g66
(dp4929
g74
I1
ssg75
g4923
sg68
(lp4930
I00
asbasbasbag61
(g77
g63
NtRp4931
(dp4932
g66
(dp4933
sg75
g4902
sg68
(lp4934
g61
(g82
g63
NtRp4935
(dp4936
g66
(dp4937
sg75
g4931
sg68
(lp4938
g61
(g62
g63
NtRp4939
(dp4940
g66
(dp4941
g74
I1
ssg75
g4935
sg68
(lp4942
S'http://www.web2py.com'
p4943
asbasbasbag61
(g77
g63
NtRp4944
(dp4945
g66
(dp4946
sg75
g4902
sg68
(lp4947
g61
(g82
g63
NtRp4948
(dp4949
g66
(dp4950
sg75
g4944
sg68
(lp4951
g61
(g62
g63
NtRp4952
(dp4953
g66
(dp4954
g74
I1
ssg75
g4948
sg68
(lp4955
(lp4956
(g4633
(S's\x08\x00\x00\x00Download'
tRp4957
I00
S'http://www.web2py.com/examples/default/download'
p4958
tp4959
a(g4633
(S's\x07\x00\x00\x00Support'
tRp4960
I00
S'http://www.web2py.com/examples/default/support'
p4961
tp4962
a(g4633
(S's\x04\x00\x00\x00Demo'
tRp4963
I00
S'http://web2py.com/demo_admin'
p4964
tp4965
a(g4633
(S's\x0e\x00\x00\x00Quick Examples'
tRp4966
I00
S'http://web2py.com/examples/default/examples'
p4967
tp4968
a(g4633
(S's\x03\x00\x00\x00FAQ'
tRp4969
I00
S'http://web2py.com/AlterEgo'
p4970
tp4971
a(g4633
(S's\x06\x00\x00\x00Videos'
tRp4972
I00
S'http://www.web2py.com/examples/default/videos/'
p4973
tp4974
a(g4633
(S's\x11\x00\x00\x00Free Applications'
tRp4975
I00
S'http://web2py.com/appliances'
p4976
tp4977
a(g4633
(S's\x07\x00\x00\x00Plugins'
tRp4978
I00
S'http://web2py.com/plugins'
p4979
tp4980
a(g4633
(S's\x07\x00\x00\x00Layouts'
tRp4981
I00
S'http://web2py.com/layouts'
p4982
tp4983
a(g4633
(S's\x07\x00\x00\x00Recipes'
tRp4984
I00
S'http://web2pyslices.com/'
p4985
tp4986
a(g4633
(S's\x08\x00\x00\x00Semantic'
tRp4987
I00
S'http://web2py.com/semantic'
p4988
tp4989
aasbasbasbasbasbasbasbag61
(g77
g63
NtRp4990
(dp4991
g66
(dp4992
sg75
g4747
sg68
(lp4993
g61
(g82
g63
NtRp4994
(dp4995
g66
(dp4996
sg75
g4990
sg68
(lp4997
g61
(g62
g63
NtRp4998
(dp4999
g66
(dp5000
g74
I2
ssg75
g4994
sg68
(lp5001
g61
(g70
g63
NtRp5002
(dp5003
g66
(dp5004
g74
I1
ssg75
Nsg68
(lp5005
g61
(g77
g63
NtRp5006
(dp5007
g66
(dp5008
sg75
g5002
sg68
(lp5009
g61
(g82
g63
NtRp5010
(dp5011
g66
(dp5012
sg75
g5006
sg68
(lp5013
g61
(g62
g63
NtRp5014
(dp5015
g66
(dp5016
g74
I1
ssg75
g5010
sg68
(lp5017
g4633
(S's\r\x00\x00\x00Documentation'
tRp5018
asbasbasbag61
(g77
g63
NtRp5019
(dp5020
g66
(dp5021
sg75
g5002
sg68
(lp5022
g61
(g82
g63
NtRp5023
(dp5024
g66
(dp5025
sg75
g5019
sg68
(lp5026
g61
(g62
g63
NtRp5027
(dp5028
g66
(dp5029
g74
I1
ssg75
g5023
sg68
(lp5030
I00
asbasbasbag61
(g77
g63
NtRp5031
(dp5032
g66
(dp5033
sg75
g5002
sg68
(lp5034
g61
(g82
g63
NtRp5035
(dp5036
g66
(dp5037
sg75
g5031
sg68
(lp5038
g61
(g62
g63
NtRp5039
(dp5040
g66
(dp5041
g74
I1
ssg75
g5035
sg68
(lp5042
S'http://www.web2py.com/book'
p5043
asbasbasbag61
(g77
g63
NtRp5044
(dp5045
g66
(dp5046
sg75
g5002
sg68
(lp5047
g61
(g82
g63
NtRp5048
(dp5049
g66
(dp5050
sg75
g5044
sg68
(lp5051
g61
(g62
g63
NtRp5052
(dp5053
g66
(dp5054
g74
I1
ssg75
g5048
sg68
(lp5055
(lp5056
(g4633
(S's\x07\x00\x00\x00Preface'
tRp5057
I00
S'http://www.web2py.com/book/default/chapter/00'
p5058
tp5059
a(g4633
(S's\x0c\x00\x00\x00Introduction'
tRp5060
I00
S'http://www.web2py.com/book/default/chapter/01'
p5061
tp5062
a(g4633
(S's\x06\x00\x00\x00Python'
tRp5063
I00
S'http://www.web2py.com/book/default/chapter/02'
p5064
tp5065
a(g4633
(S's\x08\x00\x00\x00Overview'
tRp5066
I00
S'http://www.web2py.com/book/default/chapter/03'
p5067
tp5068
a(g4633
(S's\x08\x00\x00\x00The Core'
tRp5069
I00
S'http://www.web2py.com/book/default/chapter/04'
p5070
tp5071
a(g4633
(S's\t\x00\x00\x00The Views'
tRp5072
I00
S'http://www.web2py.com/book/default/chapter/05'
p5073
tp5074
a(g4633
(S's\x08\x00\x00\x00Database'
tRp5075
I00
S'http://www.web2py.com/book/default/chapter/06'
p5076
tp5077
a(g4633
(S's\x14\x00\x00\x00Forms and Validators'
tRp5078
I00
S'http://www.web2py.com/book/default/chapter/07'
p5079
tp5080
a(g4633
(S's\r\x00\x00\x00Email and SMS'
tRp5081
I00
S'http://www.web2py.com/book/default/chapter/08'
p5082
tp5083
a(g4633
(S's\x0e\x00\x00\x00Access Control'
tRp5084
I00
S'http://www.web2py.com/book/default/chapter/09'
p5085
tp5086
a(g4633
(S's\x08\x00\x00\x00Services'
tRp5087
I00
S'http://www.web2py.com/book/default/chapter/10'
p5088
tp5089
a(g4633
(S's\x0c\x00\x00\x00Ajax Recipes'
tRp5090
I00
S'http://www.web2py.com/book/default/chapter/11'
p5091
tp5092
a(g4633
(S's\x16\x00\x00\x00Components and Plugins'
tRp5093
I00
S'http://www.web2py.com/book/default/chapter/12'
p5094
tp5095
a(g4633
(S's\x12\x00\x00\x00Deployment Recipes'
tRp5096
I00
S'http://www.web2py.com/book/default/chapter/13'
p5097
tp5098
a(g4633
(S's\r\x00\x00\x00Other Recipes'
tRp5099
I00
S'http://www.web2py.com/book/default/chapter/14'
p5100
tp5101
a(g4633
(S's\r\x00\x00\x00Buy this book'
tRp5102
I00
S'http://stores.lulu.com/web2py'
p5103
tp5104
aasbasbasbasbasbasbasbag61
(g77
g63
NtRp5105
(dp5106
g66
(dp5107
sg75
g4747
sg68
(lp5108
g61
(g82
g63
NtRp5109
(dp5110
g66
(dp5111
sg75
g5105
sg68
(lp5112
g61
(g62
g63
NtRp5113
(dp5114
g66
(dp5115
g74
I2
ssg75
g5109
sg68
(lp5116
g61
(g70
g63
NtRp5117
(dp5118
g66
(dp5119
g74
I1
ssg75
Nsg68
(lp5120
g61
(g77
g63
NtRp5121
(dp5122
g66
(dp5123
sg75
g5117
sg68
(lp5124
g61
(g82
g63
NtRp5125
(dp5126
g66
(dp5127
sg75
g5121
sg68
(lp5128
g61
(g62
g63
NtRp5129
(dp5130
g66
(dp5131
g74
I1
ssg75
g5125
sg68
(lp5132
g4633
(S's\t\x00\x00\x00Community'
tRp5133
asbasbasbag61
(g77
g63
NtRp5134
(dp5135
g66
(dp5136
sg75
g5117
sg68
(lp5137
g61
(g82
g63
NtRp5138
(dp5139
g66
(dp5140
sg75
g5134
sg68
(lp5141
g61
(g62
g63
NtRp5142
(dp5143
g66
(dp5144
g74
I1
ssg75
g5138
sg68
(lp5145
I00
asbasbasbag61
(g77
g63
NtRp5146
(dp5147
g66
(dp5148
sg75
g5117
sg68
(lp5149
g61
(g82
g63
NtRp5150
(dp5151
g66
(dp5152
sg75
g5146
sg68
(lp5153
g61
(g62
g63
NtRp5154
(dp5155
g66
(dp5156
g74
I1
ssg75
g5150
sg68
(lp5157
Nasbasbasbag61
(g77
g63
NtRp5158
(dp5159
g66
(dp5160
sg75
g5117
sg68
(lp5161
g61
(g82
g63
NtRp5162
(dp5163
g66
(dp5164
sg75
g5158
sg68
(lp5165
g61
(g62
g63
NtRp5166
(dp5167
g66
(dp5168
g74
I1
ssg75
g5162
sg68
(lp5169
(lp5170
(g4633
(S's\x06\x00\x00\x00Groups'
tRp5171
I00
S'http://www.web2py.com/examples/default/usergroups'
p5172
tp5173
a(g4633
(S's\x07\x00\x00\x00Twitter'
tRp5174
I00
S'http://twitter.com/web2py'
p5175
tp5176
a(g4633
(S's\t\x00\x00\x00Live Chat'
tRp5177
I00
S'http://webchat.freenode.net/?channels=web2py'
p5178
tp5179
aasbasbasbasbasbasbasbag61
(g77
g63
NtRp5180
(dp5181
g66
(dp5182
sg75
g4747
sg68
(lp5183
g61
(g82
g63
NtRp5184
(dp5185
g66
(dp5186
sg75
g5180
sg68
(lp5187
g61
(g62
g63
NtRp5188
(dp5189
g66
(dp5190
g74
I2
ssg75
g5184
sg68
(lp5191
g61
(g70
g63
NtRp5192
(dp5193
g66
(dp5194
g74
I1
ssg75
Nsg68
(lp5195
g61
(g77
g63
NtRp5196
(dp5197
g66
(dp5198
sg75
g5192
sg68
(lp5199
g61
(g82
g63
NtRp5200
(dp5201
g66
(dp5202
sg75
g5196
sg68
(lp5203
g61
(g62
g63
NtRp5204
(dp5205
g66
(dp5206
g74
I1
ssg75
g5200
sg68
(lp5207
g4633
(S's\x07\x00\x00\x00Plugins'
tRp5208
asbasbasbag61
(g77
g63
NtRp5209
(dp5210
g66
(dp5211
sg75
g5192
sg68
(lp5212
g61
(g82
g63
NtRp5213
(dp5214
g66
(dp5215
sg75
g5209
sg68
(lp5216
g61
(g62
g63
NtRp5217
(dp5218
g66
(dp5219
g74
I1
ssg75
g5213
sg68
(lp5220
I00
asbasbasbag61
(g77
g63
NtRp5221
(dp5222
g66
(dp5223
sg75
g5192
sg68
(lp5224
g61
(g82
g63
NtRp5225
(dp5226
g66
(dp5227
sg75
g5221
sg68
(lp5228
g61
(g62
g63
NtRp5229
(dp5230
g66
(dp5231
g74
I1
ssg75
g5225
sg68
(lp5232
Nasbasbasbag61
(g77
g63
NtRp5233
(dp5234
g66
(dp5235
sg75
g5192
sg68
(lp5236
g61
(g82
g63
NtRp5237
(dp5238
g66
(dp5239
sg75
g5233
sg68
(lp5240
g61
(g62
g63
NtRp5241
(dp5242
g66
(dp5243
g74
I1
ssg75
g5237
sg68
(lp5244
(lp5245
(S'plugin_wiki'
p5246
I00
S'http://web2py.com/examples/default/download'
p5247
tp5248
a(g4633
(S's\r\x00\x00\x00Other Plugins'
tRp5249
I00
g4979
tp5250
a(g4633
(S's\x0e\x00\x00\x00Layout Plugins'
tRp5251
I00
g4982
tp5252
aasbasbasbasbasbasbasbasbasbasbasbasbasbasbasbasbasbasbasbag61
(g77
g63
NtRp5253
(dp5254
g66
(dp5255
sg75
g4067
sg68
(lp5256
g61
(g82
g63
NtRp5257
(dp5258
g66
(dp5259
g86
g87
ssg75
g5253
sg68
(lp5260
S'meta'
p5261
asbag61
(g82
g63
NtRp5262
(dp5263
g66
(dp5264
g93
g94
ssg75
g5253
sg68
(lp5265
S':'
asbag61
(g82
g63
NtRp5266
(dp5267
g66
(dp5268
sg75
g5253
sg68
(lp5269
g61
(g62
g63
NtRp5270
(dp5271
g66
(dp5272
g74
I5
ssg75
g5266
sg68
(lp5273
g61
(g70
g63
NtRp5274
(dp5275
g66
(dp5276
g74
I4
ssg75
Nsg68
(lp5277
g61
(g77
g63
NtRp5278
(dp5279
g66
(dp5280
sg75
g5274
sg68
(lp5281
g61
(g82
g63
NtRp5282
(dp5283
g66
(dp5284
g86
g87
ssg75
g5278
sg68
(lp5285
S'author'
p5286
asbag61
(g82
g63
NtRp5287
(dp5288
g66
(dp5289
g93
g94
ssg75
g5278
sg68
(lp5290
S':'
asbag61
(g82
g63
NtRp5291
(dp5292
g66
(dp5293
sg75
g5278
sg68
(lp5294
g61
(g62
g63
NtRp5295
(dp5296
g66
(dp5297
g74
I4
ssg75
g5291
sg68
(lp5298
S'Your Name <you@example.com>'
p5299
asbasbasbag61
(g77
g63
NtRp5300
(dp5301
g66
(dp5302
sg75
g5274
sg68
(lp5303
g61
(g82
g63
NtRp5304
(dp5305
g66
(dp5306
g86
g87
ssg75
g5300
sg68
(lp5307
S'description'
p5308
asbag61
(g82
g63
NtRp5309
(dp5310
g66
(dp5311
g93
g94
ssg75
g5300
sg68
(lp5312
S':'
asbag61
(g82
g63
NtRp5313
(dp5314
g66
(dp5315
sg75
g5300
sg68
(lp5316
g61
(g62
g63
NtRp5317
(dp5318
g66
(dp5319
g74
I4
ssg75
g5313
sg68
(lp5320
S'a cool new app'
p5321
asbasbasbag61
(g77
g63
NtRp5322
(dp5323
g66
(dp5324
sg75
g5274
sg68
(lp5325
g61
(g82
g63
NtRp5326
(dp5327
g66
(dp5328
g86
g87
ssg75
g5322
sg68
(lp5329
S'generator'
p5330
asbag61
(g82
g63
NtRp5331
(dp5332
g66
(dp5333
g93
g94
ssg75
g5322
sg68
(lp5334
S':'
asbag61
(g82
g63
NtRp5335
(dp5336
g66
(dp5337
sg75
g5322
sg68
(lp5338
g61
(g62
g63
NtRp5339
(dp5340
g66
(dp5341
g74
I4
ssg75
g5335
sg68
(lp5342
S'Web2py Web Framework'
p5343
asbasbasbag61
(g77
g63
NtRp5344
(dp5345
g66
(dp5346
sg75
g5274
sg68
(lp5347
g61
(g82
g63
NtRp5348
(dp5349
g66
(dp5350
g86
g87
ssg75
g5344
sg68
(lp5351
S'keywords'
p5352
asbag61
(g82
g63
NtRp5353
(dp5354
g66
(dp5355
g93
g94
ssg75
g5344
sg68
(lp5356
S':'
asbag61
(g82
g63
NtRp5357
(dp5358
g66
(dp5359
sg75
g5344
sg68
(lp5360
g61
(g62
g63
NtRp5361
(dp5362
g66
(dp5363
g74
I4
ssg75
g5357
sg68
(lp5364
S'web2py, python, framework'
p5365
asbasbasbasbasbasbasbag61
(g77
g63
NtRp5366
(dp5367
g66
(dp5368
sg75
g4067
sg68
(lp5369
g61
(g82
g63
NtRp5370
(dp5371
g66
(dp5372
g86
g87
ssg75
g5366
sg68
(lp5373
S'postprocessing'
p5374
asbag61
(g82
g63
NtRp5375
(dp5376
g66
(dp5377
g93
g94
ssg75
g5366
sg68
(lp5378
S':'
asbag61
(g82
g63
NtRp5379
(dp5380
g66
(dp5381
sg75
g5366
sg68
(lp5382
g61
(g62
g63
NtRp5383
(dp5384
g66
(dp5385
g74
I5
ssg75
g5379
sg68
(lp5386
g61
(g70
g63
NtRp5387
(dp5388
g66
(dp5389
g74
I4
ssg75
Nsg68
(lp5390
sbasbasbasbag61
(g77
g63
NtRp5391
(dp5392
g66
(dp5393
sg75
g4067
sg68
(lp5394
g61
(g82
g63
NtRp5395
(dp5396
g66
(dp5397
g86
g87
ssg75
g5391
sg68
(lp5398
S'session_file'
p5399
asbag61
(g82
g63
NtRp5400
(dp5401
g66
(dp5402
g93
g94
ssg75
g5391
sg68
(lp5403
S':'
asbag61
(g82
g63
NtRp5404
(dp5405
g66
(dp5406
sg75
g5391
sg68
(lp5407
g61
(g62
g63
NtRp5408
(dp5409
g66
(dp5410
g74
I5
ssg75
g5404
sg68
(lp5411
S"<open file '/home/piyush/web2py/applications/FotoBuk/sessions/127.0.0.1-961e4bc4-dc07-4e6c-b9f7-52a46e56ffd5', mode 'rb+' at 0xb2f4bb20>"
p5412
asbasbasbag61
(g77
g63
NtRp5413
(dp5414
g66
(dp5415
sg75
g4067
sg68
(lp5416
g61
(g82
g63
NtRp5417
(dp5418
g66
(dp5419
g86
g87
ssg75
g5413
sg68
(lp5420
S'session_filename'
p5421
asbag61
(g82
g63
NtRp5422
(dp5423
g66
(dp5424
g93
g94
ssg75
g5413
sg68
(lp5425
S':'
asbag61
(g82
g63
NtRp5426
(dp5427
g66
(dp5428
sg75
g5413
sg68
(lp5429
g61
(g62
g63
NtRp5430
(dp5431
g66
(dp5432
g74
I5
ssg75
g5426
sg68
(lp5433
S'/home/piyush/web2py/applications/FotoBuk/sessions/127.0.0.1-961e4bc4-dc07-4e6c-b9f7-52a46e56ffd5'
p5434
asbasbasbag61
(g77
g63
NtRp5435
(dp5436
g66
(dp5437
sg75
g4067
sg68
(lp5438
g61
(g82
g63
NtRp5439
(dp5440
g66
(dp5441
g86
g87
ssg75
g5435
sg68
(lp5442
S'session_id'
p5443
asbag61
(g82
g63
NtRp5444
(dp5445
g66
(dp5446
g93
g94
ssg75
g5435
sg68
(lp5447
S':'
asbag61
(g82
g63
NtRp5448
(dp5449
g66
(dp5450
sg75
g5435
sg68
(lp5451
g61
(g62
g63
NtRp5452
(dp5453
g66
(dp5454
g74
I5
ssg75
g5448
sg68
(lp5455
g491
asbasbasbag61
(g77
g63
NtRp5456
(dp5457
g66
(dp5458
sg75
g4067
sg68
(lp5459
g61
(g82
g63
NtRp5460
(dp5461
g66
(dp5462
g86
g87
ssg75
g5456
sg68
(lp5463
S'session_id_name'
p5464
asbag61
(g82
g63
NtRp5465
(dp5466
g66
(dp5467
g93
g94
ssg75
g5456
sg68
(lp5468
S':'
asbag61
(g82
g63
NtRp5469
(dp5470
g66
(dp5471
sg75
g5456
sg68
(lp5472
g61
(g62
g63
NtRp5473
(dp5474
g66
(dp5475
g74
I5
ssg75
g5469
sg68
(lp5476
g4124
asbasbasbag61
(g77
g63
NtRp5477
(dp5478
g66
(dp5479
sg75
g4067
sg68
(lp5480
g61
(g82
g63
NtRp5481
(dp5482
g66
(dp5483
g86
g87
ssg75
g5477
sg68
(lp5484
S'session_locked'
p5485
asbag61
(g82
g63
NtRp5486
(dp5487
g66
(dp5488
g93
g94
ssg75
g5477
sg68
(lp5489
S':'
asbag61
(g82
g63
NtRp5490
(dp5491
g66
(dp5492
sg75
g5477
sg68
(lp5493
g61
(g62
g63
NtRp5494
(dp5495
g66
(dp5496
g74
I5
ssg75
g5490
sg68
(lp5497
g1990
asbasbasbag61
(g77
g63
NtRp5498
(dp5499
g66
(dp5500
sg75
g4067
sg68
(lp5501
g61
(g82
g63
NtRp5502
(dp5503
g66
(dp5504
g86
g87
ssg75
g5498
sg68
(lp5505
S'session_new'
p5506
asbag61
(g82
g63
NtRp5507
(dp5508
g66
(dp5509
g93
g94
ssg75
g5498
sg68
(lp5510
S':'
asbag61
(g82
g63
NtRp5511
(dp5512
g66
(dp5513
sg75
g5498
sg68
(lp5514
g61
(g62
g63
NtRp5515
(dp5516
g66
(dp5517
g74
I5
ssg75
g5511
sg68
(lp5518
g104
asbasbasbag61
(g77
g63
NtRp5519
(dp5520
g66
(dp5521
sg75
g4067
sg68
(lp5522
g61
(g82
g63
NtRp5523
(dp5524
g66
(dp5525
g86
g87
ssg75
g5519
sg68
(lp5526
S'status'
p5527
asbag61
(g82
g63
NtRp5528
(dp5529
g66
(dp5530
g93
g94
ssg75
g5519
sg68
(lp5531
S':'
asbag61
(g82
g63
NtRp5532
(dp5533
g66
(dp5534
sg75
g5519
sg68
(lp5535
g61
(g62
g63
NtRp5536
(dp5537
g66
(dp5538
g74
I5
ssg75
g5532
sg68
(lp5539
S'200'
p5540
asbasbasbag61
(g77
g63
NtRp5541
(dp5542
g66
(dp5543
sg75
g4067
sg68
(lp5544
g61
(g82
g63
NtRp5545
(dp5546
g66
(dp5547
g86
g87
ssg75
g5541
sg68
(lp5548
S'subtitle'
p5549
asbag61
(g82
g63
NtRp5550
(dp5551
g66
(dp5552
g93
g94
ssg75
g5541
sg68
(lp5553
S':'
asbag61
(g82
g63
NtRp5554
(dp5555
g66
(dp5556
sg75
g5541
sg68
(lp5557
g61
(g62
g63
NtRp5558
(dp5559
g66
(dp5560
g74
I5
ssg75
g5554
sg68
(lp5561
g4633
(S's\r\x00\x00\x00customize me!'
tRp5562
asbasbasbag61
(g77
g63
NtRp5563
(dp5564
g66
(dp5565
sg75
g4067
sg68
(lp5566
g61
(g82
g63
NtRp5567
(dp5568
g66
(dp5569
g86
g87
ssg75
g5563
sg68
(lp5570
S'title'
p5571
asbag61
(g82
g63
NtRp5572
(dp5573
g66
(dp5574
g93
g94
ssg75
g5563
sg68
(lp5575
S':'
asbag61
(g82
g63
NtRp5576
(dp5577
g66
(dp5578
sg75
g5563
sg68
(lp5579
g61
(g62
g63
NtRp5580
(dp5581
g66
(dp5582
g74
I5
ssg75
g5576
sg68
(lp5583
S'Fotobuk'
p5584
asbasbasbag61
(g77
g63
NtRp5585
(dp5586
g66
(dp5587
sg75
g4067
sg68
(lp5588
g61
(g82
g63
NtRp5589
(dp5590
g66
(dp5591
g86
g87
ssg75
g5585
sg68
(lp5592
S'view'
p5593
asbag61
(g82
g63
NtRp5594
(dp5595
g66
(dp5596
g93
g94
ssg75
g5585
sg68
(lp5597
S':'
asbag61
(g82
g63
NtRp5598
(dp5599
g66
(dp5600
sg75
g5585
sg68
(lp5601
g61
(g62
g63
NtRp5602
(dp5603
g66
(dp5604
g74
I5
ssg75
g5598
sg68
(lp5605
S'default/show.html'
p5606
asbasbasbasbasbsS'locals'
p5607
(dp5608
S'query'
p5609
S"'INSERT INTO like() VALUES ();'"
p5610
sS'self'
p5611
S'<gluon.dal.SQLiteAdapter object>'
p5612
sS'e'
S'OperationalError(\'near ")": syntax error\',)'
p5613
sS'fields'
p5614
S'[]'
p5615
sS'table'
p5616
S'<Table like (id,like_id,liker,likername)>'
p5617
sssS'traceback'
p5618
S'Traceback (most recent call last):\n  File "/home/piyush/web2py/gluon/restricted.py", line 209, in restricted\n    exec ccode in environment\n  File "/home/piyush/web2py/applications/FotoBuk/controllers/default.py", line 47, in <module>\n  File "/home/piyush/web2py/gluon/globals.py", line 185, in <lambda>\n    self._caller = lambda f: f()\n  File "/home/piyush/web2py/gluon/tools.py", line 2776, in f\n    return action(*a, **b)\n  File "/home/piyush/web2py/applications/FotoBuk/controllers/default.py", line 30, in show\n    if form2.process().accepted:\n  File "/home/piyush/web2py/gluon/html.py", line 2106, in process\n    self.validate(**kwargs)\n  File "/home/piyush/web2py/gluon/html.py", line 2053, in validate\n    if self.accepts(**kwargs):\n  File "/home/piyush/web2py/gluon/sqlhtml.py", line 1403, in accepts\n    self.vars.id = self.table.insert(**fields)\n  File "/home/piyush/web2py/gluon/dal.py", line 7720, in insert\n    ret =  self._db._adapter.insert(self,self._listify(fields))\n  File "/home/piyush/web2py/gluon/dal.py", line 1080, in insert\n    raise e\nOperationalError: near ")": syntax error\n'
p5619
s.