(dp1
S'output'
p2
S"<type 'exceptions.SyntaxError'> invalid syntax (db.py, line 22)"
p3
sS'layer'
p4
S'/home/piyush/web2py/applications/FotoBuk/models/db.py'
p5
sS'code'
p6
S'db = DAL("sqlite://storage.sqlite")\n\nfrom gluon.tools import Crud,Auth\nauth=Auth(db)\ncrud = Crud(db)\nauth.define_tables()\ndb.define_table(\'image\',\n   \t\tField(\'title\', unique=True),\n        \tField(\'author\'),\n   \t\tField(\'file\', \'upload\'),\n   \t\tformat = \'%(title)s\')\n\ndb.define_table(\'comment\',\n\t\tField(\'image_id\', db.image),\n   \t\tField(\'author\'),\n   \t\tField(\'email\'),\n   \t\tField(\'body\', \'text\'))\n\ndb.define_table(\'like\',\n\t\tField(\'like_id\',db.image),\n\t\tField(\'liker\')\n\t\tField(\'likername\'))\n\ndb.like.like_id.requires = IS_NOT_IN_DB(db, db.like.like_id)\ndb.like.like_id.requires = IS_IN_DB(db, db.image.id, \'%(title)s\')\ndb.image.title.requires = IS_NOT_IN_DB(db, db.image.title)\ndb.comment.image_id.requires = IS_IN_DB(db, db.image.id, \'%(title)s\')\ndb.comment.author.requires = IS_NOT_EMPTY()\ndb.comment.email.requires = IS_EMAIL()\ndb.comment.body.requires = IS_NOT_EMPTY()\n\ndb.comment.image_id.writable = db.comment.image_id.readable = False\ndb.image.author.writable = db.image.author.readable = False\ndb.like.like_id.writable = db.like.like_id.readable = False\ndb.like.liker.writable = db.like.liker.readable = False\n\n'
p7
sS'snapshot'
p8
(dp9
S'exception'
p10
(dp11
S'__getslice__'
p12
S"<method-wrapper '__getslice__' of exceptions.SyntaxError object>"
p13
sS'text'
p14
S'"\\t\\tField(\'likername\'))\\n"'
p15
sS'__str__'
p16
S"<method-wrapper '__str__' of exceptions.SyntaxError object>"
p17
sS'__reduce__'
p18
S'<built-in method __reduce__ of exceptions.SyntaxError object>'
p19
sS'__dict__'
p20
S'{}'
p21
sS'__sizeof__'
p22
S'<built-in method __sizeof__ of exceptions.SyntaxError object>'
p23
sS'__init__'
p24
S"<method-wrapper '__init__' of exceptions.SyntaxError object>"
p25
sS'__setattr__'
p26
S"<method-wrapper '__setattr__' of exceptions.SyntaxError object>"
p27
sS'__reduce_ex__'
p28
S'<built-in method __reduce_ex__ of exceptions.SyntaxError object>'
p29
sS'__new__'
p30
S'<built-in method __new__ of type object>'
p31
sS'__format__'
p32
S'<built-in method __format__ of exceptions.SyntaxError object>'
p33
sS'__class__'
p34
S"<type 'exceptions.SyntaxError'>"
p35
sS'filename'
p36
S"'/home/piyush/web2py/applications/FotoBuk/models/db.py'"
p37
sS'lineno'
p38
S'22'
p39
sS'msg'
p40
S"'invalid syntax'"
p41
sS'__doc__'
p42
S"'Invalid syntax.'"
p43
sS'__getitem__'
p44
S"<method-wrapper '__getitem__' of exceptions.SyntaxError object>"
p45
sS'__setstate__'
p46
S'<built-in method __setstate__ of exceptions.SyntaxError object>'
p47
sS'__getattribute__'
p48
S"<method-wrapper '__getattribute__' of exceptions.SyntaxError object>"
p49
sS'print_file_and_line'
p50
S'None'
p51
sS'args'
p52
S'(\'invalid syntax\', (\'/home/piyush/web2py/applications/FotoBuk/models/db.py\', 22, 7, "\\t\\tField(\'likername\'))\\n"))'
p53
sS'__subclasshook__'
p54
S'<built-in method __subclasshook__ of type object>'
p55
sS'offset'
p56
S'7'
sS'__unicode__'
p57
S'<built-in method __unicode__ of exceptions.SyntaxError object>'
p58
sS'__delattr__'
p59
S"<method-wrapper '__delattr__' of exceptions.SyntaxError object>"
p60
sS'__repr__'
p61
S"<method-wrapper '__repr__' of exceptions.SyntaxError object>"
p62
sS'__hash__'
p63
S"<method-wrapper '__hash__' of exceptions.SyntaxError object>"
p64
ssS'evalue'
p65
S'invalid syntax (db.py, line 22)'
p66
sS'request'
p67
ccopy_reg
_reconstructor
p68
(cgluon.html
BEAUTIFY
p69
c__builtin__
object
p70
NtRp71
(dp72
S'attributes'
p73
(dp74
sS'components'
p75
(lp76
g68
(cgluon.html
TABLE
p77
g70
NtRp78
(dp79
g73
(dp80
S'level'
p81
I5
ssS'parent'
p82
Nsg75
(lp83
g68
(cgluon.html
TR
p84
g70
NtRp85
(dp86
g73
(dp87
sg82
g78
sg75
(lp88
g68
(cgluon.html
TD
p89
g70
NtRp90
(dp91
g73
(dp92
S'_style'
p93
S'font-weight:bold;vertical-align:top'
p94
ssg82
g85
sg75
(lp95
S'ajax'
p96
asbag68
(g89
g70
NtRp97
(dp98
g73
(dp99
S'_valign'
p100
S'top'
p101
ssg82
g85
sg75
(lp102
S':'
asbag68
(g89
g70
NtRp103
(dp104
g73
(dp105
sg82
g85
sg75
(lp106
g68
(g69
g70
NtRp107
(dp108
g73
(dp109
g81
I5
ssg82
g103
sg75
(lp110
S'False'
p111
asbasbasbag68
(g84
g70
NtRp112
(dp113
g73
(dp114
sg82
g78
sg75
(lp115
g68
(g89
g70
NtRp116
(dp117
g73
(dp118
g93
g94
ssg82
g112
sg75
(lp119
S'application'
p120
asbag68
(g89
g70
NtRp121
(dp122
g73
(dp123
g100
g101
ssg82
g112
sg75
(lp124
S':'
asbag68
(g89
g70
NtRp125
(dp126
g73
(dp127
sg82
g112
sg75
(lp128
g68
(g69
g70
NtRp129
(dp130
g73
(dp131
g81
I5
ssg82
g125
sg75
(lp132
S'FotoBuk'
p133
asbasbasbag68
(g84
g70
NtRp134
(dp135
g73
(dp136
sg82
g78
sg75
(lp137
g68
(g89
g70
NtRp138
(dp139
g73
(dp140
g93
g94
ssg82
g134
sg75
(lp141
g52
asbag68
(g89
g70
NtRp142
(dp143
g73
(dp144
g100
g101
ssg82
g134
sg75
(lp145
S':'
asbag68
(g89
g70
NtRp146
(dp147
g73
(dp148
sg82
g134
sg75
(lp149
g68
(g69
g70
NtRp150
(dp151
g73
(dp152
g81
I5
ssg82
g146
sg75
(lp153
g68
(g77
g70
NtRp154
(dp155
g73
(dp156
g81
I4
ssg82
Nsg75
(lp157
g68
(g84
g70
NtRp158
(dp159
g73
(dp160
sg82
g154
sg75
(lp161
g68
(g89
g70
NtRp162
(dp163
g73
(dp164
sg82
g158
sg75
(lp165
g68
(g69
g70
NtRp166
(dp167
g73
(dp168
g81
I4
ssg82
g162
sg75
(lp169
S'2'
asbasbasbasbasbasbasbag68
(g84
g70
NtRp170
(dp171
g73
(dp172
sg82
g78
sg75
(lp173
g68
(g89
g70
NtRp174
(dp175
g73
(dp176
g93
g94
ssg82
g170
sg75
(lp177
S'body'
p178
asbag68
(g89
g70
NtRp179
(dp180
g73
(dp181
g100
g101
ssg82
g170
sg75
(lp182
S':'
asbag68
(g89
g70
NtRp183
(dp184
g73
(dp185
sg82
g170
sg75
(lp186
g68
(g69
g70
NtRp187
(dp188
g73
(dp189
g81
I5
ssg82
g183
sg75
(lp190
S"<open file '<fdopen>', mode 'w+b' at 0x90bd8b8>"
p191
asbasbasbag68
(g84
g70
NtRp192
(dp193
g73
(dp194
sg82
g78
sg75
(lp195
g68
(g89
g70
NtRp196
(dp197
g73
(dp198
g93
g94
ssg82
g192
sg75
(lp199
S'cid'
p200
asbag68
(g89
g70
NtRp201
(dp202
g73
(dp203
g100
g101
ssg82
g192
sg75
(lp204
S':'
asbag68
(g89
g70
NtRp205
(dp206
g73
(dp207
sg82
g192
sg75
(lp208
g68
(g69
g70
NtRp209
(dp210
g73
(dp211
g81
I5
ssg82
g205
sg75
(lp212
S'None'
p213
asbasbasbag68
(g84
g70
NtRp214
(dp215
g73
(dp216
sg82
g78
sg75
(lp217
g68
(g89
g70
NtRp218
(dp219
g73
(dp220
g93
g94
ssg82
g214
sg75
(lp221
S'client'
p222
asbag68
(g89
g70
NtRp223
(dp224
g73
(dp225
g100
g101
ssg82
g214
sg75
(lp226
S':'
asbag68
(g89
g70
NtRp227
(dp228
g73
(dp229
sg82
g214
sg75
(lp230
g68
(g69
g70
NtRp231
(dp232
g73
(dp233
g81
I5
ssg82
g227
sg75
(lp234
S'127.0.0.1'
p235
asbasbasbag68
(g84
g70
NtRp236
(dp237
g73
(dp238
sg82
g78
sg75
(lp239
g68
(g89
g70
NtRp240
(dp241
g73
(dp242
g93
g94
ssg82
g236
sg75
(lp243
S'controller'
p244
asbag68
(g89
g70
NtRp245
(dp246
g73
(dp247
g100
g101
ssg82
g236
sg75
(lp248
S':'
asbag68
(g89
g70
NtRp249
(dp250
g73
(dp251
sg82
g236
sg75
(lp252
g68
(g69
g70
NtRp253
(dp254
g73
(dp255
g81
I5
ssg82
g249
sg75
(lp256
S'default'
p257
asbasbasbag68
(g84
g70
NtRp258
(dp259
g73
(dp260
sg82
g78
sg75
(lp261
g68
(g89
g70
NtRp262
(dp263
g73
(dp264
g93
g94
ssg82
g258
sg75
(lp265
S'cookies'
p266
asbag68
(g89
g70
NtRp267
(dp268
g73
(dp269
g100
g101
ssg82
g258
sg75
(lp270
S':'
asbag68
(g89
g70
NtRp271
(dp272
g73
(dp273
sg82
g258
sg75
(lp274
g68
(g69
g70
NtRp275
(dp276
g73
(dp277
g81
I5
ssg82
g271
sg75
(lp278
g68
(g77
g70
NtRp279
(dp280
g73
(dp281
g81
I4
ssg82
Nsg75
(lp282
g68
(g84
g70
NtRp283
(dp284
g73
(dp285
sg82
g279
sg75
(lp286
g68
(g89
g70
NtRp287
(dp288
g73
(dp289
g93
g94
ssg82
g283
sg75
(lp290
S'session_id_admin'
p291
asbag68
(g89
g70
NtRp292
(dp293
g73
(dp294
g100
g101
ssg82
g283
sg75
(lp295
S':'
asbag68
(g89
g70
NtRp296
(dp297
g73
(dp298
sg82
g283
sg75
(lp299
g68
(g69
g70
NtRp300
(dp301
g73
(dp302
g81
I4
ssg82
g296
sg75
(lp303
S'127.0.0.1-f31a16a6-2f0e-474e-b0b5-7ca781ebd64d'
p304
ag68
(g77
g70
NtRp305
(dp306
g73
(dp307
g81
I3
ssg82
Nsg75
(lp308
g68
(g84
g70
NtRp309
(dp310
g73
(dp311
sg82
g305
sg75
(lp312
g68
(g89
g70
NtRp313
(dp314
g73
(dp315
g93
g94
ssg82
g309
sg75
(lp316
S'comment'
p317
asbag68
(g89
g70
NtRp318
(dp319
g73
(dp320
g100
g101
ssg82
g309
sg75
(lp321
S':'
asbag68
(g89
g70
NtRp322
(dp323
g73
(dp324
sg82
g309
sg75
(lp325
g68
(g69
g70
NtRp326
(dp327
g73
(dp328
g81
I3
ssg82
g322
sg75
(lp329
S''
asbasbasbag68
(g84
g70
NtRp330
(dp331
g73
(dp332
sg82
g305
sg75
(lp333
g68
(g89
g70
NtRp334
(dp335
g73
(dp336
g93
g94
ssg82
g330
sg75
(lp337
S'domain'
p338
asbag68
(g89
g70
NtRp339
(dp340
g73
(dp341
g100
g101
ssg82
g330
sg75
(lp342
S':'
asbag68
(g89
g70
NtRp343
(dp344
g73
(dp345
sg82
g330
sg75
(lp346
g68
(g69
g70
NtRp347
(dp348
g73
(dp349
g81
I3
ssg82
g343
sg75
(lp350
S''
asbasbasbag68
(g84
g70
NtRp351
(dp352
g73
(dp353
sg82
g305
sg75
(lp354
g68
(g89
g70
NtRp355
(dp356
g73
(dp357
g93
g94
ssg82
g351
sg75
(lp358
S'expires'
p359
asbag68
(g89
g70
NtRp360
(dp361
g73
(dp362
g100
g101
ssg82
g351
sg75
(lp363
S':'
asbag68
(g89
g70
NtRp364
(dp365
g73
(dp366
sg82
g351
sg75
(lp367
g68
(g69
g70
NtRp368
(dp369
g73
(dp370
g81
I3
ssg82
g364
sg75
(lp371
S''
asbasbasbag68
(g84
g70
NtRp372
(dp373
g73
(dp374
sg82
g305
sg75
(lp375
g68
(g89
g70
NtRp376
(dp377
g73
(dp378
g93
g94
ssg82
g372
sg75
(lp379
S'httponly'
p380
asbag68
(g89
g70
NtRp381
(dp382
g73
(dp383
g100
g101
ssg82
g372
sg75
(lp384
S':'
asbag68
(g89
g70
NtRp385
(dp386
g73
(dp387
sg82
g372
sg75
(lp388
g68
(g69
g70
NtRp389
(dp390
g73
(dp391
g81
I3
ssg82
g385
sg75
(lp392
S''
asbasbasbag68
(g84
g70
NtRp393
(dp394
g73
(dp395
sg82
g305
sg75
(lp396
g68
(g89
g70
NtRp397
(dp398
g73
(dp399
g93
g94
ssg82
g393
sg75
(lp400
S'max-age'
p401
asbag68
(g89
g70
NtRp402
(dp403
g73
(dp404
g100
g101
ssg82
g393
sg75
(lp405
S':'
asbag68
(g89
g70
NtRp406
(dp407
g73
(dp408
sg82
g393
sg75
(lp409
g68
(g69
g70
NtRp410
(dp411
g73
(dp412
g81
I3
ssg82
g406
sg75
(lp413
S''
asbasbasbag68
(g84
g70
NtRp414
(dp415
g73
(dp416
sg82
g305
sg75
(lp417
g68
(g89
g70
NtRp418
(dp419
g73
(dp420
g93
g94
ssg82
g414
sg75
(lp421
S'path'
p422
asbag68
(g89
g70
NtRp423
(dp424
g73
(dp425
g100
g101
ssg82
g414
sg75
(lp426
S':'
asbag68
(g89
g70
NtRp427
(dp428
g73
(dp429
sg82
g414
sg75
(lp430
g68
(g69
g70
NtRp431
(dp432
g73
(dp433
g81
I3
ssg82
g427
sg75
(lp434
S''
asbasbasbag68
(g84
g70
NtRp435
(dp436
g73
(dp437
sg82
g305
sg75
(lp438
g68
(g89
g70
NtRp439
(dp440
g73
(dp441
g93
g94
ssg82
g435
sg75
(lp442
S'secure'
p443
asbag68
(g89
g70
NtRp444
(dp445
g73
(dp446
g100
g101
ssg82
g435
sg75
(lp447
S':'
asbag68
(g89
g70
NtRp448
(dp449
g73
(dp450
sg82
g435
sg75
(lp451
g68
(g69
g70
NtRp452
(dp453
g73
(dp454
g81
I3
ssg82
g448
sg75
(lp455
S''
asbasbasbag68
(g84
g70
NtRp456
(dp457
g73
(dp458
sg82
g305
sg75
(lp459
g68
(g89
g70
NtRp460
(dp461
g73
(dp462
g93
g94
ssg82
g456
sg75
(lp463
S'version'
p464
asbag68
(g89
g70
NtRp465
(dp466
g73
(dp467
g100
g101
ssg82
g456
sg75
(lp468
S':'
asbag68
(g89
g70
NtRp469
(dp470
g73
(dp471
sg82
g456
sg75
(lp472
g68
(g69
g70
NtRp473
(dp474
g73
(dp475
g81
I3
ssg82
g469
sg75
(lp476
S''
asbasbasbasbasbasbasbag68
(g84
g70
NtRp477
(dp478
g73
(dp479
sg82
g279
sg75
(lp480
g68
(g89
g70
NtRp481
(dp482
g73
(dp483
g93
g94
ssg82
g477
sg75
(lp484
S'session_id_fotobuk'
p485
asbag68
(g89
g70
NtRp486
(dp487
g73
(dp488
g100
g101
ssg82
g477
sg75
(lp489
S':'
asbag68
(g89
g70
NtRp490
(dp491
g73
(dp492
sg82
g477
sg75
(lp493
g68
(g69
g70
NtRp494
(dp495
g73
(dp496
g81
I4
ssg82
g490
sg75
(lp497
S'127.0.0.1-961e4bc4-dc07-4e6c-b9f7-52a46e56ffd5'
p498
ag68
(g77
g70
NtRp499
(dp500
g73
(dp501
g81
I3
ssg82
Nsg75
(lp502
g68
(g84
g70
NtRp503
(dp504
g73
(dp505
sg82
g499
sg75
(lp506
g68
(g89
g70
NtRp507
(dp508
g73
(dp509
g93
g94
ssg82
g503
sg75
(lp510
g317
asbag68
(g89
g70
NtRp511
(dp512
g73
(dp513
g100
g101
ssg82
g503
sg75
(lp514
S':'
asbag68
(g89
g70
NtRp515
(dp516
g73
(dp517
sg82
g503
sg75
(lp518
g68
(g69
g70
NtRp519
(dp520
g73
(dp521
g81
I3
ssg82
g515
sg75
(lp522
S''
asbasbasbag68
(g84
g70
NtRp523
(dp524
g73
(dp525
sg82
g499
sg75
(lp526
g68
(g89
g70
NtRp527
(dp528
g73
(dp529
g93
g94
ssg82
g523
sg75
(lp530
g338
asbag68
(g89
g70
NtRp531
(dp532
g73
(dp533
g100
g101
ssg82
g523
sg75
(lp534
S':'
asbag68
(g89
g70
NtRp535
(dp536
g73
(dp537
sg82
g523
sg75
(lp538
g68
(g69
g70
NtRp539
(dp540
g73
(dp541
g81
I3
ssg82
g535
sg75
(lp542
S''
asbasbasbag68
(g84
g70
NtRp543
(dp544
g73
(dp545
sg82
g499
sg75
(lp546
g68
(g89
g70
NtRp547
(dp548
g73
(dp549
g93
g94
ssg82
g543
sg75
(lp550
g359
asbag68
(g89
g70
NtRp551
(dp552
g73
(dp553
g100
g101
ssg82
g543
sg75
(lp554
S':'
asbag68
(g89
g70
NtRp555
(dp556
g73
(dp557
sg82
g543
sg75
(lp558
g68
(g69
g70
NtRp559
(dp560
g73
(dp561
g81
I3
ssg82
g555
sg75
(lp562
S''
asbasbasbag68
(g84
g70
NtRp563
(dp564
g73
(dp565
sg82
g499
sg75
(lp566
g68
(g89
g70
NtRp567
(dp568
g73
(dp569
g93
g94
ssg82
g563
sg75
(lp570
g380
asbag68
(g89
g70
NtRp571
(dp572
g73
(dp573
g100
g101
ssg82
g563
sg75
(lp574
S':'
asbag68
(g89
g70
NtRp575
(dp576
g73
(dp577
sg82
g563
sg75
(lp578
g68
(g69
g70
NtRp579
(dp580
g73
(dp581
g81
I3
ssg82
g575
sg75
(lp582
S''
asbasbasbag68
(g84
g70
NtRp583
(dp584
g73
(dp585
sg82
g499
sg75
(lp586
g68
(g89
g70
NtRp587
(dp588
g73
(dp589
g93
g94
ssg82
g583
sg75
(lp590
g401
asbag68
(g89
g70
NtRp591
(dp592
g73
(dp593
g100
g101
ssg82
g583
sg75
(lp594
S':'
asbag68
(g89
g70
NtRp595
(dp596
g73
(dp597
sg82
g583
sg75
(lp598
g68
(g69
g70
NtRp599
(dp600
g73
(dp601
g81
I3
ssg82
g595
sg75
(lp602
S''
asbasbasbag68
(g84
g70
NtRp603
(dp604
g73
(dp605
sg82
g499
sg75
(lp606
g68
(g89
g70
NtRp607
(dp608
g73
(dp609
g93
g94
ssg82
g603
sg75
(lp610
g422
asbag68
(g89
g70
NtRp611
(dp612
g73
(dp613
g100
g101
ssg82
g603
sg75
(lp614
S':'
asbag68
(g89
g70
NtRp615
(dp616
g73
(dp617
sg82
g603
sg75
(lp618
g68
(g69
g70
NtRp619
(dp620
g73
(dp621
g81
I3
ssg82
g615
sg75
(lp622
S''
asbasbasbag68
(g84
g70
NtRp623
(dp624
g73
(dp625
sg82
g499
sg75
(lp626
g68
(g89
g70
NtRp627
(dp628
g73
(dp629
g93
g94
ssg82
g623
sg75
(lp630
g443
asbag68
(g89
g70
NtRp631
(dp632
g73
(dp633
g100
g101
ssg82
g623
sg75
(lp634
S':'
asbag68
(g89
g70
NtRp635
(dp636
g73
(dp637
sg82
g623
sg75
(lp638
g68
(g69
g70
NtRp639
(dp640
g73
(dp641
g81
I3
ssg82
g635
sg75
(lp642
S''
asbasbasbag68
(g84
g70
NtRp643
(dp644
g73
(dp645
sg82
g499
sg75
(lp646
g68
(g89
g70
NtRp647
(dp648
g73
(dp649
g93
g94
ssg82
g643
sg75
(lp650
g464
asbag68
(g89
g70
NtRp651
(dp652
g73
(dp653
g100
g101
ssg82
g643
sg75
(lp654
S':'
asbag68
(g89
g70
NtRp655
(dp656
g73
(dp657
sg82
g643
sg75
(lp658
g68
(g69
g70
NtRp659
(dp660
g73
(dp661
g81
I3
ssg82
g655
sg75
(lp662
S''
asbasbasbasbasbasbasbag68
(g84
g70
NtRp663
(dp664
g73
(dp665
sg82
g279
sg75
(lp666
g68
(g89
g70
NtRp667
(dp668
g73
(dp669
g93
g94
ssg82
g663
sg75
(lp670
S'session_id_ialbum'
p671
asbag68
(g89
g70
NtRp672
(dp673
g73
(dp674
g100
g101
ssg82
g663
sg75
(lp675
S':'
asbag68
(g89
g70
NtRp676
(dp677
g73
(dp678
sg82
g663
sg75
(lp679
g68
(g69
g70
NtRp680
(dp681
g73
(dp682
g81
I4
ssg82
g676
sg75
(lp683
S'127.0.0.1-8bab57f4-8655-4ca4-8b5d-11fde04576c5'
p684
ag68
(g77
g70
NtRp685
(dp686
g73
(dp687
g81
I3
ssg82
Nsg75
(lp688
g68
(g84
g70
NtRp689
(dp690
g73
(dp691
sg82
g685
sg75
(lp692
g68
(g89
g70
NtRp693
(dp694
g73
(dp695
g93
g94
ssg82
g689
sg75
(lp696
g317
asbag68
(g89
g70
NtRp697
(dp698
g73
(dp699
g100
g101
ssg82
g689
sg75
(lp700
S':'
asbag68
(g89
g70
NtRp701
(dp702
g73
(dp703
sg82
g689
sg75
(lp704
g68
(g69
g70
NtRp705
(dp706
g73
(dp707
g81
I3
ssg82
g701
sg75
(lp708
S''
asbasbasbag68
(g84
g70
NtRp709
(dp710
g73
(dp711
sg82
g685
sg75
(lp712
g68
(g89
g70
NtRp713
(dp714
g73
(dp715
g93
g94
ssg82
g709
sg75
(lp716
g338
asbag68
(g89
g70
NtRp717
(dp718
g73
(dp719
g100
g101
ssg82
g709
sg75
(lp720
S':'
asbag68
(g89
g70
NtRp721
(dp722
g73
(dp723
sg82
g709
sg75
(lp724
g68
(g69
g70
NtRp725
(dp726
g73
(dp727
g81
I3
ssg82
g721
sg75
(lp728
S''
asbasbasbag68
(g84
g70
NtRp729
(dp730
g73
(dp731
sg82
g685
sg75
(lp732
g68
(g89
g70
NtRp733
(dp734
g73
(dp735
g93
g94
ssg82
g729
sg75
(lp736
g359
asbag68
(g89
g70
NtRp737
(dp738
g73
(dp739
g100
g101
ssg82
g729
sg75
(lp740
S':'
asbag68
(g89
g70
NtRp741
(dp742
g73
(dp743
sg82
g729
sg75
(lp744
g68
(g69
g70
NtRp745
(dp746
g73
(dp747
g81
I3
ssg82
g741
sg75
(lp748
S''
asbasbasbag68
(g84
g70
NtRp749
(dp750
g73
(dp751
sg82
g685
sg75
(lp752
g68
(g89
g70
NtRp753
(dp754
g73
(dp755
g93
g94
ssg82
g749
sg75
(lp756
g380
asbag68
(g89
g70
NtRp757
(dp758
g73
(dp759
g100
g101
ssg82
g749
sg75
(lp760
S':'
asbag68
(g89
g70
NtRp761
(dp762
g73
(dp763
sg82
g749
sg75
(lp764
g68
(g69
g70
NtRp765
(dp766
g73
(dp767
g81
I3
ssg82
g761
sg75
(lp768
S''
asbasbasbag68
(g84
g70
NtRp769
(dp770
g73
(dp771
sg82
g685
sg75
(lp772
g68
(g89
g70
NtRp773
(dp774
g73
(dp775
g93
g94
ssg82
g769
sg75
(lp776
g401
asbag68
(g89
g70
NtRp777
(dp778
g73
(dp779
g100
g101
ssg82
g769
sg75
(lp780
S':'
asbag68
(g89
g70
NtRp781
(dp782
g73
(dp783
sg82
g769
sg75
(lp784
g68
(g69
g70
NtRp785
(dp786
g73
(dp787
g81
I3
ssg82
g781
sg75
(lp788
S''
asbasbasbag68
(g84
g70
NtRp789
(dp790
g73
(dp791
sg82
g685
sg75
(lp792
g68
(g89
g70
NtRp793
(dp794
g73
(dp795
g93
g94
ssg82
g789
sg75
(lp796
g422
asbag68
(g89
g70
NtRp797
(dp798
g73
(dp799
g100
g101
ssg82
g789
sg75
(lp800
S':'
asbag68
(g89
g70
NtRp801
(dp802
g73
(dp803
sg82
g789
sg75
(lp804
g68
(g69
g70
NtRp805
(dp806
g73
(dp807
g81
I3
ssg82
g801
sg75
(lp808
S''
asbasbasbag68
(g84
g70
NtRp809
(dp810
g73
(dp811
sg82
g685
sg75
(lp812
g68
(g89
g70
NtRp813
(dp814
g73
(dp815
g93
g94
ssg82
g809
sg75
(lp816
g443
asbag68
(g89
g70
NtRp817
(dp818
g73
(dp819
g100
g101
ssg82
g809
sg75
(lp820
S':'
asbag68
(g89
g70
NtRp821
(dp822
g73
(dp823
sg82
g809
sg75
(lp824
g68
(g69
g70
NtRp825
(dp826
g73
(dp827
g81
I3
ssg82
g821
sg75
(lp828
S''
asbasbasbag68
(g84
g70
NtRp829
(dp830
g73
(dp831
sg82
g685
sg75
(lp832
g68
(g89
g70
NtRp833
(dp834
g73
(dp835
g93
g94
ssg82
g829
sg75
(lp836
g464
asbag68
(g89
g70
NtRp837
(dp838
g73
(dp839
g100
g101
ssg82
g829
sg75
(lp840
S':'
asbag68
(g89
g70
NtRp841
(dp842
g73
(dp843
sg82
g829
sg75
(lp844
g68
(g69
g70
NtRp845
(dp846
g73
(dp847
g81
I3
ssg82
g841
sg75
(lp848
S''
asbasbasbasbasbasbasbag68
(g84
g70
NtRp849
(dp850
g73
(dp851
sg82
g279
sg75
(lp852
g68
(g89
g70
NtRp853
(dp854
g73
(dp855
g93
g94
ssg82
g849
sg75
(lp856
S'session_id_welcome'
p857
asbag68
(g89
g70
NtRp858
(dp859
g73
(dp860
g100
g101
ssg82
g849
sg75
(lp861
S':'
asbag68
(g89
g70
NtRp862
(dp863
g73
(dp864
sg82
g849
sg75
(lp865
g68
(g69
g70
NtRp866
(dp867
g73
(dp868
g81
I4
ssg82
g862
sg75
(lp869
S'127.0.0.1-3299e4b7-9181-4336-a2b6-d67ebc8bfe8e'
p870
ag68
(g77
g70
NtRp871
(dp872
g73
(dp873
g81
I3
ssg82
Nsg75
(lp874
g68
(g84
g70
NtRp875
(dp876
g73
(dp877
sg82
g871
sg75
(lp878
g68
(g89
g70
NtRp879
(dp880
g73
(dp881
g93
g94
ssg82
g875
sg75
(lp882
g317
asbag68
(g89
g70
NtRp883
(dp884
g73
(dp885
g100
g101
ssg82
g875
sg75
(lp886
S':'
asbag68
(g89
g70
NtRp887
(dp888
g73
(dp889
sg82
g875
sg75
(lp890
g68
(g69
g70
NtRp891
(dp892
g73
(dp893
g81
I3
ssg82
g887
sg75
(lp894
S''
asbasbasbag68
(g84
g70
NtRp895
(dp896
g73
(dp897
sg82
g871
sg75
(lp898
g68
(g89
g70
NtRp899
(dp900
g73
(dp901
g93
g94
ssg82
g895
sg75
(lp902
g338
asbag68
(g89
g70
NtRp903
(dp904
g73
(dp905
g100
g101
ssg82
g895
sg75
(lp906
S':'
asbag68
(g89
g70
NtRp907
(dp908
g73
(dp909
sg82
g895
sg75
(lp910
g68
(g69
g70
NtRp911
(dp912
g73
(dp913
g81
I3
ssg82
g907
sg75
(lp914
S''
asbasbasbag68
(g84
g70
NtRp915
(dp916
g73
(dp917
sg82
g871
sg75
(lp918
g68
(g89
g70
NtRp919
(dp920
g73
(dp921
g93
g94
ssg82
g915
sg75
(lp922
g359
asbag68
(g89
g70
NtRp923
(dp924
g73
(dp925
g100
g101
ssg82
g915
sg75
(lp926
S':'
asbag68
(g89
g70
NtRp927
(dp928
g73
(dp929
sg82
g915
sg75
(lp930
g68
(g69
g70
NtRp931
(dp932
g73
(dp933
g81
I3
ssg82
g927
sg75
(lp934
S''
asbasbasbag68
(g84
g70
NtRp935
(dp936
g73
(dp937
sg82
g871
sg75
(lp938
g68
(g89
g70
NtRp939
(dp940
g73
(dp941
g93
g94
ssg82
g935
sg75
(lp942
g380
asbag68
(g89
g70
NtRp943
(dp944
g73
(dp945
g100
g101
ssg82
g935
sg75
(lp946
S':'
asbag68
(g89
g70
NtRp947
(dp948
g73
(dp949
sg82
g935
sg75
(lp950
g68
(g69
g70
NtRp951
(dp952
g73
(dp953
g81
I3
ssg82
g947
sg75
(lp954
S''
asbasbasbag68
(g84
g70
NtRp955
(dp956
g73
(dp957
sg82
g871
sg75
(lp958
g68
(g89
g70
NtRp959
(dp960
g73
(dp961
g93
g94
ssg82
g955
sg75
(lp962
g401
asbag68
(g89
g70
NtRp963
(dp964
g73
(dp965
g100
g101
ssg82
g955
sg75
(lp966
S':'
asbag68
(g89
g70
NtRp967
(dp968
g73
(dp969
sg82
g955
sg75
(lp970
g68
(g69
g70
NtRp971
(dp972
g73
(dp973
g81
I3
ssg82
g967
sg75
(lp974
S''
asbasbasbag68
(g84
g70
NtRp975
(dp976
g73
(dp977
sg82
g871
sg75
(lp978
g68
(g89
g70
NtRp979
(dp980
g73
(dp981
g93
g94
ssg82
g975
sg75
(lp982
g422
asbag68
(g89
g70
NtRp983
(dp984
g73
(dp985
g100
g101
ssg82
g975
sg75
(lp986
S':'
asbag68
(g89
g70
NtRp987
(dp988
g73
(dp989
sg82
g975
sg75
(lp990
g68
(g69
g70
NtRp991
(dp992
g73
(dp993
g81
I3
ssg82
g987
sg75
(lp994
S''
asbasbasbag68
(g84
g70
NtRp995
(dp996
g73
(dp997
sg82
g871
sg75
(lp998
g68
(g89
g70
NtRp999
(dp1000
g73
(dp1001
g93
g94
ssg82
g995
sg75
(lp1002
g443
asbag68
(g89
g70
NtRp1003
(dp1004
g73
(dp1005
g100
g101
ssg82
g995
sg75
(lp1006
S':'
asbag68
(g89
g70
NtRp1007
(dp1008
g73
(dp1009
sg82
g995
sg75
(lp1010
g68
(g69
g70
NtRp1011
(dp1012
g73
(dp1013
g81
I3
ssg82
g1007
sg75
(lp1014
S''
asbasbasbag68
(g84
g70
NtRp1015
(dp1016
g73
(dp1017
sg82
g871
sg75
(lp1018
g68
(g89
g70
NtRp1019
(dp1020
g73
(dp1021
g93
g94
ssg82
g1015
sg75
(lp1022
g464
asbag68
(g89
g70
NtRp1023
(dp1024
g73
(dp1025
g100
g101
ssg82
g1015
sg75
(lp1026
S':'
asbag68
(g89
g70
NtRp1027
(dp1028
g73
(dp1029
sg82
g1015
sg75
(lp1030
g68
(g69
g70
NtRp1031
(dp1032
g73
(dp1033
g81
I3
ssg82
g1027
sg75
(lp1034
S''
asbasbasbasbasbasbasbasbasbasbasbag68
(g84
g70
NtRp1035
(dp1036
g73
(dp1037
sg82
g78
sg75
(lp1038
g68
(g89
g70
NtRp1039
(dp1040
g73
(dp1041
g93
g94
ssg82
g1035
sg75
(lp1042
S'env'
p1043
asbag68
(g89
g70
NtRp1044
(dp1045
g73
(dp1046
g100
g101
ssg82
g1035
sg75
(lp1047
S':'
asbag68
(g89
g70
NtRp1048
(dp1049
g73
(dp1050
sg82
g1035
sg75
(lp1051
g68
(g69
g70
NtRp1052
(dp1053
g73
(dp1054
g81
I5
ssg82
g1048
sg75
(lp1055
g68
(g77
g70
NtRp1056
(dp1057
g73
(dp1058
g81
I4
ssg82
Nsg75
(lp1059
g68
(g84
g70
NtRp1060
(dp1061
g73
(dp1062
sg82
g1056
sg75
(lp1063
g68
(g89
g70
NtRp1064
(dp1065
g73
(dp1066
g93
g94
ssg82
g1060
sg75
(lp1067
S'app_folders'
p1068
asbag68
(g89
g70
NtRp1069
(dp1070
g73
(dp1071
g100
g101
ssg82
g1060
sg75
(lp1072
S':'
asbag68
(g89
g70
NtRp1073
(dp1074
g73
(dp1075
sg82
g1060
sg75
(lp1076
g68
(g69
g70
NtRp1077
(dp1078
g73
(dp1079
g81
I4
ssg82
g1073
sg75
(lp1080
S"set(['/home/piyush/web2py/applications/FotoBuk/', '/home/piyush/web2py/applications/welcome/', '/home/piyush/web2py/applications/admin/'])"
p1081
asbasbasbag68
(g84
g70
NtRp1082
(dp1083
g73
(dp1084
sg82
g1056
sg75
(lp1085
g68
(g89
g70
NtRp1086
(dp1087
g73
(dp1088
g93
g94
ssg82
g1082
sg75
(lp1089
S'applications_parent'
p1090
asbag68
(g89
g70
NtRp1091
(dp1092
g73
(dp1093
g100
g101
ssg82
g1082
sg75
(lp1094
S':'
asbag68
(g89
g70
NtRp1095
(dp1096
g73
(dp1097
sg82
g1082
sg75
(lp1098
g68
(g69
g70
NtRp1099
(dp1100
g73
(dp1101
g81
I4
ssg82
g1095
sg75
(lp1102
S'/home/piyush/web2py'
p1103
asbasbasbag68
(g84
g70
NtRp1104
(dp1105
g73
(dp1106
sg82
g1056
sg75
(lp1107
g68
(g89
g70
NtRp1108
(dp1109
g73
(dp1110
g93
g94
ssg82
g1104
sg75
(lp1111
S'cmd_args'
p1112
asbag68
(g89
g70
NtRp1113
(dp1114
g73
(dp1115
g100
g101
ssg82
g1104
sg75
(lp1116
S':'
asbag68
(g89
g70
NtRp1117
(dp1118
g73
(dp1119
sg82
g1104
sg75
(lp1120
g68
(g69
g70
NtRp1121
(dp1122
g73
(dp1123
g81
I4
ssg82
g1117
sg75
(lp1124
g68
(g77
g70
NtRp1125
(dp1126
g73
(dp1127
g81
I3
ssg82
Nsg75
(lp1128
sbasbasbasbag68
(g84
g70
NtRp1129
(dp1130
g73
(dp1131
sg82
g1056
sg75
(lp1132
g68
(g89
g70
NtRp1133
(dp1134
g73
(dp1135
g93
g94
ssg82
g1129
sg75
(lp1136
S'cmd_options'
p1137
asbag68
(g89
g70
NtRp1138
(dp1139
g73
(dp1140
g100
g101
ssg82
g1129
sg75
(lp1141
S':'
asbag68
(g89
g70
NtRp1142
(dp1143
g73
(dp1144
sg82
g1129
sg75
(lp1145
g68
(g69
g70
NtRp1146
(dp1147
g73
(dp1148
g81
I4
ssg82
g1142
sg75
(lp1149
S"<Values at 0x8d4130c: {'verbose': False, 'ip': '127.0.0.1', 'with_scheduler': False, 'ips': ['10.1.39.167', '10.42.0.1'], 'shutdown_timeout': 5, 'taskbar': False, 'port': 8000, 'maxthreads': None, 'softcron': False, 'server_name': 'Solo', 'bpython': False, 'nogui': False, 'nocron': False, 'extcron': False, 'run_system_tests': False, 'test': None, 'folder': '/home/piyush/web2py', 'config': '', 'import_models': False, 'winservice': '', 'shell': None, 'run': '', 'log_filename': 'httpserver.log', 'debuglevel': 30, 'args': [''], 'socket_timeout': 5, 'ssl_ca_certificate': None, 'scheduler': None, 'profiler_filename': None, 'ssl_private_key': '', 'scheduler_groups': None, 'password': '<ask>', 'request_queue_size': 5, 'ssl_certificate': '', 'cronjob': False, 'numthreads': None, 'quiet': False, 'interfaces': None, 'minthreads': None, 'timeout': 10, 'plain': False, 'nobanner': False, 'pid_filename': 'httpserver.pid'}>"
p1150
asbasbasbag68
(g84
g70
NtRp1151
(dp1152
g73
(dp1153
sg82
g1056
sg75
(lp1154
g68
(g89
g70
NtRp1155
(dp1156
g73
(dp1157
g93
g94
ssg82
g1151
sg75
(lp1158
S'content_length'
p1159
asbag68
(g89
g70
NtRp1160
(dp1161
g73
(dp1162
g100
g101
ssg82
g1151
sg75
(lp1163
S':'
asbag68
(g89
g70
NtRp1164
(dp1165
g73
(dp1166
sg82
g1151
sg75
(lp1167
g68
(g69
g70
NtRp1168
(dp1169
g73
(dp1170
g81
I4
ssg82
g1164
sg75
(lp1171
S'333'
p1172
asbasbasbag68
(g84
g70
NtRp1173
(dp1174
g73
(dp1175
sg82
g1056
sg75
(lp1176
g68
(g89
g70
NtRp1177
(dp1178
g73
(dp1179
g93
g94
ssg82
g1173
sg75
(lp1180
S'content_type'
p1181
asbag68
(g89
g70
NtRp1182
(dp1183
g73
(dp1184
g100
g101
ssg82
g1173
sg75
(lp1185
S':'
asbag68
(g89
g70
NtRp1186
(dp1187
g73
(dp1188
sg82
g1173
sg75
(lp1189
g68
(g69
g70
NtRp1190
(dp1191
g73
(dp1192
g81
I4
ssg82
g1186
sg75
(lp1193
S'multipart/form-data; boundary=---------------------------7586407451951057806267572355'
p1194
asbasbasbag68
(g84
g70
NtRp1195
(dp1196
g73
(dp1197
sg82
g1056
sg75
(lp1198
g68
(g89
g70
NtRp1199
(dp1200
g73
(dp1201
g93
g94
ssg82
g1195
sg75
(lp1202
S'db_sessions'
p1203
asbag68
(g89
g70
NtRp1204
(dp1205
g73
(dp1206
g100
g101
ssg82
g1195
sg75
(lp1207
S':'
asbag68
(g89
g70
NtRp1208
(dp1209
g73
(dp1210
sg82
g1195
sg75
(lp1211
g68
(g69
g70
NtRp1212
(dp1213
g73
(dp1214
g81
I4
ssg82
g1208
sg75
(lp1215
S'set([])'
p1216
asbasbasbag68
(g84
g70
NtRp1217
(dp1218
g73
(dp1219
sg82
g1056
sg75
(lp1220
g68
(g89
g70
NtRp1221
(dp1222
g73
(dp1223
g93
g94
ssg82
g1217
sg75
(lp1224
S'debugging'
p1225
asbag68
(g89
g70
NtRp1226
(dp1227
g73
(dp1228
g100
g101
ssg82
g1217
sg75
(lp1229
S':'
asbag68
(g89
g70
NtRp1230
(dp1231
g73
(dp1232
sg82
g1217
sg75
(lp1233
g68
(g69
g70
NtRp1234
(dp1235
g73
(dp1236
g81
I4
ssg82
g1230
sg75
(lp1237
g111
asbasbasbag68
(g84
g70
NtRp1238
(dp1239
g73
(dp1240
sg82
g1056
sg75
(lp1241
g68
(g89
g70
NtRp1242
(dp1243
g73
(dp1244
g93
g94
ssg82
g1238
sg75
(lp1245
S'gluon_parent'
p1246
asbag68
(g89
g70
NtRp1247
(dp1248
g73
(dp1249
g100
g101
ssg82
g1238
sg75
(lp1250
S':'
asbag68
(g89
g70
NtRp1251
(dp1252
g73
(dp1253
sg82
g1238
sg75
(lp1254
g68
(g69
g70
NtRp1255
(dp1256
g73
(dp1257
g81
I4
ssg82
g1251
sg75
(lp1258
S'/home/piyush/web2py'
p1259
asbasbasbag68
(g84
g70
NtRp1260
(dp1261
g73
(dp1262
sg82
g1056
sg75
(lp1263
g68
(g89
g70
NtRp1264
(dp1265
g73
(dp1266
g93
g94
ssg82
g1260
sg75
(lp1267
S'http_accept'
p1268
asbag68
(g89
g70
NtRp1269
(dp1270
g73
(dp1271
g100
g101
ssg82
g1260
sg75
(lp1272
S':'
asbag68
(g89
g70
NtRp1273
(dp1274
g73
(dp1275
sg82
g1260
sg75
(lp1276
g68
(g69
g70
NtRp1277
(dp1278
g73
(dp1279
g81
I4
ssg82
g1273
sg75
(lp1280
S'text/html,application/xhtml+xml,application/xml;q=0.9,*/*;q=0.8'
p1281
asbasbasbag68
(g84
g70
NtRp1282
(dp1283
g73
(dp1284
sg82
g1056
sg75
(lp1285
g68
(g89
g70
NtRp1286
(dp1287
g73
(dp1288
g93
g94
ssg82
g1282
sg75
(lp1289
S'http_accept_encoding'
p1290
asbag68
(g89
g70
NtRp1291
(dp1292
g73
(dp1293
g100
g101
ssg82
g1282
sg75
(lp1294
S':'
asbag68
(g89
g70
NtRp1295
(dp1296
g73
(dp1297
sg82
g1282
sg75
(lp1298
g68
(g69
g70
NtRp1299
(dp1300
g73
(dp1301
g81
I4
ssg82
g1295
sg75
(lp1302
S'gzip, deflate'
p1303
asbasbasbag68
(g84
g70
NtRp1304
(dp1305
g73
(dp1306
sg82
g1056
sg75
(lp1307
g68
(g89
g70
NtRp1308
(dp1309
g73
(dp1310
g93
g94
ssg82
g1304
sg75
(lp1311
S'http_accept_language'
p1312
asbag68
(g89
g70
NtRp1313
(dp1314
g73
(dp1315
g100
g101
ssg82
g1304
sg75
(lp1316
S':'
asbag68
(g89
g70
NtRp1317
(dp1318
g73
(dp1319
sg82
g1304
sg75
(lp1320
g68
(g69
g70
NtRp1321
(dp1322
g73
(dp1323
g81
I4
ssg82
g1317
sg75
(lp1324
S'en-us,en;q=0.5'
p1325
asbasbasbag68
(g84
g70
NtRp1326
(dp1327
g73
(dp1328
sg82
g1056
sg75
(lp1329
g68
(g89
g70
NtRp1330
(dp1331
g73
(dp1332
g93
g94
ssg82
g1326
sg75
(lp1333
S'http_cache_control'
p1334
asbag68
(g89
g70
NtRp1335
(dp1336
g73
(dp1337
g100
g101
ssg82
g1326
sg75
(lp1338
S':'
asbag68
(g89
g70
NtRp1339
(dp1340
g73
(dp1341
sg82
g1326
sg75
(lp1342
g68
(g69
g70
NtRp1343
(dp1344
g73
(dp1345
g81
I4
ssg82
g1339
sg75
(lp1346
S'max-age=0'
p1347
asbasbasbag68
(g84
g70
NtRp1348
(dp1349
g73
(dp1350
sg82
g1056
sg75
(lp1351
g68
(g89
g70
NtRp1352
(dp1353
g73
(dp1354
g93
g94
ssg82
g1348
sg75
(lp1355
S'http_connection'
p1356
asbag68
(g89
g70
NtRp1357
(dp1358
g73
(dp1359
g100
g101
ssg82
g1348
sg75
(lp1360
S':'
asbag68
(g89
g70
NtRp1361
(dp1362
g73
(dp1363
sg82
g1348
sg75
(lp1364
g68
(g69
g70
NtRp1365
(dp1366
g73
(dp1367
g81
I4
ssg82
g1361
sg75
(lp1368
S'keep-alive'
p1369
asbasbasbag68
(g84
g70
NtRp1370
(dp1371
g73
(dp1372
sg82
g1056
sg75
(lp1373
g68
(g89
g70
NtRp1374
(dp1375
g73
(dp1376
g93
g94
ssg82
g1370
sg75
(lp1377
S'http_content_length'
p1378
asbag68
(g89
g70
NtRp1379
(dp1380
g73
(dp1381
g100
g101
ssg82
g1370
sg75
(lp1382
S':'
asbag68
(g89
g70
NtRp1383
(dp1384
g73
(dp1385
sg82
g1370
sg75
(lp1386
g68
(g69
g70
NtRp1387
(dp1388
g73
(dp1389
g81
I4
ssg82
g1383
sg75
(lp1390
g1172
asbasbasbag68
(g84
g70
NtRp1391
(dp1392
g73
(dp1393
sg82
g1056
sg75
(lp1394
g68
(g89
g70
NtRp1395
(dp1396
g73
(dp1397
g93
g94
ssg82
g1391
sg75
(lp1398
S'http_content_type'
p1399
asbag68
(g89
g70
NtRp1400
(dp1401
g73
(dp1402
g100
g101
ssg82
g1391
sg75
(lp1403
S':'
asbag68
(g89
g70
NtRp1404
(dp1405
g73
(dp1406
sg82
g1391
sg75
(lp1407
g68
(g69
g70
NtRp1408
(dp1409
g73
(dp1410
g81
I4
ssg82
g1404
sg75
(lp1411
g1194
asbasbasbag68
(g84
g70
NtRp1412
(dp1413
g73
(dp1414
sg82
g1056
sg75
(lp1415
g68
(g89
g70
NtRp1416
(dp1417
g73
(dp1418
g93
g94
ssg82
g1412
sg75
(lp1419
S'http_cookie'
p1420
asbag68
(g89
g70
NtRp1421
(dp1422
g73
(dp1423
g100
g101
ssg82
g1412
sg75
(lp1424
S':'
asbag68
(g89
g70
NtRp1425
(dp1426
g73
(dp1427
sg82
g1412
sg75
(lp1428
g68
(g69
g70
NtRp1429
(dp1430
g73
(dp1431
g81
I4
ssg82
g1425
sg75
(lp1432
S'session_id_welcome=127.0.0.1-3299e4b7-9181-4336-a2b6-d67ebc8bfe8e; session_id_admin=127.0.0.1-f31a16a6-2f0e-474e-b0b5-7ca781ebd64d; session_id_ialbum=127.0.0.1-8bab57f4-8655-4ca4-8b5d-11fde04576c5; session_id_fotobuk=127.0.0.1-961e4bc4-dc07-4e6c-b9f7-52a46e56ffd5'
p1433
asbasbasbag68
(g84
g70
NtRp1434
(dp1435
g73
(dp1436
sg82
g1056
sg75
(lp1437
g68
(g89
g70
NtRp1438
(dp1439
g73
(dp1440
g93
g94
ssg82
g1434
sg75
(lp1441
S'http_host'
p1442
asbag68
(g89
g70
NtRp1443
(dp1444
g73
(dp1445
g100
g101
ssg82
g1434
sg75
(lp1446
S':'
asbag68
(g89
g70
NtRp1447
(dp1448
g73
(dp1449
sg82
g1434
sg75
(lp1450
g68
(g69
g70
NtRp1451
(dp1452
g73
(dp1453
g81
I4
ssg82
g1447
sg75
(lp1454
S'localhost:8000'
p1455
asbasbasbag68
(g84
g70
NtRp1456
(dp1457
g73
(dp1458
sg82
g1056
sg75
(lp1459
g68
(g89
g70
NtRp1460
(dp1461
g73
(dp1462
g93
g94
ssg82
g1456
sg75
(lp1463
S'http_referer'
p1464
asbag68
(g89
g70
NtRp1465
(dp1466
g73
(dp1467
g100
g101
ssg82
g1456
sg75
(lp1468
S':'
asbag68
(g89
g70
NtRp1469
(dp1470
g73
(dp1471
sg82
g1456
sg75
(lp1472
g68
(g69
g70
NtRp1473
(dp1474
g73
(dp1475
g81
I4
ssg82
g1469
sg75
(lp1476
S'http://localhost:8000/FotoBuk/default/show/2'
p1477
asbasbasbag68
(g84
g70
NtRp1478
(dp1479
g73
(dp1480
sg82
g1056
sg75
(lp1481
g68
(g89
g70
NtRp1482
(dp1483
g73
(dp1484
g93
g94
ssg82
g1478
sg75
(lp1485
S'http_user_agent'
p1486
asbag68
(g89
g70
NtRp1487
(dp1488
g73
(dp1489
g100
g101
ssg82
g1478
sg75
(lp1490
S':'
asbag68
(g89
g70
NtRp1491
(dp1492
g73
(dp1493
sg82
g1478
sg75
(lp1494
g68
(g69
g70
NtRp1495
(dp1496
g73
(dp1497
g81
I4
ssg82
g1491
sg75
(lp1498
S'Mozilla/5.0 (X11; Linux i686; rv:11.0) Gecko/20100101 Firefox/11.0'
p1499
asbasbasbag68
(g84
g70
NtRp1500
(dp1501
g73
(dp1502
sg82
g1056
sg75
(lp1503
g68
(g89
g70
NtRp1504
(dp1505
g73
(dp1506
g93
g94
ssg82
g1500
sg75
(lp1507
S'is_jython'
p1508
asbag68
(g89
g70
NtRp1509
(dp1510
g73
(dp1511
g100
g101
ssg82
g1500
sg75
(lp1512
S':'
asbag68
(g89
g70
NtRp1513
(dp1514
g73
(dp1515
sg82
g1500
sg75
(lp1516
g68
(g69
g70
NtRp1517
(dp1518
g73
(dp1519
g81
I4
ssg82
g1513
sg75
(lp1520
g111
asbasbasbag68
(g84
g70
NtRp1521
(dp1522
g73
(dp1523
sg82
g1056
sg75
(lp1524
g68
(g89
g70
NtRp1525
(dp1526
g73
(dp1527
g93
g94
ssg82
g1521
sg75
(lp1528
S'is_pypy'
p1529
asbag68
(g89
g70
NtRp1530
(dp1531
g73
(dp1532
g100
g101
ssg82
g1521
sg75
(lp1533
S':'
asbag68
(g89
g70
NtRp1534
(dp1535
g73
(dp1536
sg82
g1521
sg75
(lp1537
g68
(g69
g70
NtRp1538
(dp1539
g73
(dp1540
g81
I4
ssg82
g1534
sg75
(lp1541
g111
asbasbasbag68
(g84
g70
NtRp1542
(dp1543
g73
(dp1544
sg82
g1056
sg75
(lp1545
g68
(g89
g70
NtRp1546
(dp1547
g73
(dp1548
g93
g94
ssg82
g1542
sg75
(lp1549
S'path_info'
p1550
asbag68
(g89
g70
NtRp1551
(dp1552
g73
(dp1553
g100
g101
ssg82
g1542
sg75
(lp1554
S':'
asbag68
(g89
g70
NtRp1555
(dp1556
g73
(dp1557
sg82
g1542
sg75
(lp1558
g68
(g69
g70
NtRp1559
(dp1560
g73
(dp1561
g81
I4
ssg82
g1555
sg75
(lp1562
S'/FotoBuk/default/show/2'
p1563
asbasbasbag68
(g84
g70
NtRp1564
(dp1565
g73
(dp1566
sg82
g1056
sg75
(lp1567
g68
(g89
g70
NtRp1568
(dp1569
g73
(dp1570
g93
g94
ssg82
g1564
sg75
(lp1571
S'query_string'
p1572
asbag68
(g89
g70
NtRp1573
(dp1574
g73
(dp1575
g100
g101
ssg82
g1564
sg75
(lp1576
S':'
asbag68
(g89
g70
NtRp1577
(dp1578
g73
(dp1579
sg82
g1564
sg75
(lp1580
g68
(g69
g70
NtRp1581
(dp1582
g73
(dp1583
g81
I4
ssg82
g1577
sg75
(lp1584
S''
asbasbasbag68
(g84
g70
NtRp1585
(dp1586
g73
(dp1587
sg82
g1056
sg75
(lp1588
g68
(g89
g70
NtRp1589
(dp1590
g73
(dp1591
g93
g94
ssg82
g1585
sg75
(lp1592
S'remote_addr'
p1593
asbag68
(g89
g70
NtRp1594
(dp1595
g73
(dp1596
g100
g101
ssg82
g1585
sg75
(lp1597
S':'
asbag68
(g89
g70
NtRp1598
(dp1599
g73
(dp1600
sg82
g1585
sg75
(lp1601
g68
(g69
g70
NtRp1602
(dp1603
g73
(dp1604
g81
I4
ssg82
g1598
sg75
(lp1605
g235
asbasbasbag68
(g84
g70
NtRp1606
(dp1607
g73
(dp1608
sg82
g1056
sg75
(lp1609
g68
(g89
g70
NtRp1610
(dp1611
g73
(dp1612
g93
g94
ssg82
g1606
sg75
(lp1613
S'remote_port'
p1614
asbag68
(g89
g70
NtRp1615
(dp1616
g73
(dp1617
g100
g101
ssg82
g1606
sg75
(lp1618
S':'
asbag68
(g89
g70
NtRp1619
(dp1620
g73
(dp1621
sg82
g1606
sg75
(lp1622
g68
(g69
g70
NtRp1623
(dp1624
g73
(dp1625
g81
I4
ssg82
g1619
sg75
(lp1626
S'52706'
p1627
asbasbasbag68
(g84
g70
NtRp1628
(dp1629
g73
(dp1630
sg82
g1056
sg75
(lp1631
g68
(g89
g70
NtRp1632
(dp1633
g73
(dp1634
g93
g94
ssg82
g1628
sg75
(lp1635
S'request_method'
p1636
asbag68
(g89
g70
NtRp1637
(dp1638
g73
(dp1639
g100
g101
ssg82
g1628
sg75
(lp1640
S':'
asbag68
(g89
g70
NtRp1641
(dp1642
g73
(dp1643
sg82
g1628
sg75
(lp1644
g68
(g69
g70
NtRp1645
(dp1646
g73
(dp1647
g81
I4
ssg82
g1641
sg75
(lp1648
S'POST'
p1649
asbasbasbag68
(g84
g70
NtRp1650
(dp1651
g73
(dp1652
sg82
g1056
sg75
(lp1653
g68
(g89
g70
NtRp1654
(dp1655
g73
(dp1656
g93
g94
ssg82
g1650
sg75
(lp1657
S'script_name'
p1658
asbag68
(g89
g70
NtRp1659
(dp1660
g73
(dp1661
g100
g101
ssg82
g1650
sg75
(lp1662
S':'
asbag68
(g89
g70
NtRp1663
(dp1664
g73
(dp1665
sg82
g1650
sg75
(lp1666
g68
(g69
g70
NtRp1667
(dp1668
g73
(dp1669
g81
I4
ssg82
g1663
sg75
(lp1670
S''
asbasbasbag68
(g84
g70
NtRp1671
(dp1672
g73
(dp1673
sg82
g1056
sg75
(lp1674
g68
(g89
g70
NtRp1675
(dp1676
g73
(dp1677
g93
g94
ssg82
g1671
sg75
(lp1678
S'server_name'
p1679
asbag68
(g89
g70
NtRp1680
(dp1681
g73
(dp1682
g100
g101
ssg82
g1671
sg75
(lp1683
S':'
asbag68
(g89
g70
NtRp1684
(dp1685
g73
(dp1686
sg82
g1671
sg75
(lp1687
g68
(g69
g70
NtRp1688
(dp1689
g73
(dp1690
g81
I4
ssg82
g1684
sg75
(lp1691
S'Solo'
p1692
asbasbasbag68
(g84
g70
NtRp1693
(dp1694
g73
(dp1695
sg82
g1056
sg75
(lp1696
g68
(g89
g70
NtRp1697
(dp1698
g73
(dp1699
g93
g94
ssg82
g1693
sg75
(lp1700
S'server_port'
p1701
asbag68
(g89
g70
NtRp1702
(dp1703
g73
(dp1704
g100
g101
ssg82
g1693
sg75
(lp1705
S':'
asbag68
(g89
g70
NtRp1706
(dp1707
g73
(dp1708
sg82
g1693
sg75
(lp1709
g68
(g69
g70
NtRp1710
(dp1711
g73
(dp1712
g81
I4
ssg82
g1706
sg75
(lp1713
S'8000'
p1714
asbasbasbag68
(g84
g70
NtRp1715
(dp1716
g73
(dp1717
sg82
g1056
sg75
(lp1718
g68
(g89
g70
NtRp1719
(dp1720
g73
(dp1721
g93
g94
ssg82
g1715
sg75
(lp1722
S'server_protocol'
p1723
asbag68
(g89
g70
NtRp1724
(dp1725
g73
(dp1726
g100
g101
ssg82
g1715
sg75
(lp1727
S':'
asbag68
(g89
g70
NtRp1728
(dp1729
g73
(dp1730
sg82
g1715
sg75
(lp1731
g68
(g69
g70
NtRp1732
(dp1733
g73
(dp1734
g81
I4
ssg82
g1728
sg75
(lp1735
S'HTTP/1.1'
p1736
asbasbasbag68
(g84
g70
NtRp1737
(dp1738
g73
(dp1739
sg82
g1056
sg75
(lp1740
g68
(g89
g70
NtRp1741
(dp1742
g73
(dp1743
g93
g94
ssg82
g1737
sg75
(lp1744
S'server_software'
p1745
asbag68
(g89
g70
NtRp1746
(dp1747
g73
(dp1748
g100
g101
ssg82
g1737
sg75
(lp1749
S':'
asbag68
(g89
g70
NtRp1750
(dp1751
g73
(dp1752
sg82
g1737
sg75
(lp1753
g68
(g69
g70
NtRp1754
(dp1755
g73
(dp1756
g81
I4
ssg82
g1750
sg75
(lp1757
S'Rocket 1.2.4'
p1758
asbasbasbag68
(g84
g70
NtRp1759
(dp1760
g73
(dp1761
sg82
g1056
sg75
(lp1762
g68
(g89
g70
NtRp1763
(dp1764
g73
(dp1765
g93
g94
ssg82
g1759
sg75
(lp1766
S'web2py_crontype'
p1767
asbag68
(g89
g70
NtRp1768
(dp1769
g73
(dp1770
g100
g101
ssg82
g1759
sg75
(lp1771
S':'
asbag68
(g89
g70
NtRp1772
(dp1773
g73
(dp1774
sg82
g1759
sg75
(lp1775
g68
(g69
g70
NtRp1776
(dp1777
g73
(dp1778
g81
I4
ssg82
g1772
sg75
(lp1779
S'hard'
p1780
asbasbasbag68
(g84
g70
NtRp1781
(dp1782
g73
(dp1783
sg82
g1056
sg75
(lp1784
g68
(g89
g70
NtRp1785
(dp1786
g73
(dp1787
g93
g94
ssg82
g1781
sg75
(lp1788
S'web2py_path'
p1789
asbag68
(g89
g70
NtRp1790
(dp1791
g73
(dp1792
g100
g101
ssg82
g1781
sg75
(lp1793
S':'
asbag68
(g89
g70
NtRp1794
(dp1795
g73
(dp1796
sg82
g1781
sg75
(lp1797
g68
(g69
g70
NtRp1798
(dp1799
g73
(dp1800
g81
I4
ssg82
g1794
sg75
(lp1801
g1103
asbasbasbag68
(g84
g70
NtRp1802
(dp1803
g73
(dp1804
sg82
g1056
sg75
(lp1805
g68
(g89
g70
NtRp1806
(dp1807
g73
(dp1808
g93
g94
ssg82
g1802
sg75
(lp1809
S'web2py_version'
p1810
asbag68
(g89
g70
NtRp1811
(dp1812
g73
(dp1813
g100
g101
ssg82
g1802
sg75
(lp1814
S':'
asbag68
(g89
g70
NtRp1815
(dp1816
g73
(dp1817
sg82
g1802
sg75
(lp1818
g68
(g69
g70
NtRp1819
(dp1820
g73
(dp1821
g81
I4
ssg82
g1815
sg75
(lp1822
g68
(g77
g70
NtRp1823
(dp1824
g73
(dp1825
g81
I3
ssg82
Nsg75
(lp1826
g68
(g84
g70
NtRp1827
(dp1828
g73
(dp1829
sg82
g1823
sg75
(lp1830
g68
(g89
g70
NtRp1831
(dp1832
g73
(dp1833
sg82
g1827
sg75
(lp1834
g68
(g69
g70
NtRp1835
(dp1836
g73
(dp1837
g81
I3
ssg82
g1831
sg75
(lp1838
S'2'
asbasbasbag68
(g84
g70
NtRp1839
(dp1840
g73
(dp1841
sg82
g1823
sg75
(lp1842
g68
(g89
g70
NtRp1843
(dp1844
g73
(dp1845
sg82
g1839
sg75
(lp1846
g68
(g69
g70
NtRp1847
(dp1848
g73
(dp1849
g81
I3
ssg82
g1843
sg75
(lp1850
S'0'
asbasbasbag68
(g84
g70
NtRp1851
(dp1852
g73
(dp1853
sg82
g1823
sg75
(lp1854
g68
(g89
g70
NtRp1855
(dp1856
g73
(dp1857
sg82
g1851
sg75
(lp1858
g68
(g69
g70
NtRp1859
(dp1860
g73
(dp1861
g81
I3
ssg82
g1855
sg75
(lp1862
S'2'
asbasbasbag68
(g84
g70
NtRp1863
(dp1864
g73
(dp1865
sg82
g1823
sg75
(lp1866
g68
(g89
g70
NtRp1867
(dp1868
g73
(dp1869
sg82
g1863
sg75
(lp1870
g68
(g69
g70
NtRp1871
(dp1872
g73
(dp1873
g81
I3
ssg82
g1867
sg75
(lp1874
S'datetime.datetime(2012, 8, 30, 4, 8, 18)'
p1875
asbasbasbag68
(g84
g70
NtRp1876
(dp1877
g73
(dp1878
sg82
g1823
sg75
(lp1879
g68
(g89
g70
NtRp1880
(dp1881
g73
(dp1882
sg82
g1876
sg75
(lp1883
g68
(g69
g70
NtRp1884
(dp1885
g73
(dp1886
g81
I3
ssg82
g1880
sg75
(lp1887
S'stable'
p1888
asbasbasbasbasbasbasbag68
(g84
g70
NtRp1889
(dp1890
g73
(dp1891
sg82
g1056
sg75
(lp1892
g68
(g89
g70
NtRp1893
(dp1894
g73
(dp1895
g93
g94
ssg82
g1889
sg75
(lp1896
S'wsgi_errors'
p1897
asbag68
(g89
g70
NtRp1898
(dp1899
g73
(dp1900
g100
g101
ssg82
g1889
sg75
(lp1901
S':'
asbag68
(g89
g70
NtRp1902
(dp1903
g73
(dp1904
sg82
g1889
sg75
(lp1905
g68
(g69
g70
NtRp1906
(dp1907
g73
(dp1908
g81
I4
ssg82
g1902
sg75
(lp1909
S"<open file '<stderr>', mode 'w' at 0xb772d0d0>"
p1910
asbasbasbag68
(g84
g70
NtRp1911
(dp1912
g73
(dp1913
sg82
g1056
sg75
(lp1914
g68
(g89
g70
NtRp1915
(dp1916
g73
(dp1917
g93
g94
ssg82
g1911
sg75
(lp1918
S'wsgi_file_wrapper'
p1919
asbag68
(g89
g70
NtRp1920
(dp1921
g73
(dp1922
g100
g101
ssg82
g1911
sg75
(lp1923
S':'
asbag68
(g89
g70
NtRp1924
(dp1925
g73
(dp1926
sg82
g1911
sg75
(lp1927
g68
(g69
g70
NtRp1928
(dp1929
g73
(dp1930
g81
I4
ssg82
g1924
sg75
(lp1931
S'<class wsgiref.util.FileWrapper at 0x8d0326c>'
p1932
asbasbasbag68
(g84
g70
NtRp1933
(dp1934
g73
(dp1935
sg82
g1056
sg75
(lp1936
g68
(g89
g70
NtRp1937
(dp1938
g73
(dp1939
g93
g94
ssg82
g1933
sg75
(lp1940
S'wsgi_input'
p1941
asbag68
(g89
g70
NtRp1942
(dp1943
g73
(dp1944
g100
g101
ssg82
g1933
sg75
(lp1945
S':'
asbag68
(g89
g70
NtRp1946
(dp1947
g73
(dp1948
sg82
g1933
sg75
(lp1949
g68
(g69
g70
NtRp1950
(dp1951
g73
(dp1952
g81
I4
ssg82
g1946
sg75
(lp1953
S'<socket._fileobject object at 0xaf2b21ec>'
p1954
asbasbasbag68
(g84
g70
NtRp1955
(dp1956
g73
(dp1957
sg82
g1056
sg75
(lp1958
g68
(g89
g70
NtRp1959
(dp1960
g73
(dp1961
g93
g94
ssg82
g1955
sg75
(lp1962
S'wsgi_multiprocess'
p1963
asbag68
(g89
g70
NtRp1964
(dp1965
g73
(dp1966
g100
g101
ssg82
g1955
sg75
(lp1967
S':'
asbag68
(g89
g70
NtRp1968
(dp1969
g73
(dp1970
sg82
g1955
sg75
(lp1971
g68
(g69
g70
NtRp1972
(dp1973
g73
(dp1974
g81
I4
ssg82
g1968
sg75
(lp1975
g111
asbasbasbag68
(g84
g70
NtRp1976
(dp1977
g73
(dp1978
sg82
g1056
sg75
(lp1979
g68
(g89
g70
NtRp1980
(dp1981
g73
(dp1982
g93
g94
ssg82
g1976
sg75
(lp1983
S'wsgi_multithread'
p1984
asbag68
(g89
g70
NtRp1985
(dp1986
g73
(dp1987
g100
g101
ssg82
g1976
sg75
(lp1988
S':'
asbag68
(g89
g70
NtRp1989
(dp1990
g73
(dp1991
sg82
g1976
sg75
(lp1992
g68
(g69
g70
NtRp1993
(dp1994
g73
(dp1995
g81
I4
ssg82
g1989
sg75
(lp1996
S'True'
p1997
asbasbasbag68
(g84
g70
NtRp1998
(dp1999
g73
(dp2000
sg82
g1056
sg75
(lp2001
g68
(g89
g70
NtRp2002
(dp2003
g73
(dp2004
g93
g94
ssg82
g1998
sg75
(lp2005
S'wsgi_run_once'
p2006
asbag68
(g89
g70
NtRp2007
(dp2008
g73
(dp2009
g100
g101
ssg82
g1998
sg75
(lp2010
S':'
asbag68
(g89
g70
NtRp2011
(dp2012
g73
(dp2013
sg82
g1998
sg75
(lp2014
g68
(g69
g70
NtRp2015
(dp2016
g73
(dp2017
g81
I4
ssg82
g2011
sg75
(lp2018
g111
asbasbasbag68
(g84
g70
NtRp2019
(dp2020
g73
(dp2021
sg82
g1056
sg75
(lp2022
g68
(g89
g70
NtRp2023
(dp2024
g73
(dp2025
g93
g94
ssg82
g2019
sg75
(lp2026
S'wsgi_url_scheme'
p2027
asbag68
(g89
g70
NtRp2028
(dp2029
g73
(dp2030
g100
g101
ssg82
g2019
sg75
(lp2031
S':'
asbag68
(g89
g70
NtRp2032
(dp2033
g73
(dp2034
sg82
g2019
sg75
(lp2035
g68
(g69
g70
NtRp2036
(dp2037
g73
(dp2038
g81
I4
ssg82
g2032
sg75
(lp2039
S'http'
p2040
asbasbasbag68
(g84
g70
NtRp2041
(dp2042
g73
(dp2043
sg82
g1056
sg75
(lp2044
g68
(g89
g70
NtRp2045
(dp2046
g73
(dp2047
g93
g94
ssg82
g2041
sg75
(lp2048
S'wsgi_version'
p2049
asbag68
(g89
g70
NtRp2050
(dp2051
g73
(dp2052
g100
g101
ssg82
g2041
sg75
(lp2053
S':'
asbag68
(g89
g70
NtRp2054
(dp2055
g73
(dp2056
sg82
g2041
sg75
(lp2057
g68
(g69
g70
NtRp2058
(dp2059
g73
(dp2060
g81
I4
ssg82
g2054
sg75
(lp2061
g68
(g77
g70
NtRp2062
(dp2063
g73
(dp2064
g81
I3
ssg82
Nsg75
(lp2065
g68
(g84
g70
NtRp2066
(dp2067
g73
(dp2068
sg82
g2062
sg75
(lp2069
g68
(g89
g70
NtRp2070
(dp2071
g73
(dp2072
sg82
g2066
sg75
(lp2073
g68
(g69
g70
NtRp2074
(dp2075
g73
(dp2076
g81
I3
ssg82
g2070
sg75
(lp2077
S'1'
asbasbasbag68
(g84
g70
NtRp2078
(dp2079
g73
(dp2080
sg82
g2062
sg75
(lp2081
g68
(g89
g70
NtRp2082
(dp2083
g73
(dp2084
sg82
g2078
sg75
(lp2085
g68
(g69
g70
NtRp2086
(dp2087
g73
(dp2088
g81
I3
ssg82
g2082
sg75
(lp2089
S'0'
asbasbasbasbasbasbasbasbasbasbasbag68
(g84
g70
NtRp2090
(dp2091
g73
(dp2092
sg82
g78
sg75
(lp2093
g68
(g89
g70
NtRp2094
(dp2095
g73
(dp2096
g93
g94
ssg82
g2090
sg75
(lp2097
S'extension'
p2098
asbag68
(g89
g70
NtRp2099
(dp2100
g73
(dp2101
g100
g101
ssg82
g2090
sg75
(lp2102
S':'
asbag68
(g89
g70
NtRp2103
(dp2104
g73
(dp2105
sg82
g2090
sg75
(lp2106
g68
(g69
g70
NtRp2107
(dp2108
g73
(dp2109
g81
I5
ssg82
g2103
sg75
(lp2110
S'html'
p2111
asbasbasbag68
(g84
g70
NtRp2112
(dp2113
g73
(dp2114
sg82
g78
sg75
(lp2115
g68
(g89
g70
NtRp2116
(dp2117
g73
(dp2118
g93
g94
ssg82
g2112
sg75
(lp2119
S'folder'
p2120
asbag68
(g89
g70
NtRp2121
(dp2122
g73
(dp2123
g100
g101
ssg82
g2112
sg75
(lp2124
S':'
asbag68
(g89
g70
NtRp2125
(dp2126
g73
(dp2127
sg82
g2112
sg75
(lp2128
g68
(g69
g70
NtRp2129
(dp2130
g73
(dp2131
g81
I5
ssg82
g2125
sg75
(lp2132
S'/home/piyush/web2py/applications/FotoBuk/'
p2133
asbasbasbag68
(g84
g70
NtRp2134
(dp2135
g73
(dp2136
sg82
g78
sg75
(lp2137
g68
(g89
g70
NtRp2138
(dp2139
g73
(dp2140
g93
g94
ssg82
g2134
sg75
(lp2141
S'function'
p2142
asbag68
(g89
g70
NtRp2143
(dp2144
g73
(dp2145
g100
g101
ssg82
g2134
sg75
(lp2146
S':'
asbag68
(g89
g70
NtRp2147
(dp2148
g73
(dp2149
sg82
g2134
sg75
(lp2150
g68
(g69
g70
NtRp2151
(dp2152
g73
(dp2153
g81
I5
ssg82
g2147
sg75
(lp2154
S'show'
p2155
asbasbasbag68
(g84
g70
NtRp2156
(dp2157
g73
(dp2158
sg82
g78
sg75
(lp2159
g68
(g89
g70
NtRp2160
(dp2161
g73
(dp2162
g93
g94
ssg82
g2156
sg75
(lp2163
S'get_vars'
p2164
asbag68
(g89
g70
NtRp2165
(dp2166
g73
(dp2167
g100
g101
ssg82
g2156
sg75
(lp2168
S':'
asbag68
(g89
g70
NtRp2169
(dp2170
g73
(dp2171
sg82
g2156
sg75
(lp2172
g68
(g69
g70
NtRp2173
(dp2174
g73
(dp2175
g81
I5
ssg82
g2169
sg75
(lp2176
g68
(g77
g70
NtRp2177
(dp2178
g73
(dp2179
g81
I4
ssg82
Nsg75
(lp2180
sbasbasbasbag68
(g84
g70
NtRp2181
(dp2182
g73
(dp2183
sg82
g78
sg75
(lp2184
g68
(g89
g70
NtRp2185
(dp2186
g73
(dp2187
g93
g94
ssg82
g2181
sg75
(lp2188
S'global_settings'
p2189
asbag68
(g89
g70
NtRp2190
(dp2191
g73
(dp2192
g100
g101
ssg82
g2181
sg75
(lp2193
S':'
asbag68
(g89
g70
NtRp2194
(dp2195
g73
(dp2196
sg82
g2181
sg75
(lp2197
g68
(g69
g70
NtRp2198
(dp2199
g73
(dp2200
g81
I5
ssg82
g2194
sg75
(lp2201
g68
(g77
g70
NtRp2202
(dp2203
g73
(dp2204
g81
I4
ssg82
Nsg75
(lp2205
g68
(g84
g70
NtRp2206
(dp2207
g73
(dp2208
sg82
g2202
sg75
(lp2209
g68
(g89
g70
NtRp2210
(dp2211
g73
(dp2212
g93
g94
ssg82
g2206
sg75
(lp2213
g1068
asbag68
(g89
g70
NtRp2214
(dp2215
g73
(dp2216
g100
g101
ssg82
g2206
sg75
(lp2217
S':'
asbag68
(g89
g70
NtRp2218
(dp2219
g73
(dp2220
sg82
g2206
sg75
(lp2221
g68
(g69
g70
NtRp2222
(dp2223
g73
(dp2224
g81
I4
ssg82
g2218
sg75
(lp2225
S"set(['/home/piyush/web2py/applications/FotoBuk/', '/home/piyush/web2py/applications/welcome/', '/home/piyush/web2py/applications/admin/'])"
p2226
asbasbasbag68
(g84
g70
NtRp2227
(dp2228
g73
(dp2229
sg82
g2202
sg75
(lp2230
g68
(g89
g70
NtRp2231
(dp2232
g73
(dp2233
g93
g94
ssg82
g2227
sg75
(lp2234
g1090
asbag68
(g89
g70
NtRp2235
(dp2236
g73
(dp2237
g100
g101
ssg82
g2227
sg75
(lp2238
S':'
asbag68
(g89
g70
NtRp2239
(dp2240
g73
(dp2241
sg82
g2227
sg75
(lp2242
g68
(g69
g70
NtRp2243
(dp2244
g73
(dp2245
g81
I4
ssg82
g2239
sg75
(lp2246
g1103
asbasbasbag68
(g84
g70
NtRp2247
(dp2248
g73
(dp2249
sg82
g2202
sg75
(lp2250
g68
(g89
g70
NtRp2251
(dp2252
g73
(dp2253
g93
g94
ssg82
g2247
sg75
(lp2254
g1112
asbag68
(g89
g70
NtRp2255
(dp2256
g73
(dp2257
g100
g101
ssg82
g2247
sg75
(lp2258
S':'
asbag68
(g89
g70
NtRp2259
(dp2260
g73
(dp2261
sg82
g2247
sg75
(lp2262
g68
(g69
g70
NtRp2263
(dp2264
g73
(dp2265
g81
I4
ssg82
g2259
sg75
(lp2266
g68
(g77
g70
NtRp2267
(dp2268
g73
(dp2269
g81
I3
ssg82
Nsg75
(lp2270
sbasbasbasbag68
(g84
g70
NtRp2271
(dp2272
g73
(dp2273
sg82
g2202
sg75
(lp2274
g68
(g89
g70
NtRp2275
(dp2276
g73
(dp2277
g93
g94
ssg82
g2271
sg75
(lp2278
g1137
asbag68
(g89
g70
NtRp2279
(dp2280
g73
(dp2281
g100
g101
ssg82
g2271
sg75
(lp2282
S':'
asbag68
(g89
g70
NtRp2283
(dp2284
g73
(dp2285
sg82
g2271
sg75
(lp2286
g68
(g69
g70
NtRp2287
(dp2288
g73
(dp2289
g81
I4
ssg82
g2283
sg75
(lp2290
S"<Values at 0x8d4130c: {'verbose': False, 'ip': '127.0.0.1', 'with_scheduler': False, 'ips': ['10.1.39.167', '10.42.0.1'], 'shutdown_timeout': 5, 'taskbar': False, 'port': 8000, 'maxthreads': None, 'softcron': False, 'server_name': 'Solo', 'bpython': False, 'nogui': False, 'nocron': False, 'extcron': False, 'run_system_tests': False, 'test': None, 'folder': '/home/piyush/web2py', 'config': '', 'import_models': False, 'winservice': '', 'shell': None, 'run': '', 'log_filename': 'httpserver.log', 'debuglevel': 30, 'args': [''], 'socket_timeout': 5, 'ssl_ca_certificate': None, 'scheduler': None, 'profiler_filename': None, 'ssl_private_key': '', 'scheduler_groups': None, 'password': '<ask>', 'request_queue_size': 5, 'ssl_certificate': '', 'cronjob': False, 'numthreads': None, 'quiet': False, 'interfaces': None, 'minthreads': None, 'timeout': 10, 'plain': False, 'nobanner': False, 'pid_filename': 'httpserver.pid'}>"
p2291
asbasbasbag68
(g84
g70
NtRp2292
(dp2293
g73
(dp2294
sg82
g2202
sg75
(lp2295
g68
(g89
g70
NtRp2296
(dp2297
g73
(dp2298
g93
g94
ssg82
g2292
sg75
(lp2299
g1203
asbag68
(g89
g70
NtRp2300
(dp2301
g73
(dp2302
g100
g101
ssg82
g2292
sg75
(lp2303
S':'
asbag68
(g89
g70
NtRp2304
(dp2305
g73
(dp2306
sg82
g2292
sg75
(lp2307
g68
(g69
g70
NtRp2308
(dp2309
g73
(dp2310
g81
I4
ssg82
g2304
sg75
(lp2311
S'set([])'
p2312
asbasbasbag68
(g84
g70
NtRp2313
(dp2314
g73
(dp2315
sg82
g2202
sg75
(lp2316
g68
(g89
g70
NtRp2317
(dp2318
g73
(dp2319
g93
g94
ssg82
g2313
sg75
(lp2320
g1225
asbag68
(g89
g70
NtRp2321
(dp2322
g73
(dp2323
g100
g101
ssg82
g2313
sg75
(lp2324
S':'
asbag68
(g89
g70
NtRp2325
(dp2326
g73
(dp2327
sg82
g2313
sg75
(lp2328
g68
(g69
g70
NtRp2329
(dp2330
g73
(dp2331
g81
I4
ssg82
g2325
sg75
(lp2332
g111
asbasbasbag68
(g84
g70
NtRp2333
(dp2334
g73
(dp2335
sg82
g2202
sg75
(lp2336
g68
(g89
g70
NtRp2337
(dp2338
g73
(dp2339
g93
g94
ssg82
g2333
sg75
(lp2340
g1246
asbag68
(g89
g70
NtRp2341
(dp2342
g73
(dp2343
g100
g101
ssg82
g2333
sg75
(lp2344
S':'
asbag68
(g89
g70
NtRp2345
(dp2346
g73
(dp2347
sg82
g2333
sg75
(lp2348
g68
(g69
g70
NtRp2349
(dp2350
g73
(dp2351
g81
I4
ssg82
g2345
sg75
(lp2352
g1259
asbasbasbag68
(g84
g70
NtRp2353
(dp2354
g73
(dp2355
sg82
g2202
sg75
(lp2356
g68
(g89
g70
NtRp2357
(dp2358
g73
(dp2359
g93
g94
ssg82
g2353
sg75
(lp2360
g1508
asbag68
(g89
g70
NtRp2361
(dp2362
g73
(dp2363
g100
g101
ssg82
g2353
sg75
(lp2364
S':'
asbag68
(g89
g70
NtRp2365
(dp2366
g73
(dp2367
sg82
g2353
sg75
(lp2368
g68
(g69
g70
NtRp2369
(dp2370
g73
(dp2371
g81
I4
ssg82
g2365
sg75
(lp2372
g111
asbasbasbag68
(g84
g70
NtRp2373
(dp2374
g73
(dp2375
sg82
g2202
sg75
(lp2376
g68
(g89
g70
NtRp2377
(dp2378
g73
(dp2379
g93
g94
ssg82
g2373
sg75
(lp2380
g1529
asbag68
(g89
g70
NtRp2381
(dp2382
g73
(dp2383
g100
g101
ssg82
g2373
sg75
(lp2384
S':'
asbag68
(g89
g70
NtRp2385
(dp2386
g73
(dp2387
sg82
g2373
sg75
(lp2388
g68
(g69
g70
NtRp2389
(dp2390
g73
(dp2391
g81
I4
ssg82
g2385
sg75
(lp2392
g111
asbasbasbag68
(g84
g70
NtRp2393
(dp2394
g73
(dp2395
sg82
g2202
sg75
(lp2396
g68
(g89
g70
NtRp2397
(dp2398
g73
(dp2399
g93
g94
ssg82
g2393
sg75
(lp2400
g1767
asbag68
(g89
g70
NtRp2401
(dp2402
g73
(dp2403
g100
g101
ssg82
g2393
sg75
(lp2404
S':'
asbag68
(g89
g70
NtRp2405
(dp2406
g73
(dp2407
sg82
g2393
sg75
(lp2408
g68
(g69
g70
NtRp2409
(dp2410
g73
(dp2411
g81
I4
ssg82
g2405
sg75
(lp2412
g1780
asbasbasbag68
(g84
g70
NtRp2413
(dp2414
g73
(dp2415
sg82
g2202
sg75
(lp2416
g68
(g89
g70
NtRp2417
(dp2418
g73
(dp2419
g93
g94
ssg82
g2413
sg75
(lp2420
g1810
asbag68
(g89
g70
NtRp2421
(dp2422
g73
(dp2423
g100
g101
ssg82
g2413
sg75
(lp2424
S':'
asbag68
(g89
g70
NtRp2425
(dp2426
g73
(dp2427
sg82
g2413
sg75
(lp2428
g68
(g69
g70
NtRp2429
(dp2430
g73
(dp2431
g81
I4
ssg82
g2425
sg75
(lp2432
g68
(g77
g70
NtRp2433
(dp2434
g73
(dp2435
g81
I3
ssg82
Nsg75
(lp2436
g68
(g84
g70
NtRp2437
(dp2438
g73
(dp2439
sg82
g2433
sg75
(lp2440
g68
(g89
g70
NtRp2441
(dp2442
g73
(dp2443
sg82
g2437
sg75
(lp2444
g68
(g69
g70
NtRp2445
(dp2446
g73
(dp2447
g81
I3
ssg82
g2441
sg75
(lp2448
S'2'
asbasbasbag68
(g84
g70
NtRp2449
(dp2450
g73
(dp2451
sg82
g2433
sg75
(lp2452
g68
(g89
g70
NtRp2453
(dp2454
g73
(dp2455
sg82
g2449
sg75
(lp2456
g68
(g69
g70
NtRp2457
(dp2458
g73
(dp2459
g81
I3
ssg82
g2453
sg75
(lp2460
S'0'
asbasbasbag68
(g84
g70
NtRp2461
(dp2462
g73
(dp2463
sg82
g2433
sg75
(lp2464
g68
(g89
g70
NtRp2465
(dp2466
g73
(dp2467
sg82
g2461
sg75
(lp2468
g68
(g69
g70
NtRp2469
(dp2470
g73
(dp2471
g81
I3
ssg82
g2465
sg75
(lp2472
S'2'
asbasbasbag68
(g84
g70
NtRp2473
(dp2474
g73
(dp2475
sg82
g2433
sg75
(lp2476
g68
(g89
g70
NtRp2477
(dp2478
g73
(dp2479
sg82
g2473
sg75
(lp2480
g68
(g69
g70
NtRp2481
(dp2482
g73
(dp2483
g81
I3
ssg82
g2477
sg75
(lp2484
S'datetime.datetime(2012, 8, 30, 4, 8, 18)'
p2485
asbasbasbag68
(g84
g70
NtRp2486
(dp2487
g73
(dp2488
sg82
g2433
sg75
(lp2489
g68
(g89
g70
NtRp2490
(dp2491
g73
(dp2492
sg82
g2486
sg75
(lp2493
g68
(g69
g70
NtRp2494
(dp2495
g73
(dp2496
g81
I3
ssg82
g2490
sg75
(lp2497
g1888
asbasbasbasbasbasbasbasbasbasbasbag68
(g84
g70
NtRp2498
(dp2499
g73
(dp2500
sg82
g78
sg75
(lp2501
g68
(g89
g70
NtRp2502
(dp2503
g73
(dp2504
g93
g94
ssg82
g2498
sg75
(lp2505
S'is_https'
p2506
asbag68
(g89
g70
NtRp2507
(dp2508
g73
(dp2509
g100
g101
ssg82
g2498
sg75
(lp2510
S':'
asbag68
(g89
g70
NtRp2511
(dp2512
g73
(dp2513
sg82
g2498
sg75
(lp2514
g68
(g69
g70
NtRp2515
(dp2516
g73
(dp2517
g81
I5
ssg82
g2511
sg75
(lp2518
g111
asbasbasbag68
(g84
g70
NtRp2519
(dp2520
g73
(dp2521
sg82
g78
sg75
(lp2522
g68
(g89
g70
NtRp2523
(dp2524
g73
(dp2525
g93
g94
ssg82
g2519
sg75
(lp2526
S'is_local'
p2527
asbag68
(g89
g70
NtRp2528
(dp2529
g73
(dp2530
g100
g101
ssg82
g2519
sg75
(lp2531
S':'
asbag68
(g89
g70
NtRp2532
(dp2533
g73
(dp2534
sg82
g2519
sg75
(lp2535
g68
(g69
g70
NtRp2536
(dp2537
g73
(dp2538
g81
I5
ssg82
g2532
sg75
(lp2539
g1997
asbasbasbag68
(g84
g70
NtRp2540
(dp2541
g73
(dp2542
sg82
g78
sg75
(lp2543
g68
(g89
g70
NtRp2544
(dp2545
g73
(dp2546
g93
g94
ssg82
g2540
sg75
(lp2547
S'is_restful'
p2548
asbag68
(g89
g70
NtRp2549
(dp2550
g73
(dp2551
g100
g101
ssg82
g2540
sg75
(lp2552
S':'
asbag68
(g89
g70
NtRp2553
(dp2554
g73
(dp2555
sg82
g2540
sg75
(lp2556
g68
(g69
g70
NtRp2557
(dp2558
g73
(dp2559
g81
I5
ssg82
g2553
sg75
(lp2560
g111
asbasbasbag68
(g84
g70
NtRp2561
(dp2562
g73
(dp2563
sg82
g78
sg75
(lp2564
g68
(g89
g70
NtRp2565
(dp2566
g73
(dp2567
g93
g94
ssg82
g2561
sg75
(lp2568
S'now'
p2569
asbag68
(g89
g70
NtRp2570
(dp2571
g73
(dp2572
g100
g101
ssg82
g2561
sg75
(lp2573
S':'
asbag68
(g89
g70
NtRp2574
(dp2575
g73
(dp2576
sg82
g2561
sg75
(lp2577
g68
(g69
g70
NtRp2578
(dp2579
g73
(dp2580
g81
I5
ssg82
g2574
sg75
(lp2581
S'datetime.datetime(2012, 8, 31, 7, 57, 16, 661556)'
p2582
asbasbasbag68
(g84
g70
NtRp2583
(dp2584
g73
(dp2585
sg82
g78
sg75
(lp2586
g68
(g89
g70
NtRp2587
(dp2588
g73
(dp2589
g93
g94
ssg82
g2583
sg75
(lp2590
S'post_vars'
p2591
asbag68
(g89
g70
NtRp2592
(dp2593
g73
(dp2594
g100
g101
ssg82
g2583
sg75
(lp2595
S':'
asbag68
(g89
g70
NtRp2596
(dp2597
g73
(dp2598
sg82
g2583
sg75
(lp2599
g68
(g69
g70
NtRp2600
(dp2601
g73
(dp2602
g81
I5
ssg82
g2596
sg75
(lp2603
g68
(g77
g70
NtRp2604
(dp2605
g73
(dp2606
g81
I4
ssg82
Nsg75
(lp2607
sbasbasbasbag68
(g84
g70
NtRp2608
(dp2609
g73
(dp2610
sg82
g78
sg75
(lp2611
g68
(g89
g70
NtRp2612
(dp2613
g73
(dp2614
g93
g94
ssg82
g2608
sg75
(lp2615
S'raw_args'
p2616
asbag68
(g89
g70
NtRp2617
(dp2618
g73
(dp2619
g100
g101
ssg82
g2608
sg75
(lp2620
S':'
asbag68
(g89
g70
NtRp2621
(dp2622
g73
(dp2623
sg82
g2608
sg75
(lp2624
g68
(g69
g70
NtRp2625
(dp2626
g73
(dp2627
g81
I5
ssg82
g2621
sg75
(lp2628
S'2'
asbasbasbag68
(g84
g70
NtRp2629
(dp2630
g73
(dp2631
sg82
g78
sg75
(lp2632
g68
(g89
g70
NtRp2633
(dp2634
g73
(dp2635
g93
g94
ssg82
g2629
sg75
(lp2636
S'raw_extension'
p2637
asbag68
(g89
g70
NtRp2638
(dp2639
g73
(dp2640
g100
g101
ssg82
g2629
sg75
(lp2641
S':'
asbag68
(g89
g70
NtRp2642
(dp2643
g73
(dp2644
sg82
g2629
sg75
(lp2645
g68
(g69
g70
NtRp2646
(dp2647
g73
(dp2648
g81
I5
ssg82
g2642
sg75
(lp2649
S'None'
p2650
asbasbasbag68
(g84
g70
NtRp2651
(dp2652
g73
(dp2653
sg82
g78
sg75
(lp2654
g68
(g89
g70
NtRp2655
(dp2656
g73
(dp2657
g93
g94
ssg82
g2651
sg75
(lp2658
S'url'
p2659
asbag68
(g89
g70
NtRp2660
(dp2661
g73
(dp2662
g100
g101
ssg82
g2651
sg75
(lp2663
S':'
asbag68
(g89
g70
NtRp2664
(dp2665
g73
(dp2666
sg82
g2651
sg75
(lp2667
g68
(g69
g70
NtRp2668
(dp2669
g73
(dp2670
g81
I5
ssg82
g2664
sg75
(lp2671
S'/FotoBuk/default/show/2'
p2672
asbasbasbag68
(g84
g70
NtRp2673
(dp2674
g73
(dp2675
sg82
g78
sg75
(lp2676
g68
(g89
g70
NtRp2677
(dp2678
g73
(dp2679
g93
g94
ssg82
g2673
sg75
(lp2680
S'utcnow'
p2681
asbag68
(g89
g70
NtRp2682
(dp2683
g73
(dp2684
g100
g101
ssg82
g2673
sg75
(lp2685
S':'
asbag68
(g89
g70
NtRp2686
(dp2687
g73
(dp2688
sg82
g2673
sg75
(lp2689
g68
(g69
g70
NtRp2690
(dp2691
g73
(dp2692
g81
I5
ssg82
g2686
sg75
(lp2693
S'datetime.datetime(2012, 8, 31, 2, 27, 16, 661579)'
p2694
asbasbasbag68
(g84
g70
NtRp2695
(dp2696
g73
(dp2697
sg82
g78
sg75
(lp2698
g68
(g89
g70
NtRp2699
(dp2700
g73
(dp2701
g93
g94
ssg82
g2695
sg75
(lp2702
S'uuid'
p2703
asbag68
(g89
g70
NtRp2704
(dp2705
g73
(dp2706
g100
g101
ssg82
g2695
sg75
(lp2707
S':'
asbag68
(g89
g70
NtRp2708
(dp2709
g73
(dp2710
sg82
g2695
sg75
(lp2711
g68
(g69
g70
NtRp2712
(dp2713
g73
(dp2714
g81
I5
ssg82
g2708
sg75
(lp2715
S'FotoBuk/127.0.0.1.2012-08-31.07-57-16.40b1d24c-9e00-428c-a4db-959fad3e4b13'
p2716
asbasbasbag68
(g84
g70
NtRp2717
(dp2718
g73
(dp2719
sg82
g78
sg75
(lp2720
g68
(g89
g70
NtRp2721
(dp2722
g73
(dp2723
g93
g94
ssg82
g2717
sg75
(lp2724
S'vars'
p2725
asbag68
(g89
g70
NtRp2726
(dp2727
g73
(dp2728
g100
g101
ssg82
g2717
sg75
(lp2729
S':'
asbag68
(g89
g70
NtRp2730
(dp2731
g73
(dp2732
sg82
g2717
sg75
(lp2733
g68
(g69
g70
NtRp2734
(dp2735
g73
(dp2736
g81
I5
ssg82
g2730
sg75
(lp2737
g68
(g77
g70
NtRp2738
(dp2739
g73
(dp2740
g81
I4
ssg82
Nsg75
(lp2741
sbasbasbasbag68
(g84
g70
NtRp2742
(dp2743
g73
(dp2744
sg82
g78
sg75
(lp2745
g68
(g89
g70
NtRp2746
(dp2747
g73
(dp2748
g93
g94
ssg82
g2742
sg75
(lp2749
S'wsgi'
p2750
asbag68
(g89
g70
NtRp2751
(dp2752
g73
(dp2753
g100
g101
ssg82
g2742
sg75
(lp2754
S':'
asbag68
(g89
g70
NtRp2755
(dp2756
g73
(dp2757
sg82
g2742
sg75
(lp2758
g68
(g69
g70
NtRp2759
(dp2760
g73
(dp2761
g81
I5
ssg82
g2755
sg75
(lp2762
g68
(g77
g70
NtRp2763
(dp2764
g73
(dp2765
g81
I4
ssg82
Nsg75
(lp2766
g68
(g84
g70
NtRp2767
(dp2768
g73
(dp2769
sg82
g2763
sg75
(lp2770
g68
(g89
g70
NtRp2771
(dp2772
g73
(dp2773
g93
g94
ssg82
g2767
sg75
(lp2774
S'environ'
p2775
asbag68
(g89
g70
NtRp2776
(dp2777
g73
(dp2778
g100
g101
ssg82
g2767
sg75
(lp2779
S':'
asbag68
(g89
g70
NtRp2780
(dp2781
g73
(dp2782
sg82
g2767
sg75
(lp2783
g68
(g69
g70
NtRp2784
(dp2785
g73
(dp2786
g81
I4
ssg82
g2780
sg75
(lp2787
g68
(g77
g70
NtRp2788
(dp2789
g73
(dp2790
g81
I3
ssg82
Nsg75
(lp2791
g68
(g84
g70
NtRp2792
(dp2793
g73
(dp2794
sg82
g2788
sg75
(lp2795
g68
(g89
g70
NtRp2796
(dp2797
g73
(dp2798
g93
g94
ssg82
g2792
sg75
(lp2799
S'CONTENT_LENGTH'
p2800
asbag68
(g89
g70
NtRp2801
(dp2802
g73
(dp2803
g100
g101
ssg82
g2792
sg75
(lp2804
S':'
asbag68
(g89
g70
NtRp2805
(dp2806
g73
(dp2807
sg82
g2792
sg75
(lp2808
g68
(g69
g70
NtRp2809
(dp2810
g73
(dp2811
g81
I3
ssg82
g2805
sg75
(lp2812
g1172
asbasbasbag68
(g84
g70
NtRp2813
(dp2814
g73
(dp2815
sg82
g2788
sg75
(lp2816
g68
(g89
g70
NtRp2817
(dp2818
g73
(dp2819
g93
g94
ssg82
g2813
sg75
(lp2820
S'CONTENT_TYPE'
p2821
asbag68
(g89
g70
NtRp2822
(dp2823
g73
(dp2824
g100
g101
ssg82
g2813
sg75
(lp2825
S':'
asbag68
(g89
g70
NtRp2826
(dp2827
g73
(dp2828
sg82
g2813
sg75
(lp2829
g68
(g69
g70
NtRp2830
(dp2831
g73
(dp2832
g81
I3
ssg82
g2826
sg75
(lp2833
g1194
asbasbasbag68
(g84
g70
NtRp2834
(dp2835
g73
(dp2836
sg82
g2788
sg75
(lp2837
g68
(g89
g70
NtRp2838
(dp2839
g73
(dp2840
g93
g94
ssg82
g2834
sg75
(lp2841
S'HTTP_ACCEPT'
p2842
asbag68
(g89
g70
NtRp2843
(dp2844
g73
(dp2845
g100
g101
ssg82
g2834
sg75
(lp2846
S':'
asbag68
(g89
g70
NtRp2847
(dp2848
g73
(dp2849
sg82
g2834
sg75
(lp2850
g68
(g69
g70
NtRp2851
(dp2852
g73
(dp2853
g81
I3
ssg82
g2847
sg75
(lp2854
g1281
asbasbasbag68
(g84
g70
NtRp2855
(dp2856
g73
(dp2857
sg82
g2788
sg75
(lp2858
g68
(g89
g70
NtRp2859
(dp2860
g73
(dp2861
g93
g94
ssg82
g2855
sg75
(lp2862
S'HTTP_ACCEPT_ENCODING'
p2863
asbag68
(g89
g70
NtRp2864
(dp2865
g73
(dp2866
g100
g101
ssg82
g2855
sg75
(lp2867
S':'
asbag68
(g89
g70
NtRp2868
(dp2869
g73
(dp2870
sg82
g2855
sg75
(lp2871
g68
(g69
g70
NtRp2872
(dp2873
g73
(dp2874
g81
I3
ssg82
g2868
sg75
(lp2875
g1303
asbasbasbag68
(g84
g70
NtRp2876
(dp2877
g73
(dp2878
sg82
g2788
sg75
(lp2879
g68
(g89
g70
NtRp2880
(dp2881
g73
(dp2882
g93
g94
ssg82
g2876
sg75
(lp2883
S'HTTP_ACCEPT_LANGUAGE'
p2884
asbag68
(g89
g70
NtRp2885
(dp2886
g73
(dp2887
g100
g101
ssg82
g2876
sg75
(lp2888
S':'
asbag68
(g89
g70
NtRp2889
(dp2890
g73
(dp2891
sg82
g2876
sg75
(lp2892
g68
(g69
g70
NtRp2893
(dp2894
g73
(dp2895
g81
I3
ssg82
g2889
sg75
(lp2896
g1325
asbasbasbag68
(g84
g70
NtRp2897
(dp2898
g73
(dp2899
sg82
g2788
sg75
(lp2900
g68
(g89
g70
NtRp2901
(dp2902
g73
(dp2903
g93
g94
ssg82
g2897
sg75
(lp2904
S'HTTP_CACHE_CONTROL'
p2905
asbag68
(g89
g70
NtRp2906
(dp2907
g73
(dp2908
g100
g101
ssg82
g2897
sg75
(lp2909
S':'
asbag68
(g89
g70
NtRp2910
(dp2911
g73
(dp2912
sg82
g2897
sg75
(lp2913
g68
(g69
g70
NtRp2914
(dp2915
g73
(dp2916
g81
I3
ssg82
g2910
sg75
(lp2917
g1347
asbasbasbag68
(g84
g70
NtRp2918
(dp2919
g73
(dp2920
sg82
g2788
sg75
(lp2921
g68
(g89
g70
NtRp2922
(dp2923
g73
(dp2924
g93
g94
ssg82
g2918
sg75
(lp2925
S'HTTP_CONNECTION'
p2926
asbag68
(g89
g70
NtRp2927
(dp2928
g73
(dp2929
g100
g101
ssg82
g2918
sg75
(lp2930
S':'
asbag68
(g89
g70
NtRp2931
(dp2932
g73
(dp2933
sg82
g2918
sg75
(lp2934
g68
(g69
g70
NtRp2935
(dp2936
g73
(dp2937
g81
I3
ssg82
g2931
sg75
(lp2938
g1369
asbasbasbag68
(g84
g70
NtRp2939
(dp2940
g73
(dp2941
sg82
g2788
sg75
(lp2942
g68
(g89
g70
NtRp2943
(dp2944
g73
(dp2945
g93
g94
ssg82
g2939
sg75
(lp2946
S'HTTP_CONTENT_LENGTH'
p2947
asbag68
(g89
g70
NtRp2948
(dp2949
g73
(dp2950
g100
g101
ssg82
g2939
sg75
(lp2951
S':'
asbag68
(g89
g70
NtRp2952
(dp2953
g73
(dp2954
sg82
g2939
sg75
(lp2955
g68
(g69
g70
NtRp2956
(dp2957
g73
(dp2958
g81
I3
ssg82
g2952
sg75
(lp2959
g1172
asbasbasbag68
(g84
g70
NtRp2960
(dp2961
g73
(dp2962
sg82
g2788
sg75
(lp2963
g68
(g89
g70
NtRp2964
(dp2965
g73
(dp2966
g93
g94
ssg82
g2960
sg75
(lp2967
S'HTTP_CONTENT_TYPE'
p2968
asbag68
(g89
g70
NtRp2969
(dp2970
g73
(dp2971
g100
g101
ssg82
g2960
sg75
(lp2972
S':'
asbag68
(g89
g70
NtRp2973
(dp2974
g73
(dp2975
sg82
g2960
sg75
(lp2976
g68
(g69
g70
NtRp2977
(dp2978
g73
(dp2979
g81
I3
ssg82
g2973
sg75
(lp2980
g1194
asbasbasbag68
(g84
g70
NtRp2981
(dp2982
g73
(dp2983
sg82
g2788
sg75
(lp2984
g68
(g89
g70
NtRp2985
(dp2986
g73
(dp2987
g93
g94
ssg82
g2981
sg75
(lp2988
S'HTTP_COOKIE'
p2989
asbag68
(g89
g70
NtRp2990
(dp2991
g73
(dp2992
g100
g101
ssg82
g2981
sg75
(lp2993
S':'
asbag68
(g89
g70
NtRp2994
(dp2995
g73
(dp2996
sg82
g2981
sg75
(lp2997
g68
(g69
g70
NtRp2998
(dp2999
g73
(dp3000
g81
I3
ssg82
g2994
sg75
(lp3001
g1433
asbasbasbag68
(g84
g70
NtRp3002
(dp3003
g73
(dp3004
sg82
g2788
sg75
(lp3005
g68
(g89
g70
NtRp3006
(dp3007
g73
(dp3008
g93
g94
ssg82
g3002
sg75
(lp3009
S'HTTP_HOST'
p3010
asbag68
(g89
g70
NtRp3011
(dp3012
g73
(dp3013
g100
g101
ssg82
g3002
sg75
(lp3014
S':'
asbag68
(g89
g70
NtRp3015
(dp3016
g73
(dp3017
sg82
g3002
sg75
(lp3018
g68
(g69
g70
NtRp3019
(dp3020
g73
(dp3021
g81
I3
ssg82
g3015
sg75
(lp3022
g1455
asbasbasbag68
(g84
g70
NtRp3023
(dp3024
g73
(dp3025
sg82
g2788
sg75
(lp3026
g68
(g89
g70
NtRp3027
(dp3028
g73
(dp3029
g93
g94
ssg82
g3023
sg75
(lp3030
S'HTTP_REFERER'
p3031
asbag68
(g89
g70
NtRp3032
(dp3033
g73
(dp3034
g100
g101
ssg82
g3023
sg75
(lp3035
S':'
asbag68
(g89
g70
NtRp3036
(dp3037
g73
(dp3038
sg82
g3023
sg75
(lp3039
g68
(g69
g70
NtRp3040
(dp3041
g73
(dp3042
g81
I3
ssg82
g3036
sg75
(lp3043
g1477
asbasbasbag68
(g84
g70
NtRp3044
(dp3045
g73
(dp3046
sg82
g2788
sg75
(lp3047
g68
(g89
g70
NtRp3048
(dp3049
g73
(dp3050
g93
g94
ssg82
g3044
sg75
(lp3051
S'HTTP_USER_AGENT'
p3052
asbag68
(g89
g70
NtRp3053
(dp3054
g73
(dp3055
g100
g101
ssg82
g3044
sg75
(lp3056
S':'
asbag68
(g89
g70
NtRp3057
(dp3058
g73
(dp3059
sg82
g3044
sg75
(lp3060
g68
(g69
g70
NtRp3061
(dp3062
g73
(dp3063
g81
I3
ssg82
g3057
sg75
(lp3064
g1499
asbasbasbag68
(g84
g70
NtRp3065
(dp3066
g73
(dp3067
sg82
g2788
sg75
(lp3068
g68
(g89
g70
NtRp3069
(dp3070
g73
(dp3071
g93
g94
ssg82
g3065
sg75
(lp3072
S'PATH_INFO'
p3073
asbag68
(g89
g70
NtRp3074
(dp3075
g73
(dp3076
g100
g101
ssg82
g3065
sg75
(lp3077
S':'
asbag68
(g89
g70
NtRp3078
(dp3079
g73
(dp3080
sg82
g3065
sg75
(lp3081
g68
(g69
g70
NtRp3082
(dp3083
g73
(dp3084
g81
I3
ssg82
g3078
sg75
(lp3085
g1563
asbasbasbag68
(g84
g70
NtRp3086
(dp3087
g73
(dp3088
sg82
g2788
sg75
(lp3089
g68
(g89
g70
NtRp3090
(dp3091
g73
(dp3092
g93
g94
ssg82
g3086
sg75
(lp3093
S'QUERY_STRING'
p3094
asbag68
(g89
g70
NtRp3095
(dp3096
g73
(dp3097
g100
g101
ssg82
g3086
sg75
(lp3098
S':'
asbag68
(g89
g70
NtRp3099
(dp3100
g73
(dp3101
sg82
g3086
sg75
(lp3102
g68
(g69
g70
NtRp3103
(dp3104
g73
(dp3105
g81
I3
ssg82
g3099
sg75
(lp3106
S''
asbasbasbag68
(g84
g70
NtRp3107
(dp3108
g73
(dp3109
sg82
g2788
sg75
(lp3110
g68
(g89
g70
NtRp3111
(dp3112
g73
(dp3113
g93
g94
ssg82
g3107
sg75
(lp3114
S'REMOTE_ADDR'
p3115
asbag68
(g89
g70
NtRp3116
(dp3117
g73
(dp3118
g100
g101
ssg82
g3107
sg75
(lp3119
S':'
asbag68
(g89
g70
NtRp3120
(dp3121
g73
(dp3122
sg82
g3107
sg75
(lp3123
g68
(g69
g70
NtRp3124
(dp3125
g73
(dp3126
g81
I3
ssg82
g3120
sg75
(lp3127
g235
asbasbasbag68
(g84
g70
NtRp3128
(dp3129
g73
(dp3130
sg82
g2788
sg75
(lp3131
g68
(g89
g70
NtRp3132
(dp3133
g73
(dp3134
g93
g94
ssg82
g3128
sg75
(lp3135
S'REMOTE_PORT'
p3136
asbag68
(g89
g70
NtRp3137
(dp3138
g73
(dp3139
g100
g101
ssg82
g3128
sg75
(lp3140
S':'
asbag68
(g89
g70
NtRp3141
(dp3142
g73
(dp3143
sg82
g3128
sg75
(lp3144
g68
(g69
g70
NtRp3145
(dp3146
g73
(dp3147
g81
I3
ssg82
g3141
sg75
(lp3148
g1627
asbasbasbag68
(g84
g70
NtRp3149
(dp3150
g73
(dp3151
sg82
g2788
sg75
(lp3152
g68
(g89
g70
NtRp3153
(dp3154
g73
(dp3155
g93
g94
ssg82
g3149
sg75
(lp3156
S'REQUEST_METHOD'
p3157
asbag68
(g89
g70
NtRp3158
(dp3159
g73
(dp3160
g100
g101
ssg82
g3149
sg75
(lp3161
S':'
asbag68
(g89
g70
NtRp3162
(dp3163
g73
(dp3164
sg82
g3149
sg75
(lp3165
g68
(g69
g70
NtRp3166
(dp3167
g73
(dp3168
g81
I3
ssg82
g3162
sg75
(lp3169
g1649
asbasbasbag68
(g84
g70
NtRp3170
(dp3171
g73
(dp3172
sg82
g2788
sg75
(lp3173
g68
(g89
g70
NtRp3174
(dp3175
g73
(dp3176
g93
g94
ssg82
g3170
sg75
(lp3177
S'SCRIPT_NAME'
p3178
asbag68
(g89
g70
NtRp3179
(dp3180
g73
(dp3181
g100
g101
ssg82
g3170
sg75
(lp3182
S':'
asbag68
(g89
g70
NtRp3183
(dp3184
g73
(dp3185
sg82
g3170
sg75
(lp3186
g68
(g69
g70
NtRp3187
(dp3188
g73
(dp3189
g81
I3
ssg82
g3183
sg75
(lp3190
S''
asbasbasbag68
(g84
g70
NtRp3191
(dp3192
g73
(dp3193
sg82
g2788
sg75
(lp3194
g68
(g89
g70
NtRp3195
(dp3196
g73
(dp3197
g93
g94
ssg82
g3191
sg75
(lp3198
S'SERVER_NAME'
p3199
asbag68
(g89
g70
NtRp3200
(dp3201
g73
(dp3202
g100
g101
ssg82
g3191
sg75
(lp3203
S':'
asbag68
(g89
g70
NtRp3204
(dp3205
g73
(dp3206
sg82
g3191
sg75
(lp3207
g68
(g69
g70
NtRp3208
(dp3209
g73
(dp3210
g81
I3
ssg82
g3204
sg75
(lp3211
g1692
asbasbasbag68
(g84
g70
NtRp3212
(dp3213
g73
(dp3214
sg82
g2788
sg75
(lp3215
g68
(g89
g70
NtRp3216
(dp3217
g73
(dp3218
g93
g94
ssg82
g3212
sg75
(lp3219
S'SERVER_PORT'
p3220
asbag68
(g89
g70
NtRp3221
(dp3222
g73
(dp3223
g100
g101
ssg82
g3212
sg75
(lp3224
S':'
asbag68
(g89
g70
NtRp3225
(dp3226
g73
(dp3227
sg82
g3212
sg75
(lp3228
g68
(g69
g70
NtRp3229
(dp3230
g73
(dp3231
g81
I3
ssg82
g3225
sg75
(lp3232
g1714
asbasbasbag68
(g84
g70
NtRp3233
(dp3234
g73
(dp3235
sg82
g2788
sg75
(lp3236
g68
(g89
g70
NtRp3237
(dp3238
g73
(dp3239
g93
g94
ssg82
g3233
sg75
(lp3240
S'SERVER_PROTOCOL'
p3241
asbag68
(g89
g70
NtRp3242
(dp3243
g73
(dp3244
g100
g101
ssg82
g3233
sg75
(lp3245
S':'
asbag68
(g89
g70
NtRp3246
(dp3247
g73
(dp3248
sg82
g3233
sg75
(lp3249
g68
(g69
g70
NtRp3250
(dp3251
g73
(dp3252
g81
I3
ssg82
g3246
sg75
(lp3253
g1736
asbasbasbag68
(g84
g70
NtRp3254
(dp3255
g73
(dp3256
sg82
g2788
sg75
(lp3257
g68
(g89
g70
NtRp3258
(dp3259
g73
(dp3260
g93
g94
ssg82
g3254
sg75
(lp3261
S'SERVER_SOFTWARE'
p3262
asbag68
(g89
g70
NtRp3263
(dp3264
g73
(dp3265
g100
g101
ssg82
g3254
sg75
(lp3266
S':'
asbag68
(g89
g70
NtRp3267
(dp3268
g73
(dp3269
sg82
g3254
sg75
(lp3270
g68
(g69
g70
NtRp3271
(dp3272
g73
(dp3273
g81
I3
ssg82
g3267
sg75
(lp3274
g1758
asbasbasbag68
(g84
g70
NtRp3275
(dp3276
g73
(dp3277
sg82
g2788
sg75
(lp3278
g68
(g89
g70
NtRp3279
(dp3280
g73
(dp3281
g93
g94
ssg82
g3275
sg75
(lp3282
S'wsgi.errors'
p3283
asbag68
(g89
g70
NtRp3284
(dp3285
g73
(dp3286
g100
g101
ssg82
g3275
sg75
(lp3287
S':'
asbag68
(g89
g70
NtRp3288
(dp3289
g73
(dp3290
sg82
g3275
sg75
(lp3291
g68
(g69
g70
NtRp3292
(dp3293
g73
(dp3294
g81
I3
ssg82
g3288
sg75
(lp3295
S"<open file '<stderr>', mode 'w' at 0xb772d0d0>"
p3296
asbasbasbag68
(g84
g70
NtRp3297
(dp3298
g73
(dp3299
sg82
g2788
sg75
(lp3300
g68
(g89
g70
NtRp3301
(dp3302
g73
(dp3303
g93
g94
ssg82
g3297
sg75
(lp3304
S'wsgi.file_wrapper'
p3305
asbag68
(g89
g70
NtRp3306
(dp3307
g73
(dp3308
g100
g101
ssg82
g3297
sg75
(lp3309
S':'
asbag68
(g89
g70
NtRp3310
(dp3311
g73
(dp3312
sg82
g3297
sg75
(lp3313
g68
(g69
g70
NtRp3314
(dp3315
g73
(dp3316
g81
I3
ssg82
g3310
sg75
(lp3317
S'<class wsgiref.util.FileWrapper at 0x8d0326c>'
p3318
asbasbasbag68
(g84
g70
NtRp3319
(dp3320
g73
(dp3321
sg82
g2788
sg75
(lp3322
g68
(g89
g70
NtRp3323
(dp3324
g73
(dp3325
g93
g94
ssg82
g3319
sg75
(lp3326
S'wsgi.input'
p3327
asbag68
(g89
g70
NtRp3328
(dp3329
g73
(dp3330
g100
g101
ssg82
g3319
sg75
(lp3331
S':'
asbag68
(g89
g70
NtRp3332
(dp3333
g73
(dp3334
sg82
g3319
sg75
(lp3335
g68
(g69
g70
NtRp3336
(dp3337
g73
(dp3338
g81
I3
ssg82
g3332
sg75
(lp3339
S"<open file '<fdopen>', mode 'w+b' at 0x90bd8b8>"
p3340
asbasbasbag68
(g84
g70
NtRp3341
(dp3342
g73
(dp3343
sg82
g2788
sg75
(lp3344
g68
(g89
g70
NtRp3345
(dp3346
g73
(dp3347
g93
g94
ssg82
g3341
sg75
(lp3348
S'wsgi.multiprocess'
p3349
asbag68
(g89
g70
NtRp3350
(dp3351
g73
(dp3352
g100
g101
ssg82
g3341
sg75
(lp3353
S':'
asbag68
(g89
g70
NtRp3354
(dp3355
g73
(dp3356
sg82
g3341
sg75
(lp3357
g68
(g69
g70
NtRp3358
(dp3359
g73
(dp3360
g81
I3
ssg82
g3354
sg75
(lp3361
g111
asbasbasbag68
(g84
g70
NtRp3362
(dp3363
g73
(dp3364
sg82
g2788
sg75
(lp3365
g68
(g89
g70
NtRp3366
(dp3367
g73
(dp3368
g93
g94
ssg82
g3362
sg75
(lp3369
S'wsgi.multithread'
p3370
asbag68
(g89
g70
NtRp3371
(dp3372
g73
(dp3373
g100
g101
ssg82
g3362
sg75
(lp3374
S':'
asbag68
(g89
g70
NtRp3375
(dp3376
g73
(dp3377
sg82
g3362
sg75
(lp3378
g68
(g69
g70
NtRp3379
(dp3380
g73
(dp3381
g81
I3
ssg82
g3375
sg75
(lp3382
g1997
asbasbasbag68
(g84
g70
NtRp3383
(dp3384
g73
(dp3385
sg82
g2788
sg75
(lp3386
g68
(g89
g70
NtRp3387
(dp3388
g73
(dp3389
g93
g94
ssg82
g3383
sg75
(lp3390
S'wsgi.run_once'
p3391
asbag68
(g89
g70
NtRp3392
(dp3393
g73
(dp3394
g100
g101
ssg82
g3383
sg75
(lp3395
S':'
asbag68
(g89
g70
NtRp3396
(dp3397
g73
(dp3398
sg82
g3383
sg75
(lp3399
g68
(g69
g70
NtRp3400
(dp3401
g73
(dp3402
g81
I3
ssg82
g3396
sg75
(lp3403
g111
asbasbasbag68
(g84
g70
NtRp3404
(dp3405
g73
(dp3406
sg82
g2788
sg75
(lp3407
g68
(g89
g70
NtRp3408
(dp3409
g73
(dp3410
g93
g94
ssg82
g3404
sg75
(lp3411
S'wsgi.url_scheme'
p3412
asbag68
(g89
g70
NtRp3413
(dp3414
g73
(dp3415
g100
g101
ssg82
g3404
sg75
(lp3416
S':'
asbag68
(g89
g70
NtRp3417
(dp3418
g73
(dp3419
sg82
g3404
sg75
(lp3420
g68
(g69
g70
NtRp3421
(dp3422
g73
(dp3423
g81
I3
ssg82
g3417
sg75
(lp3424
g2040
asbasbasbag68
(g84
g70
NtRp3425
(dp3426
g73
(dp3427
sg82
g2788
sg75
(lp3428
g68
(g89
g70
NtRp3429
(dp3430
g73
(dp3431
g93
g94
ssg82
g3425
sg75
(lp3432
S'wsgi.version'
p3433
asbag68
(g89
g70
NtRp3434
(dp3435
g73
(dp3436
g100
g101
ssg82
g3425
sg75
(lp3437
S':'
asbag68
(g89
g70
NtRp3438
(dp3439
g73
(dp3440
sg82
g3425
sg75
(lp3441
g68
(g69
g70
NtRp3442
(dp3443
g73
(dp3444
g81
I3
ssg82
g3438
sg75
(lp3445
S'1'
asbasbasbasbasbasbasbasbasbasbasbasbasbsS'frames'
p3446
(lp3447
(dp3448
S'file'
p3449
S'/home/piyush/web2py/gluon/restricted.py'
p3450
sS'dump'
p3451
(dp3452
S'code'
p3453
S'\'db = DAL("sqlite://storage.sqlite")\\n\\nfrom gluon....liker.writable = db.like.liker.readable = False\\n\\n\''
p3454
sS'layer'
p3455
S"'/home/piyush/web2py/applications/FotoBuk/models/db.py'"
p3456
sS'global compile2'
p3457
S'<function compile2>'
p3458
sS'ccode'
p3459
S'undefined'
p3460
ssS'lnum'
p3461
I208
sS'lines'
p3462
(dp3463
I203
S"    environment['__name__'] = '__restricted__'"
p3464
sI204
S'    try:'
p3465
sI205
S'        if type(code) == types.CodeType:'
p3466
sI206
S'            ccode = code'
p3467
sI207
S'        else:'
p3468
sI208
S'            ccode = compile2(code,layer)'
p3469
sI209
S'        exec ccode in environment'
p3470
sI210
S'    except HTTP:'
p3471
sI211
S'        raise'
p3472
sI212
S'    except RestrictedError:'
p3473
ssS'call'
p3474
S'(code=\'db = DAL("sqlite://storage.sqlite")\\n\\nfrom gluon....liker.writable = db.like.liker.readable = False\\n\\n\', environment={\'A\': <class \'gluon.html.A\'>, \'B\': <class \'gluon.html.B\'>, \'BEAUTIFY\': <class \'gluon.html.BEAUTIFY\'>, \'BODY\': <class \'gluon.html.BODY\'>, \'BR\': <class \'gluon.html.BR\'>, \'BUTTON\': <class \'gluon.html.BUTTON\'>, \'CAT\': <class \'gluon.html.CAT\'>, \'CENTER\': <class \'gluon.html.CENTER\'>, \'CLEANUP\': <class \'gluon.validators.CLEANUP\'>, \'CODE\': <class \'gluon.html.CODE\'>, ...}, layer=\'/home/piyush/web2py/applications/FotoBuk/models/db.py\')'
p3475
sS'func'
p3476
S'restricted'
p3477
sa(dp3478
g3449
S'/home/piyush/web2py/gluon/restricted.py'
p3479
sg3451
(dp3480
S'builtincompile'
p3481
S'<built-in function compile>'
p3482
sS'code'
p3483
S'\'db = DAL("sqlite://storage.sqlite")\\n\\nfrom gluon....liker.writable = db.like.liker.readable = False\\n\\n\''
p3484
sS'code.rstrip'
p3485
S'<built-in method rstrip of str object>'
p3486
sS').replace'
p3487
g3460
sS'layer'
p3488
S"'/home/piyush/web2py/applications/FotoBuk/models/db.py'"
p3489
ssg3461
I193
sg3462
(dp3490
I192
S'    """'
p3491
sI193
S"    return compile(code.rstrip().replace('\\r\\n','\\n')+'\\n', layer, 'exec')"
p3492
sI194
S''
sI195
S"def restricted(code, environment=None, layer='Unknown'):"
p3493
sI196
S'    """'
p3494
sI197
S'    runs code in environment and returns the output. if an exception occurs'
p3495
sI188
S''
sI189
S'def compile2(code,layer):'
p3496
sI190
S'    """'
p3497
sI191
S"    The +'\\n' is necessary else compile fails when code ends in a comment."
p3498
ssg3474
S'(code=\'db = DAL("sqlite://storage.sqlite")\\n\\nfrom gluon....liker.writable = db.like.liker.readable = False\\n\\n\', layer=\'/home/piyush/web2py/applications/FotoBuk/models/db.py\')'
p3499
sg3476
S'compile2'
p3500
sasS'pyver'
p3501
S'Python 2.7.2: /usr/bin/python'
p3502
sS'session'
p3503
g68
(g69
g70
NtRp3504
(dp3505
g73
(dp3506
sg75
(lp3507
g68
(g77
g70
NtRp3508
(dp3509
g73
(dp3510
g81
I5
ssg82
Nsg75
(lp3511
g68
(g84
g70
NtRp3512
(dp3513
g73
(dp3514
sg82
g3508
sg75
(lp3515
g68
(g89
g70
NtRp3516
(dp3517
g73
(dp3518
g93
g94
ssg82
g3512
sg75
(lp3519
S'auth'
p3520
asbag68
(g89
g70
NtRp3521
(dp3522
g73
(dp3523
g100
g101
ssg82
g3512
sg75
(lp3524
S':'
asbag68
(g89
g70
NtRp3525
(dp3526
g73
(dp3527
sg82
g3512
sg75
(lp3528
g68
(g69
g70
NtRp3529
(dp3530
g73
(dp3531
g81
I5
ssg82
g3525
sg75
(lp3532
g68
(g77
g70
NtRp3533
(dp3534
g73
(dp3535
g81
I4
ssg82
Nsg75
(lp3536
g68
(g84
g70
NtRp3537
(dp3538
g73
(dp3539
sg82
g3533
sg75
(lp3540
g68
(g89
g70
NtRp3541
(dp3542
g73
(dp3543
g93
g94
ssg82
g3537
sg75
(lp3544
S'expiration'
p3545
asbag68
(g89
g70
NtRp3546
(dp3547
g73
(dp3548
g100
g101
ssg82
g3537
sg75
(lp3549
S':'
asbag68
(g89
g70
NtRp3550
(dp3551
g73
(dp3552
sg82
g3537
sg75
(lp3553
g68
(g69
g70
NtRp3554
(dp3555
g73
(dp3556
g81
I4
ssg82
g3550
sg75
(lp3557
S'3600'
p3558
asbasbasbag68
(g84
g70
NtRp3559
(dp3560
g73
(dp3561
sg82
g3533
sg75
(lp3562
g68
(g89
g70
NtRp3563
(dp3564
g73
(dp3565
g93
g94
ssg82
g3559
sg75
(lp3566
S'hmac_key'
p3567
asbag68
(g89
g70
NtRp3568
(dp3569
g73
(dp3570
g100
g101
ssg82
g3559
sg75
(lp3571
S':'
asbag68
(g89
g70
NtRp3572
(dp3573
g73
(dp3574
sg82
g3559
sg75
(lp3575
g68
(g69
g70
NtRp3576
(dp3577
g73
(dp3578
g81
I4
ssg82
g3572
sg75
(lp3579
S'7033f750-293e-4a7b-b418-7c3e717c4ab2'
p3580
asbasbasbag68
(g84
g70
NtRp3581
(dp3582
g73
(dp3583
sg82
g3533
sg75
(lp3584
g68
(g89
g70
NtRp3585
(dp3586
g73
(dp3587
g93
g94
ssg82
g3581
sg75
(lp3588
S'last_visit'
p3589
asbag68
(g89
g70
NtRp3590
(dp3591
g73
(dp3592
g100
g101
ssg82
g3581
sg75
(lp3593
S':'
asbag68
(g89
g70
NtRp3594
(dp3595
g73
(dp3596
sg82
g3581
sg75
(lp3597
g68
(g69
g70
NtRp3598
(dp3599
g73
(dp3600
g81
I4
ssg82
g3594
sg75
(lp3601
S'datetime.datetime(2012, 8, 31, 7, 51, 34, 722929)'
p3602
asbasbasbag68
(g84
g70
NtRp3603
(dp3604
g73
(dp3605
sg82
g3533
sg75
(lp3606
g68
(g89
g70
NtRp3607
(dp3608
g73
(dp3609
g93
g94
ssg82
g3603
sg75
(lp3610
S'remember'
p3611
asbag68
(g89
g70
NtRp3612
(dp3613
g73
(dp3614
g100
g101
ssg82
g3603
sg75
(lp3615
S':'
asbag68
(g89
g70
NtRp3616
(dp3617
g73
(dp3618
sg82
g3603
sg75
(lp3619
g68
(g69
g70
NtRp3620
(dp3621
g73
(dp3622
g81
I4
ssg82
g3616
sg75
(lp3623
g111
asbasbasbag68
(g84
g70
NtRp3624
(dp3625
g73
(dp3626
sg82
g3533
sg75
(lp3627
g68
(g89
g70
NtRp3628
(dp3629
g73
(dp3630
g93
g94
ssg82
g3624
sg75
(lp3631
S'user'
p3632
asbag68
(g89
g70
NtRp3633
(dp3634
g73
(dp3635
g100
g101
ssg82
g3624
sg75
(lp3636
S':'
asbag68
(g89
g70
NtRp3637
(dp3638
g73
(dp3639
sg82
g3624
sg75
(lp3640
g68
(g69
g70
NtRp3641
(dp3642
g73
(dp3643
g81
I4
ssg82
g3637
sg75
(lp3644
g68
(g77
g70
NtRp3645
(dp3646
g73
(dp3647
g81
I3
ssg82
Nsg75
(lp3648
g68
(g84
g70
NtRp3649
(dp3650
g73
(dp3651
sg82
g3645
sg75
(lp3652
g68
(g89
g70
NtRp3653
(dp3654
g73
(dp3655
g93
g94
ssg82
g3649
sg75
(lp3656
S'email'
p3657
asbag68
(g89
g70
NtRp3658
(dp3659
g73
(dp3660
g100
g101
ssg82
g3649
sg75
(lp3661
S':'
asbag68
(g89
g70
NtRp3662
(dp3663
g73
(dp3664
sg82
g3649
sg75
(lp3665
g68
(g69
g70
NtRp3666
(dp3667
g73
(dp3668
g81
I3
ssg82
g3662
sg75
(lp3669
S'piyush.bansal@students.iiit.ac.in'
p3670
asbasbasbag68
(g84
g70
NtRp3671
(dp3672
g73
(dp3673
sg82
g3645
sg75
(lp3674
g68
(g89
g70
NtRp3675
(dp3676
g73
(dp3677
g93
g94
ssg82
g3671
sg75
(lp3678
S'first_name'
p3679
asbag68
(g89
g70
NtRp3680
(dp3681
g73
(dp3682
g100
g101
ssg82
g3671
sg75
(lp3683
S':'
asbag68
(g89
g70
NtRp3684
(dp3685
g73
(dp3686
sg82
g3671
sg75
(lp3687
g68
(g69
g70
NtRp3688
(dp3689
g73
(dp3690
g81
I3
ssg82
g3684
sg75
(lp3691
S'piyush'
p3692
asbasbasbag68
(g84
g70
NtRp3693
(dp3694
g73
(dp3695
sg82
g3645
sg75
(lp3696
g68
(g89
g70
NtRp3697
(dp3698
g73
(dp3699
g93
g94
ssg82
g3693
sg75
(lp3700
S'id'
p3701
asbag68
(g89
g70
NtRp3702
(dp3703
g73
(dp3704
g100
g101
ssg82
g3693
sg75
(lp3705
S':'
asbag68
(g89
g70
NtRp3706
(dp3707
g73
(dp3708
sg82
g3693
sg75
(lp3709
g68
(g69
g70
NtRp3710
(dp3711
g73
(dp3712
g81
I3
ssg82
g3706
sg75
(lp3713
S'1'
asbasbasbag68
(g84
g70
NtRp3714
(dp3715
g73
(dp3716
sg82
g3645
sg75
(lp3717
g68
(g89
g70
NtRp3718
(dp3719
g73
(dp3720
g93
g94
ssg82
g3714
sg75
(lp3721
S'last_name'
p3722
asbag68
(g89
g70
NtRp3723
(dp3724
g73
(dp3725
g100
g101
ssg82
g3714
sg75
(lp3726
S':'
asbag68
(g89
g70
NtRp3727
(dp3728
g73
(dp3729
sg82
g3714
sg75
(lp3730
g68
(g69
g70
NtRp3731
(dp3732
g73
(dp3733
g81
I3
ssg82
g3727
sg75
(lp3734
S'bansal'
p3735
asbasbasbag68
(g84
g70
NtRp3736
(dp3737
g73
(dp3738
sg82
g3645
sg75
(lp3739
g68
(g89
g70
NtRp3740
(dp3741
g73
(dp3742
g93
g94
ssg82
g3736
sg75
(lp3743
S'password'
p3744
asbag68
(g89
g70
NtRp3745
(dp3746
g73
(dp3747
g100
g101
ssg82
g3736
sg75
(lp3748
S':'
asbag68
(g89
g70
NtRp3749
(dp3750
g73
(dp3751
sg82
g3736
sg75
(lp3752
g68
(g69
g70
NtRp3753
(dp3754
g73
(dp3755
g81
I3
ssg82
g3749
sg75
(lp3756
S'pbkdf2(1000,20,sha512)$913ba6c957a64f30$d4b59e0f074c5a6d9fd585309ed33902fece40a6'
p3757
asbasbasbag68
(g84
g70
NtRp3758
(dp3759
g73
(dp3760
sg82
g3645
sg75
(lp3761
g68
(g89
g70
NtRp3762
(dp3763
g73
(dp3764
g93
g94
ssg82
g3758
sg75
(lp3765
S'registration_id'
p3766
asbag68
(g89
g70
NtRp3767
(dp3768
g73
(dp3769
g100
g101
ssg82
g3758
sg75
(lp3770
S':'
asbag68
(g89
g70
NtRp3771
(dp3772
g73
(dp3773
sg82
g3758
sg75
(lp3774
g68
(g69
g70
NtRp3775
(dp3776
g73
(dp3777
g81
I3
ssg82
g3771
sg75
(lp3778
S''
asbasbasbag68
(g84
g70
NtRp3779
(dp3780
g73
(dp3781
sg82
g3645
sg75
(lp3782
g68
(g89
g70
NtRp3783
(dp3784
g73
(dp3785
g93
g94
ssg82
g3779
sg75
(lp3786
S'registration_key'
p3787
asbag68
(g89
g70
NtRp3788
(dp3789
g73
(dp3790
g100
g101
ssg82
g3779
sg75
(lp3791
S':'
asbag68
(g89
g70
NtRp3792
(dp3793
g73
(dp3794
sg82
g3779
sg75
(lp3795
g68
(g69
g70
NtRp3796
(dp3797
g73
(dp3798
g81
I3
ssg82
g3792
sg75
(lp3799
S''
asbasbasbag68
(g84
g70
NtRp3800
(dp3801
g73
(dp3802
sg82
g3645
sg75
(lp3803
g68
(g89
g70
NtRp3804
(dp3805
g73
(dp3806
g93
g94
ssg82
g3800
sg75
(lp3807
S'reset_password_key'
p3808
asbag68
(g89
g70
NtRp3809
(dp3810
g73
(dp3811
g100
g101
ssg82
g3800
sg75
(lp3812
S':'
asbag68
(g89
g70
NtRp3813
(dp3814
g73
(dp3815
sg82
g3800
sg75
(lp3816
g68
(g69
g70
NtRp3817
(dp3818
g73
(dp3819
g81
I3
ssg82
g3813
sg75
(lp3820
S''
asbasbasbasbasbasbasbag68
(g84
g70
NtRp3821
(dp3822
g73
(dp3823
sg82
g3533
sg75
(lp3824
g68
(g89
g70
NtRp3825
(dp3826
g73
(dp3827
g93
g94
ssg82
g3821
sg75
(lp3828
S'user_groups'
p3829
asbag68
(g89
g70
NtRp3830
(dp3831
g73
(dp3832
g100
g101
ssg82
g3821
sg75
(lp3833
S':'
asbag68
(g89
g70
NtRp3834
(dp3835
g73
(dp3836
sg82
g3821
sg75
(lp3837
g68
(g69
g70
NtRp3838
(dp3839
g73
(dp3840
g81
I4
ssg82
g3834
sg75
(lp3841
g68
(g77
g70
NtRp3842
(dp3843
g73
(dp3844
g81
I3
ssg82
Nsg75
(lp3845
g68
(g84
g70
NtRp3846
(dp3847
g73
(dp3848
sg82
g3842
sg75
(lp3849
g68
(g89
g70
NtRp3850
(dp3851
g73
(dp3852
g93
g94
ssg82
g3846
sg75
(lp3853
S'1'
asbag68
(g89
g70
NtRp3854
(dp3855
g73
(dp3856
g100
g101
ssg82
g3846
sg75
(lp3857
S':'
asbag68
(g89
g70
NtRp3858
(dp3859
g73
(dp3860
sg82
g3846
sg75
(lp3861
g68
(g69
g70
NtRp3862
(dp3863
g73
(dp3864
g81
I3
ssg82
g3858
sg75
(lp3865
S'user_1'
p3866
asbasbasbasbasbasbasbasbasbasbasbag68
(g84
g70
NtRp3867
(dp3868
g73
(dp3869
sg82
g3508
sg75
(lp3870
g68
(g89
g70
NtRp3871
(dp3872
g73
(dp3873
g93
g94
ssg82
g3867
sg75
(lp3874
S'flash'
p3875
asbag68
(g89
g70
NtRp3876
(dp3877
g73
(dp3878
g100
g101
ssg82
g3867
sg75
(lp3879
S':'
asbag68
(g89
g70
NtRp3880
(dp3881
g73
(dp3882
sg82
g3867
sg75
(lp3883
g68
(g69
g70
NtRp3884
(dp3885
g73
(dp3886
g81
I5
ssg82
g3880
sg75
(lp3887
S'None'
p3888
asbasbasbag68
(g84
g70
NtRp3889
(dp3890
g73
(dp3891
sg82
g3508
sg75
(lp3892
g68
(g89
g70
NtRp3893
(dp3894
g73
(dp3895
g93
g94
ssg82
g3889
sg75
(lp3896
S'last_orderby'
p3897
asbag68
(g89
g70
NtRp3898
(dp3899
g73
(dp3900
g100
g101
ssg82
g3889
sg75
(lp3901
S':'
asbag68
(g89
g70
NtRp3902
(dp3903
g73
(dp3904
sg82
g3889
sg75
(lp3905
g68
(g69
g70
NtRp3906
(dp3907
g73
(dp3908
g81
I5
ssg82
g3902
sg75
(lp3909
S'None'
p3910
asbasbasbag68
(g84
g70
NtRp3911
(dp3912
g73
(dp3913
sg82
g3508
sg75
(lp3914
g68
(g89
g70
NtRp3915
(dp3916
g73
(dp3917
g93
g94
ssg82
g3911
sg75
(lp3918
S'last_query'
p3919
asbag68
(g89
g70
NtRp3920
(dp3921
g73
(dp3922
g100
g101
ssg82
g3911
sg75
(lp3923
S':'
asbag68
(g89
g70
NtRp3924
(dp3925
g73
(dp3926
sg82
g3911
sg75
(lp3927
g68
(g69
g70
NtRp3928
(dp3929
g73
(dp3930
g81
I5
ssg82
g3924
sg75
(lp3931
S'db.image.id>0'
p3932
asbasbasbasbasbsS'etype'
p3933
S"<type 'exceptions.SyntaxError'>"
p3934
sS'date'
p3935
S'Fri Aug 31 07:57:16 2012'
p3936
sS'response'
p3937
g68
(g69
g70
NtRp3938
(dp3939
g73
(dp3940
sg75
(lp3941
g68
(g77
g70
NtRp3942
(dp3943
g73
(dp3944
g81
I5
ssg82
Nsg75
(lp3945
g68
(g84
g70
NtRp3946
(dp3947
g73
(dp3948
sg82
g3942
sg75
(lp3949
g68
(g89
g70
NtRp3950
(dp3951
g73
(dp3952
g93
g94
ssg82
g3946
sg75
(lp3953
g178
asbag68
(g89
g70
NtRp3954
(dp3955
g73
(dp3956
g100
g101
ssg82
g3946
sg75
(lp3957
S':'
asbag68
(g89
g70
NtRp3958
(dp3959
g73
(dp3960
sg82
g3946
sg75
(lp3961
g68
(g69
g70
NtRp3962
(dp3963
g73
(dp3964
g81
I5
ssg82
g3958
sg75
(lp3965
S'<cStringIO.StringO object at 0x8f89900>'
p3966
asbasbasbag68
(g84
g70
NtRp3967
(dp3968
g73
(dp3969
sg82
g3942
sg75
(lp3970
g68
(g89
g70
NtRp3971
(dp3972
g73
(dp3973
g93
g94
ssg82
g3967
sg75
(lp3974
g266
asbag68
(g89
g70
NtRp3975
(dp3976
g73
(dp3977
g100
g101
ssg82
g3967
sg75
(lp3978
S':'
asbag68
(g89
g70
NtRp3979
(dp3980
g73
(dp3981
sg82
g3967
sg75
(lp3982
g68
(g69
g70
NtRp3983
(dp3984
g73
(dp3985
g81
I5
ssg82
g3979
sg75
(lp3986
g68
(g77
g70
NtRp3987
(dp3988
g73
(dp3989
g81
I4
ssg82
Nsg75
(lp3990
g68
(g84
g70
NtRp3991
(dp3992
g73
(dp3993
sg82
g3987
sg75
(lp3994
g68
(g89
g70
NtRp3995
(dp3996
g73
(dp3997
g93
g94
ssg82
g3991
sg75
(lp3998
S'session_id_fotobuk'
p3999
asbag68
(g89
g70
NtRp4000
(dp4001
g73
(dp4002
g100
g101
ssg82
g3991
sg75
(lp4003
S':'
asbag68
(g89
g70
NtRp4004
(dp4005
g73
(dp4006
sg82
g3991
sg75
(lp4007
g68
(g69
g70
NtRp4008
(dp4009
g73
(dp4010
g81
I4
ssg82
g4004
sg75
(lp4011
g498
ag68
(g77
g70
NtRp4012
(dp4013
g73
(dp4014
g81
I3
ssg82
Nsg75
(lp4015
g68
(g84
g70
NtRp4016
(dp4017
g73
(dp4018
sg82
g4012
sg75
(lp4019
g68
(g89
g70
NtRp4020
(dp4021
g73
(dp4022
g93
g94
ssg82
g4016
sg75
(lp4023
g317
asbag68
(g89
g70
NtRp4024
(dp4025
g73
(dp4026
g100
g101
ssg82
g4016
sg75
(lp4027
S':'
asbag68
(g89
g70
NtRp4028
(dp4029
g73
(dp4030
sg82
g4016
sg75
(lp4031
g68
(g69
g70
NtRp4032
(dp4033
g73
(dp4034
g81
I3
ssg82
g4028
sg75
(lp4035
S''
asbasbasbag68
(g84
g70
NtRp4036
(dp4037
g73
(dp4038
sg82
g4012
sg75
(lp4039
g68
(g89
g70
NtRp4040
(dp4041
g73
(dp4042
g93
g94
ssg82
g4036
sg75
(lp4043
g338
asbag68
(g89
g70
NtRp4044
(dp4045
g73
(dp4046
g100
g101
ssg82
g4036
sg75
(lp4047
S':'
asbag68
(g89
g70
NtRp4048
(dp4049
g73
(dp4050
sg82
g4036
sg75
(lp4051
g68
(g69
g70
NtRp4052
(dp4053
g73
(dp4054
g81
I3
ssg82
g4048
sg75
(lp4055
S''
asbasbasbag68
(g84
g70
NtRp4056
(dp4057
g73
(dp4058
sg82
g4012
sg75
(lp4059
g68
(g89
g70
NtRp4060
(dp4061
g73
(dp4062
g93
g94
ssg82
g4056
sg75
(lp4063
g359
asbag68
(g89
g70
NtRp4064
(dp4065
g73
(dp4066
g100
g101
ssg82
g4056
sg75
(lp4067
S':'
asbag68
(g89
g70
NtRp4068
(dp4069
g73
(dp4070
sg82
g4056
sg75
(lp4071
g68
(g69
g70
NtRp4072
(dp4073
g73
(dp4074
g81
I3
ssg82
g4068
sg75
(lp4075
S''
asbasbasbag68
(g84
g70
NtRp4076
(dp4077
g73
(dp4078
sg82
g4012
sg75
(lp4079
g68
(g89
g70
NtRp4080
(dp4081
g73
(dp4082
g93
g94
ssg82
g4076
sg75
(lp4083
g380
asbag68
(g89
g70
NtRp4084
(dp4085
g73
(dp4086
g100
g101
ssg82
g4076
sg75
(lp4087
S':'
asbag68
(g89
g70
NtRp4088
(dp4089
g73
(dp4090
sg82
g4076
sg75
(lp4091
g68
(g69
g70
NtRp4092
(dp4093
g73
(dp4094
g81
I3
ssg82
g4088
sg75
(lp4095
S''
asbasbasbag68
(g84
g70
NtRp4096
(dp4097
g73
(dp4098
sg82
g4012
sg75
(lp4099
g68
(g89
g70
NtRp4100
(dp4101
g73
(dp4102
g93
g94
ssg82
g4096
sg75
(lp4103
g401
asbag68
(g89
g70
NtRp4104
(dp4105
g73
(dp4106
g100
g101
ssg82
g4096
sg75
(lp4107
S':'
asbag68
(g89
g70
NtRp4108
(dp4109
g73
(dp4110
sg82
g4096
sg75
(lp4111
g68
(g69
g70
NtRp4112
(dp4113
g73
(dp4114
g81
I3
ssg82
g4108
sg75
(lp4115
S''
asbasbasbag68
(g84
g70
NtRp4116
(dp4117
g73
(dp4118
sg82
g4012
sg75
(lp4119
g68
(g89
g70
NtRp4120
(dp4121
g73
(dp4122
g93
g94
ssg82
g4116
sg75
(lp4123
g422
asbag68
(g89
g70
NtRp4124
(dp4125
g73
(dp4126
g100
g101
ssg82
g4116
sg75
(lp4127
S':'
asbag68
(g89
g70
NtRp4128
(dp4129
g73
(dp4130
sg82
g4116
sg75
(lp4131
g68
(g69
g70
NtRp4132
(dp4133
g73
(dp4134
g81
I3
ssg82
g4128
sg75
(lp4135
S'/'
asbasbasbag68
(g84
g70
NtRp4136
(dp4137
g73
(dp4138
sg82
g4012
sg75
(lp4139
g68
(g89
g70
NtRp4140
(dp4141
g73
(dp4142
g93
g94
ssg82
g4136
sg75
(lp4143
g443
asbag68
(g89
g70
NtRp4144
(dp4145
g73
(dp4146
g100
g101
ssg82
g4136
sg75
(lp4147
S':'
asbag68
(g89
g70
NtRp4148
(dp4149
g73
(dp4150
sg82
g4136
sg75
(lp4151
g68
(g69
g70
NtRp4152
(dp4153
g73
(dp4154
g81
I3
ssg82
g4148
sg75
(lp4155
S''
asbasbasbag68
(g84
g70
NtRp4156
(dp4157
g73
(dp4158
sg82
g4012
sg75
(lp4159
g68
(g89
g70
NtRp4160
(dp4161
g73
(dp4162
g93
g94
ssg82
g4156
sg75
(lp4163
g464
asbag68
(g89
g70
NtRp4164
(dp4165
g73
(dp4166
g100
g101
ssg82
g4156
sg75
(lp4167
S':'
asbag68
(g89
g70
NtRp4168
(dp4169
g73
(dp4170
sg82
g4156
sg75
(lp4171
g68
(g69
g70
NtRp4172
(dp4173
g73
(dp4174
g81
I3
ssg82
g4168
sg75
(lp4175
S''
asbasbasbasbasbasbasbasbasbasbasbag68
(g84
g70
NtRp4176
(dp4177
g73
(dp4178
sg82
g3942
sg75
(lp4179
g68
(g89
g70
NtRp4180
(dp4181
g73
(dp4182
g93
g94
ssg82
g4176
sg75
(lp4183
S'delimiters'
p4184
asbag68
(g89
g70
NtRp4185
(dp4186
g73
(dp4187
g100
g101
ssg82
g4176
sg75
(lp4188
S':'
asbag68
(g89
g70
NtRp4189
(dp4190
g73
(dp4191
sg82
g4176
sg75
(lp4192
g68
(g69
g70
NtRp4193
(dp4194
g73
(dp4195
g81
I5
ssg82
g4189
sg75
(lp4196
g68
(g77
g70
NtRp4197
(dp4198
g73
(dp4199
g81
I4
ssg82
Nsg75
(lp4200
g68
(g84
g70
NtRp4201
(dp4202
g73
(dp4203
sg82
g4197
sg75
(lp4204
g68
(g89
g70
NtRp4205
(dp4206
g73
(dp4207
sg82
g4201
sg75
(lp4208
g68
(g69
g70
NtRp4209
(dp4210
g73
(dp4211
g81
I4
ssg82
g4205
sg75
(lp4212
S'{{'
p4213
asbasbasbag68
(g84
g70
NtRp4214
(dp4215
g73
(dp4216
sg82
g4197
sg75
(lp4217
g68
(g89
g70
NtRp4218
(dp4219
g73
(dp4220
sg82
g4214
sg75
(lp4221
g68
(g69
g70
NtRp4222
(dp4223
g73
(dp4224
g81
I4
ssg82
g4218
sg75
(lp4225
S'}}'
p4226
asbasbasbasbasbasbasbag68
(g84
g70
NtRp4227
(dp4228
g73
(dp4229
sg82
g3942
sg75
(lp4230
g68
(g89
g70
NtRp4231
(dp4232
g73
(dp4233
g93
g94
ssg82
g4227
sg75
(lp4234
S'files'
p4235
asbag68
(g89
g70
NtRp4236
(dp4237
g73
(dp4238
g100
g101
ssg82
g4227
sg75
(lp4239
S':'
asbag68
(g89
g70
NtRp4240
(dp4241
g73
(dp4242
sg82
g4227
sg75
(lp4243
g68
(g69
g70
NtRp4244
(dp4245
g73
(dp4246
g81
I5
ssg82
g4240
sg75
(lp4247
g68
(g77
g70
NtRp4248
(dp4249
g73
(dp4250
g81
I4
ssg82
Nsg75
(lp4251
sbasbasbasbag68
(g84
g70
NtRp4252
(dp4253
g73
(dp4254
sg82
g3942
sg75
(lp4255
g68
(g89
g70
NtRp4256
(dp4257
g73
(dp4258
g93
g94
ssg82
g4252
sg75
(lp4259
S'flash'
p4260
asbag68
(g89
g70
NtRp4261
(dp4262
g73
(dp4263
g100
g101
ssg82
g4252
sg75
(lp4264
S':'
asbag68
(g89
g70
NtRp4265
(dp4266
g73
(dp4267
sg82
g4252
sg75
(lp4268
g68
(g69
g70
NtRp4269
(dp4270
g73
(dp4271
g81
I5
ssg82
g4265
sg75
(lp4272
S''
asbasbasbag68
(g84
g70
NtRp4273
(dp4274
g73
(dp4275
sg82
g3942
sg75
(lp4276
g68
(g89
g70
NtRp4277
(dp4278
g73
(dp4279
g93
g94
ssg82
g4273
sg75
(lp4280
S'generic_patterns'
p4281
asbag68
(g89
g70
NtRp4282
(dp4283
g73
(dp4284
g100
g101
ssg82
g4273
sg75
(lp4285
S':'
asbag68
(g89
g70
NtRp4286
(dp4287
g73
(dp4288
sg82
g4273
sg75
(lp4289
g68
(g69
g70
NtRp4290
(dp4291
g73
(dp4292
g81
I5
ssg82
g4286
sg75
(lp4293
g68
(g77
g70
NtRp4294
(dp4295
g73
(dp4296
g81
I4
ssg82
Nsg75
(lp4297
sbasbasbasbag68
(g84
g70
NtRp4298
(dp4299
g73
(dp4300
sg82
g3942
sg75
(lp4301
g68
(g89
g70
NtRp4302
(dp4303
g73
(dp4304
g93
g94
ssg82
g4298
sg75
(lp4305
S'headers'
p4306
asbag68
(g89
g70
NtRp4307
(dp4308
g73
(dp4309
g100
g101
ssg82
g4298
sg75
(lp4310
S':'
asbag68
(g89
g70
NtRp4311
(dp4312
g73
(dp4313
sg82
g4298
sg75
(lp4314
g68
(g69
g70
NtRp4315
(dp4316
g73
(dp4317
g81
I5
ssg82
g4311
sg75
(lp4318
g68
(g77
g70
NtRp4319
(dp4320
g73
(dp4321
g81
I4
ssg82
Nsg75
(lp4322
g68
(g84
g70
NtRp4323
(dp4324
g73
(dp4325
sg82
g4319
sg75
(lp4326
g68
(g89
g70
NtRp4327
(dp4328
g73
(dp4329
g93
g94
ssg82
g4323
sg75
(lp4330
S'Cache-Control'
p4331
asbag68
(g89
g70
NtRp4332
(dp4333
g73
(dp4334
g100
g101
ssg82
g4323
sg75
(lp4335
S':'
asbag68
(g89
g70
NtRp4336
(dp4337
g73
(dp4338
sg82
g4323
sg75
(lp4339
g68
(g69
g70
NtRp4340
(dp4341
g73
(dp4342
g81
I4
ssg82
g4336
sg75
(lp4343
S'no-store, no-cache, must-revalidate, post-check=0, pre-check=0'
p4344
asbasbasbag68
(g84
g70
NtRp4345
(dp4346
g73
(dp4347
sg82
g4319
sg75
(lp4348
g68
(g89
g70
NtRp4349
(dp4350
g73
(dp4351
g93
g94
ssg82
g4345
sg75
(lp4352
S'Content-Type'
p4353
asbag68
(g89
g70
NtRp4354
(dp4355
g73
(dp4356
g100
g101
ssg82
g4345
sg75
(lp4357
S':'
asbag68
(g89
g70
NtRp4358
(dp4359
g73
(dp4360
sg82
g4345
sg75
(lp4361
g68
(g69
g70
NtRp4362
(dp4363
g73
(dp4364
g81
I4
ssg82
g4358
sg75
(lp4365
S'text/html; charset=utf-8'
p4366
asbasbasbag68
(g84
g70
NtRp4367
(dp4368
g73
(dp4369
sg82
g4319
sg75
(lp4370
g68
(g89
g70
NtRp4371
(dp4372
g73
(dp4373
g93
g94
ssg82
g4367
sg75
(lp4374
S'Expires'
p4375
asbag68
(g89
g70
NtRp4376
(dp4377
g73
(dp4378
g100
g101
ssg82
g4367
sg75
(lp4379
S':'
asbag68
(g89
g70
NtRp4380
(dp4381
g73
(dp4382
sg82
g4367
sg75
(lp4383
g68
(g69
g70
NtRp4384
(dp4385
g73
(dp4386
g81
I4
ssg82
g4380
sg75
(lp4387
S'Fri, 31 Aug 2012 02:27:16 GMT'
p4388
asbasbasbag68
(g84
g70
NtRp4389
(dp4390
g73
(dp4391
sg82
g4319
sg75
(lp4392
g68
(g89
g70
NtRp4393
(dp4394
g73
(dp4395
g93
g94
ssg82
g4389
sg75
(lp4396
S'Pragma'
p4397
asbag68
(g89
g70
NtRp4398
(dp4399
g73
(dp4400
g100
g101
ssg82
g4389
sg75
(lp4401
S':'
asbag68
(g89
g70
NtRp4402
(dp4403
g73
(dp4404
sg82
g4389
sg75
(lp4405
g68
(g69
g70
NtRp4406
(dp4407
g73
(dp4408
g81
I4
ssg82
g4402
sg75
(lp4409
S'no-cache'
p4410
asbasbasbag68
(g84
g70
NtRp4411
(dp4412
g73
(dp4413
sg82
g4319
sg75
(lp4414
g68
(g89
g70
NtRp4415
(dp4416
g73
(dp4417
g93
g94
ssg82
g4411
sg75
(lp4418
S'X-Powered-By'
p4419
asbag68
(g89
g70
NtRp4420
(dp4421
g73
(dp4422
g100
g101
ssg82
g4411
sg75
(lp4423
S':'
asbag68
(g89
g70
NtRp4424
(dp4425
g73
(dp4426
sg82
g4411
sg75
(lp4427
g68
(g69
g70
NtRp4428
(dp4429
g73
(dp4430
g81
I4
ssg82
g4424
sg75
(lp4431
S'web2py'
p4432
asbasbasbasbasbasbasbag68
(g84
g70
NtRp4433
(dp4434
g73
(dp4435
sg82
g3942
sg75
(lp4436
g68
(g89
g70
NtRp4437
(dp4438
g73
(dp4439
g93
g94
ssg82
g4433
sg75
(lp4440
S'menu'
p4441
asbag68
(g89
g70
NtRp4442
(dp4443
g73
(dp4444
g100
g101
ssg82
g4433
sg75
(lp4445
S':'
asbag68
(g89
g70
NtRp4446
(dp4447
g73
(dp4448
sg82
g4433
sg75
(lp4449
g68
(g69
g70
NtRp4450
(dp4451
g73
(dp4452
g81
I5
ssg82
g4446
sg75
(lp4453
g68
(g77
g70
NtRp4454
(dp4455
g73
(dp4456
g81
I4
ssg82
Nsg75
(lp4457
sbasbasbasbag68
(g84
g70
NtRp4458
(dp4459
g73
(dp4460
sg82
g3942
sg75
(lp4461
g68
(g89
g70
NtRp4462
(dp4463
g73
(dp4464
g93
g94
ssg82
g4458
sg75
(lp4465
S'meta'
p4466
asbag68
(g89
g70
NtRp4467
(dp4468
g73
(dp4469
g100
g101
ssg82
g4458
sg75
(lp4470
S':'
asbag68
(g89
g70
NtRp4471
(dp4472
g73
(dp4473
sg82
g4458
sg75
(lp4474
g68
(g69
g70
NtRp4475
(dp4476
g73
(dp4477
g81
I5
ssg82
g4471
sg75
(lp4478
g68
(g77
g70
NtRp4479
(dp4480
g73
(dp4481
g81
I4
ssg82
Nsg75
(lp4482
sbasbasbasbag68
(g84
g70
NtRp4483
(dp4484
g73
(dp4485
sg82
g3942
sg75
(lp4486
g68
(g89
g70
NtRp4487
(dp4488
g73
(dp4489
g93
g94
ssg82
g4483
sg75
(lp4490
S'postprocessing'
p4491
asbag68
(g89
g70
NtRp4492
(dp4493
g73
(dp4494
g100
g101
ssg82
g4483
sg75
(lp4495
S':'
asbag68
(g89
g70
NtRp4496
(dp4497
g73
(dp4498
sg82
g4483
sg75
(lp4499
g68
(g69
g70
NtRp4500
(dp4501
g73
(dp4502
g81
I5
ssg82
g4496
sg75
(lp4503
g68
(g77
g70
NtRp4504
(dp4505
g73
(dp4506
g81
I4
ssg82
Nsg75
(lp4507
sbasbasbasbag68
(g84
g70
NtRp4508
(dp4509
g73
(dp4510
sg82
g3942
sg75
(lp4511
g68
(g89
g70
NtRp4512
(dp4513
g73
(dp4514
g93
g94
ssg82
g4508
sg75
(lp4515
S'session_file'
p4516
asbag68
(g89
g70
NtRp4517
(dp4518
g73
(dp4519
g100
g101
ssg82
g4508
sg75
(lp4520
S':'
asbag68
(g89
g70
NtRp4521
(dp4522
g73
(dp4523
sg82
g4508
sg75
(lp4524
g68
(g69
g70
NtRp4525
(dp4526
g73
(dp4527
g81
I5
ssg82
g4521
sg75
(lp4528
S"<open file '/home/piyush/web2py/applications/FotoBuk/sessions/127.0.0.1-961e4bc4-dc07-4e6c-b9f7-52a46e56ffd5', mode 'rb+' at 0xaf14d288>"
p4529
asbasbasbag68
(g84
g70
NtRp4530
(dp4531
g73
(dp4532
sg82
g3942
sg75
(lp4533
g68
(g89
g70
NtRp4534
(dp4535
g73
(dp4536
g93
g94
ssg82
g4530
sg75
(lp4537
S'session_filename'
p4538
asbag68
(g89
g70
NtRp4539
(dp4540
g73
(dp4541
g100
g101
ssg82
g4530
sg75
(lp4542
S':'
asbag68
(g89
g70
NtRp4543
(dp4544
g73
(dp4545
sg82
g4530
sg75
(lp4546
g68
(g69
g70
NtRp4547
(dp4548
g73
(dp4549
g81
I5
ssg82
g4543
sg75
(lp4550
S'/home/piyush/web2py/applications/FotoBuk/sessions/127.0.0.1-961e4bc4-dc07-4e6c-b9f7-52a46e56ffd5'
p4551
asbasbasbag68
(g84
g70
NtRp4552
(dp4553
g73
(dp4554
sg82
g3942
sg75
(lp4555
g68
(g89
g70
NtRp4556
(dp4557
g73
(dp4558
g93
g94
ssg82
g4552
sg75
(lp4559
S'session_id'
p4560
asbag68
(g89
g70
NtRp4561
(dp4562
g73
(dp4563
g100
g101
ssg82
g4552
sg75
(lp4564
S':'
asbag68
(g89
g70
NtRp4565
(dp4566
g73
(dp4567
sg82
g4552
sg75
(lp4568
g68
(g69
g70
NtRp4569
(dp4570
g73
(dp4571
g81
I5
ssg82
g4565
sg75
(lp4572
g498
asbasbasbag68
(g84
g70
NtRp4573
(dp4574
g73
(dp4575
sg82
g3942
sg75
(lp4576
g68
(g89
g70
NtRp4577
(dp4578
g73
(dp4579
g93
g94
ssg82
g4573
sg75
(lp4580
S'session_id_name'
p4581
asbag68
(g89
g70
NtRp4582
(dp4583
g73
(dp4584
g100
g101
ssg82
g4573
sg75
(lp4585
S':'
asbag68
(g89
g70
NtRp4586
(dp4587
g73
(dp4588
sg82
g4573
sg75
(lp4589
g68
(g69
g70
NtRp4590
(dp4591
g73
(dp4592
g81
I5
ssg82
g4586
sg75
(lp4593
g3999
asbasbasbag68
(g84
g70
NtRp4594
(dp4595
g73
(dp4596
sg82
g3942
sg75
(lp4597
g68
(g89
g70
NtRp4598
(dp4599
g73
(dp4600
g93
g94
ssg82
g4594
sg75
(lp4601
S'session_locked'
p4602
asbag68
(g89
g70
NtRp4603
(dp4604
g73
(dp4605
g100
g101
ssg82
g4594
sg75
(lp4606
S':'
asbag68
(g89
g70
NtRp4607
(dp4608
g73
(dp4609
sg82
g4594
sg75
(lp4610
g68
(g69
g70
NtRp4611
(dp4612
g73
(dp4613
g81
I5
ssg82
g4607
sg75
(lp4614
g1997
asbasbasbag68
(g84
g70
NtRp4615
(dp4616
g73
(dp4617
sg82
g3942
sg75
(lp4618
g68
(g89
g70
NtRp4619
(dp4620
g73
(dp4621
g93
g94
ssg82
g4615
sg75
(lp4622
S'session_new'
p4623
asbag68
(g89
g70
NtRp4624
(dp4625
g73
(dp4626
g100
g101
ssg82
g4615
sg75
(lp4627
S':'
asbag68
(g89
g70
NtRp4628
(dp4629
g73
(dp4630
sg82
g4615
sg75
(lp4631
g68
(g69
g70
NtRp4632
(dp4633
g73
(dp4634
g81
I5
ssg82
g4628
sg75
(lp4635
g111
asbasbasbag68
(g84
g70
NtRp4636
(dp4637
g73
(dp4638
sg82
g3942
sg75
(lp4639
g68
(g89
g70
NtRp4640
(dp4641
g73
(dp4642
g93
g94
ssg82
g4636
sg75
(lp4643
S'status'
p4644
asbag68
(g89
g70
NtRp4645
(dp4646
g73
(dp4647
g100
g101
ssg82
g4636
sg75
(lp4648
S':'
asbag68
(g89
g70
NtRp4649
(dp4650
g73
(dp4651
sg82
g4636
sg75
(lp4652
g68
(g69
g70
NtRp4653
(dp4654
g73
(dp4655
g81
I5
ssg82
g4649
sg75
(lp4656
S'200'
p4657
asbasbasbag68
(g84
g70
NtRp4658
(dp4659
g73
(dp4660
sg82
g3942
sg75
(lp4661
g68
(g89
g70
NtRp4662
(dp4663
g73
(dp4664
g93
g94
ssg82
g4658
sg75
(lp4665
S'view'
p4666
asbag68
(g89
g70
NtRp4667
(dp4668
g73
(dp4669
g100
g101
ssg82
g4658
sg75
(lp4670
S':'
asbag68
(g89
g70
NtRp4671
(dp4672
g73
(dp4673
sg82
g4658
sg75
(lp4674
g68
(g69
g70
NtRp4675
(dp4676
g73
(dp4677
g81
I5
ssg82
g4671
sg75
(lp4678
S'default/show.html'
p4679
asbasbasbasbasbsS'locals'
p4680
(dp4681
g4
S"'/home/piyush/web2py/applications/FotoBuk/models/db.py'"
p4682
sg6
S'\'db = DAL("sqlite://storage.sqlite")\\n\\nfrom gluon....liker.writable = db.like.liker.readable = False\\n\\n\''
p4683
sssS'traceback'
p4684
S'Traceback (most recent call last):\n  File "/home/piyush/web2py/gluon/restricted.py", line 208, in restricted\n    ccode = compile2(code,layer)\n  File "/home/piyush/web2py/gluon/restricted.py", line 193, in compile2\n    return compile(code.rstrip().replace(\'\\r\\n\',\'\\n\')+\'\\n\', layer, \'exec\')\n  File "/home/piyush/web2py/applications/FotoBuk/models/db.py", line 22\n    Field(\'likername\'))\n        ^\nSyntaxError: invalid syntax\n'
p4685
s.