(dp1
S'output'
p2
S"<type 'exceptions.NameError'> name 'images' is not defined"
p3
sS'layer'
p4
S'/home/piyush/web2py/applications/FotoBuk/views/default/index.html'
p5
sS'code'
p6
S'response.write(\'<!DOCTYPE html>\\r\\n<!-- paulirish.com/2008/conditional-stylesheets-vs-css-hacks-answer-neither/ -->\\r\\n<!--[if lt IE 7]><html class="ie ie6 ie-lte9 ie-lte8 ie-lte7 no-js" lang="\', escape=False)\nresponse.write(T.accepted_language or \'en\')\nresponse.write(\'"> <![endif]-->\\r\\n<!--[if IE 7]><html class="ie ie7 ie-lte9 ie-lte8 ie-lte7 no-js" lang="\', escape=False)\nresponse.write(T.accepted_language or \'en\')\nresponse.write(\'"> <![endif]-->\\r\\n<!--[if IE 8]><html class="ie ie8 ie-lte9 ie-lte8 no-js" lang="\', escape=False)\nresponse.write(T.accepted_language or \'en\')\nresponse.write(\'"> <![endif]-->\\r\\n<!--[if IE 9]><html class="ie9 ie-lte9 no-js" lang="\', escape=False)\nresponse.write(T.accepted_language or \'en\')\nresponse.write(\'"> <![endif]-->\\r\\n<!--[if (gt IE 9)|!(IE)]><!--> <html class="no-js" lang="\', escape=False)\nresponse.write(T.accepted_language or \'en\')\nresponse.write(\'"> <!--<![endif]-->\\r\\n<head>\\r\\n  <meta charset="utf-8" />\\r\\n  <!-- www.phpied.com/conditional-comments-block-downloads/ -->\\r\\n  <!-- Always force latest IE rendering engine\\r\\n       (even in intranet) & Chrome Frame\\r\\n       Remove this if you use the .htaccess -->\\r\\n  <!--[if IE]>\\r\\n      <meta http-equiv="X-UA-Compatible" content="IE=edge\', escape=False)\nresponse.write(not request.is_local and \',chrome=1\' or \'\')\nresponse.write(\'">\\r\\n      <![endif]-->\\r\\n  \\r\\n  <title>\', escape=False)\nresponse.write(response.title or request.application)\nresponse.write(\'</title>\\r\\n  \\r\\n  <!-- http://dev.w3.org/html5/markup/meta.name.html -->\\r\\n  <meta name="application-name" content="\', escape=False)\nresponse.write(request.application)\nresponse.write(\'" />\\r\\n  \\r\\n  <!-- Speaking of Google, don\\\'t forget to set your site up:\\r\\n       http://google.com/webmasters -->\\r\\n  <meta name="google-site-verification" content="" />\\r\\n  \\r\\n  <!--  Mobile Viewport Fix\\r\\n\\tj.mp/mobileviewport & davidbcalhoun.com/2010/viewport-metatag\\r\\n\\tdevice-width: Occupy full width of the screen in its current orientation\\r\\n\\tinitial-scale = 1.0 retains dimensions instead of zooming out if page height > device height\\r\\n\\tuser-scalable = yes allows the user to zoom in -->\\r\\n  <meta name="viewport" content="width=device-width, initial-scale=1.0">\\r\\n  \\r\\n  <link rel="shortcut icon" href="\', escape=False)\nresponse.write(URL(\'static\',\'images/favicon.ico\'))\nresponse.write(\'" type="image/x-icon">\\r\\n  <link rel="apple-touch-icon" href="\', escape=False)\nresponse.write(URL(\'static\',\'images/favicon.png\'))\nresponse.write(\'">\\r\\n  \\r\\n  <!-- All JavaScript at the bottom, except for Modernizr which enables \\r\\n       HTML5 elements & feature detects -->\\r\\n  <script src="\', escape=False)\nresponse.write(URL(\'static\',\'js/modernizr.custom.js\'))\nresponse.write(\'"></script>   \\r\\n  \\r\\n  <!-- include stylesheets -->\\r\\n  \', escape=False)\nresponse.files.append(URL(\'static\',\'css/bootstrap.min.css\'))\nresponse.files.append(URL(\'static\',\'css/bootstrap-responsive.min.css\'))\nresponse.files.append(URL(\'static\',\'css/web2py.css\'))\nresponse.files.append(URL(\'static\',\'css/web2py_bootstrap.css\'))\nresponse.write(\'\\r\\n\\r\\n  \', escape=False)\nresponse.write(\'<script type="text/javascript"><!--\\n    // These variables are used by the web2py_ajax_init function in web2py_ajax.js (which is loaded below).\\n    var w2p_ajax_confirm_message = "\', escape=False)\nresponse.write(T(\'Are you sure you want to delete this object?\'))\nresponse.write(\'";\\n    var w2p_ajax_date_format = "\', escape=False)\nresponse.write(T(\'%Y-%m-%d\'))\nresponse.write(\'";\\n    var w2p_ajax_datetime_format = "\', escape=False)\nresponse.write(T(\'%Y-%m-%d %H:%M:%S\'))\nresponse.write(\'";\\n    //--></script>\\n\', escape=False)\nresponse.files.insert(0,URL(\'static\',\'js/jquery.js\'))\nresponse.files.insert(1,URL(\'static\',\'css/calendar.css\'))\nresponse.files.insert(2,URL(\'static\',\'js/calendar.js\'))\nresponse.files.insert(3,URL(\'static\',\'js/web2py.js\'))\nresponse.include_meta()\nresponse.include_files()\nresponse.write(\'\\n\', escape=False)\nresponse.write(\'\\r\\n  \\r\\n  \', escape=False)\n# using sidebars need to know what sidebar you want to use\nleft_sidebar_enabled = globals().get(\'left_sidebar_enabled\',False)\nright_sidebar_enabled = globals().get(\'right_sidebar_enabled\',False)\nmiddle_columns = {0:\'span12\',1:\'span9\',2:\'span6\'}[\n(left_sidebar_enabled and 1 or 0)+(right_sidebar_enabled and 1 or 0)]\nresponse.write(\'\\r\\n\\r\\n  <!-- uncomment here to load jquery-ui\\r\\n       <link rel="stylesheet" href="http://ajax.googleapis.com/ajax/libs/jqueryui/1.8.16/themes/base/jquery-ui.css" type="text/css" media="all" />\\r\\n       <script src="http://ajax.googleapis.com/ajax/libs/jqueryui/1.8.16/jquery-ui.min.js" type="text/javascript"></script>\\r\\n       uncomment to load jquery-ui //-->\\r\\n  <noscript><link href="\', escape=False)\nresponse.write(URL(\'static\', \'css/web2py_bootstrap_nojs.css\'))\nresponse.write(\'" rel="stylesheet" type="text/css" /></noscript>\\r\\n  \', escape=False)\nresponse.write(\'\\r\\n</head>\\r\\n\\r\\n<body>\\r\\n  <!-- Navbar ================================================== -->\\r\\n  <div class="navbar navbar-fixed-top">\\r\\n    <div class="navbar-inner">\\r\\n      <div class="container">\\r\\n\\t<!-- the next tag is necessary for bootstrap menus, do not remove -->\\r\\n\\t<a class="btn btn-navbar" data-toggle="collapse" data-target=".nav-collapse">\\r\\n          <span class="icon-bar"></span>\\r\\n          <span class="icon-bar"></span>\\r\\n          <span class="icon-bar"></span>\\r\\n        </a>\\r\\n\\t<a class="brand" href="#">web2py&trade;&nbsp;</a>\\r\\n\\t<div id="navbar">\', escape=False)\nresponse.write(\'auth\' in globals() and auth.navbar() or \'\')\nresponse.write(\'</div>\\r\\n\\t<div class="nav-collapse">\\r\\n\\t  \', escape=False)\nis_mobile=request.user_agent().is_mobile\nresponse.write(\'\\r\\n\\t  \', escape=False)\nif response.menu:\n    response.write(\'\\r\\n\\t  \', escape=False)\n    response.write(MENU(response.menu, _class=\'mobile-menu nav\' if is_mobile else \'nav\',mobile=is_mobile,li_class=\'dropdown\',ul_class=\'dropdown-menu\'))\n    response.write(\'\\r\\n\\t  \', escape=False)\n    pass\nresponse.write(\'\\r\\n\\t</div><!--/.nav-collapse -->\\r\\n      </div>\\r\\n    </div>\\r\\n  </div><!--/top navbar -->\\r\\n  \\r\\n  <div class="container">\\r\\n    <div class="flash">\', escape=False)\nresponse.write(response.flash or \'\')\nresponse.write(\'</div>\\r\\n\\r\\n    <!-- Masthead ================================================== -->\\r\\n    <header class="mastheader" id="header">\\r\\n      <div class="page-header">\\r\\n\\t<h1>\\r\\n\\t  \', escape=False)\nresponse.write(response.title or request.application)\nresponse.write(\'\\r\\n\\t  <small>\', escape=False)\nresponse.write(response.subtitle or \'\')\nresponse.write(\'</small>\\r\\n\\t</h1>\\r\\n      </div>\\r\\n    </header>\\r\\n    \\r\\n    <section id="main" class="main span12">\\r\\n      <div class="row">\\r\\n\\t\', escape=False)\nif left_sidebar_enabled:\n    response.write(\'\\r\\n\\t<div class="span3 left-sidebar">\\r\\n\\t  \', escape=False)\n    response.write(\'\\r\\n\\t  <h3>Left Sidebar</h3>\\r\\n\\t  <p></p>\\r\\n\\t  \', escape=False)\n    response.write(\'\\r\\n\\t</div>\\r\\n\\t\', escape=False)\n    pass\nresponse.write(\'\\r\\n\\t\\r\\n\\t<div class="\', escape=False)\nresponse.write(middle_columns)\nresponse.write(\'">\\r\\n\\t  \', escape=False)\nresponse.write(\'\\r\\n\\t  \', escape=False)\nresponse.write(\'\\n<h1>Current Images</h1>\\n<ul>\\n\', escape=False)\nfor image in images:\n    response.write(\'\\n\', escape=False)\n    response.write(LI(A(image.title, _href=URL("show", args=image.id))))\n    response.write(\'\\n\', escape=False)\n    pass\nresponse.write(\'\\n</ul>\\n\\n\\n\', escape=False)\nresponse.write(\'\\r\\n\\t  \', escape=False)\nresponse.write(\'\\r\\n\\t</div>\\r\\n\\t\\r\\n\\t\', escape=False)\nif right_sidebar_enabled:\n    response.write(\'\\r\\n\\t<div class="span3">\\r\\n\\t  \', escape=False)\n    response.write(\'\\r\\n\\t  <h3>Right Sidebar</h3>\\r\\n\\t  <p></p>\\r\\n\\t  \', escape=False)\n    response.write(\'\\r\\n\\t</div>    \\r\\n\\t\', escape=False)\n    pass\nresponse.write(\'\\r\\n      </div><!--/row-->\\r\\n    </section><!--/main-->\\r\\n    \\r\\n    <!-- Footer ================================================== -->\\r\\n    <footer class="footer">\\r\\n      \', escape=False)\nresponse.write(\' <!-- this is default footer -->\\r\\n      <div class="footer-content">\\r\\n\\t<div class="copyright pull-left">\', escape=False)\nresponse.write(T(\'Copyright\'))\nresponse.write(\' &#169; \', escape=False)\nresponse.write(request.now.year)\nresponse.write(\'</div>\\r\\n\\t<div id="poweredBy" class="pull-right">\\r\\n\\t  \', escape=False)\nresponse.write(T(\'Powered by\'))\nresponse.write(\'\\r\\n\\t  <a href="http://www.web2py.com/">web2py</a>\\r\\n\\t</div>\\r\\n      </div>\\r\\n      \', escape=False)\nresponse.write(\'\\r\\n    </footer>\\r\\n    \\r\\n  </div> <!-- /container -->\\r\\n  \\r\\n  <!-- The javascript =============================================\\r\\n       (Placed at the end of the document so the pages load faster) -->\\r\\n  <script>\\r\\n    // this code improves bootstrap menus and adds dropdown support\\r\\n    jQuery(function(){\\r\\n      jQuery(\\\'.nav>li>a\\\').each(function(){\\t        \\r\\n        if(jQuery(this).parent().find(\\\'ul\\\').length)\\r\\n          jQuery(this).attr({\\\'class\\\':\\\'dropdown-toggle\\\',\\\'data-toggle\\\':\\\'dropdown\\\'}).append(\\\'<b class="caret"></b>\\\');\\r\\n      });\\r\\n      jQuery(\\\'.nav li li\\\').each(function(){\\t        \\r\\n        if(jQuery(this).find(\\\'ul\\\').length)\\r\\n          jQuery(this).children(\\\'a\\\').contents().before(\\\'<i class="chevron-right"></i>\\\'); \\r\\n      });\\r\\n      if(jQuery(document).width()>=980) {\\r\\n        jQuery(\\\'ul.nav li.dropdown\\\').hover(function() {\\r\\n          jQuery(this).find(\\\'.dropdown-menu\\\').stop(true, true).delay(200).fadeIn(); \\r\\n        }, function() {\\r\\n          jQuery(this).find(\\\'.dropdown-menu\\\').stop(true, true).delay(200).fadeOut(); \\r\\n        });\\r\\n      }\\r\\n      jQuery(\\\'ul.nav li.dropdown a\\\').click(function(){window.location=jQuery(this).attr(\\\'href\\\');});\\r\\n    });\\r\\n  </script>  \\r\\n  <script src="\', escape=False)\nresponse.write(URL(\'static\',\'js/bootstrap.min.js\'))\nresponse.write(\'"></script>  \\r\\n  <!--[if lt IE 7 ]>\\r\\n      <script src="\', escape=False)\nresponse.write(URL(\'static\',\'js/dd_belatedpng.js\'))\nresponse.write(\'"></script>\\r\\n      <script> DD_belatedPNG.fix(\\\'img, .png_bg\\\'); //fix any <img> or .png_bg background-images </script>\\r\\n      <![endif]-->\\r\\n  \', escape=False)\nif response.google_analytics_id:\n    response.write(\'<script type="text/javascript"> var _gaq = _gaq || []; _gaq.push([\\\'_setAccount\\\', \\\'\', escape=False)\n    response.write(response.google_analytics_id)\n    response.write("\']); _gaq.push([\'_trackPageview\']); (function() { var ga = document.createElement(\'script\'); ga.type = \'text/javascript\'; ga.async = true; ga.src = (\'https:\' == document.location.protocol ? \'https://ssl\' : \'http://www\') + \'.google-analytics.com/ga.js\'; var s = document.getElementsByTagName(\'script\')[0]; s.parentNode.insertBefore(ga, s); })(); </script> ", escape=False)\n    pass\nresponse.write(\'\\r\\n  <script src="\', escape=False)\nresponse.write(URL(\'static\',\'js/share.js\',vars=dict(static=URL(\'static\',\'images\'))))\nresponse.write(\'"></script>  \\r\\n</body>\\r\\n</html>\\r\\n\', escape=False)'
p7
sS'snapshot'
p8
(dp9
S'exception'
p10
(dp11
S'__hash__'
p12
S"<method-wrapper '__hash__' of exceptions.NameError object>"
p13
sS'__setattr__'
p14
S"<method-wrapper '__setattr__' of exceptions.NameError object>"
p15
sS'__reduce_ex__'
p16
S'<built-in method __reduce_ex__ of exceptions.NameError object>'
p17
sS'__getslice__'
p18
S"<method-wrapper '__getslice__' of exceptions.NameError object>"
p19
sS'__getitem__'
p20
S"<method-wrapper '__getitem__' of exceptions.NameError object>"
p21
sS'__setstate__'
p22
S'<built-in method __setstate__ of exceptions.NameError object>'
p23
sS'__reduce__'
p24
S'<built-in method __reduce__ of exceptions.NameError object>'
p25
sS'__str__'
p26
S"<method-wrapper '__str__' of exceptions.NameError object>"
p27
sS'__format__'
p28
S'<built-in method __format__ of exceptions.NameError object>'
p29
sS'__getattribute__'
p30
S"<method-wrapper '__getattribute__' of exceptions.NameError object>"
p31
sS'__class__'
p32
S"<type 'exceptions.NameError'>"
p33
sS'__unicode__'
p34
S'<built-in method __unicode__ of exceptions.NameError object>'
p35
sS'__delattr__'
p36
S"<method-wrapper '__delattr__' of exceptions.NameError object>"
p37
sS'__subclasshook__'
p38
S'<built-in method __subclasshook__ of type object>'
p39
sS'__repr__'
p40
S"<method-wrapper '__repr__' of exceptions.NameError object>"
p41
sS'args'
p42
S'("name \'images\' is not defined",)'
p43
sS'__dict__'
p44
S'{}'
p45
sS'__sizeof__'
p46
S'<built-in method __sizeof__ of exceptions.NameError object>'
p47
sS'__doc__'
p48
S"'Name not found globally.'"
p49
sS'__init__'
p50
S"<method-wrapper '__init__' of exceptions.NameError object>"
p51
sS'__new__'
p52
S'<built-in method __new__ of type object>'
p53
ssS'evalue'
p54
S"name 'images' is not defined"
p55
sS'request'
p56
ccopy_reg
_reconstructor
p57
(cgluon.html
BEAUTIFY
p58
c__builtin__
object
p59
NtRp60
(dp61
S'attributes'
p62
(dp63
sS'components'
p64
(lp65
g57
(cgluon.html
TABLE
p66
g59
NtRp67
(dp68
g62
(dp69
S'level'
p70
I5
ssS'parent'
p71
Nsg64
(lp72
g57
(cgluon.html
TR
p73
g59
NtRp74
(dp75
g62
(dp76
sg71
g67
sg64
(lp77
g57
(cgluon.html
TD
p78
g59
NtRp79
(dp80
g62
(dp81
S'_style'
p82
S'font-weight:bold;vertical-align:top'
p83
ssg71
g74
sg64
(lp84
S'ajax'
p85
asbag57
(g78
g59
NtRp86
(dp87
g62
(dp88
S'_valign'
p89
S'top'
p90
ssg71
g74
sg64
(lp91
S':'
asbag57
(g78
g59
NtRp92
(dp93
g62
(dp94
sg71
g74
sg64
(lp95
g57
(g58
g59
NtRp96
(dp97
g62
(dp98
g70
I5
ssg71
g92
sg64
(lp99
S'False'
p100
asbasbasbag57
(g73
g59
NtRp101
(dp102
g62
(dp103
sg71
g67
sg64
(lp104
g57
(g78
g59
NtRp105
(dp106
g62
(dp107
g82
g83
ssg71
g101
sg64
(lp108
S'application'
p109
asbag57
(g78
g59
NtRp110
(dp111
g62
(dp112
g89
g90
ssg71
g101
sg64
(lp113
S':'
asbag57
(g78
g59
NtRp114
(dp115
g62
(dp116
sg71
g101
sg64
(lp117
g57
(g58
g59
NtRp118
(dp119
g62
(dp120
g70
I5
ssg71
g114
sg64
(lp121
S'FotoBuk'
p122
asbasbasbag57
(g73
g59
NtRp123
(dp124
g62
(dp125
sg71
g67
sg64
(lp126
g57
(g78
g59
NtRp127
(dp128
g62
(dp129
g82
g83
ssg71
g123
sg64
(lp130
g42
asbag57
(g78
g59
NtRp131
(dp132
g62
(dp133
g89
g90
ssg71
g123
sg64
(lp134
S':'
asbag57
(g78
g59
NtRp135
(dp136
g62
(dp137
sg71
g123
sg64
(lp138
g57
(g58
g59
NtRp139
(dp140
g62
(dp141
g70
I5
ssg71
g135
sg64
(lp142
g57
(g66
g59
NtRp143
(dp144
g62
(dp145
g70
I4
ssg71
Nsg64
(lp146
sbasbasbasbag57
(g73
g59
NtRp147
(dp148
g62
(dp149
sg71
g67
sg64
(lp150
g57
(g78
g59
NtRp151
(dp152
g62
(dp153
g82
g83
ssg71
g147
sg64
(lp154
S'body'
p155
asbag57
(g78
g59
NtRp156
(dp157
g62
(dp158
g89
g90
ssg71
g147
sg64
(lp159
S':'
asbag57
(g78
g59
NtRp160
(dp161
g62
(dp162
sg71
g147
sg64
(lp163
g57
(g58
g59
NtRp164
(dp165
g62
(dp166
g70
I5
ssg71
g160
sg64
(lp167
S'<cStringIO.StringO object at 0xaeaa9220>'
p168
asbasbasbag57
(g73
g59
NtRp169
(dp170
g62
(dp171
sg71
g67
sg64
(lp172
g57
(g78
g59
NtRp173
(dp174
g62
(dp175
g82
g83
ssg71
g169
sg64
(lp176
S'cid'
p177
asbag57
(g78
g59
NtRp178
(dp179
g62
(dp180
g89
g90
ssg71
g169
sg64
(lp181
S':'
asbag57
(g78
g59
NtRp182
(dp183
g62
(dp184
sg71
g169
sg64
(lp185
g57
(g58
g59
NtRp186
(dp187
g62
(dp188
g70
I5
ssg71
g182
sg64
(lp189
S'None'
p190
asbasbasbag57
(g73
g59
NtRp191
(dp192
g62
(dp193
sg71
g67
sg64
(lp194
g57
(g78
g59
NtRp195
(dp196
g62
(dp197
g82
g83
ssg71
g191
sg64
(lp198
S'client'
p199
asbag57
(g78
g59
NtRp200
(dp201
g62
(dp202
g89
g90
ssg71
g191
sg64
(lp203
S':'
asbag57
(g78
g59
NtRp204
(dp205
g62
(dp206
sg71
g191
sg64
(lp207
g57
(g58
g59
NtRp208
(dp209
g62
(dp210
g70
I5
ssg71
g204
sg64
(lp211
S'127.0.0.1'
p212
asbasbasbag57
(g73
g59
NtRp213
(dp214
g62
(dp215
sg71
g67
sg64
(lp216
g57
(g78
g59
NtRp217
(dp218
g62
(dp219
g82
g83
ssg71
g213
sg64
(lp220
S'controller'
p221
asbag57
(g78
g59
NtRp222
(dp223
g62
(dp224
g89
g90
ssg71
g213
sg64
(lp225
S':'
asbag57
(g78
g59
NtRp226
(dp227
g62
(dp228
sg71
g213
sg64
(lp229
g57
(g58
g59
NtRp230
(dp231
g62
(dp232
g70
I5
ssg71
g226
sg64
(lp233
S'default'
p234
asbasbasbag57
(g73
g59
NtRp235
(dp236
g62
(dp237
sg71
g67
sg64
(lp238
g57
(g78
g59
NtRp239
(dp240
g62
(dp241
g82
g83
ssg71
g235
sg64
(lp242
S'cookies'
p243
asbag57
(g78
g59
NtRp244
(dp245
g62
(dp246
g89
g90
ssg71
g235
sg64
(lp247
S':'
asbag57
(g78
g59
NtRp248
(dp249
g62
(dp250
sg71
g235
sg64
(lp251
g57
(g58
g59
NtRp252
(dp253
g62
(dp254
g70
I5
ssg71
g248
sg64
(lp255
g57
(g66
g59
NtRp256
(dp257
g62
(dp258
g70
I4
ssg71
Nsg64
(lp259
g57
(g73
g59
NtRp260
(dp261
g62
(dp262
sg71
g256
sg64
(lp263
g57
(g78
g59
NtRp264
(dp265
g62
(dp266
g82
g83
ssg71
g260
sg64
(lp267
S'session_id_admin'
p268
asbag57
(g78
g59
NtRp269
(dp270
g62
(dp271
g89
g90
ssg71
g260
sg64
(lp272
S':'
asbag57
(g78
g59
NtRp273
(dp274
g62
(dp275
sg71
g260
sg64
(lp276
g57
(g58
g59
NtRp277
(dp278
g62
(dp279
g70
I4
ssg71
g273
sg64
(lp280
S'127.0.0.1-b3c2d1ad-f796-4da8-b8a8-41b2a25cf8e7'
p281
ag57
(g66
g59
NtRp282
(dp283
g62
(dp284
g70
I3
ssg71
Nsg64
(lp285
g57
(g73
g59
NtRp286
(dp287
g62
(dp288
sg71
g282
sg64
(lp289
g57
(g78
g59
NtRp290
(dp291
g62
(dp292
g82
g83
ssg71
g286
sg64
(lp293
S'comment'
p294
asbag57
(g78
g59
NtRp295
(dp296
g62
(dp297
g89
g90
ssg71
g286
sg64
(lp298
S':'
asbag57
(g78
g59
NtRp299
(dp300
g62
(dp301
sg71
g286
sg64
(lp302
g57
(g58
g59
NtRp303
(dp304
g62
(dp305
g70
I3
ssg71
g299
sg64
(lp306
S''
asbasbasbag57
(g73
g59
NtRp307
(dp308
g62
(dp309
sg71
g282
sg64
(lp310
g57
(g78
g59
NtRp311
(dp312
g62
(dp313
g82
g83
ssg71
g307
sg64
(lp314
S'domain'
p315
asbag57
(g78
g59
NtRp316
(dp317
g62
(dp318
g89
g90
ssg71
g307
sg64
(lp319
S':'
asbag57
(g78
g59
NtRp320
(dp321
g62
(dp322
sg71
g307
sg64
(lp323
g57
(g58
g59
NtRp324
(dp325
g62
(dp326
g70
I3
ssg71
g320
sg64
(lp327
S''
asbasbasbag57
(g73
g59
NtRp328
(dp329
g62
(dp330
sg71
g282
sg64
(lp331
g57
(g78
g59
NtRp332
(dp333
g62
(dp334
g82
g83
ssg71
g328
sg64
(lp335
S'expires'
p336
asbag57
(g78
g59
NtRp337
(dp338
g62
(dp339
g89
g90
ssg71
g328
sg64
(lp340
S':'
asbag57
(g78
g59
NtRp341
(dp342
g62
(dp343
sg71
g328
sg64
(lp344
g57
(g58
g59
NtRp345
(dp346
g62
(dp347
g70
I3
ssg71
g341
sg64
(lp348
S''
asbasbasbag57
(g73
g59
NtRp349
(dp350
g62
(dp351
sg71
g282
sg64
(lp352
g57
(g78
g59
NtRp353
(dp354
g62
(dp355
g82
g83
ssg71
g349
sg64
(lp356
S'httponly'
p357
asbag57
(g78
g59
NtRp358
(dp359
g62
(dp360
g89
g90
ssg71
g349
sg64
(lp361
S':'
asbag57
(g78
g59
NtRp362
(dp363
g62
(dp364
sg71
g349
sg64
(lp365
g57
(g58
g59
NtRp366
(dp367
g62
(dp368
g70
I3
ssg71
g362
sg64
(lp369
S''
asbasbasbag57
(g73
g59
NtRp370
(dp371
g62
(dp372
sg71
g282
sg64
(lp373
g57
(g78
g59
NtRp374
(dp375
g62
(dp376
g82
g83
ssg71
g370
sg64
(lp377
S'max-age'
p378
asbag57
(g78
g59
NtRp379
(dp380
g62
(dp381
g89
g90
ssg71
g370
sg64
(lp382
S':'
asbag57
(g78
g59
NtRp383
(dp384
g62
(dp385
sg71
g370
sg64
(lp386
g57
(g58
g59
NtRp387
(dp388
g62
(dp389
g70
I3
ssg71
g383
sg64
(lp390
S''
asbasbasbag57
(g73
g59
NtRp391
(dp392
g62
(dp393
sg71
g282
sg64
(lp394
g57
(g78
g59
NtRp395
(dp396
g62
(dp397
g82
g83
ssg71
g391
sg64
(lp398
S'path'
p399
asbag57
(g78
g59
NtRp400
(dp401
g62
(dp402
g89
g90
ssg71
g391
sg64
(lp403
S':'
asbag57
(g78
g59
NtRp404
(dp405
g62
(dp406
sg71
g391
sg64
(lp407
g57
(g58
g59
NtRp408
(dp409
g62
(dp410
g70
I3
ssg71
g404
sg64
(lp411
S''
asbasbasbag57
(g73
g59
NtRp412
(dp413
g62
(dp414
sg71
g282
sg64
(lp415
g57
(g78
g59
NtRp416
(dp417
g62
(dp418
g82
g83
ssg71
g412
sg64
(lp419
S'secure'
p420
asbag57
(g78
g59
NtRp421
(dp422
g62
(dp423
g89
g90
ssg71
g412
sg64
(lp424
S':'
asbag57
(g78
g59
NtRp425
(dp426
g62
(dp427
sg71
g412
sg64
(lp428
g57
(g58
g59
NtRp429
(dp430
g62
(dp431
g70
I3
ssg71
g425
sg64
(lp432
S''
asbasbasbag57
(g73
g59
NtRp433
(dp434
g62
(dp435
sg71
g282
sg64
(lp436
g57
(g78
g59
NtRp437
(dp438
g62
(dp439
g82
g83
ssg71
g433
sg64
(lp440
S'version'
p441
asbag57
(g78
g59
NtRp442
(dp443
g62
(dp444
g89
g90
ssg71
g433
sg64
(lp445
S':'
asbag57
(g78
g59
NtRp446
(dp447
g62
(dp448
sg71
g433
sg64
(lp449
g57
(g58
g59
NtRp450
(dp451
g62
(dp452
g70
I3
ssg71
g446
sg64
(lp453
S''
asbasbasbasbasbasbasbag57
(g73
g59
NtRp454
(dp455
g62
(dp456
sg71
g256
sg64
(lp457
g57
(g78
g59
NtRp458
(dp459
g62
(dp460
g82
g83
ssg71
g454
sg64
(lp461
S'session_id_fotobuk'
p462
asbag57
(g78
g59
NtRp463
(dp464
g62
(dp465
g89
g90
ssg71
g454
sg64
(lp466
S':'
asbag57
(g78
g59
NtRp467
(dp468
g62
(dp469
sg71
g454
sg64
(lp470
g57
(g58
g59
NtRp471
(dp472
g62
(dp473
g70
I4
ssg71
g467
sg64
(lp474
S'127.0.0.1-a0aa12fe-f234-43d8-b1ed-9cc366e4417f'
p475
ag57
(g66
g59
NtRp476
(dp477
g62
(dp478
g70
I3
ssg71
Nsg64
(lp479
g57
(g73
g59
NtRp480
(dp481
g62
(dp482
sg71
g476
sg64
(lp483
g57
(g78
g59
NtRp484
(dp485
g62
(dp486
g82
g83
ssg71
g480
sg64
(lp487
g294
asbag57
(g78
g59
NtRp488
(dp489
g62
(dp490
g89
g90
ssg71
g480
sg64
(lp491
S':'
asbag57
(g78
g59
NtRp492
(dp493
g62
(dp494
sg71
g480
sg64
(lp495
g57
(g58
g59
NtRp496
(dp497
g62
(dp498
g70
I3
ssg71
g492
sg64
(lp499
S''
asbasbasbag57
(g73
g59
NtRp500
(dp501
g62
(dp502
sg71
g476
sg64
(lp503
g57
(g78
g59
NtRp504
(dp505
g62
(dp506
g82
g83
ssg71
g500
sg64
(lp507
g315
asbag57
(g78
g59
NtRp508
(dp509
g62
(dp510
g89
g90
ssg71
g500
sg64
(lp511
S':'
asbag57
(g78
g59
NtRp512
(dp513
g62
(dp514
sg71
g500
sg64
(lp515
g57
(g58
g59
NtRp516
(dp517
g62
(dp518
g70
I3
ssg71
g512
sg64
(lp519
S''
asbasbasbag57
(g73
g59
NtRp520
(dp521
g62
(dp522
sg71
g476
sg64
(lp523
g57
(g78
g59
NtRp524
(dp525
g62
(dp526
g82
g83
ssg71
g520
sg64
(lp527
g336
asbag57
(g78
g59
NtRp528
(dp529
g62
(dp530
g89
g90
ssg71
g520
sg64
(lp531
S':'
asbag57
(g78
g59
NtRp532
(dp533
g62
(dp534
sg71
g520
sg64
(lp535
g57
(g58
g59
NtRp536
(dp537
g62
(dp538
g70
I3
ssg71
g532
sg64
(lp539
S''
asbasbasbag57
(g73
g59
NtRp540
(dp541
g62
(dp542
sg71
g476
sg64
(lp543
g57
(g78
g59
NtRp544
(dp545
g62
(dp546
g82
g83
ssg71
g540
sg64
(lp547
g357
asbag57
(g78
g59
NtRp548
(dp549
g62
(dp550
g89
g90
ssg71
g540
sg64
(lp551
S':'
asbag57
(g78
g59
NtRp552
(dp553
g62
(dp554
sg71
g540
sg64
(lp555
g57
(g58
g59
NtRp556
(dp557
g62
(dp558
g70
I3
ssg71
g552
sg64
(lp559
S''
asbasbasbag57
(g73
g59
NtRp560
(dp561
g62
(dp562
sg71
g476
sg64
(lp563
g57
(g78
g59
NtRp564
(dp565
g62
(dp566
g82
g83
ssg71
g560
sg64
(lp567
g378
asbag57
(g78
g59
NtRp568
(dp569
g62
(dp570
g89
g90
ssg71
g560
sg64
(lp571
S':'
asbag57
(g78
g59
NtRp572
(dp573
g62
(dp574
sg71
g560
sg64
(lp575
g57
(g58
g59
NtRp576
(dp577
g62
(dp578
g70
I3
ssg71
g572
sg64
(lp579
S''
asbasbasbag57
(g73
g59
NtRp580
(dp581
g62
(dp582
sg71
g476
sg64
(lp583
g57
(g78
g59
NtRp584
(dp585
g62
(dp586
g82
g83
ssg71
g580
sg64
(lp587
g399
asbag57
(g78
g59
NtRp588
(dp589
g62
(dp590
g89
g90
ssg71
g580
sg64
(lp591
S':'
asbag57
(g78
g59
NtRp592
(dp593
g62
(dp594
sg71
g580
sg64
(lp595
g57
(g58
g59
NtRp596
(dp597
g62
(dp598
g70
I3
ssg71
g592
sg64
(lp599
S''
asbasbasbag57
(g73
g59
NtRp600
(dp601
g62
(dp602
sg71
g476
sg64
(lp603
g57
(g78
g59
NtRp604
(dp605
g62
(dp606
g82
g83
ssg71
g600
sg64
(lp607
g420
asbag57
(g78
g59
NtRp608
(dp609
g62
(dp610
g89
g90
ssg71
g600
sg64
(lp611
S':'
asbag57
(g78
g59
NtRp612
(dp613
g62
(dp614
sg71
g600
sg64
(lp615
g57
(g58
g59
NtRp616
(dp617
g62
(dp618
g70
I3
ssg71
g612
sg64
(lp619
S''
asbasbasbag57
(g73
g59
NtRp620
(dp621
g62
(dp622
sg71
g476
sg64
(lp623
g57
(g78
g59
NtRp624
(dp625
g62
(dp626
g82
g83
ssg71
g620
sg64
(lp627
g441
asbag57
(g78
g59
NtRp628
(dp629
g62
(dp630
g89
g90
ssg71
g620
sg64
(lp631
S':'
asbag57
(g78
g59
NtRp632
(dp633
g62
(dp634
sg71
g620
sg64
(lp635
g57
(g58
g59
NtRp636
(dp637
g62
(dp638
g70
I3
ssg71
g632
sg64
(lp639
S''
asbasbasbasbasbasbasbag57
(g73
g59
NtRp640
(dp641
g62
(dp642
sg71
g256
sg64
(lp643
g57
(g78
g59
NtRp644
(dp645
g62
(dp646
g82
g83
ssg71
g640
sg64
(lp647
S'session_id_welcome'
p648
asbag57
(g78
g59
NtRp649
(dp650
g62
(dp651
g89
g90
ssg71
g640
sg64
(lp652
S':'
asbag57
(g78
g59
NtRp653
(dp654
g62
(dp655
sg71
g640
sg64
(lp656
g57
(g58
g59
NtRp657
(dp658
g62
(dp659
g70
I4
ssg71
g653
sg64
(lp660
S'127.0.0.1-d9249293-42c1-424c-bc11-0262fbc13d21'
p661
ag57
(g66
g59
NtRp662
(dp663
g62
(dp664
g70
I3
ssg71
Nsg64
(lp665
g57
(g73
g59
NtRp666
(dp667
g62
(dp668
sg71
g662
sg64
(lp669
g57
(g78
g59
NtRp670
(dp671
g62
(dp672
g82
g83
ssg71
g666
sg64
(lp673
g294
asbag57
(g78
g59
NtRp674
(dp675
g62
(dp676
g89
g90
ssg71
g666
sg64
(lp677
S':'
asbag57
(g78
g59
NtRp678
(dp679
g62
(dp680
sg71
g666
sg64
(lp681
g57
(g58
g59
NtRp682
(dp683
g62
(dp684
g70
I3
ssg71
g678
sg64
(lp685
S''
asbasbasbag57
(g73
g59
NtRp686
(dp687
g62
(dp688
sg71
g662
sg64
(lp689
g57
(g78
g59
NtRp690
(dp691
g62
(dp692
g82
g83
ssg71
g686
sg64
(lp693
g315
asbag57
(g78
g59
NtRp694
(dp695
g62
(dp696
g89
g90
ssg71
g686
sg64
(lp697
S':'
asbag57
(g78
g59
NtRp698
(dp699
g62
(dp700
sg71
g686
sg64
(lp701
g57
(g58
g59
NtRp702
(dp703
g62
(dp704
g70
I3
ssg71
g698
sg64
(lp705
S''
asbasbasbag57
(g73
g59
NtRp706
(dp707
g62
(dp708
sg71
g662
sg64
(lp709
g57
(g78
g59
NtRp710
(dp711
g62
(dp712
g82
g83
ssg71
g706
sg64
(lp713
g336
asbag57
(g78
g59
NtRp714
(dp715
g62
(dp716
g89
g90
ssg71
g706
sg64
(lp717
S':'
asbag57
(g78
g59
NtRp718
(dp719
g62
(dp720
sg71
g706
sg64
(lp721
g57
(g58
g59
NtRp722
(dp723
g62
(dp724
g70
I3
ssg71
g718
sg64
(lp725
S''
asbasbasbag57
(g73
g59
NtRp726
(dp727
g62
(dp728
sg71
g662
sg64
(lp729
g57
(g78
g59
NtRp730
(dp731
g62
(dp732
g82
g83
ssg71
g726
sg64
(lp733
g357
asbag57
(g78
g59
NtRp734
(dp735
g62
(dp736
g89
g90
ssg71
g726
sg64
(lp737
S':'
asbag57
(g78
g59
NtRp738
(dp739
g62
(dp740
sg71
g726
sg64
(lp741
g57
(g58
g59
NtRp742
(dp743
g62
(dp744
g70
I3
ssg71
g738
sg64
(lp745
S''
asbasbasbag57
(g73
g59
NtRp746
(dp747
g62
(dp748
sg71
g662
sg64
(lp749
g57
(g78
g59
NtRp750
(dp751
g62
(dp752
g82
g83
ssg71
g746
sg64
(lp753
g378
asbag57
(g78
g59
NtRp754
(dp755
g62
(dp756
g89
g90
ssg71
g746
sg64
(lp757
S':'
asbag57
(g78
g59
NtRp758
(dp759
g62
(dp760
sg71
g746
sg64
(lp761
g57
(g58
g59
NtRp762
(dp763
g62
(dp764
g70
I3
ssg71
g758
sg64
(lp765
S''
asbasbasbag57
(g73
g59
NtRp766
(dp767
g62
(dp768
sg71
g662
sg64
(lp769
g57
(g78
g59
NtRp770
(dp771
g62
(dp772
g82
g83
ssg71
g766
sg64
(lp773
g399
asbag57
(g78
g59
NtRp774
(dp775
g62
(dp776
g89
g90
ssg71
g766
sg64
(lp777
S':'
asbag57
(g78
g59
NtRp778
(dp779
g62
(dp780
sg71
g766
sg64
(lp781
g57
(g58
g59
NtRp782
(dp783
g62
(dp784
g70
I3
ssg71
g778
sg64
(lp785
S''
asbasbasbag57
(g73
g59
NtRp786
(dp787
g62
(dp788
sg71
g662
sg64
(lp789
g57
(g78
g59
NtRp790
(dp791
g62
(dp792
g82
g83
ssg71
g786
sg64
(lp793
g420
asbag57
(g78
g59
NtRp794
(dp795
g62
(dp796
g89
g90
ssg71
g786
sg64
(lp797
S':'
asbag57
(g78
g59
NtRp798
(dp799
g62
(dp800
sg71
g786
sg64
(lp801
g57
(g58
g59
NtRp802
(dp803
g62
(dp804
g70
I3
ssg71
g798
sg64
(lp805
S''
asbasbasbag57
(g73
g59
NtRp806
(dp807
g62
(dp808
sg71
g662
sg64
(lp809
g57
(g78
g59
NtRp810
(dp811
g62
(dp812
g82
g83
ssg71
g806
sg64
(lp813
g441
asbag57
(g78
g59
NtRp814
(dp815
g62
(dp816
g89
g90
ssg71
g806
sg64
(lp817
S':'
asbag57
(g78
g59
NtRp818
(dp819
g62
(dp820
sg71
g806
sg64
(lp821
g57
(g58
g59
NtRp822
(dp823
g62
(dp824
g70
I3
ssg71
g818
sg64
(lp825
S''
asbasbasbasbasbasbasbasbasbasbasbag57
(g73
g59
NtRp826
(dp827
g62
(dp828
sg71
g67
sg64
(lp829
g57
(g78
g59
NtRp830
(dp831
g62
(dp832
g82
g83
ssg71
g826
sg64
(lp833
S'env'
p834
asbag57
(g78
g59
NtRp835
(dp836
g62
(dp837
g89
g90
ssg71
g826
sg64
(lp838
S':'
asbag57
(g78
g59
NtRp839
(dp840
g62
(dp841
sg71
g826
sg64
(lp842
g57
(g58
g59
NtRp843
(dp844
g62
(dp845
g70
I5
ssg71
g839
sg64
(lp846
g57
(g66
g59
NtRp847
(dp848
g62
(dp849
g70
I4
ssg71
Nsg64
(lp850
g57
(g73
g59
NtRp851
(dp852
g62
(dp853
sg71
g847
sg64
(lp854
g57
(g78
g59
NtRp855
(dp856
g62
(dp857
g82
g83
ssg71
g851
sg64
(lp858
S'app_folders'
p859
asbag57
(g78
g59
NtRp860
(dp861
g62
(dp862
g89
g90
ssg71
g851
sg64
(lp863
S':'
asbag57
(g78
g59
NtRp864
(dp865
g62
(dp866
sg71
g851
sg64
(lp867
g57
(g58
g59
NtRp868
(dp869
g62
(dp870
g70
I4
ssg71
g864
sg64
(lp871
S"set(['/home/piyush/web2py/applications/FotoBuk/', '/home/piyush/web2py/applications/welcome/', '/home/piyush/web2py/applications/admin/'])"
p872
asbasbasbag57
(g73
g59
NtRp873
(dp874
g62
(dp875
sg71
g847
sg64
(lp876
g57
(g78
g59
NtRp877
(dp878
g62
(dp879
g82
g83
ssg71
g873
sg64
(lp880
S'applications_parent'
p881
asbag57
(g78
g59
NtRp882
(dp883
g62
(dp884
g89
g90
ssg71
g873
sg64
(lp885
S':'
asbag57
(g78
g59
NtRp886
(dp887
g62
(dp888
sg71
g873
sg64
(lp889
g57
(g58
g59
NtRp890
(dp891
g62
(dp892
g70
I4
ssg71
g886
sg64
(lp893
S'/home/piyush/web2py'
p894
asbasbasbag57
(g73
g59
NtRp895
(dp896
g62
(dp897
sg71
g847
sg64
(lp898
g57
(g78
g59
NtRp899
(dp900
g62
(dp901
g82
g83
ssg71
g895
sg64
(lp902
S'cmd_args'
p903
asbag57
(g78
g59
NtRp904
(dp905
g62
(dp906
g89
g90
ssg71
g895
sg64
(lp907
S':'
asbag57
(g78
g59
NtRp908
(dp909
g62
(dp910
sg71
g895
sg64
(lp911
g57
(g58
g59
NtRp912
(dp913
g62
(dp914
g70
I4
ssg71
g908
sg64
(lp915
g57
(g66
g59
NtRp916
(dp917
g62
(dp918
g70
I3
ssg71
Nsg64
(lp919
sbasbasbasbag57
(g73
g59
NtRp920
(dp921
g62
(dp922
sg71
g847
sg64
(lp923
g57
(g78
g59
NtRp924
(dp925
g62
(dp926
g82
g83
ssg71
g920
sg64
(lp927
S'cmd_options'
p928
asbag57
(g78
g59
NtRp929
(dp930
g62
(dp931
g89
g90
ssg71
g920
sg64
(lp932
S':'
asbag57
(g78
g59
NtRp933
(dp934
g62
(dp935
sg71
g920
sg64
(lp936
g57
(g58
g59
NtRp937
(dp938
g62
(dp939
g70
I4
ssg71
g933
sg64
(lp940
S"<Values at 0x9fc030c: {'verbose': False, 'ip': '127.0.0.1', 'with_scheduler': False, 'ips': ['10.1.39.167', '10.42.0.1'], 'shutdown_timeout': 5, 'taskbar': False, 'port': 8000, 'maxthreads': None, 'softcron': False, 'server_name': 'Solo', 'bpython': False, 'nogui': False, 'nocron': False, 'extcron': False, 'run_system_tests': False, 'test': None, 'folder': '/home/piyush/web2py', 'config': '', 'import_models': False, 'winservice': '', 'shell': None, 'run': '', 'log_filename': 'httpserver.log', 'debuglevel': 30, 'args': [''], 'socket_timeout': 5, 'ssl_ca_certificate': None, 'scheduler': None, 'profiler_filename': None, 'ssl_private_key': '', 'scheduler_groups': None, 'password': '<ask>', 'request_queue_size': 5, 'ssl_certificate': '', 'cronjob': False, 'numthreads': None, 'quiet': False, 'interfaces': None, 'minthreads': None, 'timeout': 10, 'plain': False, 'nobanner': False, 'pid_filename': 'httpserver.pid'}>"
p941
asbasbasbag57
(g73
g59
NtRp942
(dp943
g62
(dp944
sg71
g847
sg64
(lp945
g57
(g78
g59
NtRp946
(dp947
g62
(dp948
g82
g83
ssg71
g942
sg64
(lp949
S'db_sessions'
p950
asbag57
(g78
g59
NtRp951
(dp952
g62
(dp953
g89
g90
ssg71
g942
sg64
(lp954
S':'
asbag57
(g78
g59
NtRp955
(dp956
g62
(dp957
sg71
g942
sg64
(lp958
g57
(g58
g59
NtRp959
(dp960
g62
(dp961
g70
I4
ssg71
g955
sg64
(lp962
S'set([])'
p963
asbasbasbag57
(g73
g59
NtRp964
(dp965
g62
(dp966
sg71
g847
sg64
(lp967
g57
(g78
g59
NtRp968
(dp969
g62
(dp970
g82
g83
ssg71
g964
sg64
(lp971
S'debugging'
p972
asbag57
(g78
g59
NtRp973
(dp974
g62
(dp975
g89
g90
ssg71
g964
sg64
(lp976
S':'
asbag57
(g78
g59
NtRp977
(dp978
g62
(dp979
sg71
g964
sg64
(lp980
g57
(g58
g59
NtRp981
(dp982
g62
(dp983
g70
I4
ssg71
g977
sg64
(lp984
g100
asbasbasbag57
(g73
g59
NtRp985
(dp986
g62
(dp987
sg71
g847
sg64
(lp988
g57
(g78
g59
NtRp989
(dp990
g62
(dp991
g82
g83
ssg71
g985
sg64
(lp992
S'gluon_parent'
p993
asbag57
(g78
g59
NtRp994
(dp995
g62
(dp996
g89
g90
ssg71
g985
sg64
(lp997
S':'
asbag57
(g78
g59
NtRp998
(dp999
g62
(dp1000
sg71
g985
sg64
(lp1001
g57
(g58
g59
NtRp1002
(dp1003
g62
(dp1004
g70
I4
ssg71
g998
sg64
(lp1005
S'/home/piyush/web2py'
p1006
asbasbasbag57
(g73
g59
NtRp1007
(dp1008
g62
(dp1009
sg71
g847
sg64
(lp1010
g57
(g78
g59
NtRp1011
(dp1012
g62
(dp1013
g82
g83
ssg71
g1007
sg64
(lp1014
S'http_accept'
p1015
asbag57
(g78
g59
NtRp1016
(dp1017
g62
(dp1018
g89
g90
ssg71
g1007
sg64
(lp1019
S':'
asbag57
(g78
g59
NtRp1020
(dp1021
g62
(dp1022
sg71
g1007
sg64
(lp1023
g57
(g58
g59
NtRp1024
(dp1025
g62
(dp1026
g70
I4
ssg71
g1020
sg64
(lp1027
S'text/html,application/xhtml+xml,application/xml;q=0.9,*/*;q=0.8'
p1028
asbasbasbag57
(g73
g59
NtRp1029
(dp1030
g62
(dp1031
sg71
g847
sg64
(lp1032
g57
(g78
g59
NtRp1033
(dp1034
g62
(dp1035
g82
g83
ssg71
g1029
sg64
(lp1036
S'http_accept_encoding'
p1037
asbag57
(g78
g59
NtRp1038
(dp1039
g62
(dp1040
g89
g90
ssg71
g1029
sg64
(lp1041
S':'
asbag57
(g78
g59
NtRp1042
(dp1043
g62
(dp1044
sg71
g1029
sg64
(lp1045
g57
(g58
g59
NtRp1046
(dp1047
g62
(dp1048
g70
I4
ssg71
g1042
sg64
(lp1049
S'gzip, deflate'
p1050
asbasbasbag57
(g73
g59
NtRp1051
(dp1052
g62
(dp1053
sg71
g847
sg64
(lp1054
g57
(g78
g59
NtRp1055
(dp1056
g62
(dp1057
g82
g83
ssg71
g1051
sg64
(lp1058
S'http_accept_language'
p1059
asbag57
(g78
g59
NtRp1060
(dp1061
g62
(dp1062
g89
g90
ssg71
g1051
sg64
(lp1063
S':'
asbag57
(g78
g59
NtRp1064
(dp1065
g62
(dp1066
sg71
g1051
sg64
(lp1067
g57
(g58
g59
NtRp1068
(dp1069
g62
(dp1070
g70
I4
ssg71
g1064
sg64
(lp1071
S'en-us,en;q=0.5'
p1072
asbasbasbag57
(g73
g59
NtRp1073
(dp1074
g62
(dp1075
sg71
g847
sg64
(lp1076
g57
(g78
g59
NtRp1077
(dp1078
g62
(dp1079
g82
g83
ssg71
g1073
sg64
(lp1080
S'http_connection'
p1081
asbag57
(g78
g59
NtRp1082
(dp1083
g62
(dp1084
g89
g90
ssg71
g1073
sg64
(lp1085
S':'
asbag57
(g78
g59
NtRp1086
(dp1087
g62
(dp1088
sg71
g1073
sg64
(lp1089
g57
(g58
g59
NtRp1090
(dp1091
g62
(dp1092
g70
I4
ssg71
g1086
sg64
(lp1093
S'keep-alive'
p1094
asbasbasbag57
(g73
g59
NtRp1095
(dp1096
g62
(dp1097
sg71
g847
sg64
(lp1098
g57
(g78
g59
NtRp1099
(dp1100
g62
(dp1101
g82
g83
ssg71
g1095
sg64
(lp1102
S'http_cookie'
p1103
asbag57
(g78
g59
NtRp1104
(dp1105
g62
(dp1106
g89
g90
ssg71
g1095
sg64
(lp1107
S':'
asbag57
(g78
g59
NtRp1108
(dp1109
g62
(dp1110
sg71
g1095
sg64
(lp1111
g57
(g58
g59
NtRp1112
(dp1113
g62
(dp1114
g70
I4
ssg71
g1108
sg64
(lp1115
S'session_id_welcome=127.0.0.1-d9249293-42c1-424c-bc11-0262fbc13d21; session_id_fotobuk=127.0.0.1-a0aa12fe-f234-43d8-b1ed-9cc366e4417f; session_id_admin=127.0.0.1-b3c2d1ad-f796-4da8-b8a8-41b2a25cf8e7'
p1116
asbasbasbag57
(g73
g59
NtRp1117
(dp1118
g62
(dp1119
sg71
g847
sg64
(lp1120
g57
(g78
g59
NtRp1121
(dp1122
g62
(dp1123
g82
g83
ssg71
g1117
sg64
(lp1124
S'http_host'
p1125
asbag57
(g78
g59
NtRp1126
(dp1127
g62
(dp1128
g89
g90
ssg71
g1117
sg64
(lp1129
S':'
asbag57
(g78
g59
NtRp1130
(dp1131
g62
(dp1132
sg71
g1117
sg64
(lp1133
g57
(g58
g59
NtRp1134
(dp1135
g62
(dp1136
g70
I4
ssg71
g1130
sg64
(lp1137
S'127.0.0.1:8080'
p1138
asbasbasbag57
(g73
g59
NtRp1139
(dp1140
g62
(dp1141
sg71
g847
sg64
(lp1142
g57
(g78
g59
NtRp1143
(dp1144
g62
(dp1145
g82
g83
ssg71
g1139
sg64
(lp1146
S'http_referer'
p1147
asbag57
(g78
g59
NtRp1148
(dp1149
g62
(dp1150
g89
g90
ssg71
g1139
sg64
(lp1151
S':'
asbag57
(g78
g59
NtRp1152
(dp1153
g62
(dp1154
sg71
g1139
sg64
(lp1155
g57
(g58
g59
NtRp1156
(dp1157
g62
(dp1158
g70
I4
ssg71
g1152
sg64
(lp1159
S'http://127.0.0.1:8080/admin/default/site'
p1160
asbasbasbag57
(g73
g59
NtRp1161
(dp1162
g62
(dp1163
sg71
g847
sg64
(lp1164
g57
(g78
g59
NtRp1165
(dp1166
g62
(dp1167
g82
g83
ssg71
g1161
sg64
(lp1168
S'http_user_agent'
p1169
asbag57
(g78
g59
NtRp1170
(dp1171
g62
(dp1172
g89
g90
ssg71
g1161
sg64
(lp1173
S':'
asbag57
(g78
g59
NtRp1174
(dp1175
g62
(dp1176
sg71
g1161
sg64
(lp1177
g57
(g58
g59
NtRp1178
(dp1179
g62
(dp1180
g70
I4
ssg71
g1174
sg64
(lp1181
S'Mozilla/5.0 (X11; Linux i686; rv:11.0) Gecko/20100101 Firefox/11.0'
p1182
asbasbasbag57
(g73
g59
NtRp1183
(dp1184
g62
(dp1185
sg71
g847
sg64
(lp1186
g57
(g78
g59
NtRp1187
(dp1188
g62
(dp1189
g82
g83
ssg71
g1183
sg64
(lp1190
S'is_jython'
p1191
asbag57
(g78
g59
NtRp1192
(dp1193
g62
(dp1194
g89
g90
ssg71
g1183
sg64
(lp1195
S':'
asbag57
(g78
g59
NtRp1196
(dp1197
g62
(dp1198
sg71
g1183
sg64
(lp1199
g57
(g58
g59
NtRp1200
(dp1201
g62
(dp1202
g70
I4
ssg71
g1196
sg64
(lp1203
g100
asbasbasbag57
(g73
g59
NtRp1204
(dp1205
g62
(dp1206
sg71
g847
sg64
(lp1207
g57
(g78
g59
NtRp1208
(dp1209
g62
(dp1210
g82
g83
ssg71
g1204
sg64
(lp1211
S'is_pypy'
p1212
asbag57
(g78
g59
NtRp1213
(dp1214
g62
(dp1215
g89
g90
ssg71
g1204
sg64
(lp1216
S':'
asbag57
(g78
g59
NtRp1217
(dp1218
g62
(dp1219
sg71
g1204
sg64
(lp1220
g57
(g58
g59
NtRp1221
(dp1222
g62
(dp1223
g70
I4
ssg71
g1217
sg64
(lp1224
g100
asbasbasbag57
(g73
g59
NtRp1225
(dp1226
g62
(dp1227
sg71
g847
sg64
(lp1228
g57
(g78
g59
NtRp1229
(dp1230
g62
(dp1231
g82
g83
ssg71
g1225
sg64
(lp1232
S'path_info'
p1233
asbag57
(g78
g59
NtRp1234
(dp1235
g62
(dp1236
g89
g90
ssg71
g1225
sg64
(lp1237
S':'
asbag57
(g78
g59
NtRp1238
(dp1239
g62
(dp1240
sg71
g1225
sg64
(lp1241
g57
(g58
g59
NtRp1242
(dp1243
g62
(dp1244
g70
I4
ssg71
g1238
sg64
(lp1245
S'/FotoBuk/default/index'
p1246
asbasbasbag57
(g73
g59
NtRp1247
(dp1248
g62
(dp1249
sg71
g847
sg64
(lp1250
g57
(g78
g59
NtRp1251
(dp1252
g62
(dp1253
g82
g83
ssg71
g1247
sg64
(lp1254
S'query_string'
p1255
asbag57
(g78
g59
NtRp1256
(dp1257
g62
(dp1258
g89
g90
ssg71
g1247
sg64
(lp1259
S':'
asbag57
(g78
g59
NtRp1260
(dp1261
g62
(dp1262
sg71
g1247
sg64
(lp1263
g57
(g58
g59
NtRp1264
(dp1265
g62
(dp1266
g70
I4
ssg71
g1260
sg64
(lp1267
S''
asbasbasbag57
(g73
g59
NtRp1268
(dp1269
g62
(dp1270
sg71
g847
sg64
(lp1271
g57
(g78
g59
NtRp1272
(dp1273
g62
(dp1274
g82
g83
ssg71
g1268
sg64
(lp1275
S'remote_addr'
p1276
asbag57
(g78
g59
NtRp1277
(dp1278
g62
(dp1279
g89
g90
ssg71
g1268
sg64
(lp1280
S':'
asbag57
(g78
g59
NtRp1281
(dp1282
g62
(dp1283
sg71
g1268
sg64
(lp1284
g57
(g58
g59
NtRp1285
(dp1286
g62
(dp1287
g70
I4
ssg71
g1281
sg64
(lp1288
g212
asbasbasbag57
(g73
g59
NtRp1289
(dp1290
g62
(dp1291
sg71
g847
sg64
(lp1292
g57
(g78
g59
NtRp1293
(dp1294
g62
(dp1295
g82
g83
ssg71
g1289
sg64
(lp1296
S'remote_port'
p1297
asbag57
(g78
g59
NtRp1298
(dp1299
g62
(dp1300
g89
g90
ssg71
g1289
sg64
(lp1301
S':'
asbag57
(g78
g59
NtRp1302
(dp1303
g62
(dp1304
sg71
g1289
sg64
(lp1305
g57
(g58
g59
NtRp1306
(dp1307
g62
(dp1308
g70
I4
ssg71
g1302
sg64
(lp1309
S'40014'
p1310
asbasbasbag57
(g73
g59
NtRp1311
(dp1312
g62
(dp1313
sg71
g847
sg64
(lp1314
g57
(g78
g59
NtRp1315
(dp1316
g62
(dp1317
g82
g83
ssg71
g1311
sg64
(lp1318
S'request_method'
p1319
asbag57
(g78
g59
NtRp1320
(dp1321
g62
(dp1322
g89
g90
ssg71
g1311
sg64
(lp1323
S':'
asbag57
(g78
g59
NtRp1324
(dp1325
g62
(dp1326
sg71
g1311
sg64
(lp1327
g57
(g58
g59
NtRp1328
(dp1329
g62
(dp1330
g70
I4
ssg71
g1324
sg64
(lp1331
S'GET'
p1332
asbasbasbag57
(g73
g59
NtRp1333
(dp1334
g62
(dp1335
sg71
g847
sg64
(lp1336
g57
(g78
g59
NtRp1337
(dp1338
g62
(dp1339
g82
g83
ssg71
g1333
sg64
(lp1340
S'script_name'
p1341
asbag57
(g78
g59
NtRp1342
(dp1343
g62
(dp1344
g89
g90
ssg71
g1333
sg64
(lp1345
S':'
asbag57
(g78
g59
NtRp1346
(dp1347
g62
(dp1348
sg71
g1333
sg64
(lp1349
g57
(g58
g59
NtRp1350
(dp1351
g62
(dp1352
g70
I4
ssg71
g1346
sg64
(lp1353
S''
asbasbasbag57
(g73
g59
NtRp1354
(dp1355
g62
(dp1356
sg71
g847
sg64
(lp1357
g57
(g78
g59
NtRp1358
(dp1359
g62
(dp1360
g82
g83
ssg71
g1354
sg64
(lp1361
S'server_name'
p1362
asbag57
(g78
g59
NtRp1363
(dp1364
g62
(dp1365
g89
g90
ssg71
g1354
sg64
(lp1366
S':'
asbag57
(g78
g59
NtRp1367
(dp1368
g62
(dp1369
sg71
g1354
sg64
(lp1370
g57
(g58
g59
NtRp1371
(dp1372
g62
(dp1373
g70
I4
ssg71
g1367
sg64
(lp1374
S'Solo'
p1375
asbasbasbag57
(g73
g59
NtRp1376
(dp1377
g62
(dp1378
sg71
g847
sg64
(lp1379
g57
(g78
g59
NtRp1380
(dp1381
g62
(dp1382
g82
g83
ssg71
g1376
sg64
(lp1383
S'server_port'
p1384
asbag57
(g78
g59
NtRp1385
(dp1386
g62
(dp1387
g89
g90
ssg71
g1376
sg64
(lp1388
S':'
asbag57
(g78
g59
NtRp1389
(dp1390
g62
(dp1391
sg71
g1376
sg64
(lp1392
g57
(g58
g59
NtRp1393
(dp1394
g62
(dp1395
g70
I4
ssg71
g1389
sg64
(lp1396
S'8080'
p1397
asbasbasbag57
(g73
g59
NtRp1398
(dp1399
g62
(dp1400
sg71
g847
sg64
(lp1401
g57
(g78
g59
NtRp1402
(dp1403
g62
(dp1404
g82
g83
ssg71
g1398
sg64
(lp1405
S'server_protocol'
p1406
asbag57
(g78
g59
NtRp1407
(dp1408
g62
(dp1409
g89
g90
ssg71
g1398
sg64
(lp1410
S':'
asbag57
(g78
g59
NtRp1411
(dp1412
g62
(dp1413
sg71
g1398
sg64
(lp1414
g57
(g58
g59
NtRp1415
(dp1416
g62
(dp1417
g70
I4
ssg71
g1411
sg64
(lp1418
S'HTTP/1.1'
p1419
asbasbasbag57
(g73
g59
NtRp1420
(dp1421
g62
(dp1422
sg71
g847
sg64
(lp1423
g57
(g78
g59
NtRp1424
(dp1425
g62
(dp1426
g82
g83
ssg71
g1420
sg64
(lp1427
S'server_software'
p1428
asbag57
(g78
g59
NtRp1429
(dp1430
g62
(dp1431
g89
g90
ssg71
g1420
sg64
(lp1432
S':'
asbag57
(g78
g59
NtRp1433
(dp1434
g62
(dp1435
sg71
g1420
sg64
(lp1436
g57
(g58
g59
NtRp1437
(dp1438
g62
(dp1439
g70
I4
ssg71
g1433
sg64
(lp1440
S'Rocket 1.2.4'
p1441
asbasbasbag57
(g73
g59
NtRp1442
(dp1443
g62
(dp1444
sg71
g847
sg64
(lp1445
g57
(g78
g59
NtRp1446
(dp1447
g62
(dp1448
g82
g83
ssg71
g1442
sg64
(lp1449
S'web2py_crontype'
p1450
asbag57
(g78
g59
NtRp1451
(dp1452
g62
(dp1453
g89
g90
ssg71
g1442
sg64
(lp1454
S':'
asbag57
(g78
g59
NtRp1455
(dp1456
g62
(dp1457
sg71
g1442
sg64
(lp1458
g57
(g58
g59
NtRp1459
(dp1460
g62
(dp1461
g70
I4
ssg71
g1455
sg64
(lp1462
S'hard'
p1463
asbasbasbag57
(g73
g59
NtRp1464
(dp1465
g62
(dp1466
sg71
g847
sg64
(lp1467
g57
(g78
g59
NtRp1468
(dp1469
g62
(dp1470
g82
g83
ssg71
g1464
sg64
(lp1471
S'web2py_path'
p1472
asbag57
(g78
g59
NtRp1473
(dp1474
g62
(dp1475
g89
g90
ssg71
g1464
sg64
(lp1476
S':'
asbag57
(g78
g59
NtRp1477
(dp1478
g62
(dp1479
sg71
g1464
sg64
(lp1480
g57
(g58
g59
NtRp1481
(dp1482
g62
(dp1483
g70
I4
ssg71
g1477
sg64
(lp1484
g894
asbasbasbag57
(g73
g59
NtRp1485
(dp1486
g62
(dp1487
sg71
g847
sg64
(lp1488
g57
(g78
g59
NtRp1489
(dp1490
g62
(dp1491
g82
g83
ssg71
g1485
sg64
(lp1492
S'web2py_version'
p1493
asbag57
(g78
g59
NtRp1494
(dp1495
g62
(dp1496
g89
g90
ssg71
g1485
sg64
(lp1497
S':'
asbag57
(g78
g59
NtRp1498
(dp1499
g62
(dp1500
sg71
g1485
sg64
(lp1501
g57
(g58
g59
NtRp1502
(dp1503
g62
(dp1504
g70
I4
ssg71
g1498
sg64
(lp1505
g57
(g66
g59
NtRp1506
(dp1507
g62
(dp1508
g70
I3
ssg71
Nsg64
(lp1509
g57
(g73
g59
NtRp1510
(dp1511
g62
(dp1512
sg71
g1506
sg64
(lp1513
g57
(g78
g59
NtRp1514
(dp1515
g62
(dp1516
sg71
g1510
sg64
(lp1517
g57
(g58
g59
NtRp1518
(dp1519
g62
(dp1520
g70
I3
ssg71
g1514
sg64
(lp1521
S'2'
asbasbasbag57
(g73
g59
NtRp1522
(dp1523
g62
(dp1524
sg71
g1506
sg64
(lp1525
g57
(g78
g59
NtRp1526
(dp1527
g62
(dp1528
sg71
g1522
sg64
(lp1529
g57
(g58
g59
NtRp1530
(dp1531
g62
(dp1532
g70
I3
ssg71
g1526
sg64
(lp1533
S'0'
asbasbasbag57
(g73
g59
NtRp1534
(dp1535
g62
(dp1536
sg71
g1506
sg64
(lp1537
g57
(g78
g59
NtRp1538
(dp1539
g62
(dp1540
sg71
g1534
sg64
(lp1541
g57
(g58
g59
NtRp1542
(dp1543
g62
(dp1544
g70
I3
ssg71
g1538
sg64
(lp1545
S'2'
asbasbasbag57
(g73
g59
NtRp1546
(dp1547
g62
(dp1548
sg71
g1506
sg64
(lp1549
g57
(g78
g59
NtRp1550
(dp1551
g62
(dp1552
sg71
g1546
sg64
(lp1553
g57
(g58
g59
NtRp1554
(dp1555
g62
(dp1556
g70
I3
ssg71
g1550
sg64
(lp1557
S'datetime.datetime(2012, 8, 30, 4, 8, 18)'
p1558
asbasbasbag57
(g73
g59
NtRp1559
(dp1560
g62
(dp1561
sg71
g1506
sg64
(lp1562
g57
(g78
g59
NtRp1563
(dp1564
g62
(dp1565
sg71
g1559
sg64
(lp1566
g57
(g58
g59
NtRp1567
(dp1568
g62
(dp1569
g70
I3
ssg71
g1563
sg64
(lp1570
S'stable'
p1571
asbasbasbasbasbasbasbag57
(g73
g59
NtRp1572
(dp1573
g62
(dp1574
sg71
g847
sg64
(lp1575
g57
(g78
g59
NtRp1576
(dp1577
g62
(dp1578
g82
g83
ssg71
g1572
sg64
(lp1579
S'wsgi_errors'
p1580
asbag57
(g78
g59
NtRp1581
(dp1582
g62
(dp1583
g89
g90
ssg71
g1572
sg64
(lp1584
S':'
asbag57
(g78
g59
NtRp1585
(dp1586
g62
(dp1587
sg71
g1572
sg64
(lp1588
g57
(g58
g59
NtRp1589
(dp1590
g62
(dp1591
g70
I4
ssg71
g1585
sg64
(lp1592
S"<open file '<stderr>', mode 'w' at 0xb77a40d0>"
p1593
asbasbasbag57
(g73
g59
NtRp1594
(dp1595
g62
(dp1596
sg71
g847
sg64
(lp1597
g57
(g78
g59
NtRp1598
(dp1599
g62
(dp1600
g82
g83
ssg71
g1594
sg64
(lp1601
S'wsgi_file_wrapper'
p1602
asbag57
(g78
g59
NtRp1603
(dp1604
g62
(dp1605
g89
g90
ssg71
g1594
sg64
(lp1606
S':'
asbag57
(g78
g59
NtRp1607
(dp1608
g62
(dp1609
sg71
g1594
sg64
(lp1610
g57
(g58
g59
NtRp1611
(dp1612
g62
(dp1613
g70
I4
ssg71
g1607
sg64
(lp1614
S'<class wsgiref.util.FileWrapper at 0x9f8226c>'
p1615
asbasbasbag57
(g73
g59
NtRp1616
(dp1617
g62
(dp1618
sg71
g847
sg64
(lp1619
g57
(g78
g59
NtRp1620
(dp1621
g62
(dp1622
g82
g83
ssg71
g1616
sg64
(lp1623
S'wsgi_input'
p1624
asbag57
(g78
g59
NtRp1625
(dp1626
g62
(dp1627
g89
g90
ssg71
g1616
sg64
(lp1628
S':'
asbag57
(g78
g59
NtRp1629
(dp1630
g62
(dp1631
sg71
g1616
sg64
(lp1632
g57
(g58
g59
NtRp1633
(dp1634
g62
(dp1635
g70
I4
ssg71
g1629
sg64
(lp1636
S'<socket._fileobject object at 0xaea8e2ac>'
p1637
asbasbasbag57
(g73
g59
NtRp1638
(dp1639
g62
(dp1640
sg71
g847
sg64
(lp1641
g57
(g78
g59
NtRp1642
(dp1643
g62
(dp1644
g82
g83
ssg71
g1638
sg64
(lp1645
S'wsgi_multiprocess'
p1646
asbag57
(g78
g59
NtRp1647
(dp1648
g62
(dp1649
g89
g90
ssg71
g1638
sg64
(lp1650
S':'
asbag57
(g78
g59
NtRp1651
(dp1652
g62
(dp1653
sg71
g1638
sg64
(lp1654
g57
(g58
g59
NtRp1655
(dp1656
g62
(dp1657
g70
I4
ssg71
g1651
sg64
(lp1658
g100
asbasbasbag57
(g73
g59
NtRp1659
(dp1660
g62
(dp1661
sg71
g847
sg64
(lp1662
g57
(g78
g59
NtRp1663
(dp1664
g62
(dp1665
g82
g83
ssg71
g1659
sg64
(lp1666
S'wsgi_multithread'
p1667
asbag57
(g78
g59
NtRp1668
(dp1669
g62
(dp1670
g89
g90
ssg71
g1659
sg64
(lp1671
S':'
asbag57
(g78
g59
NtRp1672
(dp1673
g62
(dp1674
sg71
g1659
sg64
(lp1675
g57
(g58
g59
NtRp1676
(dp1677
g62
(dp1678
g70
I4
ssg71
g1672
sg64
(lp1679
S'True'
p1680
asbasbasbag57
(g73
g59
NtRp1681
(dp1682
g62
(dp1683
sg71
g847
sg64
(lp1684
g57
(g78
g59
NtRp1685
(dp1686
g62
(dp1687
g82
g83
ssg71
g1681
sg64
(lp1688
S'wsgi_run_once'
p1689
asbag57
(g78
g59
NtRp1690
(dp1691
g62
(dp1692
g89
g90
ssg71
g1681
sg64
(lp1693
S':'
asbag57
(g78
g59
NtRp1694
(dp1695
g62
(dp1696
sg71
g1681
sg64
(lp1697
g57
(g58
g59
NtRp1698
(dp1699
g62
(dp1700
g70
I4
ssg71
g1694
sg64
(lp1701
g100
asbasbasbag57
(g73
g59
NtRp1702
(dp1703
g62
(dp1704
sg71
g847
sg64
(lp1705
g57
(g78
g59
NtRp1706
(dp1707
g62
(dp1708
g82
g83
ssg71
g1702
sg64
(lp1709
S'wsgi_url_scheme'
p1710
asbag57
(g78
g59
NtRp1711
(dp1712
g62
(dp1713
g89
g90
ssg71
g1702
sg64
(lp1714
S':'
asbag57
(g78
g59
NtRp1715
(dp1716
g62
(dp1717
sg71
g1702
sg64
(lp1718
g57
(g58
g59
NtRp1719
(dp1720
g62
(dp1721
g70
I4
ssg71
g1715
sg64
(lp1722
S'http'
p1723
asbasbasbag57
(g73
g59
NtRp1724
(dp1725
g62
(dp1726
sg71
g847
sg64
(lp1727
g57
(g78
g59
NtRp1728
(dp1729
g62
(dp1730
g82
g83
ssg71
g1724
sg64
(lp1731
S'wsgi_version'
p1732
asbag57
(g78
g59
NtRp1733
(dp1734
g62
(dp1735
g89
g90
ssg71
g1724
sg64
(lp1736
S':'
asbag57
(g78
g59
NtRp1737
(dp1738
g62
(dp1739
sg71
g1724
sg64
(lp1740
g57
(g58
g59
NtRp1741
(dp1742
g62
(dp1743
g70
I4
ssg71
g1737
sg64
(lp1744
g57
(g66
g59
NtRp1745
(dp1746
g62
(dp1747
g70
I3
ssg71
Nsg64
(lp1748
g57
(g73
g59
NtRp1749
(dp1750
g62
(dp1751
sg71
g1745
sg64
(lp1752
g57
(g78
g59
NtRp1753
(dp1754
g62
(dp1755
sg71
g1749
sg64
(lp1756
g57
(g58
g59
NtRp1757
(dp1758
g62
(dp1759
g70
I3
ssg71
g1753
sg64
(lp1760
S'1'
asbasbasbag57
(g73
g59
NtRp1761
(dp1762
g62
(dp1763
sg71
g1745
sg64
(lp1764
g57
(g78
g59
NtRp1765
(dp1766
g62
(dp1767
sg71
g1761
sg64
(lp1768
g57
(g58
g59
NtRp1769
(dp1770
g62
(dp1771
g70
I3
ssg71
g1765
sg64
(lp1772
S'0'
asbasbasbasbasbasbasbasbasbasbasbag57
(g73
g59
NtRp1773
(dp1774
g62
(dp1775
sg71
g67
sg64
(lp1776
g57
(g78
g59
NtRp1777
(dp1778
g62
(dp1779
g82
g83
ssg71
g1773
sg64
(lp1780
S'extension'
p1781
asbag57
(g78
g59
NtRp1782
(dp1783
g62
(dp1784
g89
g90
ssg71
g1773
sg64
(lp1785
S':'
asbag57
(g78
g59
NtRp1786
(dp1787
g62
(dp1788
sg71
g1773
sg64
(lp1789
g57
(g58
g59
NtRp1790
(dp1791
g62
(dp1792
g70
I5
ssg71
g1786
sg64
(lp1793
S'html'
p1794
asbasbasbag57
(g73
g59
NtRp1795
(dp1796
g62
(dp1797
sg71
g67
sg64
(lp1798
g57
(g78
g59
NtRp1799
(dp1800
g62
(dp1801
g82
g83
ssg71
g1795
sg64
(lp1802
S'folder'
p1803
asbag57
(g78
g59
NtRp1804
(dp1805
g62
(dp1806
g89
g90
ssg71
g1795
sg64
(lp1807
S':'
asbag57
(g78
g59
NtRp1808
(dp1809
g62
(dp1810
sg71
g1795
sg64
(lp1811
g57
(g58
g59
NtRp1812
(dp1813
g62
(dp1814
g70
I5
ssg71
g1808
sg64
(lp1815
S'/home/piyush/web2py/applications/FotoBuk/'
p1816
asbasbasbag57
(g73
g59
NtRp1817
(dp1818
g62
(dp1819
sg71
g67
sg64
(lp1820
g57
(g78
g59
NtRp1821
(dp1822
g62
(dp1823
g82
g83
ssg71
g1817
sg64
(lp1824
S'function'
p1825
asbag57
(g78
g59
NtRp1826
(dp1827
g62
(dp1828
g89
g90
ssg71
g1817
sg64
(lp1829
S':'
asbag57
(g78
g59
NtRp1830
(dp1831
g62
(dp1832
sg71
g1817
sg64
(lp1833
g57
(g58
g59
NtRp1834
(dp1835
g62
(dp1836
g70
I5
ssg71
g1830
sg64
(lp1837
S'index'
p1838
asbasbasbag57
(g73
g59
NtRp1839
(dp1840
g62
(dp1841
sg71
g67
sg64
(lp1842
g57
(g78
g59
NtRp1843
(dp1844
g62
(dp1845
g82
g83
ssg71
g1839
sg64
(lp1846
S'get_vars'
p1847
asbag57
(g78
g59
NtRp1848
(dp1849
g62
(dp1850
g89
g90
ssg71
g1839
sg64
(lp1851
S':'
asbag57
(g78
g59
NtRp1852
(dp1853
g62
(dp1854
sg71
g1839
sg64
(lp1855
g57
(g58
g59
NtRp1856
(dp1857
g62
(dp1858
g70
I5
ssg71
g1852
sg64
(lp1859
g57
(g66
g59
NtRp1860
(dp1861
g62
(dp1862
g70
I4
ssg71
Nsg64
(lp1863
sbasbasbasbag57
(g73
g59
NtRp1864
(dp1865
g62
(dp1866
sg71
g67
sg64
(lp1867
g57
(g78
g59
NtRp1868
(dp1869
g62
(dp1870
g82
g83
ssg71
g1864
sg64
(lp1871
S'global_settings'
p1872
asbag57
(g78
g59
NtRp1873
(dp1874
g62
(dp1875
g89
g90
ssg71
g1864
sg64
(lp1876
S':'
asbag57
(g78
g59
NtRp1877
(dp1878
g62
(dp1879
sg71
g1864
sg64
(lp1880
g57
(g58
g59
NtRp1881
(dp1882
g62
(dp1883
g70
I5
ssg71
g1877
sg64
(lp1884
g57
(g66
g59
NtRp1885
(dp1886
g62
(dp1887
g70
I4
ssg71
Nsg64
(lp1888
g57
(g73
g59
NtRp1889
(dp1890
g62
(dp1891
sg71
g1885
sg64
(lp1892
g57
(g78
g59
NtRp1893
(dp1894
g62
(dp1895
g82
g83
ssg71
g1889
sg64
(lp1896
g859
asbag57
(g78
g59
NtRp1897
(dp1898
g62
(dp1899
g89
g90
ssg71
g1889
sg64
(lp1900
S':'
asbag57
(g78
g59
NtRp1901
(dp1902
g62
(dp1903
sg71
g1889
sg64
(lp1904
g57
(g58
g59
NtRp1905
(dp1906
g62
(dp1907
g70
I4
ssg71
g1901
sg64
(lp1908
S"set(['/home/piyush/web2py/applications/FotoBuk/', '/home/piyush/web2py/applications/welcome/', '/home/piyush/web2py/applications/admin/'])"
p1909
asbasbasbag57
(g73
g59
NtRp1910
(dp1911
g62
(dp1912
sg71
g1885
sg64
(lp1913
g57
(g78
g59
NtRp1914
(dp1915
g62
(dp1916
g82
g83
ssg71
g1910
sg64
(lp1917
g881
asbag57
(g78
g59
NtRp1918
(dp1919
g62
(dp1920
g89
g90
ssg71
g1910
sg64
(lp1921
S':'
asbag57
(g78
g59
NtRp1922
(dp1923
g62
(dp1924
sg71
g1910
sg64
(lp1925
g57
(g58
g59
NtRp1926
(dp1927
g62
(dp1928
g70
I4
ssg71
g1922
sg64
(lp1929
g894
asbasbasbag57
(g73
g59
NtRp1930
(dp1931
g62
(dp1932
sg71
g1885
sg64
(lp1933
g57
(g78
g59
NtRp1934
(dp1935
g62
(dp1936
g82
g83
ssg71
g1930
sg64
(lp1937
g903
asbag57
(g78
g59
NtRp1938
(dp1939
g62
(dp1940
g89
g90
ssg71
g1930
sg64
(lp1941
S':'
asbag57
(g78
g59
NtRp1942
(dp1943
g62
(dp1944
sg71
g1930
sg64
(lp1945
g57
(g58
g59
NtRp1946
(dp1947
g62
(dp1948
g70
I4
ssg71
g1942
sg64
(lp1949
g57
(g66
g59
NtRp1950
(dp1951
g62
(dp1952
g70
I3
ssg71
Nsg64
(lp1953
sbasbasbasbag57
(g73
g59
NtRp1954
(dp1955
g62
(dp1956
sg71
g1885
sg64
(lp1957
g57
(g78
g59
NtRp1958
(dp1959
g62
(dp1960
g82
g83
ssg71
g1954
sg64
(lp1961
g928
asbag57
(g78
g59
NtRp1962
(dp1963
g62
(dp1964
g89
g90
ssg71
g1954
sg64
(lp1965
S':'
asbag57
(g78
g59
NtRp1966
(dp1967
g62
(dp1968
sg71
g1954
sg64
(lp1969
g57
(g58
g59
NtRp1970
(dp1971
g62
(dp1972
g70
I4
ssg71
g1966
sg64
(lp1973
S"<Values at 0x9fc030c: {'verbose': False, 'ip': '127.0.0.1', 'with_scheduler': False, 'ips': ['10.1.39.167', '10.42.0.1'], 'shutdown_timeout': 5, 'taskbar': False, 'port': 8000, 'maxthreads': None, 'softcron': False, 'server_name': 'Solo', 'bpython': False, 'nogui': False, 'nocron': False, 'extcron': False, 'run_system_tests': False, 'test': None, 'folder': '/home/piyush/web2py', 'config': '', 'import_models': False, 'winservice': '', 'shell': None, 'run': '', 'log_filename': 'httpserver.log', 'debuglevel': 30, 'args': [''], 'socket_timeout': 5, 'ssl_ca_certificate': None, 'scheduler': None, 'profiler_filename': None, 'ssl_private_key': '', 'scheduler_groups': None, 'password': '<ask>', 'request_queue_size': 5, 'ssl_certificate': '', 'cronjob': False, 'numthreads': None, 'quiet': False, 'interfaces': None, 'minthreads': None, 'timeout': 10, 'plain': False, 'nobanner': False, 'pid_filename': 'httpserver.pid'}>"
p1974
asbasbasbag57
(g73
g59
NtRp1975
(dp1976
g62
(dp1977
sg71
g1885
sg64
(lp1978
g57
(g78
g59
NtRp1979
(dp1980
g62
(dp1981
g82
g83
ssg71
g1975
sg64
(lp1982
g950
asbag57
(g78
g59
NtRp1983
(dp1984
g62
(dp1985
g89
g90
ssg71
g1975
sg64
(lp1986
S':'
asbag57
(g78
g59
NtRp1987
(dp1988
g62
(dp1989
sg71
g1975
sg64
(lp1990
g57
(g58
g59
NtRp1991
(dp1992
g62
(dp1993
g70
I4
ssg71
g1987
sg64
(lp1994
S'set([])'
p1995
asbasbasbag57
(g73
g59
NtRp1996
(dp1997
g62
(dp1998
sg71
g1885
sg64
(lp1999
g57
(g78
g59
NtRp2000
(dp2001
g62
(dp2002
g82
g83
ssg71
g1996
sg64
(lp2003
g972
asbag57
(g78
g59
NtRp2004
(dp2005
g62
(dp2006
g89
g90
ssg71
g1996
sg64
(lp2007
S':'
asbag57
(g78
g59
NtRp2008
(dp2009
g62
(dp2010
sg71
g1996
sg64
(lp2011
g57
(g58
g59
NtRp2012
(dp2013
g62
(dp2014
g70
I4
ssg71
g2008
sg64
(lp2015
g100
asbasbasbag57
(g73
g59
NtRp2016
(dp2017
g62
(dp2018
sg71
g1885
sg64
(lp2019
g57
(g78
g59
NtRp2020
(dp2021
g62
(dp2022
g82
g83
ssg71
g2016
sg64
(lp2023
g993
asbag57
(g78
g59
NtRp2024
(dp2025
g62
(dp2026
g89
g90
ssg71
g2016
sg64
(lp2027
S':'
asbag57
(g78
g59
NtRp2028
(dp2029
g62
(dp2030
sg71
g2016
sg64
(lp2031
g57
(g58
g59
NtRp2032
(dp2033
g62
(dp2034
g70
I4
ssg71
g2028
sg64
(lp2035
g1006
asbasbasbag57
(g73
g59
NtRp2036
(dp2037
g62
(dp2038
sg71
g1885
sg64
(lp2039
g57
(g78
g59
NtRp2040
(dp2041
g62
(dp2042
g82
g83
ssg71
g2036
sg64
(lp2043
g1191
asbag57
(g78
g59
NtRp2044
(dp2045
g62
(dp2046
g89
g90
ssg71
g2036
sg64
(lp2047
S':'
asbag57
(g78
g59
NtRp2048
(dp2049
g62
(dp2050
sg71
g2036
sg64
(lp2051
g57
(g58
g59
NtRp2052
(dp2053
g62
(dp2054
g70
I4
ssg71
g2048
sg64
(lp2055
g100
asbasbasbag57
(g73
g59
NtRp2056
(dp2057
g62
(dp2058
sg71
g1885
sg64
(lp2059
g57
(g78
g59
NtRp2060
(dp2061
g62
(dp2062
g82
g83
ssg71
g2056
sg64
(lp2063
g1212
asbag57
(g78
g59
NtRp2064
(dp2065
g62
(dp2066
g89
g90
ssg71
g2056
sg64
(lp2067
S':'
asbag57
(g78
g59
NtRp2068
(dp2069
g62
(dp2070
sg71
g2056
sg64
(lp2071
g57
(g58
g59
NtRp2072
(dp2073
g62
(dp2074
g70
I4
ssg71
g2068
sg64
(lp2075
g100
asbasbasbag57
(g73
g59
NtRp2076
(dp2077
g62
(dp2078
sg71
g1885
sg64
(lp2079
g57
(g78
g59
NtRp2080
(dp2081
g62
(dp2082
g82
g83
ssg71
g2076
sg64
(lp2083
g1450
asbag57
(g78
g59
NtRp2084
(dp2085
g62
(dp2086
g89
g90
ssg71
g2076
sg64
(lp2087
S':'
asbag57
(g78
g59
NtRp2088
(dp2089
g62
(dp2090
sg71
g2076
sg64
(lp2091
g57
(g58
g59
NtRp2092
(dp2093
g62
(dp2094
g70
I4
ssg71
g2088
sg64
(lp2095
g1463
asbasbasbag57
(g73
g59
NtRp2096
(dp2097
g62
(dp2098
sg71
g1885
sg64
(lp2099
g57
(g78
g59
NtRp2100
(dp2101
g62
(dp2102
g82
g83
ssg71
g2096
sg64
(lp2103
g1493
asbag57
(g78
g59
NtRp2104
(dp2105
g62
(dp2106
g89
g90
ssg71
g2096
sg64
(lp2107
S':'
asbag57
(g78
g59
NtRp2108
(dp2109
g62
(dp2110
sg71
g2096
sg64
(lp2111
g57
(g58
g59
NtRp2112
(dp2113
g62
(dp2114
g70
I4
ssg71
g2108
sg64
(lp2115
g57
(g66
g59
NtRp2116
(dp2117
g62
(dp2118
g70
I3
ssg71
Nsg64
(lp2119
g57
(g73
g59
NtRp2120
(dp2121
g62
(dp2122
sg71
g2116
sg64
(lp2123
g57
(g78
g59
NtRp2124
(dp2125
g62
(dp2126
sg71
g2120
sg64
(lp2127
g57
(g58
g59
NtRp2128
(dp2129
g62
(dp2130
g70
I3
ssg71
g2124
sg64
(lp2131
S'2'
asbasbasbag57
(g73
g59
NtRp2132
(dp2133
g62
(dp2134
sg71
g2116
sg64
(lp2135
g57
(g78
g59
NtRp2136
(dp2137
g62
(dp2138
sg71
g2132
sg64
(lp2139
g57
(g58
g59
NtRp2140
(dp2141
g62
(dp2142
g70
I3
ssg71
g2136
sg64
(lp2143
S'0'
asbasbasbag57
(g73
g59
NtRp2144
(dp2145
g62
(dp2146
sg71
g2116
sg64
(lp2147
g57
(g78
g59
NtRp2148
(dp2149
g62
(dp2150
sg71
g2144
sg64
(lp2151
g57
(g58
g59
NtRp2152
(dp2153
g62
(dp2154
g70
I3
ssg71
g2148
sg64
(lp2155
S'2'
asbasbasbag57
(g73
g59
NtRp2156
(dp2157
g62
(dp2158
sg71
g2116
sg64
(lp2159
g57
(g78
g59
NtRp2160
(dp2161
g62
(dp2162
sg71
g2156
sg64
(lp2163
g57
(g58
g59
NtRp2164
(dp2165
g62
(dp2166
g70
I3
ssg71
g2160
sg64
(lp2167
S'datetime.datetime(2012, 8, 30, 4, 8, 18)'
p2168
asbasbasbag57
(g73
g59
NtRp2169
(dp2170
g62
(dp2171
sg71
g2116
sg64
(lp2172
g57
(g78
g59
NtRp2173
(dp2174
g62
(dp2175
sg71
g2169
sg64
(lp2176
g57
(g58
g59
NtRp2177
(dp2178
g62
(dp2179
g70
I3
ssg71
g2173
sg64
(lp2180
g1571
asbasbasbasbasbasbasbasbasbasbasbag57
(g73
g59
NtRp2181
(dp2182
g62
(dp2183
sg71
g67
sg64
(lp2184
g57
(g78
g59
NtRp2185
(dp2186
g62
(dp2187
g82
g83
ssg71
g2181
sg64
(lp2188
S'is_https'
p2189
asbag57
(g78
g59
NtRp2190
(dp2191
g62
(dp2192
g89
g90
ssg71
g2181
sg64
(lp2193
S':'
asbag57
(g78
g59
NtRp2194
(dp2195
g62
(dp2196
sg71
g2181
sg64
(lp2197
g57
(g58
g59
NtRp2198
(dp2199
g62
(dp2200
g70
I5
ssg71
g2194
sg64
(lp2201
g100
asbasbasbag57
(g73
g59
NtRp2202
(dp2203
g62
(dp2204
sg71
g67
sg64
(lp2205
g57
(g78
g59
NtRp2206
(dp2207
g62
(dp2208
g82
g83
ssg71
g2202
sg64
(lp2209
S'is_local'
p2210
asbag57
(g78
g59
NtRp2211
(dp2212
g62
(dp2213
g89
g90
ssg71
g2202
sg64
(lp2214
S':'
asbag57
(g78
g59
NtRp2215
(dp2216
g62
(dp2217
sg71
g2202
sg64
(lp2218
g57
(g58
g59
NtRp2219
(dp2220
g62
(dp2221
g70
I5
ssg71
g2215
sg64
(lp2222
g1680
asbasbasbag57
(g73
g59
NtRp2223
(dp2224
g62
(dp2225
sg71
g67
sg64
(lp2226
g57
(g78
g59
NtRp2227
(dp2228
g62
(dp2229
g82
g83
ssg71
g2223
sg64
(lp2230
S'is_restful'
p2231
asbag57
(g78
g59
NtRp2232
(dp2233
g62
(dp2234
g89
g90
ssg71
g2223
sg64
(lp2235
S':'
asbag57
(g78
g59
NtRp2236
(dp2237
g62
(dp2238
sg71
g2223
sg64
(lp2239
g57
(g58
g59
NtRp2240
(dp2241
g62
(dp2242
g70
I5
ssg71
g2236
sg64
(lp2243
g100
asbasbasbag57
(g73
g59
NtRp2244
(dp2245
g62
(dp2246
sg71
g67
sg64
(lp2247
g57
(g78
g59
NtRp2248
(dp2249
g62
(dp2250
g82
g83
ssg71
g2244
sg64
(lp2251
S'now'
p2252
asbag57
(g78
g59
NtRp2253
(dp2254
g62
(dp2255
g89
g90
ssg71
g2244
sg64
(lp2256
S':'
asbag57
(g78
g59
NtRp2257
(dp2258
g62
(dp2259
sg71
g2244
sg64
(lp2260
g57
(g58
g59
NtRp2261
(dp2262
g62
(dp2263
g70
I5
ssg71
g2257
sg64
(lp2264
S'datetime.datetime(2012, 8, 31, 2, 34, 14, 326634)'
p2265
asbasbasbag57
(g73
g59
NtRp2266
(dp2267
g62
(dp2268
sg71
g67
sg64
(lp2269
g57
(g78
g59
NtRp2270
(dp2271
g62
(dp2272
g82
g83
ssg71
g2266
sg64
(lp2273
S'post_vars'
p2274
asbag57
(g78
g59
NtRp2275
(dp2276
g62
(dp2277
g89
g90
ssg71
g2266
sg64
(lp2278
S':'
asbag57
(g78
g59
NtRp2279
(dp2280
g62
(dp2281
sg71
g2266
sg64
(lp2282
g57
(g58
g59
NtRp2283
(dp2284
g62
(dp2285
g70
I5
ssg71
g2279
sg64
(lp2286
g57
(g66
g59
NtRp2287
(dp2288
g62
(dp2289
g70
I4
ssg71
Nsg64
(lp2290
sbasbasbasbag57
(g73
g59
NtRp2291
(dp2292
g62
(dp2293
sg71
g67
sg64
(lp2294
g57
(g78
g59
NtRp2295
(dp2296
g62
(dp2297
g82
g83
ssg71
g2291
sg64
(lp2298
S'raw_args'
p2299
asbag57
(g78
g59
NtRp2300
(dp2301
g62
(dp2302
g89
g90
ssg71
g2291
sg64
(lp2303
S':'
asbag57
(g78
g59
NtRp2304
(dp2305
g62
(dp2306
sg71
g2291
sg64
(lp2307
g57
(g58
g59
NtRp2308
(dp2309
g62
(dp2310
g70
I5
ssg71
g2304
sg64
(lp2311
S'None'
p2312
asbasbasbag57
(g73
g59
NtRp2313
(dp2314
g62
(dp2315
sg71
g67
sg64
(lp2316
g57
(g78
g59
NtRp2317
(dp2318
g62
(dp2319
g82
g83
ssg71
g2313
sg64
(lp2320
S'raw_extension'
p2321
asbag57
(g78
g59
NtRp2322
(dp2323
g62
(dp2324
g89
g90
ssg71
g2313
sg64
(lp2325
S':'
asbag57
(g78
g59
NtRp2326
(dp2327
g62
(dp2328
sg71
g2313
sg64
(lp2329
g57
(g58
g59
NtRp2330
(dp2331
g62
(dp2332
g70
I5
ssg71
g2326
sg64
(lp2333
S'None'
p2334
asbasbasbag57
(g73
g59
NtRp2335
(dp2336
g62
(dp2337
sg71
g67
sg64
(lp2338
g57
(g78
g59
NtRp2339
(dp2340
g62
(dp2341
g82
g83
ssg71
g2335
sg64
(lp2342
S'url'
p2343
asbag57
(g78
g59
NtRp2344
(dp2345
g62
(dp2346
g89
g90
ssg71
g2335
sg64
(lp2347
S':'
asbag57
(g78
g59
NtRp2348
(dp2349
g62
(dp2350
sg71
g2335
sg64
(lp2351
g57
(g58
g59
NtRp2352
(dp2353
g62
(dp2354
g70
I5
ssg71
g2348
sg64
(lp2355
S'/FotoBuk/default/index'
p2356
asbasbasbag57
(g73
g59
NtRp2357
(dp2358
g62
(dp2359
sg71
g67
sg64
(lp2360
g57
(g78
g59
NtRp2361
(dp2362
g62
(dp2363
g82
g83
ssg71
g2357
sg64
(lp2364
S'utcnow'
p2365
asbag57
(g78
g59
NtRp2366
(dp2367
g62
(dp2368
g89
g90
ssg71
g2357
sg64
(lp2369
S':'
asbag57
(g78
g59
NtRp2370
(dp2371
g62
(dp2372
sg71
g2357
sg64
(lp2373
g57
(g58
g59
NtRp2374
(dp2375
g62
(dp2376
g70
I5
ssg71
g2370
sg64
(lp2377
S'datetime.datetime(2012, 8, 30, 21, 4, 14, 326665)'
p2378
asbasbasbag57
(g73
g59
NtRp2379
(dp2380
g62
(dp2381
sg71
g67
sg64
(lp2382
g57
(g78
g59
NtRp2383
(dp2384
g62
(dp2385
g82
g83
ssg71
g2379
sg64
(lp2386
S'uuid'
p2387
asbag57
(g78
g59
NtRp2388
(dp2389
g62
(dp2390
g89
g90
ssg71
g2379
sg64
(lp2391
S':'
asbag57
(g78
g59
NtRp2392
(dp2393
g62
(dp2394
sg71
g2379
sg64
(lp2395
g57
(g58
g59
NtRp2396
(dp2397
g62
(dp2398
g70
I5
ssg71
g2392
sg64
(lp2399
S'FotoBuk/127.0.0.1.2012-08-31.02-34-14.217f8d96-9c72-42d4-9766-3c150878411e'
p2400
asbasbasbag57
(g73
g59
NtRp2401
(dp2402
g62
(dp2403
sg71
g67
sg64
(lp2404
g57
(g78
g59
NtRp2405
(dp2406
g62
(dp2407
g82
g83
ssg71
g2401
sg64
(lp2408
S'vars'
p2409
asbag57
(g78
g59
NtRp2410
(dp2411
g62
(dp2412
g89
g90
ssg71
g2401
sg64
(lp2413
S':'
asbag57
(g78
g59
NtRp2414
(dp2415
g62
(dp2416
sg71
g2401
sg64
(lp2417
g57
(g58
g59
NtRp2418
(dp2419
g62
(dp2420
g70
I5
ssg71
g2414
sg64
(lp2421
g57
(g66
g59
NtRp2422
(dp2423
g62
(dp2424
g70
I4
ssg71
Nsg64
(lp2425
sbasbasbasbag57
(g73
g59
NtRp2426
(dp2427
g62
(dp2428
sg71
g67
sg64
(lp2429
g57
(g78
g59
NtRp2430
(dp2431
g62
(dp2432
g82
g83
ssg71
g2426
sg64
(lp2433
S'wsgi'
p2434
asbag57
(g78
g59
NtRp2435
(dp2436
g62
(dp2437
g89
g90
ssg71
g2426
sg64
(lp2438
S':'
asbag57
(g78
g59
NtRp2439
(dp2440
g62
(dp2441
sg71
g2426
sg64
(lp2442
g57
(g58
g59
NtRp2443
(dp2444
g62
(dp2445
g70
I5
ssg71
g2439
sg64
(lp2446
g57
(g66
g59
NtRp2447
(dp2448
g62
(dp2449
g70
I4
ssg71
Nsg64
(lp2450
g57
(g73
g59
NtRp2451
(dp2452
g62
(dp2453
sg71
g2447
sg64
(lp2454
g57
(g78
g59
NtRp2455
(dp2456
g62
(dp2457
g82
g83
ssg71
g2451
sg64
(lp2458
S'environ'
p2459
asbag57
(g78
g59
NtRp2460
(dp2461
g62
(dp2462
g89
g90
ssg71
g2451
sg64
(lp2463
S':'
asbag57
(g78
g59
NtRp2464
(dp2465
g62
(dp2466
sg71
g2451
sg64
(lp2467
g57
(g58
g59
NtRp2468
(dp2469
g62
(dp2470
g70
I4
ssg71
g2464
sg64
(lp2471
g57
(g66
g59
NtRp2472
(dp2473
g62
(dp2474
g70
I3
ssg71
Nsg64
(lp2475
g57
(g73
g59
NtRp2476
(dp2477
g62
(dp2478
sg71
g2472
sg64
(lp2479
g57
(g78
g59
NtRp2480
(dp2481
g62
(dp2482
g82
g83
ssg71
g2476
sg64
(lp2483
S'HTTP_ACCEPT'
p2484
asbag57
(g78
g59
NtRp2485
(dp2486
g62
(dp2487
g89
g90
ssg71
g2476
sg64
(lp2488
S':'
asbag57
(g78
g59
NtRp2489
(dp2490
g62
(dp2491
sg71
g2476
sg64
(lp2492
g57
(g58
g59
NtRp2493
(dp2494
g62
(dp2495
g70
I3
ssg71
g2489
sg64
(lp2496
g1028
asbasbasbag57
(g73
g59
NtRp2497
(dp2498
g62
(dp2499
sg71
g2472
sg64
(lp2500
g57
(g78
g59
NtRp2501
(dp2502
g62
(dp2503
g82
g83
ssg71
g2497
sg64
(lp2504
S'HTTP_ACCEPT_ENCODING'
p2505
asbag57
(g78
g59
NtRp2506
(dp2507
g62
(dp2508
g89
g90
ssg71
g2497
sg64
(lp2509
S':'
asbag57
(g78
g59
NtRp2510
(dp2511
g62
(dp2512
sg71
g2497
sg64
(lp2513
g57
(g58
g59
NtRp2514
(dp2515
g62
(dp2516
g70
I3
ssg71
g2510
sg64
(lp2517
g1050
asbasbasbag57
(g73
g59
NtRp2518
(dp2519
g62
(dp2520
sg71
g2472
sg64
(lp2521
g57
(g78
g59
NtRp2522
(dp2523
g62
(dp2524
g82
g83
ssg71
g2518
sg64
(lp2525
S'HTTP_ACCEPT_LANGUAGE'
p2526
asbag57
(g78
g59
NtRp2527
(dp2528
g62
(dp2529
g89
g90
ssg71
g2518
sg64
(lp2530
S':'
asbag57
(g78
g59
NtRp2531
(dp2532
g62
(dp2533
sg71
g2518
sg64
(lp2534
g57
(g58
g59
NtRp2535
(dp2536
g62
(dp2537
g70
I3
ssg71
g2531
sg64
(lp2538
g1072
asbasbasbag57
(g73
g59
NtRp2539
(dp2540
g62
(dp2541
sg71
g2472
sg64
(lp2542
g57
(g78
g59
NtRp2543
(dp2544
g62
(dp2545
g82
g83
ssg71
g2539
sg64
(lp2546
S'HTTP_CONNECTION'
p2547
asbag57
(g78
g59
NtRp2548
(dp2549
g62
(dp2550
g89
g90
ssg71
g2539
sg64
(lp2551
S':'
asbag57
(g78
g59
NtRp2552
(dp2553
g62
(dp2554
sg71
g2539
sg64
(lp2555
g57
(g58
g59
NtRp2556
(dp2557
g62
(dp2558
g70
I3
ssg71
g2552
sg64
(lp2559
g1094
asbasbasbag57
(g73
g59
NtRp2560
(dp2561
g62
(dp2562
sg71
g2472
sg64
(lp2563
g57
(g78
g59
NtRp2564
(dp2565
g62
(dp2566
g82
g83
ssg71
g2560
sg64
(lp2567
S'HTTP_COOKIE'
p2568
asbag57
(g78
g59
NtRp2569
(dp2570
g62
(dp2571
g89
g90
ssg71
g2560
sg64
(lp2572
S':'
asbag57
(g78
g59
NtRp2573
(dp2574
g62
(dp2575
sg71
g2560
sg64
(lp2576
g57
(g58
g59
NtRp2577
(dp2578
g62
(dp2579
g70
I3
ssg71
g2573
sg64
(lp2580
g1116
asbasbasbag57
(g73
g59
NtRp2581
(dp2582
g62
(dp2583
sg71
g2472
sg64
(lp2584
g57
(g78
g59
NtRp2585
(dp2586
g62
(dp2587
g82
g83
ssg71
g2581
sg64
(lp2588
S'HTTP_HOST'
p2589
asbag57
(g78
g59
NtRp2590
(dp2591
g62
(dp2592
g89
g90
ssg71
g2581
sg64
(lp2593
S':'
asbag57
(g78
g59
NtRp2594
(dp2595
g62
(dp2596
sg71
g2581
sg64
(lp2597
g57
(g58
g59
NtRp2598
(dp2599
g62
(dp2600
g70
I3
ssg71
g2594
sg64
(lp2601
g1138
asbasbasbag57
(g73
g59
NtRp2602
(dp2603
g62
(dp2604
sg71
g2472
sg64
(lp2605
g57
(g78
g59
NtRp2606
(dp2607
g62
(dp2608
g82
g83
ssg71
g2602
sg64
(lp2609
S'HTTP_REFERER'
p2610
asbag57
(g78
g59
NtRp2611
(dp2612
g62
(dp2613
g89
g90
ssg71
g2602
sg64
(lp2614
S':'
asbag57
(g78
g59
NtRp2615
(dp2616
g62
(dp2617
sg71
g2602
sg64
(lp2618
g57
(g58
g59
NtRp2619
(dp2620
g62
(dp2621
g70
I3
ssg71
g2615
sg64
(lp2622
g1160
asbasbasbag57
(g73
g59
NtRp2623
(dp2624
g62
(dp2625
sg71
g2472
sg64
(lp2626
g57
(g78
g59
NtRp2627
(dp2628
g62
(dp2629
g82
g83
ssg71
g2623
sg64
(lp2630
S'HTTP_USER_AGENT'
p2631
asbag57
(g78
g59
NtRp2632
(dp2633
g62
(dp2634
g89
g90
ssg71
g2623
sg64
(lp2635
S':'
asbag57
(g78
g59
NtRp2636
(dp2637
g62
(dp2638
sg71
g2623
sg64
(lp2639
g57
(g58
g59
NtRp2640
(dp2641
g62
(dp2642
g70
I3
ssg71
g2636
sg64
(lp2643
g1182
asbasbasbag57
(g73
g59
NtRp2644
(dp2645
g62
(dp2646
sg71
g2472
sg64
(lp2647
g57
(g78
g59
NtRp2648
(dp2649
g62
(dp2650
g82
g83
ssg71
g2644
sg64
(lp2651
S'PATH_INFO'
p2652
asbag57
(g78
g59
NtRp2653
(dp2654
g62
(dp2655
g89
g90
ssg71
g2644
sg64
(lp2656
S':'
asbag57
(g78
g59
NtRp2657
(dp2658
g62
(dp2659
sg71
g2644
sg64
(lp2660
g57
(g58
g59
NtRp2661
(dp2662
g62
(dp2663
g70
I3
ssg71
g2657
sg64
(lp2664
g1246
asbasbasbag57
(g73
g59
NtRp2665
(dp2666
g62
(dp2667
sg71
g2472
sg64
(lp2668
g57
(g78
g59
NtRp2669
(dp2670
g62
(dp2671
g82
g83
ssg71
g2665
sg64
(lp2672
S'QUERY_STRING'
p2673
asbag57
(g78
g59
NtRp2674
(dp2675
g62
(dp2676
g89
g90
ssg71
g2665
sg64
(lp2677
S':'
asbag57
(g78
g59
NtRp2678
(dp2679
g62
(dp2680
sg71
g2665
sg64
(lp2681
g57
(g58
g59
NtRp2682
(dp2683
g62
(dp2684
g70
I3
ssg71
g2678
sg64
(lp2685
S''
asbasbasbag57
(g73
g59
NtRp2686
(dp2687
g62
(dp2688
sg71
g2472
sg64
(lp2689
g57
(g78
g59
NtRp2690
(dp2691
g62
(dp2692
g82
g83
ssg71
g2686
sg64
(lp2693
S'REMOTE_ADDR'
p2694
asbag57
(g78
g59
NtRp2695
(dp2696
g62
(dp2697
g89
g90
ssg71
g2686
sg64
(lp2698
S':'
asbag57
(g78
g59
NtRp2699
(dp2700
g62
(dp2701
sg71
g2686
sg64
(lp2702
g57
(g58
g59
NtRp2703
(dp2704
g62
(dp2705
g70
I3
ssg71
g2699
sg64
(lp2706
g212
asbasbasbag57
(g73
g59
NtRp2707
(dp2708
g62
(dp2709
sg71
g2472
sg64
(lp2710
g57
(g78
g59
NtRp2711
(dp2712
g62
(dp2713
g82
g83
ssg71
g2707
sg64
(lp2714
S'REMOTE_PORT'
p2715
asbag57
(g78
g59
NtRp2716
(dp2717
g62
(dp2718
g89
g90
ssg71
g2707
sg64
(lp2719
S':'
asbag57
(g78
g59
NtRp2720
(dp2721
g62
(dp2722
sg71
g2707
sg64
(lp2723
g57
(g58
g59
NtRp2724
(dp2725
g62
(dp2726
g70
I3
ssg71
g2720
sg64
(lp2727
g1310
asbasbasbag57
(g73
g59
NtRp2728
(dp2729
g62
(dp2730
sg71
g2472
sg64
(lp2731
g57
(g78
g59
NtRp2732
(dp2733
g62
(dp2734
g82
g83
ssg71
g2728
sg64
(lp2735
S'REQUEST_METHOD'
p2736
asbag57
(g78
g59
NtRp2737
(dp2738
g62
(dp2739
g89
g90
ssg71
g2728
sg64
(lp2740
S':'
asbag57
(g78
g59
NtRp2741
(dp2742
g62
(dp2743
sg71
g2728
sg64
(lp2744
g57
(g58
g59
NtRp2745
(dp2746
g62
(dp2747
g70
I3
ssg71
g2741
sg64
(lp2748
g1332
asbasbasbag57
(g73
g59
NtRp2749
(dp2750
g62
(dp2751
sg71
g2472
sg64
(lp2752
g57
(g78
g59
NtRp2753
(dp2754
g62
(dp2755
g82
g83
ssg71
g2749
sg64
(lp2756
S'SCRIPT_NAME'
p2757
asbag57
(g78
g59
NtRp2758
(dp2759
g62
(dp2760
g89
g90
ssg71
g2749
sg64
(lp2761
S':'
asbag57
(g78
g59
NtRp2762
(dp2763
g62
(dp2764
sg71
g2749
sg64
(lp2765
g57
(g58
g59
NtRp2766
(dp2767
g62
(dp2768
g70
I3
ssg71
g2762
sg64
(lp2769
S''
asbasbasbag57
(g73
g59
NtRp2770
(dp2771
g62
(dp2772
sg71
g2472
sg64
(lp2773
g57
(g78
g59
NtRp2774
(dp2775
g62
(dp2776
g82
g83
ssg71
g2770
sg64
(lp2777
S'SERVER_NAME'
p2778
asbag57
(g78
g59
NtRp2779
(dp2780
g62
(dp2781
g89
g90
ssg71
g2770
sg64
(lp2782
S':'
asbag57
(g78
g59
NtRp2783
(dp2784
g62
(dp2785
sg71
g2770
sg64
(lp2786
g57
(g58
g59
NtRp2787
(dp2788
g62
(dp2789
g70
I3
ssg71
g2783
sg64
(lp2790
g1375
asbasbasbag57
(g73
g59
NtRp2791
(dp2792
g62
(dp2793
sg71
g2472
sg64
(lp2794
g57
(g78
g59
NtRp2795
(dp2796
g62
(dp2797
g82
g83
ssg71
g2791
sg64
(lp2798
S'SERVER_PORT'
p2799
asbag57
(g78
g59
NtRp2800
(dp2801
g62
(dp2802
g89
g90
ssg71
g2791
sg64
(lp2803
S':'
asbag57
(g78
g59
NtRp2804
(dp2805
g62
(dp2806
sg71
g2791
sg64
(lp2807
g57
(g58
g59
NtRp2808
(dp2809
g62
(dp2810
g70
I3
ssg71
g2804
sg64
(lp2811
g1397
asbasbasbag57
(g73
g59
NtRp2812
(dp2813
g62
(dp2814
sg71
g2472
sg64
(lp2815
g57
(g78
g59
NtRp2816
(dp2817
g62
(dp2818
g82
g83
ssg71
g2812
sg64
(lp2819
S'SERVER_PROTOCOL'
p2820
asbag57
(g78
g59
NtRp2821
(dp2822
g62
(dp2823
g89
g90
ssg71
g2812
sg64
(lp2824
S':'
asbag57
(g78
g59
NtRp2825
(dp2826
g62
(dp2827
sg71
g2812
sg64
(lp2828
g57
(g58
g59
NtRp2829
(dp2830
g62
(dp2831
g70
I3
ssg71
g2825
sg64
(lp2832
g1419
asbasbasbag57
(g73
g59
NtRp2833
(dp2834
g62
(dp2835
sg71
g2472
sg64
(lp2836
g57
(g78
g59
NtRp2837
(dp2838
g62
(dp2839
g82
g83
ssg71
g2833
sg64
(lp2840
S'SERVER_SOFTWARE'
p2841
asbag57
(g78
g59
NtRp2842
(dp2843
g62
(dp2844
g89
g90
ssg71
g2833
sg64
(lp2845
S':'
asbag57
(g78
g59
NtRp2846
(dp2847
g62
(dp2848
sg71
g2833
sg64
(lp2849
g57
(g58
g59
NtRp2850
(dp2851
g62
(dp2852
g70
I3
ssg71
g2846
sg64
(lp2853
g1441
asbasbasbag57
(g73
g59
NtRp2854
(dp2855
g62
(dp2856
sg71
g2472
sg64
(lp2857
g57
(g78
g59
NtRp2858
(dp2859
g62
(dp2860
g82
g83
ssg71
g2854
sg64
(lp2861
S'wsgi.errors'
p2862
asbag57
(g78
g59
NtRp2863
(dp2864
g62
(dp2865
g89
g90
ssg71
g2854
sg64
(lp2866
S':'
asbag57
(g78
g59
NtRp2867
(dp2868
g62
(dp2869
sg71
g2854
sg64
(lp2870
g57
(g58
g59
NtRp2871
(dp2872
g62
(dp2873
g70
I3
ssg71
g2867
sg64
(lp2874
S"<open file '<stderr>', mode 'w' at 0xb77a40d0>"
p2875
asbasbasbag57
(g73
g59
NtRp2876
(dp2877
g62
(dp2878
sg71
g2472
sg64
(lp2879
g57
(g78
g59
NtRp2880
(dp2881
g62
(dp2882
g82
g83
ssg71
g2876
sg64
(lp2883
S'wsgi.file_wrapper'
p2884
asbag57
(g78
g59
NtRp2885
(dp2886
g62
(dp2887
g89
g90
ssg71
g2876
sg64
(lp2888
S':'
asbag57
(g78
g59
NtRp2889
(dp2890
g62
(dp2891
sg71
g2876
sg64
(lp2892
g57
(g58
g59
NtRp2893
(dp2894
g62
(dp2895
g70
I3
ssg71
g2889
sg64
(lp2896
S'<class wsgiref.util.FileWrapper at 0x9f8226c>'
p2897
asbasbasbag57
(g73
g59
NtRp2898
(dp2899
g62
(dp2900
sg71
g2472
sg64
(lp2901
g57
(g78
g59
NtRp2902
(dp2903
g62
(dp2904
g82
g83
ssg71
g2898
sg64
(lp2905
S'wsgi.input'
p2906
asbag57
(g78
g59
NtRp2907
(dp2908
g62
(dp2909
g89
g90
ssg71
g2898
sg64
(lp2910
S':'
asbag57
(g78
g59
NtRp2911
(dp2912
g62
(dp2913
sg71
g2898
sg64
(lp2914
g57
(g58
g59
NtRp2915
(dp2916
g62
(dp2917
g70
I3
ssg71
g2911
sg64
(lp2918
S'<cStringIO.StringO object at 0xaeaa9220>'
p2919
asbasbasbag57
(g73
g59
NtRp2920
(dp2921
g62
(dp2922
sg71
g2472
sg64
(lp2923
g57
(g78
g59
NtRp2924
(dp2925
g62
(dp2926
g82
g83
ssg71
g2920
sg64
(lp2927
S'wsgi.multiprocess'
p2928
asbag57
(g78
g59
NtRp2929
(dp2930
g62
(dp2931
g89
g90
ssg71
g2920
sg64
(lp2932
S':'
asbag57
(g78
g59
NtRp2933
(dp2934
g62
(dp2935
sg71
g2920
sg64
(lp2936
g57
(g58
g59
NtRp2937
(dp2938
g62
(dp2939
g70
I3
ssg71
g2933
sg64
(lp2940
g100
asbasbasbag57
(g73
g59
NtRp2941
(dp2942
g62
(dp2943
sg71
g2472
sg64
(lp2944
g57
(g78
g59
NtRp2945
(dp2946
g62
(dp2947
g82
g83
ssg71
g2941
sg64
(lp2948
S'wsgi.multithread'
p2949
asbag57
(g78
g59
NtRp2950
(dp2951
g62
(dp2952
g89
g90
ssg71
g2941
sg64
(lp2953
S':'
asbag57
(g78
g59
NtRp2954
(dp2955
g62
(dp2956
sg71
g2941
sg64
(lp2957
g57
(g58
g59
NtRp2958
(dp2959
g62
(dp2960
g70
I3
ssg71
g2954
sg64
(lp2961
g1680
asbasbasbag57
(g73
g59
NtRp2962
(dp2963
g62
(dp2964
sg71
g2472
sg64
(lp2965
g57
(g78
g59
NtRp2966
(dp2967
g62
(dp2968
g82
g83
ssg71
g2962
sg64
(lp2969
S'wsgi.run_once'
p2970
asbag57
(g78
g59
NtRp2971
(dp2972
g62
(dp2973
g89
g90
ssg71
g2962
sg64
(lp2974
S':'
asbag57
(g78
g59
NtRp2975
(dp2976
g62
(dp2977
sg71
g2962
sg64
(lp2978
g57
(g58
g59
NtRp2979
(dp2980
g62
(dp2981
g70
I3
ssg71
g2975
sg64
(lp2982
g100
asbasbasbag57
(g73
g59
NtRp2983
(dp2984
g62
(dp2985
sg71
g2472
sg64
(lp2986
g57
(g78
g59
NtRp2987
(dp2988
g62
(dp2989
g82
g83
ssg71
g2983
sg64
(lp2990
S'wsgi.url_scheme'
p2991
asbag57
(g78
g59
NtRp2992
(dp2993
g62
(dp2994
g89
g90
ssg71
g2983
sg64
(lp2995
S':'
asbag57
(g78
g59
NtRp2996
(dp2997
g62
(dp2998
sg71
g2983
sg64
(lp2999
g57
(g58
g59
NtRp3000
(dp3001
g62
(dp3002
g70
I3
ssg71
g2996
sg64
(lp3003
g1723
asbasbasbag57
(g73
g59
NtRp3004
(dp3005
g62
(dp3006
sg71
g2472
sg64
(lp3007
g57
(g78
g59
NtRp3008
(dp3009
g62
(dp3010
g82
g83
ssg71
g3004
sg64
(lp3011
S'wsgi.version'
p3012
asbag57
(g78
g59
NtRp3013
(dp3014
g62
(dp3015
g89
g90
ssg71
g3004
sg64
(lp3016
S':'
asbag57
(g78
g59
NtRp3017
(dp3018
g62
(dp3019
sg71
g3004
sg64
(lp3020
g57
(g58
g59
NtRp3021
(dp3022
g62
(dp3023
g70
I3
ssg71
g3017
sg64
(lp3024
S'1'
asbasbasbasbasbasbasbasbasbasbasbasbasbsS'frames'
p3025
(lp3026
(dp3027
S'file'
p3028
S'/home/piyush/web2py/gluon/restricted.py'
p3029
sS'dump'
p3030
(dp3031
S'environment'
p3032
S"{'A': <class 'gluon.html.A'>, 'Auth': <class 'gluon.tools.Auth'>, 'B': <class 'gluon.html.B'>, 'BEAUTIFY': <class 'gluon.html.BEAUTIFY'>, 'BODY': <class 'gluon.html.BODY'>, 'BR': <class 'gluon.html.BR'>, 'BUTTON': <class 'gluon.html.BUTTON'>, 'CAT': <class 'gluon.html.CAT'>, 'CENTER': <class 'gluon.html.CENTER'>, 'CLEANUP': <class 'gluon.validators.CLEANUP'>, ...}"
p3033
sS'ccode'
p3034
S'<code object <module> at 0xada02260, file "/home...ations/FotoBuk/views/default/index.html", line 1>'
p3035
ssS'lnum'
p3036
I209
sS'lines'
p3037
(dp3038
I204
S'    try:'
p3039
sI205
S'        if type(code) == types.CodeType:'
p3040
sI206
S'            ccode = code'
p3041
sI207
S'        else:'
p3042
sI208
S'            ccode = compile2(code,layer)'
p3043
sI209
S'        exec ccode in environment'
p3044
sI210
S'    except HTTP:'
p3045
sI211
S'        raise'
p3046
sI212
S'    except RestrictedError:'
p3047
sI213
S'        # do not encapsulate (obfuscate) the original RestrictedError'
p3048
ssS'call'
p3049
S'(code=r"response.write(\'<!DOCTYPE html>\\r\\n<!-- pauliris...ript>  \\r\\n</body>\\r\\n</html>\\r\\n\', escape=False)", environment={\'A\': <class \'gluon.html.A\'>, \'Auth\': <class \'gluon.tools.Auth\'>, \'B\': <class \'gluon.html.B\'>, \'BEAUTIFY\': <class \'gluon.html.BEAUTIFY\'>, \'BODY\': <class \'gluon.html.BODY\'>, \'BR\': <class \'gluon.html.BR\'>, \'BUTTON\': <class \'gluon.html.BUTTON\'>, \'CAT\': <class \'gluon.html.CAT\'>, \'CENTER\': <class \'gluon.html.CENTER\'>, \'CLEANUP\': <class \'gluon.validators.CLEANUP\'>, ...}, layer=\'/home/piyush/web2py/applications/FotoBuk/views/default/index.html\')'
p3050
sS'func'
p3051
S'restricted'
p3052
sa(dp3053
g3028
S'/home/piyush/web2py/applications/FotoBuk/views/default/index.html'
p3054
sg3030
(dp3055
sg3036
I79
sg3037
(dp3056
I70
S'    response.write(\'\\r\\n\\t<div class="span3 left-sidebar">\\r\\n\\t  \', escape=False)'
p3057
sI71
S"    response.write('\\r\\n\\t  <h3>Left Sidebar</h3>\\r\\n\\t  <p></p>\\r\\n\\t  ', escape=False)"
p3058
sI72
S"    response.write('\\r\\n\\t</div>\\r\\n\\t', escape=False)"
p3059
sI73
S'    pass'
p3060
sI74
S'response.write(\'\\r\\n\\t\\r\\n\\t<div class="\', escape=False)'
p3061
sI75
S'response.write(middle_columns)'
p3062
sI76
S'response.write(\'">\\r\\n\\t  \', escape=False)'
p3063
sI77
S"response.write('\\r\\n\\t  ', escape=False)"
p3064
sI78
S"response.write('\\n<h1>Current Images</h1>\\n<ul>\\n', escape=False)"
p3065
sI79
S'for image in images:'
p3066
sI80
S"    response.write('\\n', escape=False)"
p3067
sI81
S'    response.write(LI(A(image.title, _href=URL("show", args=image.id))))'
p3068
sI82
S"    response.write('\\n', escape=False)"
p3069
sI83
S'    pass'
p3070
sI84
S"response.write('\\n</ul>\\n\\n\\n', escape=False)"
p3071
sI85
S"response.write('\\r\\n\\t  ', escape=False)"
p3072
sI86
S"response.write('\\r\\n\\t</div>\\r\\n\\t\\r\\n\\t', escape=False)"
p3073
sI87
S'if right_sidebar_enabled:'
p3074
sI88
S'    response.write(\'\\r\\n\\t<div class="span3">\\r\\n\\t  \', escape=False)'
p3075
sI89
S"    response.write('\\r\\n\\t  <h3>Right Sidebar</h3>\\r\\n\\t  <p></p>\\r\\n\\t  ', escape=False)"
p3076
ssg3049
S'()'
p3077
sg3051
S'<module>'
p3078
sasS'pyver'
p3079
S'Python 2.7.2: /usr/bin/python'
p3080
sS'session'
p3081
g57
(g58
g59
NtRp3082
(dp3083
g62
(dp3084
sg64
(lp3085
g57
(g66
g59
NtRp3086
(dp3087
g62
(dp3088
g70
I5
ssg71
Nsg64
(lp3089
g57
(g73
g59
NtRp3090
(dp3091
g62
(dp3092
sg71
g3086
sg64
(lp3093
g57
(g78
g59
NtRp3094
(dp3095
g62
(dp3096
g82
g83
ssg71
g3090
sg64
(lp3097
S'auth'
p3098
asbag57
(g78
g59
NtRp3099
(dp3100
g62
(dp3101
g89
g90
ssg71
g3090
sg64
(lp3102
S':'
asbag57
(g78
g59
NtRp3103
(dp3104
g62
(dp3105
sg71
g3090
sg64
(lp3106
g57
(g58
g59
NtRp3107
(dp3108
g62
(dp3109
g70
I5
ssg71
g3103
sg64
(lp3110
S'None'
p3111
asbasbasbag57
(g73
g59
NtRp3112
(dp3113
g62
(dp3114
sg71
g3086
sg64
(lp3115
g57
(g78
g59
NtRp3116
(dp3117
g62
(dp3118
g82
g83
ssg71
g3112
sg64
(lp3119
S'flash'
p3120
asbag57
(g78
g59
NtRp3121
(dp3122
g62
(dp3123
g89
g90
ssg71
g3112
sg64
(lp3124
S':'
asbag57
(g78
g59
NtRp3125
(dp3126
g62
(dp3127
sg71
g3112
sg64
(lp3128
g57
(g58
g59
NtRp3129
(dp3130
g62
(dp3131
g70
I5
ssg71
g3125
sg64
(lp3132
S''
asbasbasbasbasbsS'etype'
p3133
S"<type 'exceptions.NameError'>"
p3134
sS'date'
p3135
S'Fri Aug 31 02:34:14 2012'
p3136
sS'response'
p3137
g57
(g58
g59
NtRp3138
(dp3139
g62
(dp3140
sg64
(lp3141
g57
(g66
g59
NtRp3142
(dp3143
g62
(dp3144
g70
I5
ssg71
Nsg64
(lp3145
g57
(g73
g59
NtRp3146
(dp3147
g62
(dp3148
sg71
g3142
sg64
(lp3149
g57
(g78
g59
NtRp3150
(dp3151
g62
(dp3152
g82
g83
ssg71
g3146
sg64
(lp3153
g155
asbag57
(g78
g59
NtRp3154
(dp3155
g62
(dp3156
g89
g90
ssg71
g3146
sg64
(lp3157
S':'
asbag57
(g78
g59
NtRp3158
(dp3159
g62
(dp3160
sg71
g3146
sg64
(lp3161
g57
(g58
g59
NtRp3162
(dp3163
g62
(dp3164
g70
I5
ssg71
g3158
sg64
(lp3165
S'<cStringIO.StringO object at 0xae65c3a0>'
p3166
asbasbasbag57
(g73
g59
NtRp3167
(dp3168
g62
(dp3169
sg71
g3142
sg64
(lp3170
g57
(g78
g59
NtRp3171
(dp3172
g62
(dp3173
g82
g83
ssg71
g3167
sg64
(lp3174
g243
asbag57
(g78
g59
NtRp3175
(dp3176
g62
(dp3177
g89
g90
ssg71
g3167
sg64
(lp3178
S':'
asbag57
(g78
g59
NtRp3179
(dp3180
g62
(dp3181
sg71
g3167
sg64
(lp3182
g57
(g58
g59
NtRp3183
(dp3184
g62
(dp3185
g70
I5
ssg71
g3179
sg64
(lp3186
g57
(g66
g59
NtRp3187
(dp3188
g62
(dp3189
g70
I4
ssg71
Nsg64
(lp3190
g57
(g73
g59
NtRp3191
(dp3192
g62
(dp3193
sg71
g3187
sg64
(lp3194
g57
(g78
g59
NtRp3195
(dp3196
g62
(dp3197
g82
g83
ssg71
g3191
sg64
(lp3198
S'session_id_fotobuk'
p3199
asbag57
(g78
g59
NtRp3200
(dp3201
g62
(dp3202
g89
g90
ssg71
g3191
sg64
(lp3203
S':'
asbag57
(g78
g59
NtRp3204
(dp3205
g62
(dp3206
sg71
g3191
sg64
(lp3207
g57
(g58
g59
NtRp3208
(dp3209
g62
(dp3210
g70
I4
ssg71
g3204
sg64
(lp3211
g475
ag57
(g66
g59
NtRp3212
(dp3213
g62
(dp3214
g70
I3
ssg71
Nsg64
(lp3215
g57
(g73
g59
NtRp3216
(dp3217
g62
(dp3218
sg71
g3212
sg64
(lp3219
g57
(g78
g59
NtRp3220
(dp3221
g62
(dp3222
g82
g83
ssg71
g3216
sg64
(lp3223
g294
asbag57
(g78
g59
NtRp3224
(dp3225
g62
(dp3226
g89
g90
ssg71
g3216
sg64
(lp3227
S':'
asbag57
(g78
g59
NtRp3228
(dp3229
g62
(dp3230
sg71
g3216
sg64
(lp3231
g57
(g58
g59
NtRp3232
(dp3233
g62
(dp3234
g70
I3
ssg71
g3228
sg64
(lp3235
S''
asbasbasbag57
(g73
g59
NtRp3236
(dp3237
g62
(dp3238
sg71
g3212
sg64
(lp3239
g57
(g78
g59
NtRp3240
(dp3241
g62
(dp3242
g82
g83
ssg71
g3236
sg64
(lp3243
g315
asbag57
(g78
g59
NtRp3244
(dp3245
g62
(dp3246
g89
g90
ssg71
g3236
sg64
(lp3247
S':'
asbag57
(g78
g59
NtRp3248
(dp3249
g62
(dp3250
sg71
g3236
sg64
(lp3251
g57
(g58
g59
NtRp3252
(dp3253
g62
(dp3254
g70
I3
ssg71
g3248
sg64
(lp3255
S''
asbasbasbag57
(g73
g59
NtRp3256
(dp3257
g62
(dp3258
sg71
g3212
sg64
(lp3259
g57
(g78
g59
NtRp3260
(dp3261
g62
(dp3262
g82
g83
ssg71
g3256
sg64
(lp3263
g336
asbag57
(g78
g59
NtRp3264
(dp3265
g62
(dp3266
g89
g90
ssg71
g3256
sg64
(lp3267
S':'
asbag57
(g78
g59
NtRp3268
(dp3269
g62
(dp3270
sg71
g3256
sg64
(lp3271
g57
(g58
g59
NtRp3272
(dp3273
g62
(dp3274
g70
I3
ssg71
g3268
sg64
(lp3275
S''
asbasbasbag57
(g73
g59
NtRp3276
(dp3277
g62
(dp3278
sg71
g3212
sg64
(lp3279
g57
(g78
g59
NtRp3280
(dp3281
g62
(dp3282
g82
g83
ssg71
g3276
sg64
(lp3283
g357
asbag57
(g78
g59
NtRp3284
(dp3285
g62
(dp3286
g89
g90
ssg71
g3276
sg64
(lp3287
S':'
asbag57
(g78
g59
NtRp3288
(dp3289
g62
(dp3290
sg71
g3276
sg64
(lp3291
g57
(g58
g59
NtRp3292
(dp3293
g62
(dp3294
g70
I3
ssg71
g3288
sg64
(lp3295
S''
asbasbasbag57
(g73
g59
NtRp3296
(dp3297
g62
(dp3298
sg71
g3212
sg64
(lp3299
g57
(g78
g59
NtRp3300
(dp3301
g62
(dp3302
g82
g83
ssg71
g3296
sg64
(lp3303
g378
asbag57
(g78
g59
NtRp3304
(dp3305
g62
(dp3306
g89
g90
ssg71
g3296
sg64
(lp3307
S':'
asbag57
(g78
g59
NtRp3308
(dp3309
g62
(dp3310
sg71
g3296
sg64
(lp3311
g57
(g58
g59
NtRp3312
(dp3313
g62
(dp3314
g70
I3
ssg71
g3308
sg64
(lp3315
S''
asbasbasbag57
(g73
g59
NtRp3316
(dp3317
g62
(dp3318
sg71
g3212
sg64
(lp3319
g57
(g78
g59
NtRp3320
(dp3321
g62
(dp3322
g82
g83
ssg71
g3316
sg64
(lp3323
g399
asbag57
(g78
g59
NtRp3324
(dp3325
g62
(dp3326
g89
g90
ssg71
g3316
sg64
(lp3327
S':'
asbag57
(g78
g59
NtRp3328
(dp3329
g62
(dp3330
sg71
g3316
sg64
(lp3331
g57
(g58
g59
NtRp3332
(dp3333
g62
(dp3334
g70
I3
ssg71
g3328
sg64
(lp3335
S'/'
asbasbasbag57
(g73
g59
NtRp3336
(dp3337
g62
(dp3338
sg71
g3212
sg64
(lp3339
g57
(g78
g59
NtRp3340
(dp3341
g62
(dp3342
g82
g83
ssg71
g3336
sg64
(lp3343
g420
asbag57
(g78
g59
NtRp3344
(dp3345
g62
(dp3346
g89
g90
ssg71
g3336
sg64
(lp3347
S':'
asbag57
(g78
g59
NtRp3348
(dp3349
g62
(dp3350
sg71
g3336
sg64
(lp3351
g57
(g58
g59
NtRp3352
(dp3353
g62
(dp3354
g70
I3
ssg71
g3348
sg64
(lp3355
S''
asbasbasbag57
(g73
g59
NtRp3356
(dp3357
g62
(dp3358
sg71
g3212
sg64
(lp3359
g57
(g78
g59
NtRp3360
(dp3361
g62
(dp3362
g82
g83
ssg71
g3356
sg64
(lp3363
g441
asbag57
(g78
g59
NtRp3364
(dp3365
g62
(dp3366
g89
g90
ssg71
g3356
sg64
(lp3367
S':'
asbag57
(g78
g59
NtRp3368
(dp3369
g62
(dp3370
sg71
g3356
sg64
(lp3371
g57
(g58
g59
NtRp3372
(dp3373
g62
(dp3374
g70
I3
ssg71
g3368
sg64
(lp3375
S''
asbasbasbasbasbasbasbasbasbasbasbag57
(g73
g59
NtRp3376
(dp3377
g62
(dp3378
sg71
g3142
sg64
(lp3379
g57
(g78
g59
NtRp3380
(dp3381
g62
(dp3382
g82
g83
ssg71
g3376
sg64
(lp3383
S'delimiters'
p3384
asbag57
(g78
g59
NtRp3385
(dp3386
g62
(dp3387
g89
g90
ssg71
g3376
sg64
(lp3388
S':'
asbag57
(g78
g59
NtRp3389
(dp3390
g62
(dp3391
sg71
g3376
sg64
(lp3392
g57
(g58
g59
NtRp3393
(dp3394
g62
(dp3395
g70
I5
ssg71
g3389
sg64
(lp3396
g57
(g66
g59
NtRp3397
(dp3398
g62
(dp3399
g70
I4
ssg71
Nsg64
(lp3400
g57
(g73
g59
NtRp3401
(dp3402
g62
(dp3403
sg71
g3397
sg64
(lp3404
g57
(g78
g59
NtRp3405
(dp3406
g62
(dp3407
sg71
g3401
sg64
(lp3408
g57
(g58
g59
NtRp3409
(dp3410
g62
(dp3411
g70
I4
ssg71
g3405
sg64
(lp3412
S'{{'
p3413
asbasbasbag57
(g73
g59
NtRp3414
(dp3415
g62
(dp3416
sg71
g3397
sg64
(lp3417
g57
(g78
g59
NtRp3418
(dp3419
g62
(dp3420
sg71
g3414
sg64
(lp3421
g57
(g58
g59
NtRp3422
(dp3423
g62
(dp3424
g70
I4
ssg71
g3418
sg64
(lp3425
S'}}'
p3426
asbasbasbasbasbasbasbag57
(g73
g59
NtRp3427
(dp3428
g62
(dp3429
sg71
g3142
sg64
(lp3430
g57
(g78
g59
NtRp3431
(dp3432
g62
(dp3433
g82
g83
ssg71
g3427
sg64
(lp3434
S'files'
p3435
asbag57
(g78
g59
NtRp3436
(dp3437
g62
(dp3438
g89
g90
ssg71
g3427
sg64
(lp3439
S':'
asbag57
(g78
g59
NtRp3440
(dp3441
g62
(dp3442
sg71
g3427
sg64
(lp3443
g57
(g58
g59
NtRp3444
(dp3445
g62
(dp3446
g70
I5
ssg71
g3440
sg64
(lp3447
g57
(g66
g59
NtRp3448
(dp3449
g62
(dp3450
g70
I4
ssg71
Nsg64
(lp3451
g57
(g73
g59
NtRp3452
(dp3453
g62
(dp3454
sg71
g3448
sg64
(lp3455
g57
(g78
g59
NtRp3456
(dp3457
g62
(dp3458
sg71
g3452
sg64
(lp3459
g57
(g58
g59
NtRp3460
(dp3461
g62
(dp3462
g70
I4
ssg71
g3456
sg64
(lp3463
S'/FotoBuk/static/js/jquery.js'
p3464
asbasbasbag57
(g73
g59
NtRp3465
(dp3466
g62
(dp3467
sg71
g3448
sg64
(lp3468
g57
(g78
g59
NtRp3469
(dp3470
g62
(dp3471
sg71
g3465
sg64
(lp3472
g57
(g58
g59
NtRp3473
(dp3474
g62
(dp3475
g70
I4
ssg71
g3469
sg64
(lp3476
S'/FotoBuk/static/css/calendar.css'
p3477
asbasbasbag57
(g73
g59
NtRp3478
(dp3479
g62
(dp3480
sg71
g3448
sg64
(lp3481
g57
(g78
g59
NtRp3482
(dp3483
g62
(dp3484
sg71
g3478
sg64
(lp3485
g57
(g58
g59
NtRp3486
(dp3487
g62
(dp3488
g70
I4
ssg71
g3482
sg64
(lp3489
S'/FotoBuk/static/js/calendar.js'
p3490
asbasbasbag57
(g73
g59
NtRp3491
(dp3492
g62
(dp3493
sg71
g3448
sg64
(lp3494
g57
(g78
g59
NtRp3495
(dp3496
g62
(dp3497
sg71
g3491
sg64
(lp3498
g57
(g58
g59
NtRp3499
(dp3500
g62
(dp3501
g70
I4
ssg71
g3495
sg64
(lp3502
S'/FotoBuk/static/js/web2py.js'
p3503
asbasbasbag57
(g73
g59
NtRp3504
(dp3505
g62
(dp3506
sg71
g3448
sg64
(lp3507
g57
(g78
g59
NtRp3508
(dp3509
g62
(dp3510
sg71
g3504
sg64
(lp3511
g57
(g58
g59
NtRp3512
(dp3513
g62
(dp3514
g70
I4
ssg71
g3508
sg64
(lp3515
S'/FotoBuk/static/css/bootstrap.min.css'
p3516
asbasbasbag57
(g73
g59
NtRp3517
(dp3518
g62
(dp3519
sg71
g3448
sg64
(lp3520
g57
(g78
g59
NtRp3521
(dp3522
g62
(dp3523
sg71
g3517
sg64
(lp3524
g57
(g58
g59
NtRp3525
(dp3526
g62
(dp3527
g70
I4
ssg71
g3521
sg64
(lp3528
S'/FotoBuk/static/css/bootstrap-responsive.min.css'
p3529
asbasbasbag57
(g73
g59
NtRp3530
(dp3531
g62
(dp3532
sg71
g3448
sg64
(lp3533
g57
(g78
g59
NtRp3534
(dp3535
g62
(dp3536
sg71
g3530
sg64
(lp3537
g57
(g58
g59
NtRp3538
(dp3539
g62
(dp3540
g70
I4
ssg71
g3534
sg64
(lp3541
S'/FotoBuk/static/css/web2py.css'
p3542
asbasbasbag57
(g73
g59
NtRp3543
(dp3544
g62
(dp3545
sg71
g3448
sg64
(lp3546
g57
(g78
g59
NtRp3547
(dp3548
g62
(dp3549
sg71
g3543
sg64
(lp3550
g57
(g58
g59
NtRp3551
(dp3552
g62
(dp3553
g70
I4
ssg71
g3547
sg64
(lp3554
S'/FotoBuk/static/css/web2py_bootstrap.css'
p3555
asbasbasbasbasbasbasbag57
(g73
g59
NtRp3556
(dp3557
g62
(dp3558
sg71
g3142
sg64
(lp3559
g57
(g78
g59
NtRp3560
(dp3561
g62
(dp3562
g82
g83
ssg71
g3556
sg64
(lp3563
S'flash'
p3564
asbag57
(g78
g59
NtRp3565
(dp3566
g62
(dp3567
g89
g90
ssg71
g3556
sg64
(lp3568
S':'
asbag57
(g78
g59
NtRp3569
(dp3570
g62
(dp3571
sg71
g3556
sg64
(lp3572
g57
(g58
g59
NtRp3573
(dp3574
g62
(dp3575
g70
I5
ssg71
g3569
sg64
(lp3576
S''
asbasbasbag57
(g73
g59
NtRp3577
(dp3578
g62
(dp3579
sg71
g3142
sg64
(lp3580
g57
(g78
g59
NtRp3581
(dp3582
g62
(dp3583
g82
g83
ssg71
g3577
sg64
(lp3584
S'generic_patterns'
p3585
asbag57
(g78
g59
NtRp3586
(dp3587
g62
(dp3588
g89
g90
ssg71
g3577
sg64
(lp3589
S':'
asbag57
(g78
g59
NtRp3590
(dp3591
g62
(dp3592
sg71
g3577
sg64
(lp3593
g57
(g58
g59
NtRp3594
(dp3595
g62
(dp3596
g70
I5
ssg71
g3590
sg64
(lp3597
g57
(g66
g59
NtRp3598
(dp3599
g62
(dp3600
g70
I4
ssg71
Nsg64
(lp3601
sbasbasbasbag57
(g73
g59
NtRp3602
(dp3603
g62
(dp3604
sg71
g3142
sg64
(lp3605
g57
(g78
g59
NtRp3606
(dp3607
g62
(dp3608
g82
g83
ssg71
g3602
sg64
(lp3609
S'google_analytics_id'
p3610
asbag57
(g78
g59
NtRp3611
(dp3612
g62
(dp3613
g89
g90
ssg71
g3602
sg64
(lp3614
S':'
asbag57
(g78
g59
NtRp3615
(dp3616
g62
(dp3617
sg71
g3602
sg64
(lp3618
g57
(g58
g59
NtRp3619
(dp3620
g62
(dp3621
g70
I5
ssg71
g3615
sg64
(lp3622
S'None'
p3623
asbasbasbag57
(g73
g59
NtRp3624
(dp3625
g62
(dp3626
sg71
g3142
sg64
(lp3627
g57
(g78
g59
NtRp3628
(dp3629
g62
(dp3630
g82
g83
ssg71
g3624
sg64
(lp3631
S'headers'
p3632
asbag57
(g78
g59
NtRp3633
(dp3634
g62
(dp3635
g89
g90
ssg71
g3624
sg64
(lp3636
S':'
asbag57
(g78
g59
NtRp3637
(dp3638
g62
(dp3639
sg71
g3624
sg64
(lp3640
g57
(g58
g59
NtRp3641
(dp3642
g62
(dp3643
g70
I5
ssg71
g3637
sg64
(lp3644
g57
(g66
g59
NtRp3645
(dp3646
g62
(dp3647
g70
I4
ssg71
Nsg64
(lp3648
g57
(g73
g59
NtRp3649
(dp3650
g62
(dp3651
sg71
g3645
sg64
(lp3652
g57
(g78
g59
NtRp3653
(dp3654
g62
(dp3655
g82
g83
ssg71
g3649
sg64
(lp3656
S'Cache-Control'
p3657
asbag57
(g78
g59
NtRp3658
(dp3659
g62
(dp3660
g89
g90
ssg71
g3649
sg64
(lp3661
S':'
asbag57
(g78
g59
NtRp3662
(dp3663
g62
(dp3664
sg71
g3649
sg64
(lp3665
g57
(g58
g59
NtRp3666
(dp3667
g62
(dp3668
g70
I4
ssg71
g3662
sg64
(lp3669
S'no-store, no-cache, must-revalidate, post-check=0, pre-check=0'
p3670
asbasbasbag57
(g73
g59
NtRp3671
(dp3672
g62
(dp3673
sg71
g3645
sg64
(lp3674
g57
(g78
g59
NtRp3675
(dp3676
g62
(dp3677
g82
g83
ssg71
g3671
sg64
(lp3678
S'Content-Type'
p3679
asbag57
(g78
g59
NtRp3680
(dp3681
g62
(dp3682
g89
g90
ssg71
g3671
sg64
(lp3683
S':'
asbag57
(g78
g59
NtRp3684
(dp3685
g62
(dp3686
sg71
g3671
sg64
(lp3687
g57
(g58
g59
NtRp3688
(dp3689
g62
(dp3690
g70
I4
ssg71
g3684
sg64
(lp3691
S'text/html; charset=utf-8'
p3692
asbasbasbag57
(g73
g59
NtRp3693
(dp3694
g62
(dp3695
sg71
g3645
sg64
(lp3696
g57
(g78
g59
NtRp3697
(dp3698
g62
(dp3699
g82
g83
ssg71
g3693
sg64
(lp3700
S'Expires'
p3701
asbag57
(g78
g59
NtRp3702
(dp3703
g62
(dp3704
g89
g90
ssg71
g3693
sg64
(lp3705
S':'
asbag57
(g78
g59
NtRp3706
(dp3707
g62
(dp3708
sg71
g3693
sg64
(lp3709
g57
(g58
g59
NtRp3710
(dp3711
g62
(dp3712
g70
I4
ssg71
g3706
sg64
(lp3713
S'Thu, 30 Aug 2012 21:04:14 GMT'
p3714
asbasbasbag57
(g73
g59
NtRp3715
(dp3716
g62
(dp3717
sg71
g3645
sg64
(lp3718
g57
(g78
g59
NtRp3719
(dp3720
g62
(dp3721
g82
g83
ssg71
g3715
sg64
(lp3722
S'Pragma'
p3723
asbag57
(g78
g59
NtRp3724
(dp3725
g62
(dp3726
g89
g90
ssg71
g3715
sg64
(lp3727
S':'
asbag57
(g78
g59
NtRp3728
(dp3729
g62
(dp3730
sg71
g3715
sg64
(lp3731
g57
(g58
g59
NtRp3732
(dp3733
g62
(dp3734
g70
I4
ssg71
g3728
sg64
(lp3735
S'no-cache'
p3736
asbasbasbag57
(g73
g59
NtRp3737
(dp3738
g62
(dp3739
sg71
g3645
sg64
(lp3740
g57
(g78
g59
NtRp3741
(dp3742
g62
(dp3743
g82
g83
ssg71
g3737
sg64
(lp3744
S'X-Powered-By'
p3745
asbag57
(g78
g59
NtRp3746
(dp3747
g62
(dp3748
g89
g90
ssg71
g3737
sg64
(lp3749
S':'
asbag57
(g78
g59
NtRp3750
(dp3751
g62
(dp3752
sg71
g3737
sg64
(lp3753
g57
(g58
g59
NtRp3754
(dp3755
g62
(dp3756
g70
I4
ssg71
g3750
sg64
(lp3757
S'web2py'
p3758
asbasbasbasbasbasbasbag57
(g73
g59
NtRp3759
(dp3760
g62
(dp3761
sg71
g3142
sg64
(lp3762
g57
(g78
g59
NtRp3763
(dp3764
g62
(dp3765
g82
g83
ssg71
g3759
sg64
(lp3766
S'menu'
p3767
asbag57
(g78
g59
NtRp3768
(dp3769
g62
(dp3770
g89
g90
ssg71
g3759
sg64
(lp3771
S':'
asbag57
(g78
g59
NtRp3772
(dp3773
g62
(dp3774
sg71
g3759
sg64
(lp3775
g57
(g58
g59
NtRp3776
(dp3777
g62
(dp3778
g70
I5
ssg71
g3772
sg64
(lp3779
g57
(g66
g59
NtRp3780
(dp3781
g62
(dp3782
g70
I4
ssg71
Nsg64
(lp3783
g57
(g73
g59
NtRp3784
(dp3785
g62
(dp3786
sg71
g3780
sg64
(lp3787
g57
(g78
g59
NtRp3788
(dp3789
g62
(dp3790
sg71
g3784
sg64
(lp3791
g57
(g58
g59
NtRp3792
(dp3793
g62
(dp3794
g70
I4
ssg71
g3788
sg64
(lp3795
g57
(g66
g59
NtRp3796
(dp3797
g62
(dp3798
g70
I3
ssg71
Nsg64
(lp3799
g57
(g73
g59
NtRp3800
(dp3801
g62
(dp3802
sg71
g3796
sg64
(lp3803
g57
(g78
g59
NtRp3804
(dp3805
g62
(dp3806
sg71
g3800
sg64
(lp3807
g57
(g58
g59
NtRp3808
(dp3809
g62
(dp3810
g70
I3
ssg71
g3804
sg64
(lp3811
cgluon.languages
lazyT_unpickle
p3812
(S's\x04\x00\x00\x00Home'
tRp3813
asbasbasbag57
(g73
g59
NtRp3814
(dp3815
g62
(dp3816
sg71
g3796
sg64
(lp3817
g57
(g78
g59
NtRp3818
(dp3819
g62
(dp3820
sg71
g3814
sg64
(lp3821
g57
(g58
g59
NtRp3822
(dp3823
g62
(dp3824
g70
I3
ssg71
g3818
sg64
(lp3825
g100
asbasbasbag57
(g73
g59
NtRp3826
(dp3827
g62
(dp3828
sg71
g3796
sg64
(lp3829
g57
(g78
g59
NtRp3830
(dp3831
g62
(dp3832
sg71
g3826
sg64
(lp3833
g57
(g58
g59
NtRp3834
(dp3835
g62
(dp3836
g70
I3
ssg71
g3830
sg64
(lp3837
S'/FotoBuk/default/index'
p3838
asbasbasbag57
(g73
g59
NtRp3839
(dp3840
g62
(dp3841
sg71
g3796
sg64
(lp3842
g57
(g78
g59
NtRp3843
(dp3844
g62
(dp3845
sg71
g3839
sg64
(lp3846
g57
(g58
g59
NtRp3847
(dp3848
g62
(dp3849
g70
I3
ssg71
g3843
sg64
(lp3850
g57
(g66
g59
NtRp3851
(dp3852
g62
(dp3853
g70
I2
ssg71
Nsg64
(lp3854
sbasbasbasbasbasbasbasbag57
(g73
g59
NtRp3855
(dp3856
g62
(dp3857
sg71
g3780
sg64
(lp3858
g57
(g78
g59
NtRp3859
(dp3860
g62
(dp3861
sg71
g3855
sg64
(lp3862
g57
(g58
g59
NtRp3863
(dp3864
g62
(dp3865
g70
I4
ssg71
g3859
sg64
(lp3866
g57
(g66
g59
NtRp3867
(dp3868
g62
(dp3869
g70
I3
ssg71
Nsg64
(lp3870
g57
(g73
g59
NtRp3871
(dp3872
g62
(dp3873
sg71
g3867
sg64
(lp3874
g57
(g78
g59
NtRp3875
(dp3876
g62
(dp3877
sg71
g3871
sg64
(lp3878
g57
(g58
g59
NtRp3879
(dp3880
g62
(dp3881
g70
I3
ssg71
g3875
sg64
(lp3882
g57
(cgluon.html
SPAN
p3883
g59
NtRp3884
(dp3885
g62
(dp3886
g82
S'color:yellow'
p3887
ssg71
g57
(cgluon.html
A
p3888
g59
NtRp3889
(dp3890
g62
(dp3891
S'_href'
p3892
S'http://web2py.com'
p3893
ssg71
g57
(cgluon.html
LI
p3894
g59
NtRp3895
(dp3896
g62
(dp3897
S'_class'
p3898
S'dropdown'
p3899
ssg71
g57
(cgluon.html
UL
p3900
g59
NtRp3901
(dp3902
g62
(dp3903
S'li_class'
p3904
g3899
sS'mobile'
p3905
I00
sg3898
S'nav'
p3906
sS'ul_class'
p3907
S'dropdown-menu'
p3908
sS'li_active'
p3909
S'web2py-menu-active'
p3910
ssg71
Nsg64
(lp3911
g57
(g3894
g59
NtRp3912
(dp3913
g62
(dp3914
sg71
g3901
sg64
(lp3915
g57
(g3888
g59
NtRp3916
(dp3917
g62
(dp3918
g3892
g3838
ssg71
g3912
sg64
(lp3919
g3813
asbasbag3895
asbsg64
(lp3920
g3889
ag57
(g3900
g59
NtRp3921
(dp3922
g62
(dp3923
g3898
g3908
ssg71
g3895
sg64
(lp3924
g57
(g3894
g59
NtRp3925
(dp3926
g62
(dp3927
sg71
g3921
sg64
(lp3928
g57
(g3888
g59
NtRp3929
(dp3930
g62
(dp3931
g3892
S'/admin/default/site'
p3932
ssg71
g3925
sg64
(lp3933
g3812
(S's\x08\x00\x00\x00My Sites'
tRp3934
asbasbag57
(g3894
g59
NtRp3935
(dp3936
g62
(dp3937
g3898
g3899
ssg71
g3921
sg64
(lp3938
g57
(g3888
g59
NtRp3939
(dp3940
g62
(dp3941
g3892
S'/admin/default/design/FotoBuk'
p3942
ssg71
g3935
sg64
(lp3943
g3812
(S's\x08\x00\x00\x00This App'
tRp3944
asbag57
(g3900
g59
NtRp3945
(dp3946
g62
(dp3947
g3898
g3908
ssg71
g3935
sg64
(lp3948
g57
(g3894
g59
NtRp3949
(dp3950
g62
(dp3951
sg71
g3945
sg64
(lp3952
g57
(g3888
g59
NtRp3953
(dp3954
g62
(dp3955
g3892
S'/admin/default/edit/FotoBuk/controllers/default.py'
p3956
ssg71
g3949
sg64
(lp3957
g3812
(S's\n\x00\x00\x00Controller'
tRp3958
asbasbag57
(g3894
g59
NtRp3959
(dp3960
g62
(dp3961
sg71
g3945
sg64
(lp3962
g57
(g3888
g59
NtRp3963
(dp3964
g62
(dp3965
g3892
S'/admin/default/edit/FotoBuk/views/default/index.html'
p3966
ssg71
g3959
sg64
(lp3967
g3812
(S's\x04\x00\x00\x00View'
tRp3968
asbasbag57
(g3894
g59
NtRp3969
(dp3970
g62
(dp3971
sg71
g3945
sg64
(lp3972
g57
(g3888
g59
NtRp3973
(dp3974
g62
(dp3975
g3892
S'/admin/default/edit/FotoBuk/views/layout.html'
p3976
ssg71
g3969
sg64
(lp3977
g3812
(S's\x06\x00\x00\x00Layout'
tRp3978
asbasbag57
(g3894
g59
NtRp3979
(dp3980
g62
(dp3981
sg71
g3945
sg64
(lp3982
g57
(g3888
g59
NtRp3983
(dp3984
g62
(dp3985
g3892
S'/admin/default/edit/FotoBuk/static/css/web2py.css'
p3986
ssg71
g3979
sg64
(lp3987
g3812
(S's\n\x00\x00\x00Stylesheet'
tRp3988
asbasbag57
(g3894
g59
NtRp3989
(dp3990
g62
(dp3991
sg71
g3945
sg64
(lp3992
g57
(g3888
g59
NtRp3993
(dp3994
g62
(dp3995
g3892
S'/admin/default/edit/FotoBuk/models/db.py'
p3996
ssg71
g3989
sg64
(lp3997
g3812
(S's\x08\x00\x00\x00DB Model'
tRp3998
asbasbag57
(g3894
g59
NtRp3999
(dp4000
g62
(dp4001
sg71
g3945
sg64
(lp4002
g57
(g3888
g59
NtRp4003
(dp4004
g62
(dp4005
g3892
S'/admin/default/edit/FotoBuk/models/menu.py'
p4006
ssg71
g3999
sg64
(lp4007
g3812
(S's\n\x00\x00\x00Menu Model'
tRp4008
asbasbag57
(g3894
g59
NtRp4009
(dp4010
g62
(dp4011
sg71
g3945
sg64
(lp4012
g57
(g3888
g59
NtRp4013
(dp4014
g62
(dp4015
g3892
S'/FotoBuk/appadmin/index'
p4016
ssg71
g4009
sg64
(lp4017
g3812
(S's\x08\x00\x00\x00Database'
tRp4018
asbasbag57
(g3894
g59
NtRp4019
(dp4020
g62
(dp4021
sg71
g3945
sg64
(lp4022
g57
(g3888
g59
NtRp4023
(dp4024
g62
(dp4025
g3892
S'/admin/default/errors/FotoBuk'
p4026
ssg71
g4019
sg64
(lp4027
g3812
(S's\x06\x00\x00\x00Errors'
tRp4028
asbasbag57
(g3894
g59
NtRp4029
(dp4030
g62
(dp4031
sg71
g3945
sg64
(lp4032
g57
(g3888
g59
NtRp4033
(dp4034
g62
(dp4035
g3892
S'/admin/default/about/FotoBuk'
p4036
ssg71
g4029
sg64
(lp4037
g3812
(S's\x05\x00\x00\x00About'
tRp4038
asbasbasbasbag57
(g3894
g59
NtRp4039
(dp4040
g62
(dp4041
g3898
g3899
ssg71
g3921
sg64
(lp4042
g57
(g3888
g59
NtRp4043
(dp4044
g62
(dp4045
g3892
S'http://www.web2py.com'
p4046
ssg71
g4039
sg64
(lp4047
S'web2py.com'
p4048
asbag57
(g3900
g59
NtRp4049
(dp4050
g62
(dp4051
g3898
g3908
ssg71
g4039
sg64
(lp4052
g57
(g3894
g59
NtRp4053
(dp4054
g62
(dp4055
sg71
g4049
sg64
(lp4056
g57
(g3888
g59
NtRp4057
(dp4058
g62
(dp4059
g3892
S'http://www.web2py.com/examples/default/download'
p4060
ssg71
g4053
sg64
(lp4061
g3812
(S's\x08\x00\x00\x00Download'
tRp4062
asbasbag57
(g3894
g59
NtRp4063
(dp4064
g62
(dp4065
sg71
g4049
sg64
(lp4066
g57
(g3888
g59
NtRp4067
(dp4068
g62
(dp4069
g3892
S'http://www.web2py.com/examples/default/support'
p4070
ssg71
g4063
sg64
(lp4071
g3812
(S's\x07\x00\x00\x00Support'
tRp4072
asbasbag57
(g3894
g59
NtRp4073
(dp4074
g62
(dp4075
sg71
g4049
sg64
(lp4076
g57
(g3888
g59
NtRp4077
(dp4078
g62
(dp4079
g3892
S'http://web2py.com/demo_admin'
p4080
ssg71
g4073
sg64
(lp4081
g3812
(S's\x04\x00\x00\x00Demo'
tRp4082
asbasbag57
(g3894
g59
NtRp4083
(dp4084
g62
(dp4085
sg71
g4049
sg64
(lp4086
g57
(g3888
g59
NtRp4087
(dp4088
g62
(dp4089
g3892
S'http://web2py.com/examples/default/examples'
p4090
ssg71
g4083
sg64
(lp4091
g3812
(S's\x0e\x00\x00\x00Quick Examples'
tRp4092
asbasbag57
(g3894
g59
NtRp4093
(dp4094
g62
(dp4095
sg71
g4049
sg64
(lp4096
g57
(g3888
g59
NtRp4097
(dp4098
g62
(dp4099
g3892
S'http://web2py.com/AlterEgo'
p4100
ssg71
g4093
sg64
(lp4101
g3812
(S's\x03\x00\x00\x00FAQ'
tRp4102
asbasbag57
(g3894
g59
NtRp4103
(dp4104
g62
(dp4105
sg71
g4049
sg64
(lp4106
g57
(g3888
g59
NtRp4107
(dp4108
g62
(dp4109
g3892
S'http://www.web2py.com/examples/default/videos/'
p4110
ssg71
g4103
sg64
(lp4111
g3812
(S's\x06\x00\x00\x00Videos'
tRp4112
asbasbag57
(g3894
g59
NtRp4113
(dp4114
g62
(dp4115
sg71
g4049
sg64
(lp4116
g57
(g3888
g59
NtRp4117
(dp4118
g62
(dp4119
g3892
S'http://web2py.com/appliances'
p4120
ssg71
g4113
sg64
(lp4121
g3812
(S's\x11\x00\x00\x00Free Applications'
tRp4122
asbasbag57
(g3894
g59
NtRp4123
(dp4124
g62
(dp4125
sg71
g4049
sg64
(lp4126
g57
(g3888
g59
NtRp4127
(dp4128
g62
(dp4129
g3892
S'http://web2py.com/plugins'
p4130
ssg71
g4123
sg64
(lp4131
g3812
(S's\x07\x00\x00\x00Plugins'
tRp4132
asbasbag57
(g3894
g59
NtRp4133
(dp4134
g62
(dp4135
sg71
g4049
sg64
(lp4136
g57
(g3888
g59
NtRp4137
(dp4138
g62
(dp4139
g3892
S'http://web2py.com/layouts'
p4140
ssg71
g4133
sg64
(lp4141
g3812
(S's\x07\x00\x00\x00Layouts'
tRp4142
asbasbag57
(g3894
g59
NtRp4143
(dp4144
g62
(dp4145
sg71
g4049
sg64
(lp4146
g57
(g3888
g59
NtRp4147
(dp4148
g62
(dp4149
g3892
S'http://web2pyslices.com/'
p4150
ssg71
g4143
sg64
(lp4151
g3812
(S's\x07\x00\x00\x00Recipes'
tRp4152
asbasbag57
(g3894
g59
NtRp4153
(dp4154
g62
(dp4155
sg71
g4049
sg64
(lp4156
g57
(g3888
g59
NtRp4157
(dp4158
g62
(dp4159
g3892
S'http://web2py.com/semantic'
p4160
ssg71
g4153
sg64
(lp4161
g3812
(S's\x08\x00\x00\x00Semantic'
tRp4162
asbasbasbasbag57
(g3894
g59
NtRp4163
(dp4164
g62
(dp4165
g3898
g3899
ssg71
g3921
sg64
(lp4166
g57
(g3888
g59
NtRp4167
(dp4168
g62
(dp4169
g3892
S'http://www.web2py.com/book'
p4170
ssg71
g4163
sg64
(lp4171
g3812
(S's\r\x00\x00\x00Documentation'
tRp4172
asbag57
(g3900
g59
NtRp4173
(dp4174
g62
(dp4175
g3898
g3908
ssg71
g4163
sg64
(lp4176
g57
(g3894
g59
NtRp4177
(dp4178
g62
(dp4179
sg71
g4173
sg64
(lp4180
g57
(g3888
g59
NtRp4181
(dp4182
g62
(dp4183
g3892
S'http://www.web2py.com/book/default/chapter/00'
p4184
ssg71
g4177
sg64
(lp4185
g3812
(S's\x07\x00\x00\x00Preface'
tRp4186
asbasbag57
(g3894
g59
NtRp4187
(dp4188
g62
(dp4189
sg71
g4173
sg64
(lp4190
g57
(g3888
g59
NtRp4191
(dp4192
g62
(dp4193
g3892
S'http://www.web2py.com/book/default/chapter/01'
p4194
ssg71
g4187
sg64
(lp4195
g3812
(S's\x0c\x00\x00\x00Introduction'
tRp4196
asbasbag57
(g3894
g59
NtRp4197
(dp4198
g62
(dp4199
sg71
g4173
sg64
(lp4200
g57
(g3888
g59
NtRp4201
(dp4202
g62
(dp4203
g3892
S'http://www.web2py.com/book/default/chapter/02'
p4204
ssg71
g4197
sg64
(lp4205
g3812
(S's\x06\x00\x00\x00Python'
tRp4206
asbasbag57
(g3894
g59
NtRp4207
(dp4208
g62
(dp4209
sg71
g4173
sg64
(lp4210
g57
(g3888
g59
NtRp4211
(dp4212
g62
(dp4213
g3892
S'http://www.web2py.com/book/default/chapter/03'
p4214
ssg71
g4207
sg64
(lp4215
g3812
(S's\x08\x00\x00\x00Overview'
tRp4216
asbasbag57
(g3894
g59
NtRp4217
(dp4218
g62
(dp4219
sg71
g4173
sg64
(lp4220
g57
(g3888
g59
NtRp4221
(dp4222
g62
(dp4223
g3892
S'http://www.web2py.com/book/default/chapter/04'
p4224
ssg71
g4217
sg64
(lp4225
g3812
(S's\x08\x00\x00\x00The Core'
tRp4226
asbasbag57
(g3894
g59
NtRp4227
(dp4228
g62
(dp4229
sg71
g4173
sg64
(lp4230
g57
(g3888
g59
NtRp4231
(dp4232
g62
(dp4233
g3892
S'http://www.web2py.com/book/default/chapter/05'
p4234
ssg71
g4227
sg64
(lp4235
g3812
(S's\t\x00\x00\x00The Views'
tRp4236
asbasbag57
(g3894
g59
NtRp4237
(dp4238
g62
(dp4239
sg71
g4173
sg64
(lp4240
g57
(g3888
g59
NtRp4241
(dp4242
g62
(dp4243
g3892
S'http://www.web2py.com/book/default/chapter/06'
p4244
ssg71
g4237
sg64
(lp4245
g3812
(S's\x08\x00\x00\x00Database'
tRp4246
asbasbag57
(g3894
g59
NtRp4247
(dp4248
g62
(dp4249
sg71
g4173
sg64
(lp4250
g57
(g3888
g59
NtRp4251
(dp4252
g62
(dp4253
g3892
S'http://www.web2py.com/book/default/chapter/07'
p4254
ssg71
g4247
sg64
(lp4255
g3812
(S's\x14\x00\x00\x00Forms and Validators'
tRp4256
asbasbag57
(g3894
g59
NtRp4257
(dp4258
g62
(dp4259
sg71
g4173
sg64
(lp4260
g57
(g3888
g59
NtRp4261
(dp4262
g62
(dp4263
g3892
S'http://www.web2py.com/book/default/chapter/08'
p4264
ssg71
g4257
sg64
(lp4265
g3812
(S's\r\x00\x00\x00Email and SMS'
tRp4266
asbasbag57
(g3894
g59
NtRp4267
(dp4268
g62
(dp4269
sg71
g4173
sg64
(lp4270
g57
(g3888
g59
NtRp4271
(dp4272
g62
(dp4273
g3892
S'http://www.web2py.com/book/default/chapter/09'
p4274
ssg71
g4267
sg64
(lp4275
g3812
(S's\x0e\x00\x00\x00Access Control'
tRp4276
asbasbag57
(g3894
g59
NtRp4277
(dp4278
g62
(dp4279
sg71
g4173
sg64
(lp4280
g57
(g3888
g59
NtRp4281
(dp4282
g62
(dp4283
g3892
S'http://www.web2py.com/book/default/chapter/10'
p4284
ssg71
g4277
sg64
(lp4285
g3812
(S's\x08\x00\x00\x00Services'
tRp4286
asbasbag57
(g3894
g59
NtRp4287
(dp4288
g62
(dp4289
sg71
g4173
sg64
(lp4290
g57
(g3888
g59
NtRp4291
(dp4292
g62
(dp4293
g3892
S'http://www.web2py.com/book/default/chapter/11'
p4294
ssg71
g4287
sg64
(lp4295
g3812
(S's\x0c\x00\x00\x00Ajax Recipes'
tRp4296
asbasbag57
(g3894
g59
NtRp4297
(dp4298
g62
(dp4299
sg71
g4173
sg64
(lp4300
g57
(g3888
g59
NtRp4301
(dp4302
g62
(dp4303
g3892
S'http://www.web2py.com/book/default/chapter/12'
p4304
ssg71
g4297
sg64
(lp4305
g3812
(S's\x16\x00\x00\x00Components and Plugins'
tRp4306
asbasbag57
(g3894
g59
NtRp4307
(dp4308
g62
(dp4309
sg71
g4173
sg64
(lp4310
g57
(g3888
g59
NtRp4311
(dp4312
g62
(dp4313
g3892
S'http://www.web2py.com/book/default/chapter/13'
p4314
ssg71
g4307
sg64
(lp4315
g3812
(S's\x12\x00\x00\x00Deployment Recipes'
tRp4316
asbasbag57
(g3894
g59
NtRp4317
(dp4318
g62
(dp4319
sg71
g4173
sg64
(lp4320
g57
(g3888
g59
NtRp4321
(dp4322
g62
(dp4323
g3892
S'http://www.web2py.com/book/default/chapter/14'
p4324
ssg71
g4317
sg64
(lp4325
g3812
(S's\r\x00\x00\x00Other Recipes'
tRp4326
asbasbag57
(g3894
g59
NtRp4327
(dp4328
g62
(dp4329
sg71
g4173
sg64
(lp4330
g57
(g3888
g59
NtRp4331
(dp4332
g62
(dp4333
g3892
S'http://stores.lulu.com/web2py'
p4334
ssg71
g4327
sg64
(lp4335
g3812
(S's\r\x00\x00\x00Buy this book'
tRp4336
asbasbasbasbag57
(g3894
g59
NtRp4337
(dp4338
g62
(dp4339
g3898
g3899
ssg71
g3921
sg64
(lp4340
g57
(g3888
g59
NtRp4341
(dp4342
g62
(dp4343
S'_onclick'
p4344
S'javascript:void(0);return false;'
p4345
sg3892
S'#'
ssg71
g4337
sg64
(lp4346
g3812
(S's\t\x00\x00\x00Community'
tRp4347
asbag57
(g3900
g59
NtRp4348
(dp4349
g62
(dp4350
g3898
g3908
ssg71
g4337
sg64
(lp4351
g57
(g3894
g59
NtRp4352
(dp4353
g62
(dp4354
sg71
g4348
sg64
(lp4355
g57
(g3888
g59
NtRp4356
(dp4357
g62
(dp4358
g3892
S'http://www.web2py.com/examples/default/usergroups'
p4359
ssg71
g4352
sg64
(lp4360
g3812
(S's\x06\x00\x00\x00Groups'
tRp4361
asbasbag57
(g3894
g59
NtRp4362
(dp4363
g62
(dp4364
sg71
g4348
sg64
(lp4365
g57
(g3888
g59
NtRp4366
(dp4367
g62
(dp4368
g3892
S'http://twitter.com/web2py'
p4369
ssg71
g4362
sg64
(lp4370
g3812
(S's\x07\x00\x00\x00Twitter'
tRp4371
asbasbag57
(g3894
g59
NtRp4372
(dp4373
g62
(dp4374
sg71
g4348
sg64
(lp4375
g57
(g3888
g59
NtRp4376
(dp4377
g62
(dp4378
g3892
S'http://webchat.freenode.net/?channels=web2py'
p4379
ssg71
g4372
sg64
(lp4380
g3812
(S's\t\x00\x00\x00Live Chat'
tRp4381
asbasbasbasbag57
(g3894
g59
NtRp4382
(dp4383
g62
(dp4384
g3898
g3899
ssg71
g3921
sg64
(lp4385
g57
(g3888
g59
NtRp4386
(dp4387
g62
(dp4388
g4344
g4345
sg3892
S'#'
ssg71
g4382
sg64
(lp4389
g3812
(S's\x07\x00\x00\x00Plugins'
tRp4390
asbag57
(g3900
g59
NtRp4391
(dp4392
g62
(dp4393
g3898
g3908
ssg71
g4382
sg64
(lp4394
g57
(g3894
g59
NtRp4395
(dp4396
g62
(dp4397
sg71
g4391
sg64
(lp4398
g57
(g3888
g59
NtRp4399
(dp4400
g62
(dp4401
g3892
S'http://web2py.com/examples/default/download'
p4402
ssg71
g4395
sg64
(lp4403
S'plugin_wiki'
p4404
asbasbag57
(g3894
g59
NtRp4405
(dp4406
g62
(dp4407
sg71
g4391
sg64
(lp4408
g57
(g3888
g59
NtRp4409
(dp4410
g62
(dp4411
g3892
g4130
ssg71
g4405
sg64
(lp4412
g3812
(S's\r\x00\x00\x00Other Plugins'
tRp4413
asbasbag57
(g3894
g59
NtRp4414
(dp4415
g62
(dp4416
sg71
g4391
sg64
(lp4417
g57
(g3888
g59
NtRp4418
(dp4419
g62
(dp4420
g3892
g4140
ssg71
g4414
sg64
(lp4421
g3812
(S's\x0e\x00\x00\x00Layout Plugins'
tRp4422
asbasbasbasbasbasbsg64
(lp4423
g3884
asbsg64
(lp4424
g3758
asbasbasbasbag57
(g73
g59
NtRp4425
(dp4426
g62
(dp4427
sg71
g3867
sg64
(lp4428
g57
(g78
g59
NtRp4429
(dp4430
g62
(dp4431
sg71
g4425
sg64
(lp4432
g57
(g58
g59
NtRp4433
(dp4434
g62
(dp4435
g70
I3
ssg71
g4429
sg64
(lp4436
g100
asbasbasbag57
(g73
g59
NtRp4437
(dp4438
g62
(dp4439
sg71
g3867
sg64
(lp4440
g57
(g78
g59
NtRp4441
(dp4442
g62
(dp4443
sg71
g4437
sg64
(lp4444
g57
(g58
g59
NtRp4445
(dp4446
g62
(dp4447
g70
I3
ssg71
g4441
sg64
(lp4448
g3893
asbasbasbag57
(g73
g59
NtRp4449
(dp4450
g62
(dp4451
sg71
g3867
sg64
(lp4452
g57
(g78
g59
NtRp4453
(dp4454
g62
(dp4455
sg71
g4449
sg64
(lp4456
g57
(g58
g59
NtRp4457
(dp4458
g62
(dp4459
g70
I3
ssg71
g4453
sg64
(lp4460
g57
(g66
g59
NtRp4461
(dp4462
g62
(dp4463
g70
I2
ssg71
Nsg64
(lp4464
g57
(g73
g59
NtRp4465
(dp4466
g62
(dp4467
sg71
g4461
sg64
(lp4468
g57
(g78
g59
NtRp4469
(dp4470
g62
(dp4471
sg71
g4465
sg64
(lp4472
g57
(g58
g59
NtRp4473
(dp4474
g62
(dp4475
g70
I2
ssg71
g4469
sg64
(lp4476
g57
(g66
g59
NtRp4477
(dp4478
g62
(dp4479
g70
I1
ssg71
Nsg64
(lp4480
g57
(g73
g59
NtRp4481
(dp4482
g62
(dp4483
sg71
g4477
sg64
(lp4484
g57
(g78
g59
NtRp4485
(dp4486
g62
(dp4487
sg71
g4481
sg64
(lp4488
g57
(g58
g59
NtRp4489
(dp4490
g62
(dp4491
g70
I1
ssg71
g4485
sg64
(lp4492
g3934
asbasbasbag57
(g73
g59
NtRp4493
(dp4494
g62
(dp4495
sg71
g4477
sg64
(lp4496
g57
(g78
g59
NtRp4497
(dp4498
g62
(dp4499
sg71
g4493
sg64
(lp4500
g57
(g58
g59
NtRp4501
(dp4502
g62
(dp4503
g70
I1
ssg71
g4497
sg64
(lp4504
I00
asbasbasbag57
(g73
g59
NtRp4505
(dp4506
g62
(dp4507
sg71
g4477
sg64
(lp4508
g57
(g78
g59
NtRp4509
(dp4510
g62
(dp4511
sg71
g4505
sg64
(lp4512
g57
(g58
g59
NtRp4513
(dp4514
g62
(dp4515
g70
I1
ssg71
g4509
sg64
(lp4516
g3932
asbasbasbasbasbasbasbag57
(g73
g59
NtRp4517
(dp4518
g62
(dp4519
sg71
g4461
sg64
(lp4520
g57
(g78
g59
NtRp4521
(dp4522
g62
(dp4523
sg71
g4517
sg64
(lp4524
g57
(g58
g59
NtRp4525
(dp4526
g62
(dp4527
g70
I2
ssg71
g4521
sg64
(lp4528
g57
(g66
g59
NtRp4529
(dp4530
g62
(dp4531
g70
I1
ssg71
Nsg64
(lp4532
g57
(g73
g59
NtRp4533
(dp4534
g62
(dp4535
sg71
g4529
sg64
(lp4536
g57
(g78
g59
NtRp4537
(dp4538
g62
(dp4539
sg71
g4533
sg64
(lp4540
g57
(g58
g59
NtRp4541
(dp4542
g62
(dp4543
g70
I1
ssg71
g4537
sg64
(lp4544
g3944
asbasbasbag57
(g73
g59
NtRp4545
(dp4546
g62
(dp4547
sg71
g4529
sg64
(lp4548
g57
(g78
g59
NtRp4549
(dp4550
g62
(dp4551
sg71
g4545
sg64
(lp4552
g57
(g58
g59
NtRp4553
(dp4554
g62
(dp4555
g70
I1
ssg71
g4549
sg64
(lp4556
I00
asbasbasbag57
(g73
g59
NtRp4557
(dp4558
g62
(dp4559
sg71
g4529
sg64
(lp4560
g57
(g78
g59
NtRp4561
(dp4562
g62
(dp4563
sg71
g4557
sg64
(lp4564
g57
(g58
g59
NtRp4565
(dp4566
g62
(dp4567
g70
I1
ssg71
g4561
sg64
(lp4568
g3942
asbasbasbag57
(g73
g59
NtRp4569
(dp4570
g62
(dp4571
sg71
g4529
sg64
(lp4572
g57
(g78
g59
NtRp4573
(dp4574
g62
(dp4575
sg71
g4569
sg64
(lp4576
g57
(g58
g59
NtRp4577
(dp4578
g62
(dp4579
g70
I1
ssg71
g4573
sg64
(lp4580
(lp4581
(g3958
I00
g3956
tp4582
a(g3968
I00
g3966
tp4583
a(g3978
I00
g3976
tp4584
a(g3988
I00
g3986
tp4585
a(g3998
I00
g3996
tp4586
a(g4008
I00
g4006
tp4587
a(g4018
I00
g4016
tp4588
a(g4028
I00
g4026
tp4589
a(g4038
I00
g4036
tp4590
aasbasbasbasbasbasbasbag57
(g73
g59
NtRp4591
(dp4592
g62
(dp4593
sg71
g4461
sg64
(lp4594
g57
(g78
g59
NtRp4595
(dp4596
g62
(dp4597
sg71
g4591
sg64
(lp4598
g57
(g58
g59
NtRp4599
(dp4600
g62
(dp4601
g70
I2
ssg71
g4595
sg64
(lp4602
g57
(g66
g59
NtRp4603
(dp4604
g62
(dp4605
g70
I1
ssg71
Nsg64
(lp4606
g57
(g73
g59
NtRp4607
(dp4608
g62
(dp4609
sg71
g4603
sg64
(lp4610
g57
(g78
g59
NtRp4611
(dp4612
g62
(dp4613
sg71
g4607
sg64
(lp4614
g57
(g58
g59
NtRp4615
(dp4616
g62
(dp4617
g70
I1
ssg71
g4611
sg64
(lp4618
g4048
asbasbasbag57
(g73
g59
NtRp4619
(dp4620
g62
(dp4621
sg71
g4603
sg64
(lp4622
g57
(g78
g59
NtRp4623
(dp4624
g62
(dp4625
sg71
g4619
sg64
(lp4626
g57
(g58
g59
NtRp4627
(dp4628
g62
(dp4629
g70
I1
ssg71
g4623
sg64
(lp4630
I00
asbasbasbag57
(g73
g59
NtRp4631
(dp4632
g62
(dp4633
sg71
g4603
sg64
(lp4634
g57
(g78
g59
NtRp4635
(dp4636
g62
(dp4637
sg71
g4631
sg64
(lp4638
g57
(g58
g59
NtRp4639
(dp4640
g62
(dp4641
g70
I1
ssg71
g4635
sg64
(lp4642
g4046
asbasbasbag57
(g73
g59
NtRp4643
(dp4644
g62
(dp4645
sg71
g4603
sg64
(lp4646
g57
(g78
g59
NtRp4647
(dp4648
g62
(dp4649
sg71
g4643
sg64
(lp4650
g57
(g58
g59
NtRp4651
(dp4652
g62
(dp4653
g70
I1
ssg71
g4647
sg64
(lp4654
(lp4655
(g4062
I00
g4060
tp4656
a(g4072
I00
g4070
tp4657
a(g4082
I00
g4080
tp4658
a(g4092
I00
g4090
tp4659
a(g4102
I00
g4100
tp4660
a(g4112
I00
g4110
tp4661
a(g4122
I00
g4120
tp4662
a(g4132
I00
g4130
tp4663
a(g4142
I00
g4140
tp4664
a(g4152
I00
g4150
tp4665
a(g4162
I00
g4160
tp4666
aasbasbasbasbasbasbasbag57
(g73
g59
NtRp4667
(dp4668
g62
(dp4669
sg71
g4461
sg64
(lp4670
g57
(g78
g59
NtRp4671
(dp4672
g62
(dp4673
sg71
g4667
sg64
(lp4674
g57
(g58
g59
NtRp4675
(dp4676
g62
(dp4677
g70
I2
ssg71
g4671
sg64
(lp4678
g57
(g66
g59
NtRp4679
(dp4680
g62
(dp4681
g70
I1
ssg71
Nsg64
(lp4682
g57
(g73
g59
NtRp4683
(dp4684
g62
(dp4685
sg71
g4679
sg64
(lp4686
g57
(g78
g59
NtRp4687
(dp4688
g62
(dp4689
sg71
g4683
sg64
(lp4690
g57
(g58
g59
NtRp4691
(dp4692
g62
(dp4693
g70
I1
ssg71
g4687
sg64
(lp4694
g4172
asbasbasbag57
(g73
g59
NtRp4695
(dp4696
g62
(dp4697
sg71
g4679
sg64
(lp4698
g57
(g78
g59
NtRp4699
(dp4700
g62
(dp4701
sg71
g4695
sg64
(lp4702
g57
(g58
g59
NtRp4703
(dp4704
g62
(dp4705
g70
I1
ssg71
g4699
sg64
(lp4706
I00
asbasbasbag57
(g73
g59
NtRp4707
(dp4708
g62
(dp4709
sg71
g4679
sg64
(lp4710
g57
(g78
g59
NtRp4711
(dp4712
g62
(dp4713
sg71
g4707
sg64
(lp4714
g57
(g58
g59
NtRp4715
(dp4716
g62
(dp4717
g70
I1
ssg71
g4711
sg64
(lp4718
g4170
asbasbasbag57
(g73
g59
NtRp4719
(dp4720
g62
(dp4721
sg71
g4679
sg64
(lp4722
g57
(g78
g59
NtRp4723
(dp4724
g62
(dp4725
sg71
g4719
sg64
(lp4726
g57
(g58
g59
NtRp4727
(dp4728
g62
(dp4729
g70
I1
ssg71
g4723
sg64
(lp4730
(lp4731
(g4186
I00
g4184
tp4732
a(g4196
I00
g4194
tp4733
a(g4206
I00
g4204
tp4734
a(g4216
I00
g4214
tp4735
a(g4226
I00
g4224
tp4736
a(g4236
I00
g4234
tp4737
a(g4246
I00
g4244
tp4738
a(g4256
I00
g4254
tp4739
a(g4266
I00
g4264
tp4740
a(g4276
I00
g4274
tp4741
a(g4286
I00
g4284
tp4742
a(g4296
I00
g4294
tp4743
a(g4306
I00
g4304
tp4744
a(g4316
I00
g4314
tp4745
a(g4326
I00
g4324
tp4746
a(g4336
I00
g4334
tp4747
aasbasbasbasbasbasbasbag57
(g73
g59
NtRp4748
(dp4749
g62
(dp4750
sg71
g4461
sg64
(lp4751
g57
(g78
g59
NtRp4752
(dp4753
g62
(dp4754
sg71
g4748
sg64
(lp4755
g57
(g58
g59
NtRp4756
(dp4757
g62
(dp4758
g70
I2
ssg71
g4752
sg64
(lp4759
g57
(g66
g59
NtRp4760
(dp4761
g62
(dp4762
g70
I1
ssg71
Nsg64
(lp4763
g57
(g73
g59
NtRp4764
(dp4765
g62
(dp4766
sg71
g4760
sg64
(lp4767
g57
(g78
g59
NtRp4768
(dp4769
g62
(dp4770
sg71
g4764
sg64
(lp4771
g57
(g58
g59
NtRp4772
(dp4773
g62
(dp4774
g70
I1
ssg71
g4768
sg64
(lp4775
g4347
asbasbasbag57
(g73
g59
NtRp4776
(dp4777
g62
(dp4778
sg71
g4760
sg64
(lp4779
g57
(g78
g59
NtRp4780
(dp4781
g62
(dp4782
sg71
g4776
sg64
(lp4783
g57
(g58
g59
NtRp4784
(dp4785
g62
(dp4786
g70
I1
ssg71
g4780
sg64
(lp4787
I00
asbasbasbag57
(g73
g59
NtRp4788
(dp4789
g62
(dp4790
sg71
g4760
sg64
(lp4791
g57
(g78
g59
NtRp4792
(dp4793
g62
(dp4794
sg71
g4788
sg64
(lp4795
g57
(g58
g59
NtRp4796
(dp4797
g62
(dp4798
g70
I1
ssg71
g4792
sg64
(lp4799
Nasbasbasbag57
(g73
g59
NtRp4800
(dp4801
g62
(dp4802
sg71
g4760
sg64
(lp4803
g57
(g78
g59
NtRp4804
(dp4805
g62
(dp4806
sg71
g4800
sg64
(lp4807
g57
(g58
g59
NtRp4808
(dp4809
g62
(dp4810
g70
I1
ssg71
g4804
sg64
(lp4811
(lp4812
(g4361
I00
g4359
tp4813
a(g4371
I00
g4369
tp4814
a(g4381
I00
g4379
tp4815
aasbasbasbasbasbasbasbag57
(g73
g59
NtRp4816
(dp4817
g62
(dp4818
sg71
g4461
sg64
(lp4819
g57
(g78
g59
NtRp4820
(dp4821
g62
(dp4822
sg71
g4816
sg64
(lp4823
g57
(g58
g59
NtRp4824
(dp4825
g62
(dp4826
g70
I2
ssg71
g4820
sg64
(lp4827
g57
(g66
g59
NtRp4828
(dp4829
g62
(dp4830
g70
I1
ssg71
Nsg64
(lp4831
g57
(g73
g59
NtRp4832
(dp4833
g62
(dp4834
sg71
g4828
sg64
(lp4835
g57
(g78
g59
NtRp4836
(dp4837
g62
(dp4838
sg71
g4832
sg64
(lp4839
g57
(g58
g59
NtRp4840
(dp4841
g62
(dp4842
g70
I1
ssg71
g4836
sg64
(lp4843
g4390
asbasbasbag57
(g73
g59
NtRp4844
(dp4845
g62
(dp4846
sg71
g4828
sg64
(lp4847
g57
(g78
g59
NtRp4848
(dp4849
g62
(dp4850
sg71
g4844
sg64
(lp4851
g57
(g58
g59
NtRp4852
(dp4853
g62
(dp4854
g70
I1
ssg71
g4848
sg64
(lp4855
I00
asbasbasbag57
(g73
g59
NtRp4856
(dp4857
g62
(dp4858
sg71
g4828
sg64
(lp4859
g57
(g78
g59
NtRp4860
(dp4861
g62
(dp4862
sg71
g4856
sg64
(lp4863
g57
(g58
g59
NtRp4864
(dp4865
g62
(dp4866
g70
I1
ssg71
g4860
sg64
(lp4867
Nasbasbasbag57
(g73
g59
NtRp4868
(dp4869
g62
(dp4870
sg71
g4828
sg64
(lp4871
g57
(g78
g59
NtRp4872
(dp4873
g62
(dp4874
sg71
g4868
sg64
(lp4875
g57
(g58
g59
NtRp4876
(dp4877
g62
(dp4878
g70
I1
ssg71
g4872
sg64
(lp4879
(lp4880
(g4404
I00
g4402
tp4881
a(g4413
I00
g4130
tp4882
a(g4422
I00
g4140
tp4883
aasbasbasbasbasbasbasbasbasbasbasbasbasbasbasbasbasbasbasbag57
(g73
g59
NtRp4884
(dp4885
g62
(dp4886
sg71
g3142
sg64
(lp4887
g57
(g78
g59
NtRp4888
(dp4889
g62
(dp4890
g82
g83
ssg71
g4884
sg64
(lp4891
S'meta'
p4892
asbag57
(g78
g59
NtRp4893
(dp4894
g62
(dp4895
g89
g90
ssg71
g4884
sg64
(lp4896
S':'
asbag57
(g78
g59
NtRp4897
(dp4898
g62
(dp4899
sg71
g4884
sg64
(lp4900
g57
(g58
g59
NtRp4901
(dp4902
g62
(dp4903
g70
I5
ssg71
g4897
sg64
(lp4904
g57
(g66
g59
NtRp4905
(dp4906
g62
(dp4907
g70
I4
ssg71
Nsg64
(lp4908
g57
(g73
g59
NtRp4909
(dp4910
g62
(dp4911
sg71
g4905
sg64
(lp4912
g57
(g78
g59
NtRp4913
(dp4914
g62
(dp4915
g82
g83
ssg71
g4909
sg64
(lp4916
S'author'
p4917
asbag57
(g78
g59
NtRp4918
(dp4919
g62
(dp4920
g89
g90
ssg71
g4909
sg64
(lp4921
S':'
asbag57
(g78
g59
NtRp4922
(dp4923
g62
(dp4924
sg71
g4909
sg64
(lp4925
g57
(g58
g59
NtRp4926
(dp4927
g62
(dp4928
g70
I4
ssg71
g4922
sg64
(lp4929
S'Your Name <you@example.com>'
p4930
asbasbasbag57
(g73
g59
NtRp4931
(dp4932
g62
(dp4933
sg71
g4905
sg64
(lp4934
g57
(g78
g59
NtRp4935
(dp4936
g62
(dp4937
g82
g83
ssg71
g4931
sg64
(lp4938
S'description'
p4939
asbag57
(g78
g59
NtRp4940
(dp4941
g62
(dp4942
g89
g90
ssg71
g4931
sg64
(lp4943
S':'
asbag57
(g78
g59
NtRp4944
(dp4945
g62
(dp4946
sg71
g4931
sg64
(lp4947
g57
(g58
g59
NtRp4948
(dp4949
g62
(dp4950
g70
I4
ssg71
g4944
sg64
(lp4951
S'a cool new app'
p4952
asbasbasbag57
(g73
g59
NtRp4953
(dp4954
g62
(dp4955
sg71
g4905
sg64
(lp4956
g57
(g78
g59
NtRp4957
(dp4958
g62
(dp4959
g82
g83
ssg71
g4953
sg64
(lp4960
S'generator'
p4961
asbag57
(g78
g59
NtRp4962
(dp4963
g62
(dp4964
g89
g90
ssg71
g4953
sg64
(lp4965
S':'
asbag57
(g78
g59
NtRp4966
(dp4967
g62
(dp4968
sg71
g4953
sg64
(lp4969
g57
(g58
g59
NtRp4970
(dp4971
g62
(dp4972
g70
I4
ssg71
g4966
sg64
(lp4973
S'Web2py Web Framework'
p4974
asbasbasbag57
(g73
g59
NtRp4975
(dp4976
g62
(dp4977
sg71
g4905
sg64
(lp4978
g57
(g78
g59
NtRp4979
(dp4980
g62
(dp4981
g82
g83
ssg71
g4975
sg64
(lp4982
S'keywords'
p4983
asbag57
(g78
g59
NtRp4984
(dp4985
g62
(dp4986
g89
g90
ssg71
g4975
sg64
(lp4987
S':'
asbag57
(g78
g59
NtRp4988
(dp4989
g62
(dp4990
sg71
g4975
sg64
(lp4991
g57
(g58
g59
NtRp4992
(dp4993
g62
(dp4994
g70
I4
ssg71
g4988
sg64
(lp4995
S'web2py, python, framework'
p4996
asbasbasbasbasbasbasbag57
(g73
g59
NtRp4997
(dp4998
g62
(dp4999
sg71
g3142
sg64
(lp5000
g57
(g78
g59
NtRp5001
(dp5002
g62
(dp5003
g82
g83
ssg71
g4997
sg64
(lp5004
S'postprocessing'
p5005
asbag57
(g78
g59
NtRp5006
(dp5007
g62
(dp5008
g89
g90
ssg71
g4997
sg64
(lp5009
S':'
asbag57
(g78
g59
NtRp5010
(dp5011
g62
(dp5012
sg71
g4997
sg64
(lp5013
g57
(g58
g59
NtRp5014
(dp5015
g62
(dp5016
g70
I5
ssg71
g5010
sg64
(lp5017
g57
(g66
g59
NtRp5018
(dp5019
g62
(dp5020
g70
I4
ssg71
Nsg64
(lp5021
sbasbasbasbag57
(g73
g59
NtRp5022
(dp5023
g62
(dp5024
sg71
g3142
sg64
(lp5025
g57
(g78
g59
NtRp5026
(dp5027
g62
(dp5028
g82
g83
ssg71
g5022
sg64
(lp5029
S'session_file'
p5030
asbag57
(g78
g59
NtRp5031
(dp5032
g62
(dp5033
g89
g90
ssg71
g5022
sg64
(lp5034
S':'
asbag57
(g78
g59
NtRp5035
(dp5036
g62
(dp5037
sg71
g5022
sg64
(lp5038
g57
(g58
g59
NtRp5039
(dp5040
g62
(dp5041
g70
I5
ssg71
g5035
sg64
(lp5042
S"<open file '/home/piyush/web2py/applications/FotoBuk/sessions/127.0.0.1-a0aa12fe-f234-43d8-b1ed-9cc366e4417f', mode 'rb+' at 0xada15d30>"
p5043
asbasbasbag57
(g73
g59
NtRp5044
(dp5045
g62
(dp5046
sg71
g3142
sg64
(lp5047
g57
(g78
g59
NtRp5048
(dp5049
g62
(dp5050
g82
g83
ssg71
g5044
sg64
(lp5051
S'session_filename'
p5052
asbag57
(g78
g59
NtRp5053
(dp5054
g62
(dp5055
g89
g90
ssg71
g5044
sg64
(lp5056
S':'
asbag57
(g78
g59
NtRp5057
(dp5058
g62
(dp5059
sg71
g5044
sg64
(lp5060
g57
(g58
g59
NtRp5061
(dp5062
g62
(dp5063
g70
I5
ssg71
g5057
sg64
(lp5064
S'/home/piyush/web2py/applications/FotoBuk/sessions/127.0.0.1-a0aa12fe-f234-43d8-b1ed-9cc366e4417f'
p5065
asbasbasbag57
(g73
g59
NtRp5066
(dp5067
g62
(dp5068
sg71
g3142
sg64
(lp5069
g57
(g78
g59
NtRp5070
(dp5071
g62
(dp5072
g82
g83
ssg71
g5066
sg64
(lp5073
S'session_id'
p5074
asbag57
(g78
g59
NtRp5075
(dp5076
g62
(dp5077
g89
g90
ssg71
g5066
sg64
(lp5078
S':'
asbag57
(g78
g59
NtRp5079
(dp5080
g62
(dp5081
sg71
g5066
sg64
(lp5082
g57
(g58
g59
NtRp5083
(dp5084
g62
(dp5085
g70
I5
ssg71
g5079
sg64
(lp5086
g475
asbasbasbag57
(g73
g59
NtRp5087
(dp5088
g62
(dp5089
sg71
g3142
sg64
(lp5090
g57
(g78
g59
NtRp5091
(dp5092
g62
(dp5093
g82
g83
ssg71
g5087
sg64
(lp5094
S'session_id_name'
p5095
asbag57
(g78
g59
NtRp5096
(dp5097
g62
(dp5098
g89
g90
ssg71
g5087
sg64
(lp5099
S':'
asbag57
(g78
g59
NtRp5100
(dp5101
g62
(dp5102
sg71
g5087
sg64
(lp5103
g57
(g58
g59
NtRp5104
(dp5105
g62
(dp5106
g70
I5
ssg71
g5100
sg64
(lp5107
g3199
asbasbasbag57
(g73
g59
NtRp5108
(dp5109
g62
(dp5110
sg71
g3142
sg64
(lp5111
g57
(g78
g59
NtRp5112
(dp5113
g62
(dp5114
g82
g83
ssg71
g5108
sg64
(lp5115
S'session_locked'
p5116
asbag57
(g78
g59
NtRp5117
(dp5118
g62
(dp5119
g89
g90
ssg71
g5108
sg64
(lp5120
S':'
asbag57
(g78
g59
NtRp5121
(dp5122
g62
(dp5123
sg71
g5108
sg64
(lp5124
g57
(g58
g59
NtRp5125
(dp5126
g62
(dp5127
g70
I5
ssg71
g5121
sg64
(lp5128
g1680
asbasbasbag57
(g73
g59
NtRp5129
(dp5130
g62
(dp5131
sg71
g3142
sg64
(lp5132
g57
(g78
g59
NtRp5133
(dp5134
g62
(dp5135
g82
g83
ssg71
g5129
sg64
(lp5136
S'session_new'
p5137
asbag57
(g78
g59
NtRp5138
(dp5139
g62
(dp5140
g89
g90
ssg71
g5129
sg64
(lp5141
S':'
asbag57
(g78
g59
NtRp5142
(dp5143
g62
(dp5144
sg71
g5129
sg64
(lp5145
g57
(g58
g59
NtRp5146
(dp5147
g62
(dp5148
g70
I5
ssg71
g5142
sg64
(lp5149
g100
asbasbasbag57
(g73
g59
NtRp5150
(dp5151
g62
(dp5152
sg71
g3142
sg64
(lp5153
g57
(g78
g59
NtRp5154
(dp5155
g62
(dp5156
g82
g83
ssg71
g5150
sg64
(lp5157
S'status'
p5158
asbag57
(g78
g59
NtRp5159
(dp5160
g62
(dp5161
g89
g90
ssg71
g5150
sg64
(lp5162
S':'
asbag57
(g78
g59
NtRp5163
(dp5164
g62
(dp5165
sg71
g5150
sg64
(lp5166
g57
(g58
g59
NtRp5167
(dp5168
g62
(dp5169
g70
I5
ssg71
g5163
sg64
(lp5170
S'200'
p5171
asbasbasbag57
(g73
g59
NtRp5172
(dp5173
g62
(dp5174
sg71
g3142
sg64
(lp5175
g57
(g78
g59
NtRp5176
(dp5177
g62
(dp5178
g82
g83
ssg71
g5172
sg64
(lp5179
S'subtitle'
p5180
asbag57
(g78
g59
NtRp5181
(dp5182
g62
(dp5183
g89
g90
ssg71
g5172
sg64
(lp5184
S':'
asbag57
(g78
g59
NtRp5185
(dp5186
g62
(dp5187
sg71
g5172
sg64
(lp5188
g57
(g58
g59
NtRp5189
(dp5190
g62
(dp5191
g70
I5
ssg71
g5185
sg64
(lp5192
g3812
(S's\r\x00\x00\x00customize me!'
tRp5193
asbasbasbag57
(g73
g59
NtRp5194
(dp5195
g62
(dp5196
sg71
g3142
sg64
(lp5197
g57
(g78
g59
NtRp5198
(dp5199
g62
(dp5200
g82
g83
ssg71
g5194
sg64
(lp5201
S'title'
p5202
asbag57
(g78
g59
NtRp5203
(dp5204
g62
(dp5205
g89
g90
ssg71
g5194
sg64
(lp5206
S':'
asbag57
(g78
g59
NtRp5207
(dp5208
g62
(dp5209
sg71
g5194
sg64
(lp5210
g57
(g58
g59
NtRp5211
(dp5212
g62
(dp5213
g70
I5
ssg71
g5207
sg64
(lp5214
S'Fotobuk'
p5215
asbasbasbag57
(g73
g59
NtRp5216
(dp5217
g62
(dp5218
sg71
g3142
sg64
(lp5219
g57
(g78
g59
NtRp5220
(dp5221
g62
(dp5222
g82
g83
ssg71
g5216
sg64
(lp5223
S'view'
p5224
asbag57
(g78
g59
NtRp5225
(dp5226
g62
(dp5227
g89
g90
ssg71
g5216
sg64
(lp5228
S':'
asbag57
(g78
g59
NtRp5229
(dp5230
g62
(dp5231
sg71
g5216
sg64
(lp5232
g57
(g58
g59
NtRp5233
(dp5234
g62
(dp5235
g70
I5
ssg71
g5229
sg64
(lp5236
S'default/index.html'
p5237
asbasbasbasbasbsS'locals'
p5238
(dp5239
S'OBJECT'
p5240
S"<class 'gluon.html.OBJECT'>"
p5241
sS'SQLDB'
p5242
S"<class 'gluon.dal.DAL'>"
p5243
sg3081
S'<Storage {\'flash\': \'\', \'_Session__hash\': "J\\xac\\...owser\': {\'version\': \'11.0\', \'name\': \'Firefox\'}}}>'
p5244
sS'LINK'
p5245
S"<class 'gluon.html.LINK'>"
p5246
sS'BR'
p5247
S"<class 'gluon.html.BR'>"
p5248
sS'local_import'
p5249
S'<function <lambda>>'
p5250
sS'OPTGROUP'
p5251
S"<class 'gluon.html.OPTGROUP'>"
p5252
sS'__package__'
p5253
S'None'
p5254
sS'PRE'
p5255
S"<class 'gluon.html.PRE'>"
p5256
sS'IS_INT_IN_RANGE'
p5257
S"<class 'gluon.validators.IS_INT_IN_RANGE'>"
p5258
sS'left_sidebar_enabled'
p5259
g100
sS'IS_LOWER'
p5260
S"<class 'gluon.validators.IS_LOWER'>"
p5261
sS'IS_STRONG'
p5262
S"<class 'gluon.validators.IS_STRONG'>"
p5263
sS'cache'
p5264
S'<gluon.cache.Cache object>'
p5265
sS'IS_IN_DB'
p5266
S"<class 'gluon.validators.IS_IN_DB'>"
p5267
sS'TAG'
p5268
S'<gluon.html.__TAG__ object>'
p5269
sS'SQLField'
p5270
S"<class 'gluon.dal.Field'>"
p5271
sS'BODY'
p5272
S"<class 'gluon.html.BODY'>"
p5273
sS'IS_DATE_IN_RANGE'
p5274
S"<class 'gluon.validators.IS_DATE_IN_RANGE'>"
p5275
sS'TH'
p5276
S"<class 'gluon.html.TH'>"
p5277
sS'URL'
p5278
S'<function URL>'
p5279
sS'__file__'
p5280
S"'/home/piyush/web2py/applications/FotoBuk/views/default/index.html'"
p5281
sS'db'
p5282
S'<DAL sqlite://storage.sqlite>'
p5283
sS'auth'
p5284
S'<gluon.tools.Auth object>'
p5285
sS'P'
S"<class 'gluon.html.P'>"
p5286
sS'TFOOT'
p5287
S"<class 'gluon.html.TFOOT'>"
p5288
sS'XHTML'
p5289
S"<class 'gluon.html.XHTML'>"
p5290
sS'ON'
p5291
g1680
sS'OL'
p5292
S"<class 'gluon.html.OL'>"
p5293
sS'TEXTAREA'
p5294
S"<class 'gluon.html.TEXTAREA'>"
p5295
sS'MENU'
p5296
S"<class 'gluon.html.MENU'>"
p5297
sS'LOAD'
p5298
S'<function LOAD>'
p5299
sS'CODE'
p5300
S"<class 'gluon.html.CODE'>"
p5301
sS'HTTP'
p5302
S"<class 'gluon.http.HTTP'>"
p5303
sS'HR'
p5304
S"<class 'gluon.html.HR'>"
p5305
sS'IS_DATETIME'
p5306
S"<class 'gluon.validators.IS_DATETIME'>"
p5307
sS'HEAD'
p5308
S"<class 'gluon.html.HEAD'>"
p5309
sS'LABEL'
p5310
S"<class 'gluon.html.LABEL'>"
p5311
sS'CLEANUP'
p5312
S"<class 'gluon.validators.CLEANUP'>"
p5313
sS'SELECT'
p5314
S"<class 'gluon.html.SELECT'>"
p5315
sS'CENTER'
p5316
S"<class 'gluon.html.CENTER'>"
p5317
sS'Crud'
p5318
S"<class 'gluon.tools.Crud'>"
p5319
sS'Auth'
p5320
S"<class 'gluon.tools.Auth'>"
p5321
sS'__builtins__'
p5322
S"{'ArithmeticError': <type 'exceptions.ArithmeticError'>, 'AssertionError': <type 'exceptions.AssertionError'>, 'AttributeError': <type 'exceptions.AttributeError'>, 'BaseException': <type 'exceptions.BaseException'>, 'BufferError': <type 'exceptions.BufferError'>, 'BytesWarning': <type 'exceptions.BytesWarning'>, 'DeprecationWarning': <type 'exceptions.DeprecationWarning'>, 'EOFError': <type 'exceptions.EOFError'>, 'Ellipsis': Ellipsis, 'EnvironmentError': <type 'exceptions.EnvironmentError'>, ...}"
p5323
sS'HTML'
p5324
S"<class 'gluon.html.HTML'>"
p5325
sS'SQLFORM'
p5326
S"<class 'gluon.sqlhtml.SQLFORM'>"
p5327
sS'EM'
p5328
S"<class 'gluon.html.EM'>"
p5329
sS'redirect'
p5330
S'<function redirect>'
p5331
sS'FIELDSET'
p5332
S"<class 'gluon.html.FIELDSET'>"
p5333
sS'IS_EQUAL_TO'
p5334
S"<class 'gluon.validators.IS_EQUAL_TO'>"
p5335
sS'embed64'
p5336
S'<function embed64>'
p5337
sS'IS_LIST_OF'
p5338
S"<class 'gluon.validators.IS_LIST_OF'>"
p5339
sS'__name__'
p5340
S"'__restricted__'"
p5341
sS'EMBED'
p5342
S"<class 'gluon.html.EMBED'>"
p5343
sS'_'
S'<function _>'
p5344
sS'FORM'
p5345
S"<class 'gluon.html.FORM'>"
p5346
sS'H2'
p5347
S"<class 'gluon.html.H2'>"
p5348
sS'H3'
p5349
S"<class 'gluon.html.H3'>"
p5350
sS'BUTTON'
p5351
S"<class 'gluon.html.BUTTON'>"
p5352
sS'H1'
p5353
S"<class 'gluon.html.H1'>"
p5354
sS'H6'
p5355
S"<class 'gluon.html.H6'>"
p5356
sS'H4'
p5357
S"<class 'gluon.html.H4'>"
p5358
sS'H5'
p5359
S"<class 'gluon.html.H5'>"
p5360
sS'UL'
p5361
S"<class 'gluon.html.UL'>"
p5362
sS'IS_UPPER'
p5363
S"<class 'gluon.validators.IS_UPPER'>"
p5364
sS'xmlescape'
p5365
S'<function xmlescape>'
p5366
sS'IS_TIME'
p5367
S"<class 'gluon.validators.IS_TIME'>"
p5368
sS'OPTION'
p5369
S"<class 'gluon.html.OPTION'>"
p5370
sS'TITLE'
p5371
S"<class 'gluon.html.TITLE'>"
p5372
sS'CRYPT'
p5373
S"<class 'gluon.validators.CRYPT'>"
p5374
sS'IS_EMPTY_OR'
p5375
S"<class 'gluon.validators.IS_EMPTY_OR'>"
p5376
sS'MARKMIN'
p5377
S"<class 'gluon.html.MARKMIN'>"
p5378
sS'INPUT'
p5379
S"<class 'gluon.html.INPUT'>"
p5380
sS'STRONG'
p5381
S"<class 'gluon.html.STRONG'>"
p5382
sS'COL'
p5383
S"<class 'gluon.html.COL'>"
p5384
sS'SCRIPT'
p5385
S"<class 'gluon.html.SCRIPT'>"
p5386
sS'is_mobile'
p5387
g100
sS'TABLE'
p5388
S"<class 'gluon.html.TABLE'>"
p5389
sS'IS_IPV4'
p5390
S"<class 'gluon.validators.IS_IPV4'>"
p5391
sS'IS_LENGTH'
p5392
S"<class 'gluon.validators.IS_LENGTH'>"
p5393
sS'XML'
p5394
S"<class 'gluon.html.XML'>"
p5395
sS'B'
S"<class 'gluon.html.B'>"
p5396
sS'IMG'
p5397
S"<class 'gluon.html.IMG'>"
p5398
sS'SQLTABLE'
p5399
S"<class 'gluon.sqlhtml.SQLTABLE'>"
p5400
sS'IS_MATCH'
p5401
S"<class 'gluon.validators.IS_MATCH'>"
p5402
sS'IS_ALPHANUMERIC'
p5403
S"<class 'gluon.validators.IS_ALPHANUMERIC'>"
p5404
sS'SPAN'
p5405
S"<class 'gluon.html.SPAN'>"
p5406
sS'IS_SLUG'
p5407
S"<class 'gluon.validators.IS_SLUG'>"
p5408
sS'BEAUTIFY'
p5409
S"<class 'gluon.html.BEAUTIFY'>"
p5410
sS'META'
p5411
S"<class 'gluon.html.META'>"
p5412
sS'IS_DATE'
p5413
S"<class 'gluon.validators.IS_DATE'>"
p5414
sS'IS_EMAIL'
p5415
S"<class 'gluon.validators.IS_EMAIL'>"
p5416
sS'IS_NOT_EMPTY'
p5417
S"<class 'gluon.validators.IS_NOT_EMPTY'>"
p5418
sg56
S"<Storage {'function': 'index', 'body': <cStringI...plications/FotoBuk/', 'post_vars': <Storage {}>}>"
p5419
sS'TBODY'
p5420
S"<class 'gluon.html.TBODY'>"
p5421
sS'CAT'
p5422
S"<class 'gluon.html.CAT'>"
p5423
sS'Field'
p5424
S"<class 'gluon.dal.Field'>"
p5425
sS'middle_columns'
p5426
S"'span12'"
p5427
sS'DIV'
p5428
S"<class 'gluon.html.DIV'>"
p5429
sS'LEGEND'
p5430
S"<class 'gluon.html.LEGEND'>"
p5431
sS'COLGROUP'
p5432
S"<class 'gluon.html.COLGROUP'>"
p5433
sS'DAL'
p5434
S"<class 'gluon.dal.DAL'>"
p5435
sS'TT'
p5436
S"<class 'gluon.html.TT'>"
p5437
sS'TR'
p5438
S"<class 'gluon.html.TR'>"
p5439
sS'LI'
p5440
S"<class 'gluon.html.LI'>"
p5441
sS'right_sidebar_enabled'
p5442
g100
sS'IFRAME'
p5443
S"<class 'gluon.html.IFRAME'>"
p5444
sS'TD'
p5445
S"<class 'gluon.html.TD'>"
p5446
sS'IS_URL'
p5447
S"<class 'gluon.validators.IS_URL'>"
p5448
sS'A'
S"<class 'gluon.html.A'>"
p5449
sS'STYLE'
p5450
S"<class 'gluon.html.STYLE'>"
p5451
sS'IS_DATETIME_IN_RANGE'
p5452
S"<class 'gluon.validators.IS_DATETIME_IN_RANGE'>"
p5453
sS'IS_IMAGE'
p5454
S"<class 'gluon.validators.IS_IMAGE'>"
p5455
sS'I'
S"<class 'gluon.html.I'>"
p5456
sS'crud'
p5457
S'<gluon.tools.Crud object>'
p5458
sS'IS_NOT_IN_DB'
p5459
S"<class 'gluon.validators.IS_NOT_IN_DB'>"
p5460
sg3137
S"<Storage {'body': <cStringIO.StringO object at 0...a> at 0xaeab7ca4>, 'view': 'default/index.html'}>"
p5461
sS'THEAD'
p5462
S"<class 'gluon.html.THEAD'>"
p5463
sS'IS_NULL_OR'
p5464
S"<class 'gluon.validators.IS_EMPTY_OR'>"
p5465
sS'IS_FLOAT_IN_RANGE'
p5466
S"<class 'gluon.validators.IS_FLOAT_IN_RANGE'>"
p5467
sS'IS_EXPR'
p5468
S"<class 'gluon.validators.IS_EXPR'>"
p5469
sS'T'
S'<gluon.languages.translator object>'
p5470
sS'IS_IN_SET'
p5471
S"<class 'gluon.validators.IS_IN_SET'>"
p5472
sS'IS_UPLOAD_FILENAME'
p5473
S"<class 'gluon.validators.IS_UPLOAD_FILENAME'>"
p5474
sS'IS_DECIMAL_IN_RANGE'
p5475
S"<class 'gluon.validators.IS_DECIMAL_IN_RANGE'>"
p5476
sssS'traceback'
p5477
S'Traceback (most recent call last):\n  File "/home/piyush/web2py/gluon/restricted.py", line 209, in restricted\n    exec ccode in environment\n  File "/home/piyush/web2py/applications/FotoBuk/views/default/index.html", line 79, in <module>\nNameError: name \'images\' is not defined\n'
p5478
s.