(dp1
S'output'
p2
S'missing "pass" in view'
p3
sS'layer'
p4
S'ParserContainer'
p5
sS'code'
p6
S'response.write(\'<!DOCTYPE html>\\r\\n<!-- paulirish.com/2008/conditional-stylesheets-vs-css-hacks-answer-neither/ -->\\r\\n<!--[if lt IE 7]><html class="ie ie6 ie-lte9 ie-lte8 ie-lte7 no-js" lang="\', escape=False)\nresponse.write(T.accepted_language or \'en\')\nresponse.write(\'"> <![endif]-->\\r\\n<!--[if IE 7]><html class="ie ie7 ie-lte9 ie-lte8 ie-lte7 no-js" lang="\', escape=False)\nresponse.write(T.accepted_language or \'en\')\nresponse.write(\'"> <![endif]-->\\r\\n<!--[if IE 8]><html class="ie ie8 ie-lte9 ie-lte8 no-js" lang="\', escape=False)\nresponse.write(T.accepted_language or \'en\')\nresponse.write(\'"> <![endif]-->\\r\\n<!--[if IE 9]><html class="ie9 ie-lte9 no-js" lang="\', escape=False)\nresponse.write(T.accepted_language or \'en\')\nresponse.write(\'"> <![endif]-->\\r\\n<!--[if (gt IE 9)|!(IE)]><!--> <html class="no-js" lang="\', escape=False)\nresponse.write(T.accepted_language or \'en\')\nresponse.write(\'"> <!--<![endif]-->\\r\\n<head>\\r\\n  <meta charset="utf-8" />\\r\\n  <!-- www.phpied.com/conditional-comments-block-downloads/ -->\\r\\n  <!-- Always force latest IE rendering engine\\r\\n       (even in intranet) & Chrome Frame\\r\\n       Remove this if you use the .htaccess -->\\r\\n  <!--[if IE]>\\r\\n      <meta http-equiv="X-UA-Compatible" content="IE=edge\', escape=False)\nresponse.write(not request.is_local and \',chrome=1\' or \'\')\nresponse.write(\'">\\r\\n      <![endif]-->\\r\\n  \\r\\n  <title>\', escape=False)\nresponse.write(response.title or request.application)\nresponse.write(\'</title>\\r\\n  \\r\\n  <!-- http://dev.w3.org/html5/markup/meta.name.html -->\\r\\n  <meta name="application-name" content="\', escape=False)\nresponse.write(request.application)\nresponse.write(\'" />\\r\\n  \\r\\n  <!-- Speaking of Google, don\\\'t forget to set your site up:\\r\\n       http://google.com/webmasters -->\\r\\n  <meta name="google-site-verification" content="" />\\r\\n  \\r\\n  <!--  Mobile Viewport Fix\\r\\n\\tj.mp/mobileviewport & davidbcalhoun.com/2010/viewport-metatag\\r\\n\\tdevice-width: Occupy full width of the screen in its current orientation\\r\\n\\tinitial-scale = 1.0 retains dimensions instead of zooming out if page height > device height\\r\\n\\tuser-scalable = yes allows the user to zoom in -->\\r\\n  <meta name="viewport" content="width=device-width, initial-scale=1.0">\\r\\n  \\r\\n  <link rel="shortcut icon" href="\', escape=False)\nresponse.write(URL(\'static\',\'images/favicon.ico\'))\nresponse.write(\'" type="image/x-icon">\\r\\n  <link rel="apple-touch-icon" href="\', escape=False)\nresponse.write(URL(\'static\',\'images/favicon.png\'))\nresponse.write(\'">\\r\\n  \\r\\n  <!-- All JavaScript at the bottom, except for Modernizr which enables \\r\\n       HTML5 elements & feature detects -->\\r\\n  <script src="\', escape=False)\nresponse.write(URL(\'static\',\'js/modernizr.custom.js\'))\nresponse.write(\'"></script>   \\r\\n  \\r\\n  <!-- include stylesheets -->\\r\\n  \', escape=False)\nresponse.files.append(URL(\'static\',\'css/bootstrap.min.css\'))\nresponse.files.append(URL(\'static\',\'css/bootstrap-responsive.min.css\'))\nresponse.files.append(URL(\'static\',\'css/web2py.css\'))\nresponse.files.append(URL(\'static\',\'css/web2py_bootstrap.css\'))\nresponse.write(\'\\r\\n\\r\\n  \', escape=False)\nresponse.write(\'<script type="text/javascript"><!--\\n    // These variables are used by the web2py_ajax_init function in web2py_ajax.js (which is loaded below).\\n    var w2p_ajax_confirm_message = "\', escape=False)\nresponse.write(T(\'Are you sure you want to delete this object?\'))\nresponse.write(\'";\\n    var w2p_ajax_date_format = "\', escape=False)\nresponse.write(T(\'%Y-%m-%d\'))\nresponse.write(\'";\\n    var w2p_ajax_datetime_format = "\', escape=False)\nresponse.write(T(\'%Y-%m-%d %H:%M:%S\'))\nresponse.write(\'";\\n    //--></script>\\n\', escape=False)\nresponse.files.insert(0,URL(\'static\',\'js/jquery.js\'))\nresponse.files.insert(1,URL(\'static\',\'css/calendar.css\'))\nresponse.files.insert(2,URL(\'static\',\'js/calendar.js\'))\nresponse.files.insert(3,URL(\'static\',\'js/web2py.js\'))\nresponse.include_meta()\nresponse.include_files()\nresponse.write(\'\\n\', escape=False)\nresponse.write(\'\\r\\n  \\r\\n  \', escape=False)\n# using sidebars need to know what sidebar you want to use\nleft_sidebar_enabled = globals().get(\'left_sidebar_enabled\',False)\nright_sidebar_enabled = globals().get(\'right_sidebar_enabled\',False)\nmiddle_columns = {0:\'span12\',1:\'span9\',2:\'span6\'}[\n(left_sidebar_enabled and 1 or 0)+(right_sidebar_enabled and 1 or 0)]\nresponse.write(\'\\r\\n\\r\\n  <!-- uncomment here to load jquery-ui\\r\\n       <link rel="stylesheet" href="http://ajax.googleapis.com/ajax/libs/jqueryui/1.8.16/themes/base/jquery-ui.css" type="text/css" media="all" />\\r\\n       <script src="http://ajax.googleapis.com/ajax/libs/jqueryui/1.8.16/jquery-ui.min.js" type="text/javascript"></script>\\r\\n       uncomment to load jquery-ui //-->\\r\\n  <noscript><link href="\', escape=False)\nresponse.write(URL(\'static\', \'css/web2py_bootstrap_nojs.css\'))\nresponse.write(\'" rel="stylesheet" type="text/css" /></noscript>\\r\\n  \', escape=False)\nresponse.write(\'\\r\\n</head>\\r\\n\\r\\n<body>\\r\\n  <!-- Navbar ================================================== -->\\r\\n  <div class="navbar navbar-fixed-top">\\r\\n    <div class="navbar-inner">\\r\\n      <div class="container">\\r\\n\\t<!-- the next tag is necessary for bootstrap menus, do not remove -->\\r\\n\\t<a class="btn btn-navbar" data-toggle="collapse" data-target=".nav-collapse">\\r\\n          <span class="icon-bar"></span>\\r\\n          <span class="icon-bar"></span>\\r\\n          <span class="icon-bar"></span>\\r\\n        </a>\\r\\n\\t<a class="brand" href="#">web2py&trade;&nbsp;</a>\\r\\n\\t<div id="navbar">\', escape=False)\nresponse.write(\'auth\' in globals() and auth.navbar() or \'\')\nresponse.write(\'</div>\\r\\n\\t<div class="nav-collapse">\\r\\n\\t  \', escape=False)\nis_mobile=request.user_agent().is_mobile\nresponse.write(\'\\r\\n\\t  \', escape=False)\nif response.menu:\n    response.write(\'\\r\\n\\t  \', escape=False)\n    response.write(MENU(response.menu, _class=\'mobile-menu nav\' if is_mobile else \'nav\',mobile=is_mobile,li_class=\'dropdown\',ul_class=\'dropdown-menu\'))\n    response.write(\'\\r\\n\\t  \', escape=False)\n    pass\nresponse.write(\'\\r\\n\\t</div><!--/.nav-collapse -->\\r\\n      </div>\\r\\n    </div>\\r\\n  </div><!--/top navbar -->\\r\\n  \\r\\n  <div class="container">\\r\\n    <div class="flash">\', escape=False)\nresponse.write(response.flash or \'\')\nresponse.write(\'</div>\\r\\n\\r\\n    <!-- Masthead ================================================== -->\\r\\n    <header class="mastheader" id="header">\\r\\n      <div class="page-header">\\r\\n\\t<h1>\\r\\n\\t  \', escape=False)\nresponse.write(response.title or request.application)\nresponse.write(\'\\r\\n\\t  <small>\', escape=False)\nresponse.write(response.subtitle or \'\')\nresponse.write(\'</small>\\r\\n\\t</h1>\\r\\n      </div>\\r\\n    </header>\\r\\n    \\r\\n    <section id="main" class="main span12">\\r\\n      <div class="row">\\r\\n\\t\', escape=False)\nif left_sidebar_enabled:\n    response.write(\'\\r\\n\\t<div class="span3 left-sidebar">\\r\\n\\t  \', escape=False)\n    response.write(\'\\r\\n\\t  <h3>Left Sidebar</h3>\\r\\n\\t  <p></p>\\r\\n\\t  \', escape=False)\n    response.write(\'\\r\\n\\t</div>\\r\\n\\t\', escape=False)\n    pass\nresponse.write(\'\\r\\n\\t\\r\\n\\t<div class="\', escape=False)\nresponse.write(middle_columns)\nresponse.write(\'">\\r\\n\\t  \', escape=False)\nresponse.write(\'\\r\\n\\t  \', escape=False)\nresponse.write(\'\\n<h1>Image: \', escape=False)\nresponse.write(image.title)\nresponse.write(\'</h1>\\n<center>\\n<img width="200px"\\n     src="\', escape=False)\nresponse.write(URL(\'download\', args=image.file))\nresponse.write(\'" />\\n</center>\\n\', escape=False)\nif len(comments):\n    response.write(\'\\n  <h2>Comments</h2><br /><p>\\n  \', escape=False)\n    for comment in comments:\n        response.write(\'\\n    <p>\', escape=False)\n        response.write(comment.author)\n        response.write(\' says <i>\', escape=False)\n        response.write(comment.body)\n        response.write(\'</i></p>\\n\', escape=False)\n    else:\n        response.write(\'\\n  <h2>No comments posted yet</h2>\\n\', escape=False)\n        pass\n    response.write(\'\\n<h2>Post a comment</h2>\\n\', escape=False)\n    response.write(form)\n    response.write(\'\\n\\n\\n\', escape=False)\n    response.write(\'\\r\\n\\t  \', escape=False)\n    response.write(\'\\r\\n\\t</div>\\r\\n\\t\\r\\n\\t\', escape=False)\n    if right_sidebar_enabled:\n        response.write(\'\\r\\n\\t<div class="span3">\\r\\n\\t  \', escape=False)\n        response.write(\'\\r\\n\\t  <h3>Right Sidebar</h3>\\r\\n\\t  <p></p>\\r\\n\\t  \', escape=False)\n        response.write(\'\\r\\n\\t</div>    \\r\\n\\t\', escape=False)\n        pass\n    response.write(\'\\r\\n      </div><!--/row-->\\r\\n    </section><!--/main-->\\r\\n    \\r\\n    <!-- Footer ================================================== -->\\r\\n    <footer class="footer">\\r\\n      \', escape=False)\n    response.write(\' <!-- this is default footer -->\\r\\n      <div class="footer-content">\\r\\n\\t<div class="copyright pull-left">\', escape=False)\n    response.write(T(\'Copyright\'))\n    response.write(\' &#169; \', escape=False)\n    response.write(request.now.year)\n    response.write(\'</div>\\r\\n\\t<div id="poweredBy" class="pull-right">\\r\\n\\t  \', escape=False)\n    response.write(T(\'Powered by\'))\n    response.write(\'\\r\\n\\t  <a href="http://www.web2py.com/">web2py</a>\\r\\n\\t</div>\\r\\n      </div>\\r\\n      \', escape=False)\n    response.write(\'\\r\\n    </footer>\\r\\n    \\r\\n  </div> <!-- /container -->\\r\\n  \\r\\n  <!-- The javascript =============================================\\r\\n       (Placed at the end of the document so the pages load faster) -->\\r\\n  <script>\\r\\n    // this code improves bootstrap menus and adds dropdown support\\r\\n    jQuery(function(){\\r\\n      jQuery(\\\'.nav>li>a\\\').each(function(){\\t        \\r\\n        if(jQuery(this).parent().find(\\\'ul\\\').length)\\r\\n          jQuery(this).attr({\\\'class\\\':\\\'dropdown-toggle\\\',\\\'data-toggle\\\':\\\'dropdown\\\'}).append(\\\'<b class="caret"></b>\\\');\\r\\n      });\\r\\n      jQuery(\\\'.nav li li\\\').each(function(){\\t        \\r\\n        if(jQuery(this).find(\\\'ul\\\').length)\\r\\n          jQuery(this).children(\\\'a\\\').contents().before(\\\'<i class="chevron-right"></i>\\\'); \\r\\n      });\\r\\n      if(jQuery(document).width()>=980) {\\r\\n        jQuery(\\\'ul.nav li.dropdown\\\').hover(function() {\\r\\n          jQuery(this).find(\\\'.dropdown-menu\\\').stop(true, true).delay(200).fadeIn(); \\r\\n        }, function() {\\r\\n          jQuery(this).find(\\\'.dropdown-menu\\\').stop(true, true).delay(200).fadeOut(); \\r\\n        });\\r\\n      }\\r\\n      jQuery(\\\'ul.nav li.dropdown a\\\').click(function(){window.location=jQuery(this).attr(\\\'href\\\');});\\r\\n    });\\r\\n  </script>  \\r\\n  <script src="\', escape=False)\n    response.write(URL(\'static\',\'js/bootstrap.min.js\'))\n    response.write(\'"></script>  \\r\\n  <!--[if lt IE 7 ]>\\r\\n      <script src="\', escape=False)\n    response.write(URL(\'static\',\'js/dd_belatedpng.js\'))\n    response.write(\'"></script>\\r\\n      <script> DD_belatedPNG.fix(\\\'img, .png_bg\\\'); //fix any <img> or .png_bg background-images </script>\\r\\n      <![endif]-->\\r\\n  \', escape=False)\n    if response.google_analytics_id:\n        response.write(\'<script type="text/javascript"> var _gaq = _gaq || []; _gaq.push([\\\'_setAccount\\\', \\\'\', escape=False)\n        response.write(response.google_analytics_id)\n        response.write("\']); _gaq.push([\'_trackPageview\']); (function() { var ga = document.createElement(\'script\'); ga.type = \'text/javascript\'; ga.async = true; ga.src = (\'https:\' == document.location.protocol ? \'https://ssl\' : \'http://www\') + \'.google-analytics.com/ga.js\'; var s = document.getElementsByTagName(\'script\')[0]; s.parentNode.insertBefore(ga, s); })(); </script> ", escape=False)\n        pass\n    response.write(\'\\r\\n  <script src="\', escape=False)\n    response.write(URL(\'static\',\'js/share.js\',vars=dict(static=URL(\'static\',\'images\'))))\n    response.write(\'"></script>  \\r\\n</body>\\r\\n</html>\\r\\n\', escape=False)'
p7
sS'snapshot'
p8
(dp9
S'exception'
p10
(dp11
S'__module__'
p12
S"'gluon.rocket'"
p13
sS'__getslice__'
p14
S"<method-wrapper '__getslice__' of SocketTimeout object>"
p15
sS'__str__'
p16
S"<method-wrapper '__str__' of SocketTimeout object>"
p17
sS'__reduce__'
p18
S'<built-in method __reduce__ of SocketTimeout object>'
p19
sS'__dict__'
p20
S'{}'
p21
sS'__sizeof__'
p22
S'<built-in method __sizeof__ of SocketTimeout object>'
p23
sS'__weakref__'
p24
S'None'
p25
sS'__init__'
p26
S"<method-wrapper '__init__' of SocketTimeout object>"
p27
sS'__setattr__'
p28
S"<method-wrapper '__setattr__' of SocketTimeout object>"
p29
sS'__reduce_ex__'
p30
S'<built-in method __reduce_ex__ of SocketTimeout object>'
p31
sS'__new__'
p32
S'<built-in method __new__ of type object>'
p33
sS'__format__'
p34
S'<built-in method __format__ of SocketTimeout object>'
p35
sS'__class__'
p36
S"<class 'gluon.rocket.SocketTimeout'>"
p37
sS'__doc__'
p38
S"'Exception for when a socket times out between requests.'"
p39
sS'__getitem__'
p40
S"<method-wrapper '__getitem__' of SocketTimeout object>"
p41
sS'__setstate__'
p42
S'<built-in method __setstate__ of SocketTimeout object>'
p43
sS'__getattribute__'
p44
S"<method-wrapper '__getattribute__' of SocketTimeout object>"
p45
sS'args'
p46
S"('Socket timed out before request.',)"
p47
sS'__subclasshook__'
p48
S'<built-in method __subclasshook__ of type object>'
p49
sS'__unicode__'
p50
S'<built-in method __unicode__ of SocketTimeout object>'
p51
sS'__delattr__'
p52
S"<method-wrapper '__delattr__' of SocketTimeout object>"
p53
sS'__repr__'
p54
S"<method-wrapper '__repr__' of SocketTimeout object>"
p55
sS'__hash__'
p56
S"<method-wrapper '__hash__' of SocketTimeout object>"
p57
ssS'evalue'
p58
S'Socket timed out before request.'
p59
sS'frames'
p60
(lp61
(dp62
S'file'
p63
S'/home/piyush/web2py/gluon/rocket.py'
p64
sS'dump'
p65
(dp66
S'self'
p67
S'<WSGIWorker(Thread-10, started daemon -1310733504)>'
p68
sS'conn'
p69
S'<gluon.rocket.Connection object>'
p70
sS'self.run_app'
p71
S'<bound method WSGIWorker.run_app of <WSGIWorker(Thread-10, started daemon -1310733504)>>'
p72
ssS'lnum'
p73
I1302
sS'lines'
p74
(dp75
I1297
S'            # Enter connection serve loop'
p76
sI1298
S'            while True:'
p77
sI1299
S'                if __debug__:'
p78
sI1300
S"                    self.err_log.debug('Serving a request')"
p79
sI1301
S'                try:'
p80
sI1302
S'                    self.run_app(conn)'
p81
sI1303
S'                    log_info = dict(client_ip = conn.client_addr,'
p82
sI1304
S"                                    time = datetime.now().strftime('%c'),"
p83
sI1305
S"                                    status = self.status.split(' ')[0],"
p84
sI1306
S'                                    size = self.size,'
p85
ssS'call'
p86
S'(self=<WSGIWorker(Thread-10, started daemon -1310733504)>)'
p87
sS'func'
p88
S'run'
p89
sa(dp90
g63
S'/home/piyush/web2py/gluon/rocket.py'
p91
sg65
(dp92
S'self'
p93
S'<WSGIWorker(Thread-10, started daemon -1310733504)>'
p94
sS'self.environ'
p95
S"{'HTTP_ACCEPT': 'text/html,application/xhtml+xml,application/xml;q=0.9,*/*;q=0.8', 'HTTP_ACCEPT_ENCODING': 'gzip, deflate', 'HTTP_ACCEPT_LANGUAGE': 'en-us,en;q=0.5', 'HTTP_CACHE_CONTROL': 'max-age=0', 'HTTP_CONNECTION': 'keep-alive', 'HTTP_COOKIE': 'session_id_welcome=127.0.0.1-3299e4b7-9181-4336-...uk=127.0.0.1-961e4bc4-dc07-4e6c-b9f7-52a46e56ffd5', 'HTTP_HOST': 'localhost:8000', 'HTTP_USER_AGENT': 'Mozilla/5.0 (X11; Linux i686; rv:11.0) Gecko/20100101 Firefox/11.0', 'PATH_INFO': '/FotoBuk/default/show/4', 'QUERY_STRING': '', ...}"
p96
sS'sock_file'
p97
S'<socket._fileobject object>'
p98
sS'environ'
p99
S'undefined'
p100
sS'self.build_environ'
p101
S'<bound method WSGIWorker.build_environ of <WSGIWorker(Thread-10, started daemon -1310733504)>>'
p102
sS'conn'
p103
S'<gluon.rocket.Connection object>'
p104
ssg73
I1995
sg74
(dp105
I1990
S'        else:'
p106
sI1991
S'            sock_file = conn.makefile(BUF_SIZE)'
p107
sI1992
S''
sI1993
S'        try:'
p108
sI1994
S'            # Read the headers and build our WSGI environment'
p109
sI1995
S'            self.environ = environ = self.build_environ(sock_file, conn)'
p110
sI1996
S''
sI1997
S'            # Handle 100 Continue'
p111
sI1998
S"            if environ.get('HTTP_EXPECT', '') == '100-continue':"
p112
sI1999
S"                res = environ['SERVER_PROTOCOL'] + ' 100 Continue\\r\\n\\r\\n'"
p113
ssg86
S'(self=<WSGIWorker(Thread-10, started daemon -1310733504)>, conn=<gluon.rocket.Connection object>)'
p114
sg88
S'run_app'
p115
sa(dp116
g63
S'/home/piyush/web2py/gluon/rocket.py'
p117
sg65
(dp118
S'sock_file'
p119
S'<socket._fileobject object>'
p120
sS'self.read_request_line'
p121
S'<bound method WSGIWorker.read_request_line of <WSGIWorker(Thread-10, started daemon -1310733504)>>'
p122
sS'self'
p123
S'<WSGIWorker(Thread-10, started daemon -1310733504)>'
p124
sS'request'
p125
g100
ssg73
I1816
sg74
(dp126
I1811
S'                                      "wsgiorg.futures": executor.futures})'
p127
sI1812
S''
sI1813
S'    def build_environ(self, sock_file, conn):'
p128
sI1814
S'        """ Build the execution environment. """'
p129
sI1815
S'        # Grab the request line'
p130
sI1816
S'        request = self.read_request_line(sock_file)'
p131
sI1817
S''
sI1818
S'        # Copy the Base Environment'
p132
sI1819
S'        environ = self.base_environ.copy()'
p133
sI1820
S''
ssg86
S'(self=<WSGIWorker(Thread-10, started daemon -1310733504)>, sock_file=<socket._fileobject object>, conn=<gluon.rocket.Connection object>)'
p134
sg88
S'build_environ'
p135
sa(dp136
g63
S'/home/piyush/web2py/gluon/rocket.py'
p137
sg65
(dp138
S'global SocketTimeout'
p139
S"<class 'gluon.rocket.SocketTimeout'>"
p140
ssg73
I1382
sg74
(dp141
I1377
S''
sI1378
S'                d = sock_file.readline()'
p142
sI1379
S'                if PY3K:'
p143
sI1380
S"                    d = d.decode('ISO-8859-1')"
p144
sI1381
S'        except socket.timeout:'
p145
sI1382
S'            raise SocketTimeout("Socket timed out before request.")'
p146
sI1383
S'        except TypeError:'
p147
sI1384
S'            raise SocketClosed("ssl bug caused closer of socket, upgrade to python 2.7")'
p148
sI1385
S''
sI1386
S'        d = d.strip()'
p149
ssg86
S'(self=<WSGIWorker(Thread-10, started daemon -1310733504)>, sock_file=<socket._fileobject object>)'
p150
sg88
S'read_request_line'
p151
sasS'pyver'
p152
S'Python 2.7.2: /usr/bin/python'
p153
sS'etype'
p154
S"<class 'gluon.rocket.SocketTimeout'>"
p155
sS'date'
p156
S'Fri Aug 31 04:09:28 2012'
p157
sS'locals'
p158
(dp159
S'sock_file'
p160
S'<socket._fileobject object>'
p161
sS'self'
p162
S'<WSGIWorker(Thread-10, started daemon -1310733504)>'
p163
sssS'traceback'
p164
S'Traceback (most recent call last):\n  File "/home/piyush/web2py/gluon/rocket.py", line 1302, in run\n    self.run_app(conn)\n  File "/home/piyush/web2py/gluon/rocket.py", line 1995, in run_app\n    self.environ = environ = self.build_environ(sock_file, conn)\n  File "/home/piyush/web2py/gluon/rocket.py", line 1816, in build_environ\n    request = self.read_request_line(sock_file)\n  File "/home/piyush/web2py/gluon/rocket.py", line 1382, in read_request_line\n    raise SocketTimeout("Socket timed out before request.")\nSocketTimeout: Socket timed out before request.\n'
p165
s.