(dp1
S'output'
p2
S"<type 'exceptions.AttributeError'> 'DAL' object has no attribute 'images'"
p3
sS'layer'
p4
S'/home/piyush/web2py/applications/FotoBuk/controllers/default.py'
p5
sS'code'
p6
S'def index():\n    return dict()\n\n@auth.requires_login()\ndef insert():\n    form=SQLFORM(db.images)\n    return dict(form=form)\n\nresponse._vars=response._caller(insert)\n'
p7
sS'snapshot'
p8
(dp9
S'exception'
p10
(dp11
S'__hash__'
p12
S"<method-wrapper '__hash__' of exceptions.AttributeError object>"
p13
sS'__setattr__'
p14
S"<method-wrapper '__setattr__' of exceptions.AttributeError object>"
p15
sS'__reduce_ex__'
p16
S'<built-in method __reduce_ex__ of exceptions.AttributeError object>'
p17
sS'__getslice__'
p18
S"<method-wrapper '__getslice__' of exceptions.AttributeError object>"
p19
sS'__getitem__'
p20
S"<method-wrapper '__getitem__' of exceptions.AttributeError object>"
p21
sS'__setstate__'
p22
S'<built-in method __setstate__ of exceptions.AttributeError object>'
p23
sS'__reduce__'
p24
S'<built-in method __reduce__ of exceptions.AttributeError object>'
p25
sS'__str__'
p26
S"<method-wrapper '__str__' of exceptions.AttributeError object>"
p27
sS'__format__'
p28
S'<built-in method __format__ of exceptions.AttributeError object>'
p29
sS'__getattribute__'
p30
S"<method-wrapper '__getattribute__' of exceptions.AttributeError object>"
p31
sS'__class__'
p32
S"<type 'exceptions.AttributeError'>"
p33
sS'__unicode__'
p34
S'<built-in method __unicode__ of exceptions.AttributeError object>'
p35
sS'__delattr__'
p36
S"<method-wrapper '__delattr__' of exceptions.AttributeError object>"
p37
sS'__subclasshook__'
p38
S'<built-in method __subclasshook__ of type object>'
p39
sS'__repr__'
p40
S"<method-wrapper '__repr__' of exceptions.AttributeError object>"
p41
sS'args'
p42
S'("\'DAL\' object has no attribute \'images\'",)'
p43
sS'__dict__'
p44
S'{}'
p45
sS'__sizeof__'
p46
S'<built-in method __sizeof__ of exceptions.AttributeError object>'
p47
sS'__doc__'
p48
S"'Attribute not found.'"
p49
sS'__init__'
p50
S"<method-wrapper '__init__' of exceptions.AttributeError object>"
p51
sS'__new__'
p52
S'<built-in method __new__ of type object>'
p53
ssS'evalue'
p54
S"'DAL' object has no attribute 'images'"
p55
sS'request'
p56
ccopy_reg
_reconstructor
p57
(cgluon.html
BEAUTIFY
p58
c__builtin__
object
p59
NtRp60
(dp61
S'attributes'
p62
(dp63
sS'components'
p64
(lp65
g57
(cgluon.html
TABLE
p66
g59
NtRp67
(dp68
g62
(dp69
S'level'
p70
I5
ssS'parent'
p71
Nsg64
(lp72
g57
(cgluon.html
TR
p73
g59
NtRp74
(dp75
g62
(dp76
sg71
g67
sg64
(lp77
g57
(cgluon.html
TD
p78
g59
NtRp79
(dp80
g62
(dp81
S'_style'
p82
S'font-weight:bold;vertical-align:top'
p83
ssg71
g74
sg64
(lp84
S'ajax'
p85
asbag57
(g78
g59
NtRp86
(dp87
g62
(dp88
S'_valign'
p89
S'top'
p90
ssg71
g74
sg64
(lp91
S':'
asbag57
(g78
g59
NtRp92
(dp93
g62
(dp94
sg71
g74
sg64
(lp95
g57
(g58
g59
NtRp96
(dp97
g62
(dp98
g70
I5
ssg71
g92
sg64
(lp99
S'False'
p100
asbasbasbag57
(g73
g59
NtRp101
(dp102
g62
(dp103
sg71
g67
sg64
(lp104
g57
(g78
g59
NtRp105
(dp106
g62
(dp107
g82
g83
ssg71
g101
sg64
(lp108
S'application'
p109
asbag57
(g78
g59
NtRp110
(dp111
g62
(dp112
g89
g90
ssg71
g101
sg64
(lp113
S':'
asbag57
(g78
g59
NtRp114
(dp115
g62
(dp116
sg71
g101
sg64
(lp117
g57
(g58
g59
NtRp118
(dp119
g62
(dp120
g70
I5
ssg71
g114
sg64
(lp121
S'FotoBuk'
p122
asbasbasbag57
(g73
g59
NtRp123
(dp124
g62
(dp125
sg71
g67
sg64
(lp126
g57
(g78
g59
NtRp127
(dp128
g62
(dp129
g82
g83
ssg71
g123
sg64
(lp130
g42
asbag57
(g78
g59
NtRp131
(dp132
g62
(dp133
g89
g90
ssg71
g123
sg64
(lp134
S':'
asbag57
(g78
g59
NtRp135
(dp136
g62
(dp137
sg71
g123
sg64
(lp138
g57
(g58
g59
NtRp139
(dp140
g62
(dp141
g70
I5
ssg71
g135
sg64
(lp142
g57
(g66
g59
NtRp143
(dp144
g62
(dp145
g70
I4
ssg71
Nsg64
(lp146
sbasbasbasbag57
(g73
g59
NtRp147
(dp148
g62
(dp149
sg71
g67
sg64
(lp150
g57
(g78
g59
NtRp151
(dp152
g62
(dp153
g82
g83
ssg71
g147
sg64
(lp154
S'body'
p155
asbag57
(g78
g59
NtRp156
(dp157
g62
(dp158
g89
g90
ssg71
g147
sg64
(lp159
S':'
asbag57
(g78
g59
NtRp160
(dp161
g62
(dp162
sg71
g147
sg64
(lp163
g57
(g58
g59
NtRp164
(dp165
g62
(dp166
g70
I5
ssg71
g160
sg64
(lp167
S'<cStringIO.StringO object at 0xadf3c0a0>'
p168
asbasbasbag57
(g73
g59
NtRp169
(dp170
g62
(dp171
sg71
g67
sg64
(lp172
g57
(g78
g59
NtRp173
(dp174
g62
(dp175
g82
g83
ssg71
g169
sg64
(lp176
S'cid'
p177
asbag57
(g78
g59
NtRp178
(dp179
g62
(dp180
g89
g90
ssg71
g169
sg64
(lp181
S':'
asbag57
(g78
g59
NtRp182
(dp183
g62
(dp184
sg71
g169
sg64
(lp185
g57
(g58
g59
NtRp186
(dp187
g62
(dp188
g70
I5
ssg71
g182
sg64
(lp189
S'None'
p190
asbasbasbag57
(g73
g59
NtRp191
(dp192
g62
(dp193
sg71
g67
sg64
(lp194
g57
(g78
g59
NtRp195
(dp196
g62
(dp197
g82
g83
ssg71
g191
sg64
(lp198
S'client'
p199
asbag57
(g78
g59
NtRp200
(dp201
g62
(dp202
g89
g90
ssg71
g191
sg64
(lp203
S':'
asbag57
(g78
g59
NtRp204
(dp205
g62
(dp206
sg71
g191
sg64
(lp207
g57
(g58
g59
NtRp208
(dp209
g62
(dp210
g70
I5
ssg71
g204
sg64
(lp211
S'127.0.0.1'
p212
asbasbasbag57
(g73
g59
NtRp213
(dp214
g62
(dp215
sg71
g67
sg64
(lp216
g57
(g78
g59
NtRp217
(dp218
g62
(dp219
g82
g83
ssg71
g213
sg64
(lp220
S'controller'
p221
asbag57
(g78
g59
NtRp222
(dp223
g62
(dp224
g89
g90
ssg71
g213
sg64
(lp225
S':'
asbag57
(g78
g59
NtRp226
(dp227
g62
(dp228
sg71
g213
sg64
(lp229
g57
(g58
g59
NtRp230
(dp231
g62
(dp232
g70
I5
ssg71
g226
sg64
(lp233
S'default'
p234
asbasbasbag57
(g73
g59
NtRp235
(dp236
g62
(dp237
sg71
g67
sg64
(lp238
g57
(g78
g59
NtRp239
(dp240
g62
(dp241
g82
g83
ssg71
g235
sg64
(lp242
S'cookies'
p243
asbag57
(g78
g59
NtRp244
(dp245
g62
(dp246
g89
g90
ssg71
g235
sg64
(lp247
S':'
asbag57
(g78
g59
NtRp248
(dp249
g62
(dp250
sg71
g235
sg64
(lp251
g57
(g58
g59
NtRp252
(dp253
g62
(dp254
g70
I5
ssg71
g248
sg64
(lp255
g57
(g66
g59
NtRp256
(dp257
g62
(dp258
g70
I4
ssg71
Nsg64
(lp259
g57
(g73
g59
NtRp260
(dp261
g62
(dp262
sg71
g256
sg64
(lp263
g57
(g78
g59
NtRp264
(dp265
g62
(dp266
g82
g83
ssg71
g260
sg64
(lp267
S'session_id_admin'
p268
asbag57
(g78
g59
NtRp269
(dp270
g62
(dp271
g89
g90
ssg71
g260
sg64
(lp272
S':'
asbag57
(g78
g59
NtRp273
(dp274
g62
(dp275
sg71
g260
sg64
(lp276
g57
(g58
g59
NtRp277
(dp278
g62
(dp279
g70
I4
ssg71
g273
sg64
(lp280
S'127.0.0.1-f31a16a6-2f0e-474e-b0b5-7ca781ebd64d'
p281
ag57
(g66
g59
NtRp282
(dp283
g62
(dp284
g70
I3
ssg71
Nsg64
(lp285
g57
(g73
g59
NtRp286
(dp287
g62
(dp288
sg71
g282
sg64
(lp289
g57
(g78
g59
NtRp290
(dp291
g62
(dp292
g82
g83
ssg71
g286
sg64
(lp293
S'comment'
p294
asbag57
(g78
g59
NtRp295
(dp296
g62
(dp297
g89
g90
ssg71
g286
sg64
(lp298
S':'
asbag57
(g78
g59
NtRp299
(dp300
g62
(dp301
sg71
g286
sg64
(lp302
g57
(g58
g59
NtRp303
(dp304
g62
(dp305
g70
I3
ssg71
g299
sg64
(lp306
S''
asbasbasbag57
(g73
g59
NtRp307
(dp308
g62
(dp309
sg71
g282
sg64
(lp310
g57
(g78
g59
NtRp311
(dp312
g62
(dp313
g82
g83
ssg71
g307
sg64
(lp314
S'domain'
p315
asbag57
(g78
g59
NtRp316
(dp317
g62
(dp318
g89
g90
ssg71
g307
sg64
(lp319
S':'
asbag57
(g78
g59
NtRp320
(dp321
g62
(dp322
sg71
g307
sg64
(lp323
g57
(g58
g59
NtRp324
(dp325
g62
(dp326
g70
I3
ssg71
g320
sg64
(lp327
S''
asbasbasbag57
(g73
g59
NtRp328
(dp329
g62
(dp330
sg71
g282
sg64
(lp331
g57
(g78
g59
NtRp332
(dp333
g62
(dp334
g82
g83
ssg71
g328
sg64
(lp335
S'expires'
p336
asbag57
(g78
g59
NtRp337
(dp338
g62
(dp339
g89
g90
ssg71
g328
sg64
(lp340
S':'
asbag57
(g78
g59
NtRp341
(dp342
g62
(dp343
sg71
g328
sg64
(lp344
g57
(g58
g59
NtRp345
(dp346
g62
(dp347
g70
I3
ssg71
g341
sg64
(lp348
S''
asbasbasbag57
(g73
g59
NtRp349
(dp350
g62
(dp351
sg71
g282
sg64
(lp352
g57
(g78
g59
NtRp353
(dp354
g62
(dp355
g82
g83
ssg71
g349
sg64
(lp356
S'httponly'
p357
asbag57
(g78
g59
NtRp358
(dp359
g62
(dp360
g89
g90
ssg71
g349
sg64
(lp361
S':'
asbag57
(g78
g59
NtRp362
(dp363
g62
(dp364
sg71
g349
sg64
(lp365
g57
(g58
g59
NtRp366
(dp367
g62
(dp368
g70
I3
ssg71
g362
sg64
(lp369
S''
asbasbasbag57
(g73
g59
NtRp370
(dp371
g62
(dp372
sg71
g282
sg64
(lp373
g57
(g78
g59
NtRp374
(dp375
g62
(dp376
g82
g83
ssg71
g370
sg64
(lp377
S'max-age'
p378
asbag57
(g78
g59
NtRp379
(dp380
g62
(dp381
g89
g90
ssg71
g370
sg64
(lp382
S':'
asbag57
(g78
g59
NtRp383
(dp384
g62
(dp385
sg71
g370
sg64
(lp386
g57
(g58
g59
NtRp387
(dp388
g62
(dp389
g70
I3
ssg71
g383
sg64
(lp390
S''
asbasbasbag57
(g73
g59
NtRp391
(dp392
g62
(dp393
sg71
g282
sg64
(lp394
g57
(g78
g59
NtRp395
(dp396
g62
(dp397
g82
g83
ssg71
g391
sg64
(lp398
S'path'
p399
asbag57
(g78
g59
NtRp400
(dp401
g62
(dp402
g89
g90
ssg71
g391
sg64
(lp403
S':'
asbag57
(g78
g59
NtRp404
(dp405
g62
(dp406
sg71
g391
sg64
(lp407
g57
(g58
g59
NtRp408
(dp409
g62
(dp410
g70
I3
ssg71
g404
sg64
(lp411
S''
asbasbasbag57
(g73
g59
NtRp412
(dp413
g62
(dp414
sg71
g282
sg64
(lp415
g57
(g78
g59
NtRp416
(dp417
g62
(dp418
g82
g83
ssg71
g412
sg64
(lp419
S'secure'
p420
asbag57
(g78
g59
NtRp421
(dp422
g62
(dp423
g89
g90
ssg71
g412
sg64
(lp424
S':'
asbag57
(g78
g59
NtRp425
(dp426
g62
(dp427
sg71
g412
sg64
(lp428
g57
(g58
g59
NtRp429
(dp430
g62
(dp431
g70
I3
ssg71
g425
sg64
(lp432
S''
asbasbasbag57
(g73
g59
NtRp433
(dp434
g62
(dp435
sg71
g282
sg64
(lp436
g57
(g78
g59
NtRp437
(dp438
g62
(dp439
g82
g83
ssg71
g433
sg64
(lp440
S'version'
p441
asbag57
(g78
g59
NtRp442
(dp443
g62
(dp444
g89
g90
ssg71
g433
sg64
(lp445
S':'
asbag57
(g78
g59
NtRp446
(dp447
g62
(dp448
sg71
g433
sg64
(lp449
g57
(g58
g59
NtRp450
(dp451
g62
(dp452
g70
I3
ssg71
g446
sg64
(lp453
S''
asbasbasbasbasbasbasbag57
(g73
g59
NtRp454
(dp455
g62
(dp456
sg71
g256
sg64
(lp457
g57
(g78
g59
NtRp458
(dp459
g62
(dp460
g82
g83
ssg71
g454
sg64
(lp461
S'session_id_fotobuk'
p462
asbag57
(g78
g59
NtRp463
(dp464
g62
(dp465
g89
g90
ssg71
g454
sg64
(lp466
S':'
asbag57
(g78
g59
NtRp467
(dp468
g62
(dp469
sg71
g454
sg64
(lp470
g57
(g58
g59
NtRp471
(dp472
g62
(dp473
g70
I4
ssg71
g467
sg64
(lp474
S'127.0.0.1-961e4bc4-dc07-4e6c-b9f7-52a46e56ffd5'
p475
ag57
(g66
g59
NtRp476
(dp477
g62
(dp478
g70
I3
ssg71
Nsg64
(lp479
g57
(g73
g59
NtRp480
(dp481
g62
(dp482
sg71
g476
sg64
(lp483
g57
(g78
g59
NtRp484
(dp485
g62
(dp486
g82
g83
ssg71
g480
sg64
(lp487
g294
asbag57
(g78
g59
NtRp488
(dp489
g62
(dp490
g89
g90
ssg71
g480
sg64
(lp491
S':'
asbag57
(g78
g59
NtRp492
(dp493
g62
(dp494
sg71
g480
sg64
(lp495
g57
(g58
g59
NtRp496
(dp497
g62
(dp498
g70
I3
ssg71
g492
sg64
(lp499
S''
asbasbasbag57
(g73
g59
NtRp500
(dp501
g62
(dp502
sg71
g476
sg64
(lp503
g57
(g78
g59
NtRp504
(dp505
g62
(dp506
g82
g83
ssg71
g500
sg64
(lp507
g315
asbag57
(g78
g59
NtRp508
(dp509
g62
(dp510
g89
g90
ssg71
g500
sg64
(lp511
S':'
asbag57
(g78
g59
NtRp512
(dp513
g62
(dp514
sg71
g500
sg64
(lp515
g57
(g58
g59
NtRp516
(dp517
g62
(dp518
g70
I3
ssg71
g512
sg64
(lp519
S''
asbasbasbag57
(g73
g59
NtRp520
(dp521
g62
(dp522
sg71
g476
sg64
(lp523
g57
(g78
g59
NtRp524
(dp525
g62
(dp526
g82
g83
ssg71
g520
sg64
(lp527
g336
asbag57
(g78
g59
NtRp528
(dp529
g62
(dp530
g89
g90
ssg71
g520
sg64
(lp531
S':'
asbag57
(g78
g59
NtRp532
(dp533
g62
(dp534
sg71
g520
sg64
(lp535
g57
(g58
g59
NtRp536
(dp537
g62
(dp538
g70
I3
ssg71
g532
sg64
(lp539
S''
asbasbasbag57
(g73
g59
NtRp540
(dp541
g62
(dp542
sg71
g476
sg64
(lp543
g57
(g78
g59
NtRp544
(dp545
g62
(dp546
g82
g83
ssg71
g540
sg64
(lp547
g357
asbag57
(g78
g59
NtRp548
(dp549
g62
(dp550
g89
g90
ssg71
g540
sg64
(lp551
S':'
asbag57
(g78
g59
NtRp552
(dp553
g62
(dp554
sg71
g540
sg64
(lp555
g57
(g58
g59
NtRp556
(dp557
g62
(dp558
g70
I3
ssg71
g552
sg64
(lp559
S''
asbasbasbag57
(g73
g59
NtRp560
(dp561
g62
(dp562
sg71
g476
sg64
(lp563
g57
(g78
g59
NtRp564
(dp565
g62
(dp566
g82
g83
ssg71
g560
sg64
(lp567
g378
asbag57
(g78
g59
NtRp568
(dp569
g62
(dp570
g89
g90
ssg71
g560
sg64
(lp571
S':'
asbag57
(g78
g59
NtRp572
(dp573
g62
(dp574
sg71
g560
sg64
(lp575
g57
(g58
g59
NtRp576
(dp577
g62
(dp578
g70
I3
ssg71
g572
sg64
(lp579
S''
asbasbasbag57
(g73
g59
NtRp580
(dp581
g62
(dp582
sg71
g476
sg64
(lp583
g57
(g78
g59
NtRp584
(dp585
g62
(dp586
g82
g83
ssg71
g580
sg64
(lp587
g399
asbag57
(g78
g59
NtRp588
(dp589
g62
(dp590
g89
g90
ssg71
g580
sg64
(lp591
S':'
asbag57
(g78
g59
NtRp592
(dp593
g62
(dp594
sg71
g580
sg64
(lp595
g57
(g58
g59
NtRp596
(dp597
g62
(dp598
g70
I3
ssg71
g592
sg64
(lp599
S''
asbasbasbag57
(g73
g59
NtRp600
(dp601
g62
(dp602
sg71
g476
sg64
(lp603
g57
(g78
g59
NtRp604
(dp605
g62
(dp606
g82
g83
ssg71
g600
sg64
(lp607
g420
asbag57
(g78
g59
NtRp608
(dp609
g62
(dp610
g89
g90
ssg71
g600
sg64
(lp611
S':'
asbag57
(g78
g59
NtRp612
(dp613
g62
(dp614
sg71
g600
sg64
(lp615
g57
(g58
g59
NtRp616
(dp617
g62
(dp618
g70
I3
ssg71
g612
sg64
(lp619
S''
asbasbasbag57
(g73
g59
NtRp620
(dp621
g62
(dp622
sg71
g476
sg64
(lp623
g57
(g78
g59
NtRp624
(dp625
g62
(dp626
g82
g83
ssg71
g620
sg64
(lp627
g441
asbag57
(g78
g59
NtRp628
(dp629
g62
(dp630
g89
g90
ssg71
g620
sg64
(lp631
S':'
asbag57
(g78
g59
NtRp632
(dp633
g62
(dp634
sg71
g620
sg64
(lp635
g57
(g58
g59
NtRp636
(dp637
g62
(dp638
g70
I3
ssg71
g632
sg64
(lp639
S''
asbasbasbasbasbasbasbag57
(g73
g59
NtRp640
(dp641
g62
(dp642
sg71
g256
sg64
(lp643
g57
(g78
g59
NtRp644
(dp645
g62
(dp646
g82
g83
ssg71
g640
sg64
(lp647
S'session_id_ialbum'
p648
asbag57
(g78
g59
NtRp649
(dp650
g62
(dp651
g89
g90
ssg71
g640
sg64
(lp652
S':'
asbag57
(g78
g59
NtRp653
(dp654
g62
(dp655
sg71
g640
sg64
(lp656
g57
(g58
g59
NtRp657
(dp658
g62
(dp659
g70
I4
ssg71
g653
sg64
(lp660
S'127.0.0.1-8bab57f4-8655-4ca4-8b5d-11fde04576c5'
p661
ag57
(g66
g59
NtRp662
(dp663
g62
(dp664
g70
I3
ssg71
Nsg64
(lp665
g57
(g73
g59
NtRp666
(dp667
g62
(dp668
sg71
g662
sg64
(lp669
g57
(g78
g59
NtRp670
(dp671
g62
(dp672
g82
g83
ssg71
g666
sg64
(lp673
g294
asbag57
(g78
g59
NtRp674
(dp675
g62
(dp676
g89
g90
ssg71
g666
sg64
(lp677
S':'
asbag57
(g78
g59
NtRp678
(dp679
g62
(dp680
sg71
g666
sg64
(lp681
g57
(g58
g59
NtRp682
(dp683
g62
(dp684
g70
I3
ssg71
g678
sg64
(lp685
S''
asbasbasbag57
(g73
g59
NtRp686
(dp687
g62
(dp688
sg71
g662
sg64
(lp689
g57
(g78
g59
NtRp690
(dp691
g62
(dp692
g82
g83
ssg71
g686
sg64
(lp693
g315
asbag57
(g78
g59
NtRp694
(dp695
g62
(dp696
g89
g90
ssg71
g686
sg64
(lp697
S':'
asbag57
(g78
g59
NtRp698
(dp699
g62
(dp700
sg71
g686
sg64
(lp701
g57
(g58
g59
NtRp702
(dp703
g62
(dp704
g70
I3
ssg71
g698
sg64
(lp705
S''
asbasbasbag57
(g73
g59
NtRp706
(dp707
g62
(dp708
sg71
g662
sg64
(lp709
g57
(g78
g59
NtRp710
(dp711
g62
(dp712
g82
g83
ssg71
g706
sg64
(lp713
g336
asbag57
(g78
g59
NtRp714
(dp715
g62
(dp716
g89
g90
ssg71
g706
sg64
(lp717
S':'
asbag57
(g78
g59
NtRp718
(dp719
g62
(dp720
sg71
g706
sg64
(lp721
g57
(g58
g59
NtRp722
(dp723
g62
(dp724
g70
I3
ssg71
g718
sg64
(lp725
S''
asbasbasbag57
(g73
g59
NtRp726
(dp727
g62
(dp728
sg71
g662
sg64
(lp729
g57
(g78
g59
NtRp730
(dp731
g62
(dp732
g82
g83
ssg71
g726
sg64
(lp733
g357
asbag57
(g78
g59
NtRp734
(dp735
g62
(dp736
g89
g90
ssg71
g726
sg64
(lp737
S':'
asbag57
(g78
g59
NtRp738
(dp739
g62
(dp740
sg71
g726
sg64
(lp741
g57
(g58
g59
NtRp742
(dp743
g62
(dp744
g70
I3
ssg71
g738
sg64
(lp745
S''
asbasbasbag57
(g73
g59
NtRp746
(dp747
g62
(dp748
sg71
g662
sg64
(lp749
g57
(g78
g59
NtRp750
(dp751
g62
(dp752
g82
g83
ssg71
g746
sg64
(lp753
g378
asbag57
(g78
g59
NtRp754
(dp755
g62
(dp756
g89
g90
ssg71
g746
sg64
(lp757
S':'
asbag57
(g78
g59
NtRp758
(dp759
g62
(dp760
sg71
g746
sg64
(lp761
g57
(g58
g59
NtRp762
(dp763
g62
(dp764
g70
I3
ssg71
g758
sg64
(lp765
S''
asbasbasbag57
(g73
g59
NtRp766
(dp767
g62
(dp768
sg71
g662
sg64
(lp769
g57
(g78
g59
NtRp770
(dp771
g62
(dp772
g82
g83
ssg71
g766
sg64
(lp773
g399
asbag57
(g78
g59
NtRp774
(dp775
g62
(dp776
g89
g90
ssg71
g766
sg64
(lp777
S':'
asbag57
(g78
g59
NtRp778
(dp779
g62
(dp780
sg71
g766
sg64
(lp781
g57
(g58
g59
NtRp782
(dp783
g62
(dp784
g70
I3
ssg71
g778
sg64
(lp785
S''
asbasbasbag57
(g73
g59
NtRp786
(dp787
g62
(dp788
sg71
g662
sg64
(lp789
g57
(g78
g59
NtRp790
(dp791
g62
(dp792
g82
g83
ssg71
g786
sg64
(lp793
g420
asbag57
(g78
g59
NtRp794
(dp795
g62
(dp796
g89
g90
ssg71
g786
sg64
(lp797
S':'
asbag57
(g78
g59
NtRp798
(dp799
g62
(dp800
sg71
g786
sg64
(lp801
g57
(g58
g59
NtRp802
(dp803
g62
(dp804
g70
I3
ssg71
g798
sg64
(lp805
S''
asbasbasbag57
(g73
g59
NtRp806
(dp807
g62
(dp808
sg71
g662
sg64
(lp809
g57
(g78
g59
NtRp810
(dp811
g62
(dp812
g82
g83
ssg71
g806
sg64
(lp813
g441
asbag57
(g78
g59
NtRp814
(dp815
g62
(dp816
g89
g90
ssg71
g806
sg64
(lp817
S':'
asbag57
(g78
g59
NtRp818
(dp819
g62
(dp820
sg71
g806
sg64
(lp821
g57
(g58
g59
NtRp822
(dp823
g62
(dp824
g70
I3
ssg71
g818
sg64
(lp825
S''
asbasbasbasbasbasbasbag57
(g73
g59
NtRp826
(dp827
g62
(dp828
sg71
g256
sg64
(lp829
g57
(g78
g59
NtRp830
(dp831
g62
(dp832
g82
g83
ssg71
g826
sg64
(lp833
S'session_id_welcome'
p834
asbag57
(g78
g59
NtRp835
(dp836
g62
(dp837
g89
g90
ssg71
g826
sg64
(lp838
S':'
asbag57
(g78
g59
NtRp839
(dp840
g62
(dp841
sg71
g826
sg64
(lp842
g57
(g58
g59
NtRp843
(dp844
g62
(dp845
g70
I4
ssg71
g839
sg64
(lp846
S'127.0.0.1-3299e4b7-9181-4336-a2b6-d67ebc8bfe8e'
p847
ag57
(g66
g59
NtRp848
(dp849
g62
(dp850
g70
I3
ssg71
Nsg64
(lp851
g57
(g73
g59
NtRp852
(dp853
g62
(dp854
sg71
g848
sg64
(lp855
g57
(g78
g59
NtRp856
(dp857
g62
(dp858
g82
g83
ssg71
g852
sg64
(lp859
g294
asbag57
(g78
g59
NtRp860
(dp861
g62
(dp862
g89
g90
ssg71
g852
sg64
(lp863
S':'
asbag57
(g78
g59
NtRp864
(dp865
g62
(dp866
sg71
g852
sg64
(lp867
g57
(g58
g59
NtRp868
(dp869
g62
(dp870
g70
I3
ssg71
g864
sg64
(lp871
S''
asbasbasbag57
(g73
g59
NtRp872
(dp873
g62
(dp874
sg71
g848
sg64
(lp875
g57
(g78
g59
NtRp876
(dp877
g62
(dp878
g82
g83
ssg71
g872
sg64
(lp879
g315
asbag57
(g78
g59
NtRp880
(dp881
g62
(dp882
g89
g90
ssg71
g872
sg64
(lp883
S':'
asbag57
(g78
g59
NtRp884
(dp885
g62
(dp886
sg71
g872
sg64
(lp887
g57
(g58
g59
NtRp888
(dp889
g62
(dp890
g70
I3
ssg71
g884
sg64
(lp891
S''
asbasbasbag57
(g73
g59
NtRp892
(dp893
g62
(dp894
sg71
g848
sg64
(lp895
g57
(g78
g59
NtRp896
(dp897
g62
(dp898
g82
g83
ssg71
g892
sg64
(lp899
g336
asbag57
(g78
g59
NtRp900
(dp901
g62
(dp902
g89
g90
ssg71
g892
sg64
(lp903
S':'
asbag57
(g78
g59
NtRp904
(dp905
g62
(dp906
sg71
g892
sg64
(lp907
g57
(g58
g59
NtRp908
(dp909
g62
(dp910
g70
I3
ssg71
g904
sg64
(lp911
S''
asbasbasbag57
(g73
g59
NtRp912
(dp913
g62
(dp914
sg71
g848
sg64
(lp915
g57
(g78
g59
NtRp916
(dp917
g62
(dp918
g82
g83
ssg71
g912
sg64
(lp919
g357
asbag57
(g78
g59
NtRp920
(dp921
g62
(dp922
g89
g90
ssg71
g912
sg64
(lp923
S':'
asbag57
(g78
g59
NtRp924
(dp925
g62
(dp926
sg71
g912
sg64
(lp927
g57
(g58
g59
NtRp928
(dp929
g62
(dp930
g70
I3
ssg71
g924
sg64
(lp931
S''
asbasbasbag57
(g73
g59
NtRp932
(dp933
g62
(dp934
sg71
g848
sg64
(lp935
g57
(g78
g59
NtRp936
(dp937
g62
(dp938
g82
g83
ssg71
g932
sg64
(lp939
g378
asbag57
(g78
g59
NtRp940
(dp941
g62
(dp942
g89
g90
ssg71
g932
sg64
(lp943
S':'
asbag57
(g78
g59
NtRp944
(dp945
g62
(dp946
sg71
g932
sg64
(lp947
g57
(g58
g59
NtRp948
(dp949
g62
(dp950
g70
I3
ssg71
g944
sg64
(lp951
S''
asbasbasbag57
(g73
g59
NtRp952
(dp953
g62
(dp954
sg71
g848
sg64
(lp955
g57
(g78
g59
NtRp956
(dp957
g62
(dp958
g82
g83
ssg71
g952
sg64
(lp959
g399
asbag57
(g78
g59
NtRp960
(dp961
g62
(dp962
g89
g90
ssg71
g952
sg64
(lp963
S':'
asbag57
(g78
g59
NtRp964
(dp965
g62
(dp966
sg71
g952
sg64
(lp967
g57
(g58
g59
NtRp968
(dp969
g62
(dp970
g70
I3
ssg71
g964
sg64
(lp971
S''
asbasbasbag57
(g73
g59
NtRp972
(dp973
g62
(dp974
sg71
g848
sg64
(lp975
g57
(g78
g59
NtRp976
(dp977
g62
(dp978
g82
g83
ssg71
g972
sg64
(lp979
g420
asbag57
(g78
g59
NtRp980
(dp981
g62
(dp982
g89
g90
ssg71
g972
sg64
(lp983
S':'
asbag57
(g78
g59
NtRp984
(dp985
g62
(dp986
sg71
g972
sg64
(lp987
g57
(g58
g59
NtRp988
(dp989
g62
(dp990
g70
I3
ssg71
g984
sg64
(lp991
S''
asbasbasbag57
(g73
g59
NtRp992
(dp993
g62
(dp994
sg71
g848
sg64
(lp995
g57
(g78
g59
NtRp996
(dp997
g62
(dp998
g82
g83
ssg71
g992
sg64
(lp999
g441
asbag57
(g78
g59
NtRp1000
(dp1001
g62
(dp1002
g89
g90
ssg71
g992
sg64
(lp1003
S':'
asbag57
(g78
g59
NtRp1004
(dp1005
g62
(dp1006
sg71
g992
sg64
(lp1007
g57
(g58
g59
NtRp1008
(dp1009
g62
(dp1010
g70
I3
ssg71
g1004
sg64
(lp1011
S''
asbasbasbasbasbasbasbasbasbasbasbag57
(g73
g59
NtRp1012
(dp1013
g62
(dp1014
sg71
g67
sg64
(lp1015
g57
(g78
g59
NtRp1016
(dp1017
g62
(dp1018
g82
g83
ssg71
g1012
sg64
(lp1019
S'env'
p1020
asbag57
(g78
g59
NtRp1021
(dp1022
g62
(dp1023
g89
g90
ssg71
g1012
sg64
(lp1024
S':'
asbag57
(g78
g59
NtRp1025
(dp1026
g62
(dp1027
sg71
g1012
sg64
(lp1028
g57
(g58
g59
NtRp1029
(dp1030
g62
(dp1031
g70
I5
ssg71
g1025
sg64
(lp1032
g57
(g66
g59
NtRp1033
(dp1034
g62
(dp1035
g70
I4
ssg71
Nsg64
(lp1036
g57
(g73
g59
NtRp1037
(dp1038
g62
(dp1039
sg71
g1033
sg64
(lp1040
g57
(g78
g59
NtRp1041
(dp1042
g62
(dp1043
g82
g83
ssg71
g1037
sg64
(lp1044
S'app_folders'
p1045
asbag57
(g78
g59
NtRp1046
(dp1047
g62
(dp1048
g89
g90
ssg71
g1037
sg64
(lp1049
S':'
asbag57
(g78
g59
NtRp1050
(dp1051
g62
(dp1052
sg71
g1037
sg64
(lp1053
g57
(g58
g59
NtRp1054
(dp1055
g62
(dp1056
g70
I4
ssg71
g1050
sg64
(lp1057
S"set(['/home/piyush/web2py/applications/FotoBuk/', '/home/piyush/web2py/applications/welcome/', '/home/piyush/web2py/applications/admin/'])"
p1058
asbasbasbag57
(g73
g59
NtRp1059
(dp1060
g62
(dp1061
sg71
g1033
sg64
(lp1062
g57
(g78
g59
NtRp1063
(dp1064
g62
(dp1065
g82
g83
ssg71
g1059
sg64
(lp1066
S'applications_parent'
p1067
asbag57
(g78
g59
NtRp1068
(dp1069
g62
(dp1070
g89
g90
ssg71
g1059
sg64
(lp1071
S':'
asbag57
(g78
g59
NtRp1072
(dp1073
g62
(dp1074
sg71
g1059
sg64
(lp1075
g57
(g58
g59
NtRp1076
(dp1077
g62
(dp1078
g70
I4
ssg71
g1072
sg64
(lp1079
S'/home/piyush/web2py'
p1080
asbasbasbag57
(g73
g59
NtRp1081
(dp1082
g62
(dp1083
sg71
g1033
sg64
(lp1084
g57
(g78
g59
NtRp1085
(dp1086
g62
(dp1087
g82
g83
ssg71
g1081
sg64
(lp1088
S'cmd_args'
p1089
asbag57
(g78
g59
NtRp1090
(dp1091
g62
(dp1092
g89
g90
ssg71
g1081
sg64
(lp1093
S':'
asbag57
(g78
g59
NtRp1094
(dp1095
g62
(dp1096
sg71
g1081
sg64
(lp1097
g57
(g58
g59
NtRp1098
(dp1099
g62
(dp1100
g70
I4
ssg71
g1094
sg64
(lp1101
g57
(g66
g59
NtRp1102
(dp1103
g62
(dp1104
g70
I3
ssg71
Nsg64
(lp1105
sbasbasbasbag57
(g73
g59
NtRp1106
(dp1107
g62
(dp1108
sg71
g1033
sg64
(lp1109
g57
(g78
g59
NtRp1110
(dp1111
g62
(dp1112
g82
g83
ssg71
g1106
sg64
(lp1113
S'cmd_options'
p1114
asbag57
(g78
g59
NtRp1115
(dp1116
g62
(dp1117
g89
g90
ssg71
g1106
sg64
(lp1118
S':'
asbag57
(g78
g59
NtRp1119
(dp1120
g62
(dp1121
sg71
g1106
sg64
(lp1122
g57
(g58
g59
NtRp1123
(dp1124
g62
(dp1125
g70
I4
ssg71
g1119
sg64
(lp1126
S"<Values at 0x9fc030c: {'verbose': False, 'ip': '127.0.0.1', 'with_scheduler': False, 'ips': ['10.1.39.167', '10.42.0.1'], 'shutdown_timeout': 5, 'taskbar': False, 'port': 8000, 'maxthreads': None, 'softcron': False, 'server_name': 'Solo', 'bpython': False, 'nogui': False, 'nocron': False, 'extcron': False, 'run_system_tests': False, 'test': None, 'folder': '/home/piyush/web2py', 'config': '', 'import_models': False, 'winservice': '', 'shell': None, 'run': '', 'log_filename': 'httpserver.log', 'debuglevel': 30, 'args': [''], 'socket_timeout': 5, 'ssl_ca_certificate': None, 'scheduler': None, 'profiler_filename': None, 'ssl_private_key': '', 'scheduler_groups': None, 'password': '<ask>', 'request_queue_size': 5, 'ssl_certificate': '', 'cronjob': False, 'numthreads': None, 'quiet': False, 'interfaces': None, 'minthreads': None, 'timeout': 10, 'plain': False, 'nobanner': False, 'pid_filename': 'httpserver.pid'}>"
p1127
asbasbasbag57
(g73
g59
NtRp1128
(dp1129
g62
(dp1130
sg71
g1033
sg64
(lp1131
g57
(g78
g59
NtRp1132
(dp1133
g62
(dp1134
g82
g83
ssg71
g1128
sg64
(lp1135
S'db_sessions'
p1136
asbag57
(g78
g59
NtRp1137
(dp1138
g62
(dp1139
g89
g90
ssg71
g1128
sg64
(lp1140
S':'
asbag57
(g78
g59
NtRp1141
(dp1142
g62
(dp1143
sg71
g1128
sg64
(lp1144
g57
(g58
g59
NtRp1145
(dp1146
g62
(dp1147
g70
I4
ssg71
g1141
sg64
(lp1148
S'set([])'
p1149
asbasbasbag57
(g73
g59
NtRp1150
(dp1151
g62
(dp1152
sg71
g1033
sg64
(lp1153
g57
(g78
g59
NtRp1154
(dp1155
g62
(dp1156
g82
g83
ssg71
g1150
sg64
(lp1157
S'debugging'
p1158
asbag57
(g78
g59
NtRp1159
(dp1160
g62
(dp1161
g89
g90
ssg71
g1150
sg64
(lp1162
S':'
asbag57
(g78
g59
NtRp1163
(dp1164
g62
(dp1165
sg71
g1150
sg64
(lp1166
g57
(g58
g59
NtRp1167
(dp1168
g62
(dp1169
g70
I4
ssg71
g1163
sg64
(lp1170
g100
asbasbasbag57
(g73
g59
NtRp1171
(dp1172
g62
(dp1173
sg71
g1033
sg64
(lp1174
g57
(g78
g59
NtRp1175
(dp1176
g62
(dp1177
g82
g83
ssg71
g1171
sg64
(lp1178
S'gluon_parent'
p1179
asbag57
(g78
g59
NtRp1180
(dp1181
g62
(dp1182
g89
g90
ssg71
g1171
sg64
(lp1183
S':'
asbag57
(g78
g59
NtRp1184
(dp1185
g62
(dp1186
sg71
g1171
sg64
(lp1187
g57
(g58
g59
NtRp1188
(dp1189
g62
(dp1190
g70
I4
ssg71
g1184
sg64
(lp1191
S'/home/piyush/web2py'
p1192
asbasbasbag57
(g73
g59
NtRp1193
(dp1194
g62
(dp1195
sg71
g1033
sg64
(lp1196
g57
(g78
g59
NtRp1197
(dp1198
g62
(dp1199
g82
g83
ssg71
g1193
sg64
(lp1200
S'http_accept'
p1201
asbag57
(g78
g59
NtRp1202
(dp1203
g62
(dp1204
g89
g90
ssg71
g1193
sg64
(lp1205
S':'
asbag57
(g78
g59
NtRp1206
(dp1207
g62
(dp1208
sg71
g1193
sg64
(lp1209
g57
(g58
g59
NtRp1210
(dp1211
g62
(dp1212
g70
I4
ssg71
g1206
sg64
(lp1213
S'text/html,application/xhtml+xml,application/xml;q=0.9,*/*;q=0.8'
p1214
asbasbasbag57
(g73
g59
NtRp1215
(dp1216
g62
(dp1217
sg71
g1033
sg64
(lp1218
g57
(g78
g59
NtRp1219
(dp1220
g62
(dp1221
g82
g83
ssg71
g1215
sg64
(lp1222
S'http_accept_encoding'
p1223
asbag57
(g78
g59
NtRp1224
(dp1225
g62
(dp1226
g89
g90
ssg71
g1215
sg64
(lp1227
S':'
asbag57
(g78
g59
NtRp1228
(dp1229
g62
(dp1230
sg71
g1215
sg64
(lp1231
g57
(g58
g59
NtRp1232
(dp1233
g62
(dp1234
g70
I4
ssg71
g1228
sg64
(lp1235
S'gzip, deflate'
p1236
asbasbasbag57
(g73
g59
NtRp1237
(dp1238
g62
(dp1239
sg71
g1033
sg64
(lp1240
g57
(g78
g59
NtRp1241
(dp1242
g62
(dp1243
g82
g83
ssg71
g1237
sg64
(lp1244
S'http_accept_language'
p1245
asbag57
(g78
g59
NtRp1246
(dp1247
g62
(dp1248
g89
g90
ssg71
g1237
sg64
(lp1249
S':'
asbag57
(g78
g59
NtRp1250
(dp1251
g62
(dp1252
sg71
g1237
sg64
(lp1253
g57
(g58
g59
NtRp1254
(dp1255
g62
(dp1256
g70
I4
ssg71
g1250
sg64
(lp1257
S'en-us,en;q=0.5'
p1258
asbasbasbag57
(g73
g59
NtRp1259
(dp1260
g62
(dp1261
sg71
g1033
sg64
(lp1262
g57
(g78
g59
NtRp1263
(dp1264
g62
(dp1265
g82
g83
ssg71
g1259
sg64
(lp1266
S'http_cache_control'
p1267
asbag57
(g78
g59
NtRp1268
(dp1269
g62
(dp1270
g89
g90
ssg71
g1259
sg64
(lp1271
S':'
asbag57
(g78
g59
NtRp1272
(dp1273
g62
(dp1274
sg71
g1259
sg64
(lp1275
g57
(g58
g59
NtRp1276
(dp1277
g62
(dp1278
g70
I4
ssg71
g1272
sg64
(lp1279
S'max-age=0'
p1280
asbasbasbag57
(g73
g59
NtRp1281
(dp1282
g62
(dp1283
sg71
g1033
sg64
(lp1284
g57
(g78
g59
NtRp1285
(dp1286
g62
(dp1287
g82
g83
ssg71
g1281
sg64
(lp1288
S'http_connection'
p1289
asbag57
(g78
g59
NtRp1290
(dp1291
g62
(dp1292
g89
g90
ssg71
g1281
sg64
(lp1293
S':'
asbag57
(g78
g59
NtRp1294
(dp1295
g62
(dp1296
sg71
g1281
sg64
(lp1297
g57
(g58
g59
NtRp1298
(dp1299
g62
(dp1300
g70
I4
ssg71
g1294
sg64
(lp1301
S'keep-alive'
p1302
asbasbasbag57
(g73
g59
NtRp1303
(dp1304
g62
(dp1305
sg71
g1033
sg64
(lp1306
g57
(g78
g59
NtRp1307
(dp1308
g62
(dp1309
g82
g83
ssg71
g1303
sg64
(lp1310
S'http_cookie'
p1311
asbag57
(g78
g59
NtRp1312
(dp1313
g62
(dp1314
g89
g90
ssg71
g1303
sg64
(lp1315
S':'
asbag57
(g78
g59
NtRp1316
(dp1317
g62
(dp1318
sg71
g1303
sg64
(lp1319
g57
(g58
g59
NtRp1320
(dp1321
g62
(dp1322
g70
I4
ssg71
g1316
sg64
(lp1323
S'session_id_welcome=127.0.0.1-3299e4b7-9181-4336-a2b6-d67ebc8bfe8e; session_id_admin=127.0.0.1-f31a16a6-2f0e-474e-b0b5-7ca781ebd64d; session_id_ialbum=127.0.0.1-8bab57f4-8655-4ca4-8b5d-11fde04576c5; session_id_fotobuk=127.0.0.1-961e4bc4-dc07-4e6c-b9f7-52a46e56ffd5'
p1324
asbasbasbag57
(g73
g59
NtRp1325
(dp1326
g62
(dp1327
sg71
g1033
sg64
(lp1328
g57
(g78
g59
NtRp1329
(dp1330
g62
(dp1331
g82
g83
ssg71
g1325
sg64
(lp1332
S'http_host'
p1333
asbag57
(g78
g59
NtRp1334
(dp1335
g62
(dp1336
g89
g90
ssg71
g1325
sg64
(lp1337
S':'
asbag57
(g78
g59
NtRp1338
(dp1339
g62
(dp1340
sg71
g1325
sg64
(lp1341
g57
(g58
g59
NtRp1342
(dp1343
g62
(dp1344
g70
I4
ssg71
g1338
sg64
(lp1345
S'localhost:8080'
p1346
asbasbasbag57
(g73
g59
NtRp1347
(dp1348
g62
(dp1349
sg71
g1033
sg64
(lp1350
g57
(g78
g59
NtRp1351
(dp1352
g62
(dp1353
g82
g83
ssg71
g1347
sg64
(lp1354
S'http_user_agent'
p1355
asbag57
(g78
g59
NtRp1356
(dp1357
g62
(dp1358
g89
g90
ssg71
g1347
sg64
(lp1359
S':'
asbag57
(g78
g59
NtRp1360
(dp1361
g62
(dp1362
sg71
g1347
sg64
(lp1363
g57
(g58
g59
NtRp1364
(dp1365
g62
(dp1366
g70
I4
ssg71
g1360
sg64
(lp1367
S'Mozilla/5.0 (X11; Linux i686; rv:11.0) Gecko/20100101 Firefox/11.0'
p1368
asbasbasbag57
(g73
g59
NtRp1369
(dp1370
g62
(dp1371
sg71
g1033
sg64
(lp1372
g57
(g78
g59
NtRp1373
(dp1374
g62
(dp1375
g82
g83
ssg71
g1369
sg64
(lp1376
S'is_jython'
p1377
asbag57
(g78
g59
NtRp1378
(dp1379
g62
(dp1380
g89
g90
ssg71
g1369
sg64
(lp1381
S':'
asbag57
(g78
g59
NtRp1382
(dp1383
g62
(dp1384
sg71
g1369
sg64
(lp1385
g57
(g58
g59
NtRp1386
(dp1387
g62
(dp1388
g70
I4
ssg71
g1382
sg64
(lp1389
g100
asbasbasbag57
(g73
g59
NtRp1390
(dp1391
g62
(dp1392
sg71
g1033
sg64
(lp1393
g57
(g78
g59
NtRp1394
(dp1395
g62
(dp1396
g82
g83
ssg71
g1390
sg64
(lp1397
S'is_pypy'
p1398
asbag57
(g78
g59
NtRp1399
(dp1400
g62
(dp1401
g89
g90
ssg71
g1390
sg64
(lp1402
S':'
asbag57
(g78
g59
NtRp1403
(dp1404
g62
(dp1405
sg71
g1390
sg64
(lp1406
g57
(g58
g59
NtRp1407
(dp1408
g62
(dp1409
g70
I4
ssg71
g1403
sg64
(lp1410
g100
asbasbasbag57
(g73
g59
NtRp1411
(dp1412
g62
(dp1413
sg71
g1033
sg64
(lp1414
g57
(g78
g59
NtRp1415
(dp1416
g62
(dp1417
g82
g83
ssg71
g1411
sg64
(lp1418
S'path_info'
p1419
asbag57
(g78
g59
NtRp1420
(dp1421
g62
(dp1422
g89
g90
ssg71
g1411
sg64
(lp1423
S':'
asbag57
(g78
g59
NtRp1424
(dp1425
g62
(dp1426
sg71
g1411
sg64
(lp1427
g57
(g58
g59
NtRp1428
(dp1429
g62
(dp1430
g70
I4
ssg71
g1424
sg64
(lp1431
S'/FotoBuk/default/insert'
p1432
asbasbasbag57
(g73
g59
NtRp1433
(dp1434
g62
(dp1435
sg71
g1033
sg64
(lp1436
g57
(g78
g59
NtRp1437
(dp1438
g62
(dp1439
g82
g83
ssg71
g1433
sg64
(lp1440
S'query_string'
p1441
asbag57
(g78
g59
NtRp1442
(dp1443
g62
(dp1444
g89
g90
ssg71
g1433
sg64
(lp1445
S':'
asbag57
(g78
g59
NtRp1446
(dp1447
g62
(dp1448
sg71
g1433
sg64
(lp1449
g57
(g58
g59
NtRp1450
(dp1451
g62
(dp1452
g70
I4
ssg71
g1446
sg64
(lp1453
S''
asbasbasbag57
(g73
g59
NtRp1454
(dp1455
g62
(dp1456
sg71
g1033
sg64
(lp1457
g57
(g78
g59
NtRp1458
(dp1459
g62
(dp1460
g82
g83
ssg71
g1454
sg64
(lp1461
S'remote_addr'
p1462
asbag57
(g78
g59
NtRp1463
(dp1464
g62
(dp1465
g89
g90
ssg71
g1454
sg64
(lp1466
S':'
asbag57
(g78
g59
NtRp1467
(dp1468
g62
(dp1469
sg71
g1454
sg64
(lp1470
g57
(g58
g59
NtRp1471
(dp1472
g62
(dp1473
g70
I4
ssg71
g1467
sg64
(lp1474
g212
asbasbasbag57
(g73
g59
NtRp1475
(dp1476
g62
(dp1477
sg71
g1033
sg64
(lp1478
g57
(g78
g59
NtRp1479
(dp1480
g62
(dp1481
g82
g83
ssg71
g1475
sg64
(lp1482
S'remote_port'
p1483
asbag57
(g78
g59
NtRp1484
(dp1485
g62
(dp1486
g89
g90
ssg71
g1475
sg64
(lp1487
S':'
asbag57
(g78
g59
NtRp1488
(dp1489
g62
(dp1490
sg71
g1475
sg64
(lp1491
g57
(g58
g59
NtRp1492
(dp1493
g62
(dp1494
g70
I4
ssg71
g1488
sg64
(lp1495
S'40007'
p1496
asbasbasbag57
(g73
g59
NtRp1497
(dp1498
g62
(dp1499
sg71
g1033
sg64
(lp1500
g57
(g78
g59
NtRp1501
(dp1502
g62
(dp1503
g82
g83
ssg71
g1497
sg64
(lp1504
S'request_method'
p1505
asbag57
(g78
g59
NtRp1506
(dp1507
g62
(dp1508
g89
g90
ssg71
g1497
sg64
(lp1509
S':'
asbag57
(g78
g59
NtRp1510
(dp1511
g62
(dp1512
sg71
g1497
sg64
(lp1513
g57
(g58
g59
NtRp1514
(dp1515
g62
(dp1516
g70
I4
ssg71
g1510
sg64
(lp1517
S'GET'
p1518
asbasbasbag57
(g73
g59
NtRp1519
(dp1520
g62
(dp1521
sg71
g1033
sg64
(lp1522
g57
(g78
g59
NtRp1523
(dp1524
g62
(dp1525
g82
g83
ssg71
g1519
sg64
(lp1526
S'script_name'
p1527
asbag57
(g78
g59
NtRp1528
(dp1529
g62
(dp1530
g89
g90
ssg71
g1519
sg64
(lp1531
S':'
asbag57
(g78
g59
NtRp1532
(dp1533
g62
(dp1534
sg71
g1519
sg64
(lp1535
g57
(g58
g59
NtRp1536
(dp1537
g62
(dp1538
g70
I4
ssg71
g1532
sg64
(lp1539
S''
asbasbasbag57
(g73
g59
NtRp1540
(dp1541
g62
(dp1542
sg71
g1033
sg64
(lp1543
g57
(g78
g59
NtRp1544
(dp1545
g62
(dp1546
g82
g83
ssg71
g1540
sg64
(lp1547
S'server_name'
p1548
asbag57
(g78
g59
NtRp1549
(dp1550
g62
(dp1551
g89
g90
ssg71
g1540
sg64
(lp1552
S':'
asbag57
(g78
g59
NtRp1553
(dp1554
g62
(dp1555
sg71
g1540
sg64
(lp1556
g57
(g58
g59
NtRp1557
(dp1558
g62
(dp1559
g70
I4
ssg71
g1553
sg64
(lp1560
S'Solo'
p1561
asbasbasbag57
(g73
g59
NtRp1562
(dp1563
g62
(dp1564
sg71
g1033
sg64
(lp1565
g57
(g78
g59
NtRp1566
(dp1567
g62
(dp1568
g82
g83
ssg71
g1562
sg64
(lp1569
S'server_port'
p1570
asbag57
(g78
g59
NtRp1571
(dp1572
g62
(dp1573
g89
g90
ssg71
g1562
sg64
(lp1574
S':'
asbag57
(g78
g59
NtRp1575
(dp1576
g62
(dp1577
sg71
g1562
sg64
(lp1578
g57
(g58
g59
NtRp1579
(dp1580
g62
(dp1581
g70
I4
ssg71
g1575
sg64
(lp1582
S'8080'
p1583
asbasbasbag57
(g73
g59
NtRp1584
(dp1585
g62
(dp1586
sg71
g1033
sg64
(lp1587
g57
(g78
g59
NtRp1588
(dp1589
g62
(dp1590
g82
g83
ssg71
g1584
sg64
(lp1591
S'server_protocol'
p1592
asbag57
(g78
g59
NtRp1593
(dp1594
g62
(dp1595
g89
g90
ssg71
g1584
sg64
(lp1596
S':'
asbag57
(g78
g59
NtRp1597
(dp1598
g62
(dp1599
sg71
g1584
sg64
(lp1600
g57
(g58
g59
NtRp1601
(dp1602
g62
(dp1603
g70
I4
ssg71
g1597
sg64
(lp1604
S'HTTP/1.1'
p1605
asbasbasbag57
(g73
g59
NtRp1606
(dp1607
g62
(dp1608
sg71
g1033
sg64
(lp1609
g57
(g78
g59
NtRp1610
(dp1611
g62
(dp1612
g82
g83
ssg71
g1606
sg64
(lp1613
S'server_software'
p1614
asbag57
(g78
g59
NtRp1615
(dp1616
g62
(dp1617
g89
g90
ssg71
g1606
sg64
(lp1618
S':'
asbag57
(g78
g59
NtRp1619
(dp1620
g62
(dp1621
sg71
g1606
sg64
(lp1622
g57
(g58
g59
NtRp1623
(dp1624
g62
(dp1625
g70
I4
ssg71
g1619
sg64
(lp1626
S'Rocket 1.2.4'
p1627
asbasbasbag57
(g73
g59
NtRp1628
(dp1629
g62
(dp1630
sg71
g1033
sg64
(lp1631
g57
(g78
g59
NtRp1632
(dp1633
g62
(dp1634
g82
g83
ssg71
g1628
sg64
(lp1635
S'web2py_crontype'
p1636
asbag57
(g78
g59
NtRp1637
(dp1638
g62
(dp1639
g89
g90
ssg71
g1628
sg64
(lp1640
S':'
asbag57
(g78
g59
NtRp1641
(dp1642
g62
(dp1643
sg71
g1628
sg64
(lp1644
g57
(g58
g59
NtRp1645
(dp1646
g62
(dp1647
g70
I4
ssg71
g1641
sg64
(lp1648
S'hard'
p1649
asbasbasbag57
(g73
g59
NtRp1650
(dp1651
g62
(dp1652
sg71
g1033
sg64
(lp1653
g57
(g78
g59
NtRp1654
(dp1655
g62
(dp1656
g82
g83
ssg71
g1650
sg64
(lp1657
S'web2py_path'
p1658
asbag57
(g78
g59
NtRp1659
(dp1660
g62
(dp1661
g89
g90
ssg71
g1650
sg64
(lp1662
S':'
asbag57
(g78
g59
NtRp1663
(dp1664
g62
(dp1665
sg71
g1650
sg64
(lp1666
g57
(g58
g59
NtRp1667
(dp1668
g62
(dp1669
g70
I4
ssg71
g1663
sg64
(lp1670
g1080
asbasbasbag57
(g73
g59
NtRp1671
(dp1672
g62
(dp1673
sg71
g1033
sg64
(lp1674
g57
(g78
g59
NtRp1675
(dp1676
g62
(dp1677
g82
g83
ssg71
g1671
sg64
(lp1678
S'web2py_version'
p1679
asbag57
(g78
g59
NtRp1680
(dp1681
g62
(dp1682
g89
g90
ssg71
g1671
sg64
(lp1683
S':'
asbag57
(g78
g59
NtRp1684
(dp1685
g62
(dp1686
sg71
g1671
sg64
(lp1687
g57
(g58
g59
NtRp1688
(dp1689
g62
(dp1690
g70
I4
ssg71
g1684
sg64
(lp1691
g57
(g66
g59
NtRp1692
(dp1693
g62
(dp1694
g70
I3
ssg71
Nsg64
(lp1695
g57
(g73
g59
NtRp1696
(dp1697
g62
(dp1698
sg71
g1692
sg64
(lp1699
g57
(g78
g59
NtRp1700
(dp1701
g62
(dp1702
sg71
g1696
sg64
(lp1703
g57
(g58
g59
NtRp1704
(dp1705
g62
(dp1706
g70
I3
ssg71
g1700
sg64
(lp1707
S'2'
asbasbasbag57
(g73
g59
NtRp1708
(dp1709
g62
(dp1710
sg71
g1692
sg64
(lp1711
g57
(g78
g59
NtRp1712
(dp1713
g62
(dp1714
sg71
g1708
sg64
(lp1715
g57
(g58
g59
NtRp1716
(dp1717
g62
(dp1718
g70
I3
ssg71
g1712
sg64
(lp1719
S'0'
asbasbasbag57
(g73
g59
NtRp1720
(dp1721
g62
(dp1722
sg71
g1692
sg64
(lp1723
g57
(g78
g59
NtRp1724
(dp1725
g62
(dp1726
sg71
g1720
sg64
(lp1727
g57
(g58
g59
NtRp1728
(dp1729
g62
(dp1730
g70
I3
ssg71
g1724
sg64
(lp1731
S'2'
asbasbasbag57
(g73
g59
NtRp1732
(dp1733
g62
(dp1734
sg71
g1692
sg64
(lp1735
g57
(g78
g59
NtRp1736
(dp1737
g62
(dp1738
sg71
g1732
sg64
(lp1739
g57
(g58
g59
NtRp1740
(dp1741
g62
(dp1742
g70
I3
ssg71
g1736
sg64
(lp1743
S'datetime.datetime(2012, 8, 30, 4, 8, 18)'
p1744
asbasbasbag57
(g73
g59
NtRp1745
(dp1746
g62
(dp1747
sg71
g1692
sg64
(lp1748
g57
(g78
g59
NtRp1749
(dp1750
g62
(dp1751
sg71
g1745
sg64
(lp1752
g57
(g58
g59
NtRp1753
(dp1754
g62
(dp1755
g70
I3
ssg71
g1749
sg64
(lp1756
S'stable'
p1757
asbasbasbasbasbasbasbag57
(g73
g59
NtRp1758
(dp1759
g62
(dp1760
sg71
g1033
sg64
(lp1761
g57
(g78
g59
NtRp1762
(dp1763
g62
(dp1764
g82
g83
ssg71
g1758
sg64
(lp1765
S'wsgi_errors'
p1766
asbag57
(g78
g59
NtRp1767
(dp1768
g62
(dp1769
g89
g90
ssg71
g1758
sg64
(lp1770
S':'
asbag57
(g78
g59
NtRp1771
(dp1772
g62
(dp1773
sg71
g1758
sg64
(lp1774
g57
(g58
g59
NtRp1775
(dp1776
g62
(dp1777
g70
I4
ssg71
g1771
sg64
(lp1778
S"<open file '<stderr>', mode 'w' at 0xb77a40d0>"
p1779
asbasbasbag57
(g73
g59
NtRp1780
(dp1781
g62
(dp1782
sg71
g1033
sg64
(lp1783
g57
(g78
g59
NtRp1784
(dp1785
g62
(dp1786
g82
g83
ssg71
g1780
sg64
(lp1787
S'wsgi_file_wrapper'
p1788
asbag57
(g78
g59
NtRp1789
(dp1790
g62
(dp1791
g89
g90
ssg71
g1780
sg64
(lp1792
S':'
asbag57
(g78
g59
NtRp1793
(dp1794
g62
(dp1795
sg71
g1780
sg64
(lp1796
g57
(g58
g59
NtRp1797
(dp1798
g62
(dp1799
g70
I4
ssg71
g1793
sg64
(lp1800
S'<class wsgiref.util.FileWrapper at 0x9f8226c>'
p1801
asbasbasbag57
(g73
g59
NtRp1802
(dp1803
g62
(dp1804
sg71
g1033
sg64
(lp1805
g57
(g78
g59
NtRp1806
(dp1807
g62
(dp1808
g82
g83
ssg71
g1802
sg64
(lp1809
S'wsgi_input'
p1810
asbag57
(g78
g59
NtRp1811
(dp1812
g62
(dp1813
g89
g90
ssg71
g1802
sg64
(lp1814
S':'
asbag57
(g78
g59
NtRp1815
(dp1816
g62
(dp1817
sg71
g1802
sg64
(lp1818
g57
(g58
g59
NtRp1819
(dp1820
g62
(dp1821
g70
I4
ssg71
g1815
sg64
(lp1822
S'<socket._fileobject object at 0xadd861ac>'
p1823
asbasbasbag57
(g73
g59
NtRp1824
(dp1825
g62
(dp1826
sg71
g1033
sg64
(lp1827
g57
(g78
g59
NtRp1828
(dp1829
g62
(dp1830
g82
g83
ssg71
g1824
sg64
(lp1831
S'wsgi_multiprocess'
p1832
asbag57
(g78
g59
NtRp1833
(dp1834
g62
(dp1835
g89
g90
ssg71
g1824
sg64
(lp1836
S':'
asbag57
(g78
g59
NtRp1837
(dp1838
g62
(dp1839
sg71
g1824
sg64
(lp1840
g57
(g58
g59
NtRp1841
(dp1842
g62
(dp1843
g70
I4
ssg71
g1837
sg64
(lp1844
g100
asbasbasbag57
(g73
g59
NtRp1845
(dp1846
g62
(dp1847
sg71
g1033
sg64
(lp1848
g57
(g78
g59
NtRp1849
(dp1850
g62
(dp1851
g82
g83
ssg71
g1845
sg64
(lp1852
S'wsgi_multithread'
p1853
asbag57
(g78
g59
NtRp1854
(dp1855
g62
(dp1856
g89
g90
ssg71
g1845
sg64
(lp1857
S':'
asbag57
(g78
g59
NtRp1858
(dp1859
g62
(dp1860
sg71
g1845
sg64
(lp1861
g57
(g58
g59
NtRp1862
(dp1863
g62
(dp1864
g70
I4
ssg71
g1858
sg64
(lp1865
S'True'
p1866
asbasbasbag57
(g73
g59
NtRp1867
(dp1868
g62
(dp1869
sg71
g1033
sg64
(lp1870
g57
(g78
g59
NtRp1871
(dp1872
g62
(dp1873
g82
g83
ssg71
g1867
sg64
(lp1874
S'wsgi_run_once'
p1875
asbag57
(g78
g59
NtRp1876
(dp1877
g62
(dp1878
g89
g90
ssg71
g1867
sg64
(lp1879
S':'
asbag57
(g78
g59
NtRp1880
(dp1881
g62
(dp1882
sg71
g1867
sg64
(lp1883
g57
(g58
g59
NtRp1884
(dp1885
g62
(dp1886
g70
I4
ssg71
g1880
sg64
(lp1887
g100
asbasbasbag57
(g73
g59
NtRp1888
(dp1889
g62
(dp1890
sg71
g1033
sg64
(lp1891
g57
(g78
g59
NtRp1892
(dp1893
g62
(dp1894
g82
g83
ssg71
g1888
sg64
(lp1895
S'wsgi_url_scheme'
p1896
asbag57
(g78
g59
NtRp1897
(dp1898
g62
(dp1899
g89
g90
ssg71
g1888
sg64
(lp1900
S':'
asbag57
(g78
g59
NtRp1901
(dp1902
g62
(dp1903
sg71
g1888
sg64
(lp1904
g57
(g58
g59
NtRp1905
(dp1906
g62
(dp1907
g70
I4
ssg71
g1901
sg64
(lp1908
S'http'
p1909
asbasbasbag57
(g73
g59
NtRp1910
(dp1911
g62
(dp1912
sg71
g1033
sg64
(lp1913
g57
(g78
g59
NtRp1914
(dp1915
g62
(dp1916
g82
g83
ssg71
g1910
sg64
(lp1917
S'wsgi_version'
p1918
asbag57
(g78
g59
NtRp1919
(dp1920
g62
(dp1921
g89
g90
ssg71
g1910
sg64
(lp1922
S':'
asbag57
(g78
g59
NtRp1923
(dp1924
g62
(dp1925
sg71
g1910
sg64
(lp1926
g57
(g58
g59
NtRp1927
(dp1928
g62
(dp1929
g70
I4
ssg71
g1923
sg64
(lp1930
g57
(g66
g59
NtRp1931
(dp1932
g62
(dp1933
g70
I3
ssg71
Nsg64
(lp1934
g57
(g73
g59
NtRp1935
(dp1936
g62
(dp1937
sg71
g1931
sg64
(lp1938
g57
(g78
g59
NtRp1939
(dp1940
g62
(dp1941
sg71
g1935
sg64
(lp1942
g57
(g58
g59
NtRp1943
(dp1944
g62
(dp1945
g70
I3
ssg71
g1939
sg64
(lp1946
S'1'
asbasbasbag57
(g73
g59
NtRp1947
(dp1948
g62
(dp1949
sg71
g1931
sg64
(lp1950
g57
(g78
g59
NtRp1951
(dp1952
g62
(dp1953
sg71
g1947
sg64
(lp1954
g57
(g58
g59
NtRp1955
(dp1956
g62
(dp1957
g70
I3
ssg71
g1951
sg64
(lp1958
S'0'
asbasbasbasbasbasbasbasbasbasbasbag57
(g73
g59
NtRp1959
(dp1960
g62
(dp1961
sg71
g67
sg64
(lp1962
g57
(g78
g59
NtRp1963
(dp1964
g62
(dp1965
g82
g83
ssg71
g1959
sg64
(lp1966
S'extension'
p1967
asbag57
(g78
g59
NtRp1968
(dp1969
g62
(dp1970
g89
g90
ssg71
g1959
sg64
(lp1971
S':'
asbag57
(g78
g59
NtRp1972
(dp1973
g62
(dp1974
sg71
g1959
sg64
(lp1975
g57
(g58
g59
NtRp1976
(dp1977
g62
(dp1978
g70
I5
ssg71
g1972
sg64
(lp1979
S'html'
p1980
asbasbasbag57
(g73
g59
NtRp1981
(dp1982
g62
(dp1983
sg71
g67
sg64
(lp1984
g57
(g78
g59
NtRp1985
(dp1986
g62
(dp1987
g82
g83
ssg71
g1981
sg64
(lp1988
S'folder'
p1989
asbag57
(g78
g59
NtRp1990
(dp1991
g62
(dp1992
g89
g90
ssg71
g1981
sg64
(lp1993
S':'
asbag57
(g78
g59
NtRp1994
(dp1995
g62
(dp1996
sg71
g1981
sg64
(lp1997
g57
(g58
g59
NtRp1998
(dp1999
g62
(dp2000
g70
I5
ssg71
g1994
sg64
(lp2001
S'/home/piyush/web2py/applications/FotoBuk/'
p2002
asbasbasbag57
(g73
g59
NtRp2003
(dp2004
g62
(dp2005
sg71
g67
sg64
(lp2006
g57
(g78
g59
NtRp2007
(dp2008
g62
(dp2009
g82
g83
ssg71
g2003
sg64
(lp2010
S'function'
p2011
asbag57
(g78
g59
NtRp2012
(dp2013
g62
(dp2014
g89
g90
ssg71
g2003
sg64
(lp2015
S':'
asbag57
(g78
g59
NtRp2016
(dp2017
g62
(dp2018
sg71
g2003
sg64
(lp2019
g57
(g58
g59
NtRp2020
(dp2021
g62
(dp2022
g70
I5
ssg71
g2016
sg64
(lp2023
S'insert'
p2024
asbasbasbag57
(g73
g59
NtRp2025
(dp2026
g62
(dp2027
sg71
g67
sg64
(lp2028
g57
(g78
g59
NtRp2029
(dp2030
g62
(dp2031
g82
g83
ssg71
g2025
sg64
(lp2032
S'get_vars'
p2033
asbag57
(g78
g59
NtRp2034
(dp2035
g62
(dp2036
g89
g90
ssg71
g2025
sg64
(lp2037
S':'
asbag57
(g78
g59
NtRp2038
(dp2039
g62
(dp2040
sg71
g2025
sg64
(lp2041
g57
(g58
g59
NtRp2042
(dp2043
g62
(dp2044
g70
I5
ssg71
g2038
sg64
(lp2045
g57
(g66
g59
NtRp2046
(dp2047
g62
(dp2048
g70
I4
ssg71
Nsg64
(lp2049
sbasbasbasbag57
(g73
g59
NtRp2050
(dp2051
g62
(dp2052
sg71
g67
sg64
(lp2053
g57
(g78
g59
NtRp2054
(dp2055
g62
(dp2056
g82
g83
ssg71
g2050
sg64
(lp2057
S'global_settings'
p2058
asbag57
(g78
g59
NtRp2059
(dp2060
g62
(dp2061
g89
g90
ssg71
g2050
sg64
(lp2062
S':'
asbag57
(g78
g59
NtRp2063
(dp2064
g62
(dp2065
sg71
g2050
sg64
(lp2066
g57
(g58
g59
NtRp2067
(dp2068
g62
(dp2069
g70
I5
ssg71
g2063
sg64
(lp2070
g57
(g66
g59
NtRp2071
(dp2072
g62
(dp2073
g70
I4
ssg71
Nsg64
(lp2074
g57
(g73
g59
NtRp2075
(dp2076
g62
(dp2077
sg71
g2071
sg64
(lp2078
g57
(g78
g59
NtRp2079
(dp2080
g62
(dp2081
g82
g83
ssg71
g2075
sg64
(lp2082
g1045
asbag57
(g78
g59
NtRp2083
(dp2084
g62
(dp2085
g89
g90
ssg71
g2075
sg64
(lp2086
S':'
asbag57
(g78
g59
NtRp2087
(dp2088
g62
(dp2089
sg71
g2075
sg64
(lp2090
g57
(g58
g59
NtRp2091
(dp2092
g62
(dp2093
g70
I4
ssg71
g2087
sg64
(lp2094
S"set(['/home/piyush/web2py/applications/FotoBuk/', '/home/piyush/web2py/applications/welcome/', '/home/piyush/web2py/applications/admin/'])"
p2095
asbasbasbag57
(g73
g59
NtRp2096
(dp2097
g62
(dp2098
sg71
g2071
sg64
(lp2099
g57
(g78
g59
NtRp2100
(dp2101
g62
(dp2102
g82
g83
ssg71
g2096
sg64
(lp2103
g1067
asbag57
(g78
g59
NtRp2104
(dp2105
g62
(dp2106
g89
g90
ssg71
g2096
sg64
(lp2107
S':'
asbag57
(g78
g59
NtRp2108
(dp2109
g62
(dp2110
sg71
g2096
sg64
(lp2111
g57
(g58
g59
NtRp2112
(dp2113
g62
(dp2114
g70
I4
ssg71
g2108
sg64
(lp2115
g1080
asbasbasbag57
(g73
g59
NtRp2116
(dp2117
g62
(dp2118
sg71
g2071
sg64
(lp2119
g57
(g78
g59
NtRp2120
(dp2121
g62
(dp2122
g82
g83
ssg71
g2116
sg64
(lp2123
g1089
asbag57
(g78
g59
NtRp2124
(dp2125
g62
(dp2126
g89
g90
ssg71
g2116
sg64
(lp2127
S':'
asbag57
(g78
g59
NtRp2128
(dp2129
g62
(dp2130
sg71
g2116
sg64
(lp2131
g57
(g58
g59
NtRp2132
(dp2133
g62
(dp2134
g70
I4
ssg71
g2128
sg64
(lp2135
g57
(g66
g59
NtRp2136
(dp2137
g62
(dp2138
g70
I3
ssg71
Nsg64
(lp2139
sbasbasbasbag57
(g73
g59
NtRp2140
(dp2141
g62
(dp2142
sg71
g2071
sg64
(lp2143
g57
(g78
g59
NtRp2144
(dp2145
g62
(dp2146
g82
g83
ssg71
g2140
sg64
(lp2147
g1114
asbag57
(g78
g59
NtRp2148
(dp2149
g62
(dp2150
g89
g90
ssg71
g2140
sg64
(lp2151
S':'
asbag57
(g78
g59
NtRp2152
(dp2153
g62
(dp2154
sg71
g2140
sg64
(lp2155
g57
(g58
g59
NtRp2156
(dp2157
g62
(dp2158
g70
I4
ssg71
g2152
sg64
(lp2159
S"<Values at 0x9fc030c: {'verbose': False, 'ip': '127.0.0.1', 'with_scheduler': False, 'ips': ['10.1.39.167', '10.42.0.1'], 'shutdown_timeout': 5, 'taskbar': False, 'port': 8000, 'maxthreads': None, 'softcron': False, 'server_name': 'Solo', 'bpython': False, 'nogui': False, 'nocron': False, 'extcron': False, 'run_system_tests': False, 'test': None, 'folder': '/home/piyush/web2py', 'config': '', 'import_models': False, 'winservice': '', 'shell': None, 'run': '', 'log_filename': 'httpserver.log', 'debuglevel': 30, 'args': [''], 'socket_timeout': 5, 'ssl_ca_certificate': None, 'scheduler': None, 'profiler_filename': None, 'ssl_private_key': '', 'scheduler_groups': None, 'password': '<ask>', 'request_queue_size': 5, 'ssl_certificate': '', 'cronjob': False, 'numthreads': None, 'quiet': False, 'interfaces': None, 'minthreads': None, 'timeout': 10, 'plain': False, 'nobanner': False, 'pid_filename': 'httpserver.pid'}>"
p2160
asbasbasbag57
(g73
g59
NtRp2161
(dp2162
g62
(dp2163
sg71
g2071
sg64
(lp2164
g57
(g78
g59
NtRp2165
(dp2166
g62
(dp2167
g82
g83
ssg71
g2161
sg64
(lp2168
g1136
asbag57
(g78
g59
NtRp2169
(dp2170
g62
(dp2171
g89
g90
ssg71
g2161
sg64
(lp2172
S':'
asbag57
(g78
g59
NtRp2173
(dp2174
g62
(dp2175
sg71
g2161
sg64
(lp2176
g57
(g58
g59
NtRp2177
(dp2178
g62
(dp2179
g70
I4
ssg71
g2173
sg64
(lp2180
S'set([])'
p2181
asbasbasbag57
(g73
g59
NtRp2182
(dp2183
g62
(dp2184
sg71
g2071
sg64
(lp2185
g57
(g78
g59
NtRp2186
(dp2187
g62
(dp2188
g82
g83
ssg71
g2182
sg64
(lp2189
g1158
asbag57
(g78
g59
NtRp2190
(dp2191
g62
(dp2192
g89
g90
ssg71
g2182
sg64
(lp2193
S':'
asbag57
(g78
g59
NtRp2194
(dp2195
g62
(dp2196
sg71
g2182
sg64
(lp2197
g57
(g58
g59
NtRp2198
(dp2199
g62
(dp2200
g70
I4
ssg71
g2194
sg64
(lp2201
g100
asbasbasbag57
(g73
g59
NtRp2202
(dp2203
g62
(dp2204
sg71
g2071
sg64
(lp2205
g57
(g78
g59
NtRp2206
(dp2207
g62
(dp2208
g82
g83
ssg71
g2202
sg64
(lp2209
g1179
asbag57
(g78
g59
NtRp2210
(dp2211
g62
(dp2212
g89
g90
ssg71
g2202
sg64
(lp2213
S':'
asbag57
(g78
g59
NtRp2214
(dp2215
g62
(dp2216
sg71
g2202
sg64
(lp2217
g57
(g58
g59
NtRp2218
(dp2219
g62
(dp2220
g70
I4
ssg71
g2214
sg64
(lp2221
g1192
asbasbasbag57
(g73
g59
NtRp2222
(dp2223
g62
(dp2224
sg71
g2071
sg64
(lp2225
g57
(g78
g59
NtRp2226
(dp2227
g62
(dp2228
g82
g83
ssg71
g2222
sg64
(lp2229
g1377
asbag57
(g78
g59
NtRp2230
(dp2231
g62
(dp2232
g89
g90
ssg71
g2222
sg64
(lp2233
S':'
asbag57
(g78
g59
NtRp2234
(dp2235
g62
(dp2236
sg71
g2222
sg64
(lp2237
g57
(g58
g59
NtRp2238
(dp2239
g62
(dp2240
g70
I4
ssg71
g2234
sg64
(lp2241
g100
asbasbasbag57
(g73
g59
NtRp2242
(dp2243
g62
(dp2244
sg71
g2071
sg64
(lp2245
g57
(g78
g59
NtRp2246
(dp2247
g62
(dp2248
g82
g83
ssg71
g2242
sg64
(lp2249
g1398
asbag57
(g78
g59
NtRp2250
(dp2251
g62
(dp2252
g89
g90
ssg71
g2242
sg64
(lp2253
S':'
asbag57
(g78
g59
NtRp2254
(dp2255
g62
(dp2256
sg71
g2242
sg64
(lp2257
g57
(g58
g59
NtRp2258
(dp2259
g62
(dp2260
g70
I4
ssg71
g2254
sg64
(lp2261
g100
asbasbasbag57
(g73
g59
NtRp2262
(dp2263
g62
(dp2264
sg71
g2071
sg64
(lp2265
g57
(g78
g59
NtRp2266
(dp2267
g62
(dp2268
g82
g83
ssg71
g2262
sg64
(lp2269
g1636
asbag57
(g78
g59
NtRp2270
(dp2271
g62
(dp2272
g89
g90
ssg71
g2262
sg64
(lp2273
S':'
asbag57
(g78
g59
NtRp2274
(dp2275
g62
(dp2276
sg71
g2262
sg64
(lp2277
g57
(g58
g59
NtRp2278
(dp2279
g62
(dp2280
g70
I4
ssg71
g2274
sg64
(lp2281
g1649
asbasbasbag57
(g73
g59
NtRp2282
(dp2283
g62
(dp2284
sg71
g2071
sg64
(lp2285
g57
(g78
g59
NtRp2286
(dp2287
g62
(dp2288
g82
g83
ssg71
g2282
sg64
(lp2289
g1679
asbag57
(g78
g59
NtRp2290
(dp2291
g62
(dp2292
g89
g90
ssg71
g2282
sg64
(lp2293
S':'
asbag57
(g78
g59
NtRp2294
(dp2295
g62
(dp2296
sg71
g2282
sg64
(lp2297
g57
(g58
g59
NtRp2298
(dp2299
g62
(dp2300
g70
I4
ssg71
g2294
sg64
(lp2301
g57
(g66
g59
NtRp2302
(dp2303
g62
(dp2304
g70
I3
ssg71
Nsg64
(lp2305
g57
(g73
g59
NtRp2306
(dp2307
g62
(dp2308
sg71
g2302
sg64
(lp2309
g57
(g78
g59
NtRp2310
(dp2311
g62
(dp2312
sg71
g2306
sg64
(lp2313
g57
(g58
g59
NtRp2314
(dp2315
g62
(dp2316
g70
I3
ssg71
g2310
sg64
(lp2317
S'2'
asbasbasbag57
(g73
g59
NtRp2318
(dp2319
g62
(dp2320
sg71
g2302
sg64
(lp2321
g57
(g78
g59
NtRp2322
(dp2323
g62
(dp2324
sg71
g2318
sg64
(lp2325
g57
(g58
g59
NtRp2326
(dp2327
g62
(dp2328
g70
I3
ssg71
g2322
sg64
(lp2329
S'0'
asbasbasbag57
(g73
g59
NtRp2330
(dp2331
g62
(dp2332
sg71
g2302
sg64
(lp2333
g57
(g78
g59
NtRp2334
(dp2335
g62
(dp2336
sg71
g2330
sg64
(lp2337
g57
(g58
g59
NtRp2338
(dp2339
g62
(dp2340
g70
I3
ssg71
g2334
sg64
(lp2341
S'2'
asbasbasbag57
(g73
g59
NtRp2342
(dp2343
g62
(dp2344
sg71
g2302
sg64
(lp2345
g57
(g78
g59
NtRp2346
(dp2347
g62
(dp2348
sg71
g2342
sg64
(lp2349
g57
(g58
g59
NtRp2350
(dp2351
g62
(dp2352
g70
I3
ssg71
g2346
sg64
(lp2353
S'datetime.datetime(2012, 8, 30, 4, 8, 18)'
p2354
asbasbasbag57
(g73
g59
NtRp2355
(dp2356
g62
(dp2357
sg71
g2302
sg64
(lp2358
g57
(g78
g59
NtRp2359
(dp2360
g62
(dp2361
sg71
g2355
sg64
(lp2362
g57
(g58
g59
NtRp2363
(dp2364
g62
(dp2365
g70
I3
ssg71
g2359
sg64
(lp2366
g1757
asbasbasbasbasbasbasbasbasbasbasbag57
(g73
g59
NtRp2367
(dp2368
g62
(dp2369
sg71
g67
sg64
(lp2370
g57
(g78
g59
NtRp2371
(dp2372
g62
(dp2373
g82
g83
ssg71
g2367
sg64
(lp2374
S'is_https'
p2375
asbag57
(g78
g59
NtRp2376
(dp2377
g62
(dp2378
g89
g90
ssg71
g2367
sg64
(lp2379
S':'
asbag57
(g78
g59
NtRp2380
(dp2381
g62
(dp2382
sg71
g2367
sg64
(lp2383
g57
(g58
g59
NtRp2384
(dp2385
g62
(dp2386
g70
I5
ssg71
g2380
sg64
(lp2387
g100
asbasbasbag57
(g73
g59
NtRp2388
(dp2389
g62
(dp2390
sg71
g67
sg64
(lp2391
g57
(g78
g59
NtRp2392
(dp2393
g62
(dp2394
g82
g83
ssg71
g2388
sg64
(lp2395
S'is_local'
p2396
asbag57
(g78
g59
NtRp2397
(dp2398
g62
(dp2399
g89
g90
ssg71
g2388
sg64
(lp2400
S':'
asbag57
(g78
g59
NtRp2401
(dp2402
g62
(dp2403
sg71
g2388
sg64
(lp2404
g57
(g58
g59
NtRp2405
(dp2406
g62
(dp2407
g70
I5
ssg71
g2401
sg64
(lp2408
g1866
asbasbasbag57
(g73
g59
NtRp2409
(dp2410
g62
(dp2411
sg71
g67
sg64
(lp2412
g57
(g78
g59
NtRp2413
(dp2414
g62
(dp2415
g82
g83
ssg71
g2409
sg64
(lp2416
S'is_restful'
p2417
asbag57
(g78
g59
NtRp2418
(dp2419
g62
(dp2420
g89
g90
ssg71
g2409
sg64
(lp2421
S':'
asbag57
(g78
g59
NtRp2422
(dp2423
g62
(dp2424
sg71
g2409
sg64
(lp2425
g57
(g58
g59
NtRp2426
(dp2427
g62
(dp2428
g70
I5
ssg71
g2422
sg64
(lp2429
g100
asbasbasbag57
(g73
g59
NtRp2430
(dp2431
g62
(dp2432
sg71
g67
sg64
(lp2433
g57
(g78
g59
NtRp2434
(dp2435
g62
(dp2436
g82
g83
ssg71
g2430
sg64
(lp2437
S'now'
p2438
asbag57
(g78
g59
NtRp2439
(dp2440
g62
(dp2441
g89
g90
ssg71
g2430
sg64
(lp2442
S':'
asbag57
(g78
g59
NtRp2443
(dp2444
g62
(dp2445
sg71
g2430
sg64
(lp2446
g57
(g58
g59
NtRp2447
(dp2448
g62
(dp2449
g70
I5
ssg71
g2443
sg64
(lp2450
S'datetime.datetime(2012, 8, 31, 2, 32, 45, 619824)'
p2451
asbasbasbag57
(g73
g59
NtRp2452
(dp2453
g62
(dp2454
sg71
g67
sg64
(lp2455
g57
(g78
g59
NtRp2456
(dp2457
g62
(dp2458
g82
g83
ssg71
g2452
sg64
(lp2459
S'post_vars'
p2460
asbag57
(g78
g59
NtRp2461
(dp2462
g62
(dp2463
g89
g90
ssg71
g2452
sg64
(lp2464
S':'
asbag57
(g78
g59
NtRp2465
(dp2466
g62
(dp2467
sg71
g2452
sg64
(lp2468
g57
(g58
g59
NtRp2469
(dp2470
g62
(dp2471
g70
I5
ssg71
g2465
sg64
(lp2472
g57
(g66
g59
NtRp2473
(dp2474
g62
(dp2475
g70
I4
ssg71
Nsg64
(lp2476
sbasbasbasbag57
(g73
g59
NtRp2477
(dp2478
g62
(dp2479
sg71
g67
sg64
(lp2480
g57
(g78
g59
NtRp2481
(dp2482
g62
(dp2483
g82
g83
ssg71
g2477
sg64
(lp2484
S'raw_args'
p2485
asbag57
(g78
g59
NtRp2486
(dp2487
g62
(dp2488
g89
g90
ssg71
g2477
sg64
(lp2489
S':'
asbag57
(g78
g59
NtRp2490
(dp2491
g62
(dp2492
sg71
g2477
sg64
(lp2493
g57
(g58
g59
NtRp2494
(dp2495
g62
(dp2496
g70
I5
ssg71
g2490
sg64
(lp2497
S'None'
p2498
asbasbasbag57
(g73
g59
NtRp2499
(dp2500
g62
(dp2501
sg71
g67
sg64
(lp2502
g57
(g78
g59
NtRp2503
(dp2504
g62
(dp2505
g82
g83
ssg71
g2499
sg64
(lp2506
S'raw_extension'
p2507
asbag57
(g78
g59
NtRp2508
(dp2509
g62
(dp2510
g89
g90
ssg71
g2499
sg64
(lp2511
S':'
asbag57
(g78
g59
NtRp2512
(dp2513
g62
(dp2514
sg71
g2499
sg64
(lp2515
g57
(g58
g59
NtRp2516
(dp2517
g62
(dp2518
g70
I5
ssg71
g2512
sg64
(lp2519
S'None'
p2520
asbasbasbag57
(g73
g59
NtRp2521
(dp2522
g62
(dp2523
sg71
g67
sg64
(lp2524
g57
(g78
g59
NtRp2525
(dp2526
g62
(dp2527
g82
g83
ssg71
g2521
sg64
(lp2528
S'url'
p2529
asbag57
(g78
g59
NtRp2530
(dp2531
g62
(dp2532
g89
g90
ssg71
g2521
sg64
(lp2533
S':'
asbag57
(g78
g59
NtRp2534
(dp2535
g62
(dp2536
sg71
g2521
sg64
(lp2537
g57
(g58
g59
NtRp2538
(dp2539
g62
(dp2540
g70
I5
ssg71
g2534
sg64
(lp2541
S'/FotoBuk/default/insert'
p2542
asbasbasbag57
(g73
g59
NtRp2543
(dp2544
g62
(dp2545
sg71
g67
sg64
(lp2546
g57
(g78
g59
NtRp2547
(dp2548
g62
(dp2549
g82
g83
ssg71
g2543
sg64
(lp2550
S'utcnow'
p2551
asbag57
(g78
g59
NtRp2552
(dp2553
g62
(dp2554
g89
g90
ssg71
g2543
sg64
(lp2555
S':'
asbag57
(g78
g59
NtRp2556
(dp2557
g62
(dp2558
sg71
g2543
sg64
(lp2559
g57
(g58
g59
NtRp2560
(dp2561
g62
(dp2562
g70
I5
ssg71
g2556
sg64
(lp2563
S'datetime.datetime(2012, 8, 30, 21, 2, 45, 619862)'
p2564
asbasbasbag57
(g73
g59
NtRp2565
(dp2566
g62
(dp2567
sg71
g67
sg64
(lp2568
g57
(g78
g59
NtRp2569
(dp2570
g62
(dp2571
g82
g83
ssg71
g2565
sg64
(lp2572
S'uuid'
p2573
asbag57
(g78
g59
NtRp2574
(dp2575
g62
(dp2576
g89
g90
ssg71
g2565
sg64
(lp2577
S':'
asbag57
(g78
g59
NtRp2578
(dp2579
g62
(dp2580
sg71
g2565
sg64
(lp2581
g57
(g58
g59
NtRp2582
(dp2583
g62
(dp2584
g70
I5
ssg71
g2578
sg64
(lp2585
S'FotoBuk/127.0.0.1.2012-08-31.02-32-45.9745bbed-8d05-40e6-8006-0da38cf1929c'
p2586
asbasbasbag57
(g73
g59
NtRp2587
(dp2588
g62
(dp2589
sg71
g67
sg64
(lp2590
g57
(g78
g59
NtRp2591
(dp2592
g62
(dp2593
g82
g83
ssg71
g2587
sg64
(lp2594
S'vars'
p2595
asbag57
(g78
g59
NtRp2596
(dp2597
g62
(dp2598
g89
g90
ssg71
g2587
sg64
(lp2599
S':'
asbag57
(g78
g59
NtRp2600
(dp2601
g62
(dp2602
sg71
g2587
sg64
(lp2603
g57
(g58
g59
NtRp2604
(dp2605
g62
(dp2606
g70
I5
ssg71
g2600
sg64
(lp2607
g57
(g66
g59
NtRp2608
(dp2609
g62
(dp2610
g70
I4
ssg71
Nsg64
(lp2611
sbasbasbasbag57
(g73
g59
NtRp2612
(dp2613
g62
(dp2614
sg71
g67
sg64
(lp2615
g57
(g78
g59
NtRp2616
(dp2617
g62
(dp2618
g82
g83
ssg71
g2612
sg64
(lp2619
S'wsgi'
p2620
asbag57
(g78
g59
NtRp2621
(dp2622
g62
(dp2623
g89
g90
ssg71
g2612
sg64
(lp2624
S':'
asbag57
(g78
g59
NtRp2625
(dp2626
g62
(dp2627
sg71
g2612
sg64
(lp2628
g57
(g58
g59
NtRp2629
(dp2630
g62
(dp2631
g70
I5
ssg71
g2625
sg64
(lp2632
g57
(g66
g59
NtRp2633
(dp2634
g62
(dp2635
g70
I4
ssg71
Nsg64
(lp2636
g57
(g73
g59
NtRp2637
(dp2638
g62
(dp2639
sg71
g2633
sg64
(lp2640
g57
(g78
g59
NtRp2641
(dp2642
g62
(dp2643
g82
g83
ssg71
g2637
sg64
(lp2644
S'environ'
p2645
asbag57
(g78
g59
NtRp2646
(dp2647
g62
(dp2648
g89
g90
ssg71
g2637
sg64
(lp2649
S':'
asbag57
(g78
g59
NtRp2650
(dp2651
g62
(dp2652
sg71
g2637
sg64
(lp2653
g57
(g58
g59
NtRp2654
(dp2655
g62
(dp2656
g70
I4
ssg71
g2650
sg64
(lp2657
g57
(g66
g59
NtRp2658
(dp2659
g62
(dp2660
g70
I3
ssg71
Nsg64
(lp2661
g57
(g73
g59
NtRp2662
(dp2663
g62
(dp2664
sg71
g2658
sg64
(lp2665
g57
(g78
g59
NtRp2666
(dp2667
g62
(dp2668
g82
g83
ssg71
g2662
sg64
(lp2669
S'HTTP_ACCEPT'
p2670
asbag57
(g78
g59
NtRp2671
(dp2672
g62
(dp2673
g89
g90
ssg71
g2662
sg64
(lp2674
S':'
asbag57
(g78
g59
NtRp2675
(dp2676
g62
(dp2677
sg71
g2662
sg64
(lp2678
g57
(g58
g59
NtRp2679
(dp2680
g62
(dp2681
g70
I3
ssg71
g2675
sg64
(lp2682
g1214
asbasbasbag57
(g73
g59
NtRp2683
(dp2684
g62
(dp2685
sg71
g2658
sg64
(lp2686
g57
(g78
g59
NtRp2687
(dp2688
g62
(dp2689
g82
g83
ssg71
g2683
sg64
(lp2690
S'HTTP_ACCEPT_ENCODING'
p2691
asbag57
(g78
g59
NtRp2692
(dp2693
g62
(dp2694
g89
g90
ssg71
g2683
sg64
(lp2695
S':'
asbag57
(g78
g59
NtRp2696
(dp2697
g62
(dp2698
sg71
g2683
sg64
(lp2699
g57
(g58
g59
NtRp2700
(dp2701
g62
(dp2702
g70
I3
ssg71
g2696
sg64
(lp2703
g1236
asbasbasbag57
(g73
g59
NtRp2704
(dp2705
g62
(dp2706
sg71
g2658
sg64
(lp2707
g57
(g78
g59
NtRp2708
(dp2709
g62
(dp2710
g82
g83
ssg71
g2704
sg64
(lp2711
S'HTTP_ACCEPT_LANGUAGE'
p2712
asbag57
(g78
g59
NtRp2713
(dp2714
g62
(dp2715
g89
g90
ssg71
g2704
sg64
(lp2716
S':'
asbag57
(g78
g59
NtRp2717
(dp2718
g62
(dp2719
sg71
g2704
sg64
(lp2720
g57
(g58
g59
NtRp2721
(dp2722
g62
(dp2723
g70
I3
ssg71
g2717
sg64
(lp2724
g1258
asbasbasbag57
(g73
g59
NtRp2725
(dp2726
g62
(dp2727
sg71
g2658
sg64
(lp2728
g57
(g78
g59
NtRp2729
(dp2730
g62
(dp2731
g82
g83
ssg71
g2725
sg64
(lp2732
S'HTTP_CACHE_CONTROL'
p2733
asbag57
(g78
g59
NtRp2734
(dp2735
g62
(dp2736
g89
g90
ssg71
g2725
sg64
(lp2737
S':'
asbag57
(g78
g59
NtRp2738
(dp2739
g62
(dp2740
sg71
g2725
sg64
(lp2741
g57
(g58
g59
NtRp2742
(dp2743
g62
(dp2744
g70
I3
ssg71
g2738
sg64
(lp2745
g1280
asbasbasbag57
(g73
g59
NtRp2746
(dp2747
g62
(dp2748
sg71
g2658
sg64
(lp2749
g57
(g78
g59
NtRp2750
(dp2751
g62
(dp2752
g82
g83
ssg71
g2746
sg64
(lp2753
S'HTTP_CONNECTION'
p2754
asbag57
(g78
g59
NtRp2755
(dp2756
g62
(dp2757
g89
g90
ssg71
g2746
sg64
(lp2758
S':'
asbag57
(g78
g59
NtRp2759
(dp2760
g62
(dp2761
sg71
g2746
sg64
(lp2762
g57
(g58
g59
NtRp2763
(dp2764
g62
(dp2765
g70
I3
ssg71
g2759
sg64
(lp2766
g1302
asbasbasbag57
(g73
g59
NtRp2767
(dp2768
g62
(dp2769
sg71
g2658
sg64
(lp2770
g57
(g78
g59
NtRp2771
(dp2772
g62
(dp2773
g82
g83
ssg71
g2767
sg64
(lp2774
S'HTTP_COOKIE'
p2775
asbag57
(g78
g59
NtRp2776
(dp2777
g62
(dp2778
g89
g90
ssg71
g2767
sg64
(lp2779
S':'
asbag57
(g78
g59
NtRp2780
(dp2781
g62
(dp2782
sg71
g2767
sg64
(lp2783
g57
(g58
g59
NtRp2784
(dp2785
g62
(dp2786
g70
I3
ssg71
g2780
sg64
(lp2787
g1324
asbasbasbag57
(g73
g59
NtRp2788
(dp2789
g62
(dp2790
sg71
g2658
sg64
(lp2791
g57
(g78
g59
NtRp2792
(dp2793
g62
(dp2794
g82
g83
ssg71
g2788
sg64
(lp2795
S'HTTP_HOST'
p2796
asbag57
(g78
g59
NtRp2797
(dp2798
g62
(dp2799
g89
g90
ssg71
g2788
sg64
(lp2800
S':'
asbag57
(g78
g59
NtRp2801
(dp2802
g62
(dp2803
sg71
g2788
sg64
(lp2804
g57
(g58
g59
NtRp2805
(dp2806
g62
(dp2807
g70
I3
ssg71
g2801
sg64
(lp2808
g1346
asbasbasbag57
(g73
g59
NtRp2809
(dp2810
g62
(dp2811
sg71
g2658
sg64
(lp2812
g57
(g78
g59
NtRp2813
(dp2814
g62
(dp2815
g82
g83
ssg71
g2809
sg64
(lp2816
S'HTTP_USER_AGENT'
p2817
asbag57
(g78
g59
NtRp2818
(dp2819
g62
(dp2820
g89
g90
ssg71
g2809
sg64
(lp2821
S':'
asbag57
(g78
g59
NtRp2822
(dp2823
g62
(dp2824
sg71
g2809
sg64
(lp2825
g57
(g58
g59
NtRp2826
(dp2827
g62
(dp2828
g70
I3
ssg71
g2822
sg64
(lp2829
g1368
asbasbasbag57
(g73
g59
NtRp2830
(dp2831
g62
(dp2832
sg71
g2658
sg64
(lp2833
g57
(g78
g59
NtRp2834
(dp2835
g62
(dp2836
g82
g83
ssg71
g2830
sg64
(lp2837
S'PATH_INFO'
p2838
asbag57
(g78
g59
NtRp2839
(dp2840
g62
(dp2841
g89
g90
ssg71
g2830
sg64
(lp2842
S':'
asbag57
(g78
g59
NtRp2843
(dp2844
g62
(dp2845
sg71
g2830
sg64
(lp2846
g57
(g58
g59
NtRp2847
(dp2848
g62
(dp2849
g70
I3
ssg71
g2843
sg64
(lp2850
g1432
asbasbasbag57
(g73
g59
NtRp2851
(dp2852
g62
(dp2853
sg71
g2658
sg64
(lp2854
g57
(g78
g59
NtRp2855
(dp2856
g62
(dp2857
g82
g83
ssg71
g2851
sg64
(lp2858
S'QUERY_STRING'
p2859
asbag57
(g78
g59
NtRp2860
(dp2861
g62
(dp2862
g89
g90
ssg71
g2851
sg64
(lp2863
S':'
asbag57
(g78
g59
NtRp2864
(dp2865
g62
(dp2866
sg71
g2851
sg64
(lp2867
g57
(g58
g59
NtRp2868
(dp2869
g62
(dp2870
g70
I3
ssg71
g2864
sg64
(lp2871
S''
asbasbasbag57
(g73
g59
NtRp2872
(dp2873
g62
(dp2874
sg71
g2658
sg64
(lp2875
g57
(g78
g59
NtRp2876
(dp2877
g62
(dp2878
g82
g83
ssg71
g2872
sg64
(lp2879
S'REMOTE_ADDR'
p2880
asbag57
(g78
g59
NtRp2881
(dp2882
g62
(dp2883
g89
g90
ssg71
g2872
sg64
(lp2884
S':'
asbag57
(g78
g59
NtRp2885
(dp2886
g62
(dp2887
sg71
g2872
sg64
(lp2888
g57
(g58
g59
NtRp2889
(dp2890
g62
(dp2891
g70
I3
ssg71
g2885
sg64
(lp2892
g212
asbasbasbag57
(g73
g59
NtRp2893
(dp2894
g62
(dp2895
sg71
g2658
sg64
(lp2896
g57
(g78
g59
NtRp2897
(dp2898
g62
(dp2899
g82
g83
ssg71
g2893
sg64
(lp2900
S'REMOTE_PORT'
p2901
asbag57
(g78
g59
NtRp2902
(dp2903
g62
(dp2904
g89
g90
ssg71
g2893
sg64
(lp2905
S':'
asbag57
(g78
g59
NtRp2906
(dp2907
g62
(dp2908
sg71
g2893
sg64
(lp2909
g57
(g58
g59
NtRp2910
(dp2911
g62
(dp2912
g70
I3
ssg71
g2906
sg64
(lp2913
g1496
asbasbasbag57
(g73
g59
NtRp2914
(dp2915
g62
(dp2916
sg71
g2658
sg64
(lp2917
g57
(g78
g59
NtRp2918
(dp2919
g62
(dp2920
g82
g83
ssg71
g2914
sg64
(lp2921
S'REQUEST_METHOD'
p2922
asbag57
(g78
g59
NtRp2923
(dp2924
g62
(dp2925
g89
g90
ssg71
g2914
sg64
(lp2926
S':'
asbag57
(g78
g59
NtRp2927
(dp2928
g62
(dp2929
sg71
g2914
sg64
(lp2930
g57
(g58
g59
NtRp2931
(dp2932
g62
(dp2933
g70
I3
ssg71
g2927
sg64
(lp2934
g1518
asbasbasbag57
(g73
g59
NtRp2935
(dp2936
g62
(dp2937
sg71
g2658
sg64
(lp2938
g57
(g78
g59
NtRp2939
(dp2940
g62
(dp2941
g82
g83
ssg71
g2935
sg64
(lp2942
S'SCRIPT_NAME'
p2943
asbag57
(g78
g59
NtRp2944
(dp2945
g62
(dp2946
g89
g90
ssg71
g2935
sg64
(lp2947
S':'
asbag57
(g78
g59
NtRp2948
(dp2949
g62
(dp2950
sg71
g2935
sg64
(lp2951
g57
(g58
g59
NtRp2952
(dp2953
g62
(dp2954
g70
I3
ssg71
g2948
sg64
(lp2955
S''
asbasbasbag57
(g73
g59
NtRp2956
(dp2957
g62
(dp2958
sg71
g2658
sg64
(lp2959
g57
(g78
g59
NtRp2960
(dp2961
g62
(dp2962
g82
g83
ssg71
g2956
sg64
(lp2963
S'SERVER_NAME'
p2964
asbag57
(g78
g59
NtRp2965
(dp2966
g62
(dp2967
g89
g90
ssg71
g2956
sg64
(lp2968
S':'
asbag57
(g78
g59
NtRp2969
(dp2970
g62
(dp2971
sg71
g2956
sg64
(lp2972
g57
(g58
g59
NtRp2973
(dp2974
g62
(dp2975
g70
I3
ssg71
g2969
sg64
(lp2976
g1561
asbasbasbag57
(g73
g59
NtRp2977
(dp2978
g62
(dp2979
sg71
g2658
sg64
(lp2980
g57
(g78
g59
NtRp2981
(dp2982
g62
(dp2983
g82
g83
ssg71
g2977
sg64
(lp2984
S'SERVER_PORT'
p2985
asbag57
(g78
g59
NtRp2986
(dp2987
g62
(dp2988
g89
g90
ssg71
g2977
sg64
(lp2989
S':'
asbag57
(g78
g59
NtRp2990
(dp2991
g62
(dp2992
sg71
g2977
sg64
(lp2993
g57
(g58
g59
NtRp2994
(dp2995
g62
(dp2996
g70
I3
ssg71
g2990
sg64
(lp2997
g1583
asbasbasbag57
(g73
g59
NtRp2998
(dp2999
g62
(dp3000
sg71
g2658
sg64
(lp3001
g57
(g78
g59
NtRp3002
(dp3003
g62
(dp3004
g82
g83
ssg71
g2998
sg64
(lp3005
S'SERVER_PROTOCOL'
p3006
asbag57
(g78
g59
NtRp3007
(dp3008
g62
(dp3009
g89
g90
ssg71
g2998
sg64
(lp3010
S':'
asbag57
(g78
g59
NtRp3011
(dp3012
g62
(dp3013
sg71
g2998
sg64
(lp3014
g57
(g58
g59
NtRp3015
(dp3016
g62
(dp3017
g70
I3
ssg71
g3011
sg64
(lp3018
g1605
asbasbasbag57
(g73
g59
NtRp3019
(dp3020
g62
(dp3021
sg71
g2658
sg64
(lp3022
g57
(g78
g59
NtRp3023
(dp3024
g62
(dp3025
g82
g83
ssg71
g3019
sg64
(lp3026
S'SERVER_SOFTWARE'
p3027
asbag57
(g78
g59
NtRp3028
(dp3029
g62
(dp3030
g89
g90
ssg71
g3019
sg64
(lp3031
S':'
asbag57
(g78
g59
NtRp3032
(dp3033
g62
(dp3034
sg71
g3019
sg64
(lp3035
g57
(g58
g59
NtRp3036
(dp3037
g62
(dp3038
g70
I3
ssg71
g3032
sg64
(lp3039
g1627
asbasbasbag57
(g73
g59
NtRp3040
(dp3041
g62
(dp3042
sg71
g2658
sg64
(lp3043
g57
(g78
g59
NtRp3044
(dp3045
g62
(dp3046
g82
g83
ssg71
g3040
sg64
(lp3047
S'wsgi.errors'
p3048
asbag57
(g78
g59
NtRp3049
(dp3050
g62
(dp3051
g89
g90
ssg71
g3040
sg64
(lp3052
S':'
asbag57
(g78
g59
NtRp3053
(dp3054
g62
(dp3055
sg71
g3040
sg64
(lp3056
g57
(g58
g59
NtRp3057
(dp3058
g62
(dp3059
g70
I3
ssg71
g3053
sg64
(lp3060
S"<open file '<stderr>', mode 'w' at 0xb77a40d0>"
p3061
asbasbasbag57
(g73
g59
NtRp3062
(dp3063
g62
(dp3064
sg71
g2658
sg64
(lp3065
g57
(g78
g59
NtRp3066
(dp3067
g62
(dp3068
g82
g83
ssg71
g3062
sg64
(lp3069
S'wsgi.file_wrapper'
p3070
asbag57
(g78
g59
NtRp3071
(dp3072
g62
(dp3073
g89
g90
ssg71
g3062
sg64
(lp3074
S':'
asbag57
(g78
g59
NtRp3075
(dp3076
g62
(dp3077
sg71
g3062
sg64
(lp3078
g57
(g58
g59
NtRp3079
(dp3080
g62
(dp3081
g70
I3
ssg71
g3075
sg64
(lp3082
S'<class wsgiref.util.FileWrapper at 0x9f8226c>'
p3083
asbasbasbag57
(g73
g59
NtRp3084
(dp3085
g62
(dp3086
sg71
g2658
sg64
(lp3087
g57
(g78
g59
NtRp3088
(dp3089
g62
(dp3090
g82
g83
ssg71
g3084
sg64
(lp3091
S'wsgi.input'
p3092
asbag57
(g78
g59
NtRp3093
(dp3094
g62
(dp3095
g89
g90
ssg71
g3084
sg64
(lp3096
S':'
asbag57
(g78
g59
NtRp3097
(dp3098
g62
(dp3099
sg71
g3084
sg64
(lp3100
g57
(g58
g59
NtRp3101
(dp3102
g62
(dp3103
g70
I3
ssg71
g3097
sg64
(lp3104
S'<cStringIO.StringO object at 0xadf3c0a0>'
p3105
asbasbasbag57
(g73
g59
NtRp3106
(dp3107
g62
(dp3108
sg71
g2658
sg64
(lp3109
g57
(g78
g59
NtRp3110
(dp3111
g62
(dp3112
g82
g83
ssg71
g3106
sg64
(lp3113
S'wsgi.multiprocess'
p3114
asbag57
(g78
g59
NtRp3115
(dp3116
g62
(dp3117
g89
g90
ssg71
g3106
sg64
(lp3118
S':'
asbag57
(g78
g59
NtRp3119
(dp3120
g62
(dp3121
sg71
g3106
sg64
(lp3122
g57
(g58
g59
NtRp3123
(dp3124
g62
(dp3125
g70
I3
ssg71
g3119
sg64
(lp3126
g100
asbasbasbag57
(g73
g59
NtRp3127
(dp3128
g62
(dp3129
sg71
g2658
sg64
(lp3130
g57
(g78
g59
NtRp3131
(dp3132
g62
(dp3133
g82
g83
ssg71
g3127
sg64
(lp3134
S'wsgi.multithread'
p3135
asbag57
(g78
g59
NtRp3136
(dp3137
g62
(dp3138
g89
g90
ssg71
g3127
sg64
(lp3139
S':'
asbag57
(g78
g59
NtRp3140
(dp3141
g62
(dp3142
sg71
g3127
sg64
(lp3143
g57
(g58
g59
NtRp3144
(dp3145
g62
(dp3146
g70
I3
ssg71
g3140
sg64
(lp3147
g1866
asbasbasbag57
(g73
g59
NtRp3148
(dp3149
g62
(dp3150
sg71
g2658
sg64
(lp3151
g57
(g78
g59
NtRp3152
(dp3153
g62
(dp3154
g82
g83
ssg71
g3148
sg64
(lp3155
S'wsgi.run_once'
p3156
asbag57
(g78
g59
NtRp3157
(dp3158
g62
(dp3159
g89
g90
ssg71
g3148
sg64
(lp3160
S':'
asbag57
(g78
g59
NtRp3161
(dp3162
g62
(dp3163
sg71
g3148
sg64
(lp3164
g57
(g58
g59
NtRp3165
(dp3166
g62
(dp3167
g70
I3
ssg71
g3161
sg64
(lp3168
g100
asbasbasbag57
(g73
g59
NtRp3169
(dp3170
g62
(dp3171
sg71
g2658
sg64
(lp3172
g57
(g78
g59
NtRp3173
(dp3174
g62
(dp3175
g82
g83
ssg71
g3169
sg64
(lp3176
S'wsgi.url_scheme'
p3177
asbag57
(g78
g59
NtRp3178
(dp3179
g62
(dp3180
g89
g90
ssg71
g3169
sg64
(lp3181
S':'
asbag57
(g78
g59
NtRp3182
(dp3183
g62
(dp3184
sg71
g3169
sg64
(lp3185
g57
(g58
g59
NtRp3186
(dp3187
g62
(dp3188
g70
I3
ssg71
g3182
sg64
(lp3189
g1909
asbasbasbag57
(g73
g59
NtRp3190
(dp3191
g62
(dp3192
sg71
g2658
sg64
(lp3193
g57
(g78
g59
NtRp3194
(dp3195
g62
(dp3196
g82
g83
ssg71
g3190
sg64
(lp3197
S'wsgi.version'
p3198
asbag57
(g78
g59
NtRp3199
(dp3200
g62
(dp3201
g89
g90
ssg71
g3190
sg64
(lp3202
S':'
asbag57
(g78
g59
NtRp3203
(dp3204
g62
(dp3205
sg71
g3190
sg64
(lp3206
g57
(g58
g59
NtRp3207
(dp3208
g62
(dp3209
g70
I3
ssg71
g3203
sg64
(lp3210
S'1'
asbasbasbasbasbasbasbasbasbasbasbasbasbsS'frames'
p3211
(lp3212
(dp3213
S'file'
p3214
S'/home/piyush/web2py/gluon/restricted.py'
p3215
sS'dump'
p3216
(dp3217
S'environment'
p3218
S"{'A': <class 'gluon.html.A'>, 'Auth': <class 'gluon.tools.Auth'>, 'B': <class 'gluon.html.B'>, 'BEAUTIFY': <class 'gluon.html.BEAUTIFY'>, 'BODY': <class 'gluon.html.BODY'>, 'BR': <class 'gluon.html.BR'>, 'BUTTON': <class 'gluon.html.BUTTON'>, 'CAT': <class 'gluon.html.CAT'>, 'CENTER': <class 'gluon.html.CENTER'>, 'CLEANUP': <class 'gluon.validators.CLEANUP'>, ...}"
p3219
sS'ccode'
p3220
S'<code object <module> at 0xb39364e8, file "/home...ications/FotoBuk/controllers/default.py", line 1>'
p3221
ssS'lnum'
p3222
I209
sS'lines'
p3223
(dp3224
I204
S'    try:'
p3225
sI205
S'        if type(code) == types.CodeType:'
p3226
sI206
S'            ccode = code'
p3227
sI207
S'        else:'
p3228
sI208
S'            ccode = compile2(code,layer)'
p3229
sI209
S'        exec ccode in environment'
p3230
sI210
S'    except HTTP:'
p3231
sI211
S'        raise'
p3232
sI212
S'    except RestrictedError:'
p3233
sI213
S'        # do not encapsulate (obfuscate) the original RestrictedError'
p3234
ssS'call'
p3235
S"(code='def index():\\n    return dict()\\n\\n@auth.requires_l...m=form)\\n\\nresponse._vars=response._caller(insert)\\n', environment={'A': <class 'gluon.html.A'>, 'Auth': <class 'gluon.tools.Auth'>, 'B': <class 'gluon.html.B'>, 'BEAUTIFY': <class 'gluon.html.BEAUTIFY'>, 'BODY': <class 'gluon.html.BODY'>, 'BR': <class 'gluon.html.BR'>, 'BUTTON': <class 'gluon.html.BUTTON'>, 'CAT': <class 'gluon.html.CAT'>, 'CENTER': <class 'gluon.html.CENTER'>, 'CLEANUP': <class 'gluon.validators.CLEANUP'>, ...}, layer='/home/piyush/web2py/applications/FotoBuk/controllers/default.py')"
p3236
sS'func'
p3237
S'restricted'
p3238
sa(dp3239
g3214
S'/home/piyush/web2py/applications/FotoBuk/controllers/default.py'
p3240
sg3216
(dp3241
sg3222
I9
sg3223
(dp3242
I1
S'def index():'
p3243
sI2
S'    return dict()'
p3244
sI3
S''
sI4
S'@auth.requires_login()'
p3245
sI5
S'def insert():'
p3246
sI6
S'    form=SQLFORM(db.images)'
p3247
sI7
S'    return dict(form=form)'
p3248
ssg3235
S'()'
p3249
sg3237
S'<module>'
p3250
sa(dp3251
g3214
S'/home/piyush/web2py/gluon/globals.py'
p3252
sg3216
(dp3253
S'self'
p3254
S'undefined'
p3255
sS'f'
S'<function insert>'
p3256
ssg3222
I185
sg3223
(dp3257
I180
S'        self.menu = []             # used by the default view layout'
p3258
sI181
S'        self.files = []            # used by web2py_ajax.html'
p3259
sI182
S'        self.generic_patterns = [] # patterns to allow generic views'
p3260
sI183
S"        self.delimiters = ('{{','}}')"
p3261
sI184
S'        self._vars = None'
p3262
sI185
S'        self._caller = lambda f: f()'
p3263
sI186
S'        self._view_environment = None'
p3264
sI187
S'        self._custom_commit = None'
p3265
sI188
S'        self._custom_rollback = None'
p3266
sI189
S''
ssg3235
S'(f=<function insert>)'
p3267
sg3237
S'<lambda>'
p3268
sa(dp3269
g3214
S'/home/piyush/web2py/gluon/tools.py'
p3270
sg3216
(dp3271
S'action'
p3272
S'<function insert>'
p3273
sS'a'
S'()'
p3274
sS'b'
g45
ssg3222
I2776
sg3223
(dp3275
I2771
S'                    flag = condition'
p3276
sI2772
S'                if not flag:'
p3277
sI2773
S'                    current.session.flash = self.messages.access_denied'
p3278
sI2774
S'                    return call_or_redirect('
p3279
sI2775
S'                        self.settings.on_failed_authorization)'
p3280
sI2776
S'                return action(*a, **b)'
p3281
sI2777
S'            f.__doc__ = action.__doc__'
p3282
sI2778
S'            f.__name__ = action.__name__'
p3283
sI2779
S'            f.__dict__.update(action.__dict__)'
p3284
sI2780
S'            return f'
p3285
ssg3235
S'(*a=(), **b={})'
p3286
sg3237
S'f'
sa(dp3287
g3214
S'/home/piyush/web2py/applications/FotoBuk/controllers/default.py'
p3288
sg3216
(dp3289
S'global db'
p3290
S'<DAL sqlite://storage.sqlite>'
p3291
sS'global SQLFORM'
p3292
S"<class 'gluon.sqlhtml.SQLFORM'>"
p3293
sS'db.images'
p3294
g3255
sS'form'
p3295
g3255
ssg3222
I6
sg3223
(dp3296
I1
S'def index():'
p3297
sI2
S'    return dict()'
p3298
sI3
S''
sI4
S'@auth.requires_login()'
p3299
sI5
S'def insert():'
p3300
sI6
S'    form=SQLFORM(db.images)'
p3301
sI7
S'    return dict(form=form)'
p3302
ssg3235
S'()'
p3303
sg3237
S'insert'
p3304
sa(dp3305
g3214
S'/home/piyush/web2py/gluon/dal.py'
p3306
sg3216
(dp3307
S'self'
p3308
S'<DAL sqlite://storage.sqlite>'
p3309
sS'global ogetattr'
p3310
S"<slot wrapper '__getattribute__' of 'object' objects>"
p3311
sS'key'
p3312
S"'images'"
p3313
ssg3222
I7099
sg3223
(dp3314
I7094
S'    def __getattr__(self, key):'
p3315
sI7095
S"        if ogetattr(self,'_lazy_tables') and \\"
p3316
sI7096
S"                key in ogetattr(self,'_LAZY_TABLES'):"
p3317
sI7097
S'            tablename, fields, args = self._LAZY_TABLES.pop(key)'
p3318
sI7098
S'            return self.lazy_define_table(tablename,*fields,**args)'
p3319
sI7099
S'        return ogetattr(self, key)'
p3320
sI7100
S''
sI7101
S'    def __setitem__(self, key, value):'
p3321
sI7102
S'        osetattr(self, str(key), value)'
p3322
sI7103
S''
ssg3235
S"(self=<DAL sqlite://storage.sqlite>, key='images')"
p3323
sg3237
S'__getattr__'
p3324
sasS'pyver'
p3325
S'Python 2.7.2: /usr/bin/python'
p3326
sS'session'
p3327
g57
(g58
g59
NtRp3328
(dp3329
g62
(dp3330
sg64
(lp3331
g57
(g66
g59
NtRp3332
(dp3333
g62
(dp3334
g70
I5
ssg71
Nsg64
(lp3335
g57
(g73
g59
NtRp3336
(dp3337
g62
(dp3338
sg71
g3332
sg64
(lp3339
g57
(g78
g59
NtRp3340
(dp3341
g62
(dp3342
g82
g83
ssg71
g3336
sg64
(lp3343
S'auth'
p3344
asbag57
(g78
g59
NtRp3345
(dp3346
g62
(dp3347
g89
g90
ssg71
g3336
sg64
(lp3348
S':'
asbag57
(g78
g59
NtRp3349
(dp3350
g62
(dp3351
sg71
g3336
sg64
(lp3352
g57
(g58
g59
NtRp3353
(dp3354
g62
(dp3355
g70
I5
ssg71
g3349
sg64
(lp3356
g57
(g66
g59
NtRp3357
(dp3358
g62
(dp3359
g70
I4
ssg71
Nsg64
(lp3360
g57
(g73
g59
NtRp3361
(dp3362
g62
(dp3363
sg71
g3357
sg64
(lp3364
g57
(g78
g59
NtRp3365
(dp3366
g62
(dp3367
g82
g83
ssg71
g3361
sg64
(lp3368
S'expiration'
p3369
asbag57
(g78
g59
NtRp3370
(dp3371
g62
(dp3372
g89
g90
ssg71
g3361
sg64
(lp3373
S':'
asbag57
(g78
g59
NtRp3374
(dp3375
g62
(dp3376
sg71
g3361
sg64
(lp3377
g57
(g58
g59
NtRp3378
(dp3379
g62
(dp3380
g70
I4
ssg71
g3374
sg64
(lp3381
S'3600'
p3382
asbasbasbag57
(g73
g59
NtRp3383
(dp3384
g62
(dp3385
sg71
g3357
sg64
(lp3386
g57
(g78
g59
NtRp3387
(dp3388
g62
(dp3389
g82
g83
ssg71
g3383
sg64
(lp3390
S'hmac_key'
p3391
asbag57
(g78
g59
NtRp3392
(dp3393
g62
(dp3394
g89
g90
ssg71
g3383
sg64
(lp3395
S':'
asbag57
(g78
g59
NtRp3396
(dp3397
g62
(dp3398
sg71
g3383
sg64
(lp3399
g57
(g58
g59
NtRp3400
(dp3401
g62
(dp3402
g70
I4
ssg71
g3396
sg64
(lp3403
S'4d99887e-82dc-4d29-93c3-60f4494fd84c'
p3404
asbasbasbag57
(g73
g59
NtRp3405
(dp3406
g62
(dp3407
sg71
g3357
sg64
(lp3408
g57
(g78
g59
NtRp3409
(dp3410
g62
(dp3411
g82
g83
ssg71
g3405
sg64
(lp3412
S'last_visit'
p3413
asbag57
(g78
g59
NtRp3414
(dp3415
g62
(dp3416
g89
g90
ssg71
g3405
sg64
(lp3417
S':'
asbag57
(g78
g59
NtRp3418
(dp3419
g62
(dp3420
sg71
g3405
sg64
(lp3421
g57
(g58
g59
NtRp3422
(dp3423
g62
(dp3424
g70
I4
ssg71
g3418
sg64
(lp3425
S'datetime.datetime(2012, 8, 31, 2, 32, 45, 619824)'
p3426
asbasbasbag57
(g73
g59
NtRp3427
(dp3428
g62
(dp3429
sg71
g3357
sg64
(lp3430
g57
(g78
g59
NtRp3431
(dp3432
g62
(dp3433
g82
g83
ssg71
g3427
sg64
(lp3434
S'user'
p3435
asbag57
(g78
g59
NtRp3436
(dp3437
g62
(dp3438
g89
g90
ssg71
g3427
sg64
(lp3439
S':'
asbag57
(g78
g59
NtRp3440
(dp3441
g62
(dp3442
sg71
g3427
sg64
(lp3443
g57
(g58
g59
NtRp3444
(dp3445
g62
(dp3446
g70
I4
ssg71
g3440
sg64
(lp3447
g57
(g66
g59
NtRp3448
(dp3449
g62
(dp3450
g70
I3
ssg71
Nsg64
(lp3451
g57
(g73
g59
NtRp3452
(dp3453
g62
(dp3454
sg71
g3448
sg64
(lp3455
g57
(g78
g59
NtRp3456
(dp3457
g62
(dp3458
g82
g83
ssg71
g3452
sg64
(lp3459
S'email'
p3460
asbag57
(g78
g59
NtRp3461
(dp3462
g62
(dp3463
g89
g90
ssg71
g3452
sg64
(lp3464
S':'
asbag57
(g78
g59
NtRp3465
(dp3466
g62
(dp3467
sg71
g3452
sg64
(lp3468
g57
(g58
g59
NtRp3469
(dp3470
g62
(dp3471
g70
I3
ssg71
g3465
sg64
(lp3472
S'piyush.bansal@students.iiit.ac.in'
p3473
asbasbasbag57
(g73
g59
NtRp3474
(dp3475
g62
(dp3476
sg71
g3448
sg64
(lp3477
g57
(g78
g59
NtRp3478
(dp3479
g62
(dp3480
g82
g83
ssg71
g3474
sg64
(lp3481
S'first_name'
p3482
asbag57
(g78
g59
NtRp3483
(dp3484
g62
(dp3485
g89
g90
ssg71
g3474
sg64
(lp3486
S':'
asbag57
(g78
g59
NtRp3487
(dp3488
g62
(dp3489
sg71
g3474
sg64
(lp3490
g57
(g58
g59
NtRp3491
(dp3492
g62
(dp3493
g70
I3
ssg71
g3487
sg64
(lp3494
S'piyush'
p3495
asbasbasbag57
(g73
g59
NtRp3496
(dp3497
g62
(dp3498
sg71
g3448
sg64
(lp3499
g57
(g78
g59
NtRp3500
(dp3501
g62
(dp3502
g82
g83
ssg71
g3496
sg64
(lp3503
S'id'
p3504
asbag57
(g78
g59
NtRp3505
(dp3506
g62
(dp3507
g89
g90
ssg71
g3496
sg64
(lp3508
S':'
asbag57
(g78
g59
NtRp3509
(dp3510
g62
(dp3511
sg71
g3496
sg64
(lp3512
g57
(g58
g59
NtRp3513
(dp3514
g62
(dp3515
g70
I3
ssg71
g3509
sg64
(lp3516
S'1'
asbasbasbag57
(g73
g59
NtRp3517
(dp3518
g62
(dp3519
sg71
g3448
sg64
(lp3520
g57
(g78
g59
NtRp3521
(dp3522
g62
(dp3523
g82
g83
ssg71
g3517
sg64
(lp3524
S'last_name'
p3525
asbag57
(g78
g59
NtRp3526
(dp3527
g62
(dp3528
g89
g90
ssg71
g3517
sg64
(lp3529
S':'
asbag57
(g78
g59
NtRp3530
(dp3531
g62
(dp3532
sg71
g3517
sg64
(lp3533
g57
(g58
g59
NtRp3534
(dp3535
g62
(dp3536
g70
I3
ssg71
g3530
sg64
(lp3537
S'bansal'
p3538
asbasbasbag57
(g73
g59
NtRp3539
(dp3540
g62
(dp3541
sg71
g3448
sg64
(lp3542
g57
(g78
g59
NtRp3543
(dp3544
g62
(dp3545
g82
g83
ssg71
g3539
sg64
(lp3546
S'password'
p3547
asbag57
(g78
g59
NtRp3548
(dp3549
g62
(dp3550
g89
g90
ssg71
g3539
sg64
(lp3551
S':'
asbag57
(g78
g59
NtRp3552
(dp3553
g62
(dp3554
sg71
g3539
sg64
(lp3555
g57
(g58
g59
NtRp3556
(dp3557
g62
(dp3558
g70
I3
ssg71
g3552
sg64
(lp3559
S'pbkdf2(1000,20,sha512)$913ba6c957a64f30$d4b59e0f074c5a6d9fd585309ed33902fece40a6'
p3560
asbasbasbag57
(g73
g59
NtRp3561
(dp3562
g62
(dp3563
sg71
g3448
sg64
(lp3564
g57
(g78
g59
NtRp3565
(dp3566
g62
(dp3567
g82
g83
ssg71
g3561
sg64
(lp3568
S'registration_id'
p3569
asbag57
(g78
g59
NtRp3570
(dp3571
g62
(dp3572
g89
g90
ssg71
g3561
sg64
(lp3573
S':'
asbag57
(g78
g59
NtRp3574
(dp3575
g62
(dp3576
sg71
g3561
sg64
(lp3577
g57
(g58
g59
NtRp3578
(dp3579
g62
(dp3580
g70
I3
ssg71
g3574
sg64
(lp3581
S''
asbasbasbag57
(g73
g59
NtRp3582
(dp3583
g62
(dp3584
sg71
g3448
sg64
(lp3585
g57
(g78
g59
NtRp3586
(dp3587
g62
(dp3588
g82
g83
ssg71
g3582
sg64
(lp3589
S'registration_key'
p3590
asbag57
(g78
g59
NtRp3591
(dp3592
g62
(dp3593
g89
g90
ssg71
g3582
sg64
(lp3594
S':'
asbag57
(g78
g59
NtRp3595
(dp3596
g62
(dp3597
sg71
g3582
sg64
(lp3598
g57
(g58
g59
NtRp3599
(dp3600
g62
(dp3601
g70
I3
ssg71
g3595
sg64
(lp3602
S''
asbasbasbag57
(g73
g59
NtRp3603
(dp3604
g62
(dp3605
sg71
g3448
sg64
(lp3606
g57
(g78
g59
NtRp3607
(dp3608
g62
(dp3609
g82
g83
ssg71
g3603
sg64
(lp3610
S'reset_password_key'
p3611
asbag57
(g78
g59
NtRp3612
(dp3613
g62
(dp3614
g89
g90
ssg71
g3603
sg64
(lp3615
S':'
asbag57
(g78
g59
NtRp3616
(dp3617
g62
(dp3618
sg71
g3603
sg64
(lp3619
g57
(g58
g59
NtRp3620
(dp3621
g62
(dp3622
g70
I3
ssg71
g3616
sg64
(lp3623
S''
asbasbasbasbasbasbasbag57
(g73
g59
NtRp3624
(dp3625
g62
(dp3626
sg71
g3357
sg64
(lp3627
g57
(g78
g59
NtRp3628
(dp3629
g62
(dp3630
g82
g83
ssg71
g3624
sg64
(lp3631
S'user_groups'
p3632
asbag57
(g78
g59
NtRp3633
(dp3634
g62
(dp3635
g89
g90
ssg71
g3624
sg64
(lp3636
S':'
asbag57
(g78
g59
NtRp3637
(dp3638
g62
(dp3639
sg71
g3624
sg64
(lp3640
g57
(g58
g59
NtRp3641
(dp3642
g62
(dp3643
g70
I4
ssg71
g3637
sg64
(lp3644
g57
(g66
g59
NtRp3645
(dp3646
g62
(dp3647
g70
I3
ssg71
Nsg64
(lp3648
g57
(g73
g59
NtRp3649
(dp3650
g62
(dp3651
sg71
g3645
sg64
(lp3652
g57
(g78
g59
NtRp3653
(dp3654
g62
(dp3655
g82
g83
ssg71
g3649
sg64
(lp3656
S'1'
asbag57
(g78
g59
NtRp3657
(dp3658
g62
(dp3659
g89
g90
ssg71
g3649
sg64
(lp3660
S':'
asbag57
(g78
g59
NtRp3661
(dp3662
g62
(dp3663
sg71
g3649
sg64
(lp3664
g57
(g58
g59
NtRp3665
(dp3666
g62
(dp3667
g70
I3
ssg71
g3661
sg64
(lp3668
S'user_1'
p3669
asbasbasbasbasbasbasbasbasbasbasbag57
(g73
g59
NtRp3670
(dp3671
g62
(dp3672
sg71
g3332
sg64
(lp3673
g57
(g78
g59
NtRp3674
(dp3675
g62
(dp3676
g82
g83
ssg71
g3670
sg64
(lp3677
S'flash'
p3678
asbag57
(g78
g59
NtRp3679
(dp3680
g62
(dp3681
g89
g90
ssg71
g3670
sg64
(lp3682
S':'
asbag57
(g78
g59
NtRp3683
(dp3684
g62
(dp3685
sg71
g3670
sg64
(lp3686
g57
(g58
g59
NtRp3687
(dp3688
g62
(dp3689
g70
I5
ssg71
g3683
sg64
(lp3690
S'None'
p3691
asbasbasbasbasbsS'etype'
p3692
S"<type 'exceptions.AttributeError'>"
p3693
sS'date'
p3694
S'Fri Aug 31 02:32:45 2012'
p3695
sS'response'
p3696
g57
(g58
g59
NtRp3697
(dp3698
g62
(dp3699
sg64
(lp3700
g57
(g66
g59
NtRp3701
(dp3702
g62
(dp3703
g70
I5
ssg71
Nsg64
(lp3704
g57
(g73
g59
NtRp3705
(dp3706
g62
(dp3707
sg71
g3701
sg64
(lp3708
g57
(g78
g59
NtRp3709
(dp3710
g62
(dp3711
g82
g83
ssg71
g3705
sg64
(lp3712
g155
asbag57
(g78
g59
NtRp3713
(dp3714
g62
(dp3715
g89
g90
ssg71
g3705
sg64
(lp3716
S':'
asbag57
(g78
g59
NtRp3717
(dp3718
g62
(dp3719
sg71
g3705
sg64
(lp3720
g57
(g58
g59
NtRp3721
(dp3722
g62
(dp3723
g70
I5
ssg71
g3717
sg64
(lp3724
S'<cStringIO.StringO object at 0xae688180>'
p3725
asbasbasbag57
(g73
g59
NtRp3726
(dp3727
g62
(dp3728
sg71
g3701
sg64
(lp3729
g57
(g78
g59
NtRp3730
(dp3731
g62
(dp3732
g82
g83
ssg71
g3726
sg64
(lp3733
g243
asbag57
(g78
g59
NtRp3734
(dp3735
g62
(dp3736
g89
g90
ssg71
g3726
sg64
(lp3737
S':'
asbag57
(g78
g59
NtRp3738
(dp3739
g62
(dp3740
sg71
g3726
sg64
(lp3741
g57
(g58
g59
NtRp3742
(dp3743
g62
(dp3744
g70
I5
ssg71
g3738
sg64
(lp3745
g57
(g66
g59
NtRp3746
(dp3747
g62
(dp3748
g70
I4
ssg71
Nsg64
(lp3749
g57
(g73
g59
NtRp3750
(dp3751
g62
(dp3752
sg71
g3746
sg64
(lp3753
g57
(g78
g59
NtRp3754
(dp3755
g62
(dp3756
g82
g83
ssg71
g3750
sg64
(lp3757
S'session_id_fotobuk'
p3758
asbag57
(g78
g59
NtRp3759
(dp3760
g62
(dp3761
g89
g90
ssg71
g3750
sg64
(lp3762
S':'
asbag57
(g78
g59
NtRp3763
(dp3764
g62
(dp3765
sg71
g3750
sg64
(lp3766
g57
(g58
g59
NtRp3767
(dp3768
g62
(dp3769
g70
I4
ssg71
g3763
sg64
(lp3770
g475
ag57
(g66
g59
NtRp3771
(dp3772
g62
(dp3773
g70
I3
ssg71
Nsg64
(lp3774
g57
(g73
g59
NtRp3775
(dp3776
g62
(dp3777
sg71
g3771
sg64
(lp3778
g57
(g78
g59
NtRp3779
(dp3780
g62
(dp3781
g82
g83
ssg71
g3775
sg64
(lp3782
g294
asbag57
(g78
g59
NtRp3783
(dp3784
g62
(dp3785
g89
g90
ssg71
g3775
sg64
(lp3786
S':'
asbag57
(g78
g59
NtRp3787
(dp3788
g62
(dp3789
sg71
g3775
sg64
(lp3790
g57
(g58
g59
NtRp3791
(dp3792
g62
(dp3793
g70
I3
ssg71
g3787
sg64
(lp3794
S''
asbasbasbag57
(g73
g59
NtRp3795
(dp3796
g62
(dp3797
sg71
g3771
sg64
(lp3798
g57
(g78
g59
NtRp3799
(dp3800
g62
(dp3801
g82
g83
ssg71
g3795
sg64
(lp3802
g315
asbag57
(g78
g59
NtRp3803
(dp3804
g62
(dp3805
g89
g90
ssg71
g3795
sg64
(lp3806
S':'
asbag57
(g78
g59
NtRp3807
(dp3808
g62
(dp3809
sg71
g3795
sg64
(lp3810
g57
(g58
g59
NtRp3811
(dp3812
g62
(dp3813
g70
I3
ssg71
g3807
sg64
(lp3814
S''
asbasbasbag57
(g73
g59
NtRp3815
(dp3816
g62
(dp3817
sg71
g3771
sg64
(lp3818
g57
(g78
g59
NtRp3819
(dp3820
g62
(dp3821
g82
g83
ssg71
g3815
sg64
(lp3822
g336
asbag57
(g78
g59
NtRp3823
(dp3824
g62
(dp3825
g89
g90
ssg71
g3815
sg64
(lp3826
S':'
asbag57
(g78
g59
NtRp3827
(dp3828
g62
(dp3829
sg71
g3815
sg64
(lp3830
g57
(g58
g59
NtRp3831
(dp3832
g62
(dp3833
g70
I3
ssg71
g3827
sg64
(lp3834
S''
asbasbasbag57
(g73
g59
NtRp3835
(dp3836
g62
(dp3837
sg71
g3771
sg64
(lp3838
g57
(g78
g59
NtRp3839
(dp3840
g62
(dp3841
g82
g83
ssg71
g3835
sg64
(lp3842
g357
asbag57
(g78
g59
NtRp3843
(dp3844
g62
(dp3845
g89
g90
ssg71
g3835
sg64
(lp3846
S':'
asbag57
(g78
g59
NtRp3847
(dp3848
g62
(dp3849
sg71
g3835
sg64
(lp3850
g57
(g58
g59
NtRp3851
(dp3852
g62
(dp3853
g70
I3
ssg71
g3847
sg64
(lp3854
S''
asbasbasbag57
(g73
g59
NtRp3855
(dp3856
g62
(dp3857
sg71
g3771
sg64
(lp3858
g57
(g78
g59
NtRp3859
(dp3860
g62
(dp3861
g82
g83
ssg71
g3855
sg64
(lp3862
g378
asbag57
(g78
g59
NtRp3863
(dp3864
g62
(dp3865
g89
g90
ssg71
g3855
sg64
(lp3866
S':'
asbag57
(g78
g59
NtRp3867
(dp3868
g62
(dp3869
sg71
g3855
sg64
(lp3870
g57
(g58
g59
NtRp3871
(dp3872
g62
(dp3873
g70
I3
ssg71
g3867
sg64
(lp3874
S''
asbasbasbag57
(g73
g59
NtRp3875
(dp3876
g62
(dp3877
sg71
g3771
sg64
(lp3878
g57
(g78
g59
NtRp3879
(dp3880
g62
(dp3881
g82
g83
ssg71
g3875
sg64
(lp3882
g399
asbag57
(g78
g59
NtRp3883
(dp3884
g62
(dp3885
g89
g90
ssg71
g3875
sg64
(lp3886
S':'
asbag57
(g78
g59
NtRp3887
(dp3888
g62
(dp3889
sg71
g3875
sg64
(lp3890
g57
(g58
g59
NtRp3891
(dp3892
g62
(dp3893
g70
I3
ssg71
g3887
sg64
(lp3894
S'/'
asbasbasbag57
(g73
g59
NtRp3895
(dp3896
g62
(dp3897
sg71
g3771
sg64
(lp3898
g57
(g78
g59
NtRp3899
(dp3900
g62
(dp3901
g82
g83
ssg71
g3895
sg64
(lp3902
g420
asbag57
(g78
g59
NtRp3903
(dp3904
g62
(dp3905
g89
g90
ssg71
g3895
sg64
(lp3906
S':'
asbag57
(g78
g59
NtRp3907
(dp3908
g62
(dp3909
sg71
g3895
sg64
(lp3910
g57
(g58
g59
NtRp3911
(dp3912
g62
(dp3913
g70
I3
ssg71
g3907
sg64
(lp3914
S''
asbasbasbag57
(g73
g59
NtRp3915
(dp3916
g62
(dp3917
sg71
g3771
sg64
(lp3918
g57
(g78
g59
NtRp3919
(dp3920
g62
(dp3921
g82
g83
ssg71
g3915
sg64
(lp3922
g441
asbag57
(g78
g59
NtRp3923
(dp3924
g62
(dp3925
g89
g90
ssg71
g3915
sg64
(lp3926
S':'
asbag57
(g78
g59
NtRp3927
(dp3928
g62
(dp3929
sg71
g3915
sg64
(lp3930
g57
(g58
g59
NtRp3931
(dp3932
g62
(dp3933
g70
I3
ssg71
g3927
sg64
(lp3934
S''
asbasbasbasbasbasbasbasbasbasbasbag57
(g73
g59
NtRp3935
(dp3936
g62
(dp3937
sg71
g3701
sg64
(lp3938
g57
(g78
g59
NtRp3939
(dp3940
g62
(dp3941
g82
g83
ssg71
g3935
sg64
(lp3942
S'delimiters'
p3943
asbag57
(g78
g59
NtRp3944
(dp3945
g62
(dp3946
g89
g90
ssg71
g3935
sg64
(lp3947
S':'
asbag57
(g78
g59
NtRp3948
(dp3949
g62
(dp3950
sg71
g3935
sg64
(lp3951
g57
(g58
g59
NtRp3952
(dp3953
g62
(dp3954
g70
I5
ssg71
g3948
sg64
(lp3955
g57
(g66
g59
NtRp3956
(dp3957
g62
(dp3958
g70
I4
ssg71
Nsg64
(lp3959
g57
(g73
g59
NtRp3960
(dp3961
g62
(dp3962
sg71
g3956
sg64
(lp3963
g57
(g78
g59
NtRp3964
(dp3965
g62
(dp3966
sg71
g3960
sg64
(lp3967
g57
(g58
g59
NtRp3968
(dp3969
g62
(dp3970
g70
I4
ssg71
g3964
sg64
(lp3971
S'{{'
p3972
asbasbasbag57
(g73
g59
NtRp3973
(dp3974
g62
(dp3975
sg71
g3956
sg64
(lp3976
g57
(g78
g59
NtRp3977
(dp3978
g62
(dp3979
sg71
g3973
sg64
(lp3980
g57
(g58
g59
NtRp3981
(dp3982
g62
(dp3983
g70
I4
ssg71
g3977
sg64
(lp3984
S'}}'
p3985
asbasbasbasbasbasbasbag57
(g73
g59
NtRp3986
(dp3987
g62
(dp3988
sg71
g3701
sg64
(lp3989
g57
(g78
g59
NtRp3990
(dp3991
g62
(dp3992
g82
g83
ssg71
g3986
sg64
(lp3993
S'files'
p3994
asbag57
(g78
g59
NtRp3995
(dp3996
g62
(dp3997
g89
g90
ssg71
g3986
sg64
(lp3998
S':'
asbag57
(g78
g59
NtRp3999
(dp4000
g62
(dp4001
sg71
g3986
sg64
(lp4002
g57
(g58
g59
NtRp4003
(dp4004
g62
(dp4005
g70
I5
ssg71
g3999
sg64
(lp4006
g57
(g66
g59
NtRp4007
(dp4008
g62
(dp4009
g70
I4
ssg71
Nsg64
(lp4010
sbasbasbasbag57
(g73
g59
NtRp4011
(dp4012
g62
(dp4013
sg71
g3701
sg64
(lp4014
g57
(g78
g59
NtRp4015
(dp4016
g62
(dp4017
g82
g83
ssg71
g4011
sg64
(lp4018
S'flash'
p4019
asbag57
(g78
g59
NtRp4020
(dp4021
g62
(dp4022
g89
g90
ssg71
g4011
sg64
(lp4023
S':'
asbag57
(g78
g59
NtRp4024
(dp4025
g62
(dp4026
sg71
g4011
sg64
(lp4027
g57
(g58
g59
NtRp4028
(dp4029
g62
(dp4030
g70
I5
ssg71
g4024
sg64
(lp4031
S''
asbasbasbag57
(g73
g59
NtRp4032
(dp4033
g62
(dp4034
sg71
g3701
sg64
(lp4035
g57
(g78
g59
NtRp4036
(dp4037
g62
(dp4038
g82
g83
ssg71
g4032
sg64
(lp4039
S'generic_patterns'
p4040
asbag57
(g78
g59
NtRp4041
(dp4042
g62
(dp4043
g89
g90
ssg71
g4032
sg64
(lp4044
S':'
asbag57
(g78
g59
NtRp4045
(dp4046
g62
(dp4047
sg71
g4032
sg64
(lp4048
g57
(g58
g59
NtRp4049
(dp4050
g62
(dp4051
g70
I5
ssg71
g4045
sg64
(lp4052
g57
(g66
g59
NtRp4053
(dp4054
g62
(dp4055
g70
I4
ssg71
Nsg64
(lp4056
sbasbasbasbag57
(g73
g59
NtRp4057
(dp4058
g62
(dp4059
sg71
g3701
sg64
(lp4060
g57
(g78
g59
NtRp4061
(dp4062
g62
(dp4063
g82
g83
ssg71
g4057
sg64
(lp4064
S'google_analytics_id'
p4065
asbag57
(g78
g59
NtRp4066
(dp4067
g62
(dp4068
g89
g90
ssg71
g4057
sg64
(lp4069
S':'
asbag57
(g78
g59
NtRp4070
(dp4071
g62
(dp4072
sg71
g4057
sg64
(lp4073
g57
(g58
g59
NtRp4074
(dp4075
g62
(dp4076
g70
I5
ssg71
g4070
sg64
(lp4077
S'None'
p4078
asbasbasbag57
(g73
g59
NtRp4079
(dp4080
g62
(dp4081
sg71
g3701
sg64
(lp4082
g57
(g78
g59
NtRp4083
(dp4084
g62
(dp4085
g82
g83
ssg71
g4079
sg64
(lp4086
S'headers'
p4087
asbag57
(g78
g59
NtRp4088
(dp4089
g62
(dp4090
g89
g90
ssg71
g4079
sg64
(lp4091
S':'
asbag57
(g78
g59
NtRp4092
(dp4093
g62
(dp4094
sg71
g4079
sg64
(lp4095
g57
(g58
g59
NtRp4096
(dp4097
g62
(dp4098
g70
I5
ssg71
g4092
sg64
(lp4099
g57
(g66
g59
NtRp4100
(dp4101
g62
(dp4102
g70
I4
ssg71
Nsg64
(lp4103
g57
(g73
g59
NtRp4104
(dp4105
g62
(dp4106
sg71
g4100
sg64
(lp4107
g57
(g78
g59
NtRp4108
(dp4109
g62
(dp4110
g82
g83
ssg71
g4104
sg64
(lp4111
S'Cache-Control'
p4112
asbag57
(g78
g59
NtRp4113
(dp4114
g62
(dp4115
g89
g90
ssg71
g4104
sg64
(lp4116
S':'
asbag57
(g78
g59
NtRp4117
(dp4118
g62
(dp4119
sg71
g4104
sg64
(lp4120
g57
(g58
g59
NtRp4121
(dp4122
g62
(dp4123
g70
I4
ssg71
g4117
sg64
(lp4124
S'no-store, no-cache, must-revalidate, post-check=0, pre-check=0'
p4125
asbasbasbag57
(g73
g59
NtRp4126
(dp4127
g62
(dp4128
sg71
g4100
sg64
(lp4129
g57
(g78
g59
NtRp4130
(dp4131
g62
(dp4132
g82
g83
ssg71
g4126
sg64
(lp4133
S'Content-Type'
p4134
asbag57
(g78
g59
NtRp4135
(dp4136
g62
(dp4137
g89
g90
ssg71
g4126
sg64
(lp4138
S':'
asbag57
(g78
g59
NtRp4139
(dp4140
g62
(dp4141
sg71
g4126
sg64
(lp4142
g57
(g58
g59
NtRp4143
(dp4144
g62
(dp4145
g70
I4
ssg71
g4139
sg64
(lp4146
S'text/html; charset=utf-8'
p4147
asbasbasbag57
(g73
g59
NtRp4148
(dp4149
g62
(dp4150
sg71
g4100
sg64
(lp4151
g57
(g78
g59
NtRp4152
(dp4153
g62
(dp4154
g82
g83
ssg71
g4148
sg64
(lp4155
S'Expires'
p4156
asbag57
(g78
g59
NtRp4157
(dp4158
g62
(dp4159
g89
g90
ssg71
g4148
sg64
(lp4160
S':'
asbag57
(g78
g59
NtRp4161
(dp4162
g62
(dp4163
sg71
g4148
sg64
(lp4164
g57
(g58
g59
NtRp4165
(dp4166
g62
(dp4167
g70
I4
ssg71
g4161
sg64
(lp4168
S'Thu, 30 Aug 2012 21:02:45 GMT'
p4169
asbasbasbag57
(g73
g59
NtRp4170
(dp4171
g62
(dp4172
sg71
g4100
sg64
(lp4173
g57
(g78
g59
NtRp4174
(dp4175
g62
(dp4176
g82
g83
ssg71
g4170
sg64
(lp4177
S'Pragma'
p4178
asbag57
(g78
g59
NtRp4179
(dp4180
g62
(dp4181
g89
g90
ssg71
g4170
sg64
(lp4182
S':'
asbag57
(g78
g59
NtRp4183
(dp4184
g62
(dp4185
sg71
g4170
sg64
(lp4186
g57
(g58
g59
NtRp4187
(dp4188
g62
(dp4189
g70
I4
ssg71
g4183
sg64
(lp4190
S'no-cache'
p4191
asbasbasbag57
(g73
g59
NtRp4192
(dp4193
g62
(dp4194
sg71
g4100
sg64
(lp4195
g57
(g78
g59
NtRp4196
(dp4197
g62
(dp4198
g82
g83
ssg71
g4192
sg64
(lp4199
S'X-Powered-By'
p4200
asbag57
(g78
g59
NtRp4201
(dp4202
g62
(dp4203
g89
g90
ssg71
g4192
sg64
(lp4204
S':'
asbag57
(g78
g59
NtRp4205
(dp4206
g62
(dp4207
sg71
g4192
sg64
(lp4208
g57
(g58
g59
NtRp4209
(dp4210
g62
(dp4211
g70
I4
ssg71
g4205
sg64
(lp4212
S'web2py'
p4213
asbasbasbasbasbasbasbag57
(g73
g59
NtRp4214
(dp4215
g62
(dp4216
sg71
g3701
sg64
(lp4217
g57
(g78
g59
NtRp4218
(dp4219
g62
(dp4220
g82
g83
ssg71
g4214
sg64
(lp4221
S'menu'
p4222
asbag57
(g78
g59
NtRp4223
(dp4224
g62
(dp4225
g89
g90
ssg71
g4214
sg64
(lp4226
S':'
asbag57
(g78
g59
NtRp4227
(dp4228
g62
(dp4229
sg71
g4214
sg64
(lp4230
g57
(g58
g59
NtRp4231
(dp4232
g62
(dp4233
g70
I5
ssg71
g4227
sg64
(lp4234
g57
(g66
g59
NtRp4235
(dp4236
g62
(dp4237
g70
I4
ssg71
Nsg64
(lp4238
g57
(g73
g59
NtRp4239
(dp4240
g62
(dp4241
sg71
g4235
sg64
(lp4242
g57
(g78
g59
NtRp4243
(dp4244
g62
(dp4245
sg71
g4239
sg64
(lp4246
g57
(g58
g59
NtRp4247
(dp4248
g62
(dp4249
g70
I4
ssg71
g4243
sg64
(lp4250
g57
(g66
g59
NtRp4251
(dp4252
g62
(dp4253
g70
I3
ssg71
Nsg64
(lp4254
g57
(g73
g59
NtRp4255
(dp4256
g62
(dp4257
sg71
g4251
sg64
(lp4258
g57
(g78
g59
NtRp4259
(dp4260
g62
(dp4261
sg71
g4255
sg64
(lp4262
g57
(g58
g59
NtRp4263
(dp4264
g62
(dp4265
g70
I3
ssg71
g4259
sg64
(lp4266
cgluon.languages
lazyT_unpickle
p4267
(S's\x04\x00\x00\x00Home'
tRp4268
asbasbasbag57
(g73
g59
NtRp4269
(dp4270
g62
(dp4271
sg71
g4251
sg64
(lp4272
g57
(g78
g59
NtRp4273
(dp4274
g62
(dp4275
sg71
g4269
sg64
(lp4276
g57
(g58
g59
NtRp4277
(dp4278
g62
(dp4279
g70
I3
ssg71
g4273
sg64
(lp4280
g100
asbasbasbag57
(g73
g59
NtRp4281
(dp4282
g62
(dp4283
sg71
g4251
sg64
(lp4284
g57
(g78
g59
NtRp4285
(dp4286
g62
(dp4287
sg71
g4281
sg64
(lp4288
g57
(g58
g59
NtRp4289
(dp4290
g62
(dp4291
g70
I3
ssg71
g4285
sg64
(lp4292
S'/FotoBuk/default/index'
p4293
asbasbasbag57
(g73
g59
NtRp4294
(dp4295
g62
(dp4296
sg71
g4251
sg64
(lp4297
g57
(g78
g59
NtRp4298
(dp4299
g62
(dp4300
sg71
g4294
sg64
(lp4301
g57
(g58
g59
NtRp4302
(dp4303
g62
(dp4304
g70
I3
ssg71
g4298
sg64
(lp4305
g57
(g66
g59
NtRp4306
(dp4307
g62
(dp4308
g70
I2
ssg71
Nsg64
(lp4309
sbasbasbasbasbasbasbasbag57
(g73
g59
NtRp4310
(dp4311
g62
(dp4312
sg71
g4235
sg64
(lp4313
g57
(g78
g59
NtRp4314
(dp4315
g62
(dp4316
sg71
g4310
sg64
(lp4317
g57
(g58
g59
NtRp4318
(dp4319
g62
(dp4320
g70
I4
ssg71
g4314
sg64
(lp4321
g57
(g66
g59
NtRp4322
(dp4323
g62
(dp4324
g70
I3
ssg71
Nsg64
(lp4325
g57
(g73
g59
NtRp4326
(dp4327
g62
(dp4328
sg71
g4322
sg64
(lp4329
g57
(g78
g59
NtRp4330
(dp4331
g62
(dp4332
sg71
g4326
sg64
(lp4333
g57
(g58
g59
NtRp4334
(dp4335
g62
(dp4336
g70
I3
ssg71
g4330
sg64
(lp4337
g57
(cgluon.html
SPAN
p4338
g59
NtRp4339
(dp4340
g62
(dp4341
g82
S'color:yellow'
p4342
ssg71
Nsg64
(lp4343
g4213
asbasbasbasbag57
(g73
g59
NtRp4344
(dp4345
g62
(dp4346
sg71
g4322
sg64
(lp4347
g57
(g78
g59
NtRp4348
(dp4349
g62
(dp4350
sg71
g4344
sg64
(lp4351
g57
(g58
g59
NtRp4352
(dp4353
g62
(dp4354
g70
I3
ssg71
g4348
sg64
(lp4355
g100
asbasbasbag57
(g73
g59
NtRp4356
(dp4357
g62
(dp4358
sg71
g4322
sg64
(lp4359
g57
(g78
g59
NtRp4360
(dp4361
g62
(dp4362
sg71
g4356
sg64
(lp4363
g57
(g58
g59
NtRp4364
(dp4365
g62
(dp4366
g70
I3
ssg71
g4360
sg64
(lp4367
S'http://web2py.com'
p4368
asbasbasbag57
(g73
g59
NtRp4369
(dp4370
g62
(dp4371
sg71
g4322
sg64
(lp4372
g57
(g78
g59
NtRp4373
(dp4374
g62
(dp4375
sg71
g4369
sg64
(lp4376
g57
(g58
g59
NtRp4377
(dp4378
g62
(dp4379
g70
I3
ssg71
g4373
sg64
(lp4380
g57
(g66
g59
NtRp4381
(dp4382
g62
(dp4383
g70
I2
ssg71
Nsg64
(lp4384
g57
(g73
g59
NtRp4385
(dp4386
g62
(dp4387
sg71
g4381
sg64
(lp4388
g57
(g78
g59
NtRp4389
(dp4390
g62
(dp4391
sg71
g4385
sg64
(lp4392
g57
(g58
g59
NtRp4393
(dp4394
g62
(dp4395
g70
I2
ssg71
g4389
sg64
(lp4396
g57
(g66
g59
NtRp4397
(dp4398
g62
(dp4399
g70
I1
ssg71
Nsg64
(lp4400
g57
(g73
g59
NtRp4401
(dp4402
g62
(dp4403
sg71
g4397
sg64
(lp4404
g57
(g78
g59
NtRp4405
(dp4406
g62
(dp4407
sg71
g4401
sg64
(lp4408
g57
(g58
g59
NtRp4409
(dp4410
g62
(dp4411
g70
I1
ssg71
g4405
sg64
(lp4412
g4267
(S's\x08\x00\x00\x00My Sites'
tRp4413
asbasbasbag57
(g73
g59
NtRp4414
(dp4415
g62
(dp4416
sg71
g4397
sg64
(lp4417
g57
(g78
g59
NtRp4418
(dp4419
g62
(dp4420
sg71
g4414
sg64
(lp4421
g57
(g58
g59
NtRp4422
(dp4423
g62
(dp4424
g70
I1
ssg71
g4418
sg64
(lp4425
I00
asbasbasbag57
(g73
g59
NtRp4426
(dp4427
g62
(dp4428
sg71
g4397
sg64
(lp4429
g57
(g78
g59
NtRp4430
(dp4431
g62
(dp4432
sg71
g4426
sg64
(lp4433
g57
(g58
g59
NtRp4434
(dp4435
g62
(dp4436
g70
I1
ssg71
g4430
sg64
(lp4437
S'/admin/default/site'
p4438
asbasbasbasbasbasbasbag57
(g73
g59
NtRp4439
(dp4440
g62
(dp4441
sg71
g4381
sg64
(lp4442
g57
(g78
g59
NtRp4443
(dp4444
g62
(dp4445
sg71
g4439
sg64
(lp4446
g57
(g58
g59
NtRp4447
(dp4448
g62
(dp4449
g70
I2
ssg71
g4443
sg64
(lp4450
g57
(g66
g59
NtRp4451
(dp4452
g62
(dp4453
g70
I1
ssg71
Nsg64
(lp4454
g57
(g73
g59
NtRp4455
(dp4456
g62
(dp4457
sg71
g4451
sg64
(lp4458
g57
(g78
g59
NtRp4459
(dp4460
g62
(dp4461
sg71
g4455
sg64
(lp4462
g57
(g58
g59
NtRp4463
(dp4464
g62
(dp4465
g70
I1
ssg71
g4459
sg64
(lp4466
g4267
(S's\x08\x00\x00\x00This App'
tRp4467
asbasbasbag57
(g73
g59
NtRp4468
(dp4469
g62
(dp4470
sg71
g4451
sg64
(lp4471
g57
(g78
g59
NtRp4472
(dp4473
g62
(dp4474
sg71
g4468
sg64
(lp4475
g57
(g58
g59
NtRp4476
(dp4477
g62
(dp4478
g70
I1
ssg71
g4472
sg64
(lp4479
I00
asbasbasbag57
(g73
g59
NtRp4480
(dp4481
g62
(dp4482
sg71
g4451
sg64
(lp4483
g57
(g78
g59
NtRp4484
(dp4485
g62
(dp4486
sg71
g4480
sg64
(lp4487
g57
(g58
g59
NtRp4488
(dp4489
g62
(dp4490
g70
I1
ssg71
g4484
sg64
(lp4491
S'/admin/default/design/FotoBuk'
p4492
asbasbasbag57
(g73
g59
NtRp4493
(dp4494
g62
(dp4495
sg71
g4451
sg64
(lp4496
g57
(g78
g59
NtRp4497
(dp4498
g62
(dp4499
sg71
g4493
sg64
(lp4500
g57
(g58
g59
NtRp4501
(dp4502
g62
(dp4503
g70
I1
ssg71
g4497
sg64
(lp4504
(lp4505
(g4267
(S's\n\x00\x00\x00Controller'
tRp4506
I00
S'/admin/default/edit/FotoBuk/controllers/default.py'
tp4507
a(g4267
(S's\x04\x00\x00\x00View'
tRp4508
I00
S'/admin/default/edit/FotoBuk/views/default/insert.html'
tp4509
a(g4267
(S's\x06\x00\x00\x00Layout'
tRp4510
I00
S'/admin/default/edit/FotoBuk/views/layout.html'
tp4511
a(g4267
(S's\n\x00\x00\x00Stylesheet'
tRp4512
I00
S'/admin/default/edit/FotoBuk/static/css/web2py.css'
tp4513
a(g4267
(S's\x08\x00\x00\x00DB Model'
tRp4514
I00
S'/admin/default/edit/FotoBuk/models/db.py'
tp4515
a(g4267
(S's\n\x00\x00\x00Menu Model'
tRp4516
I00
S'/admin/default/edit/FotoBuk/models/menu.py'
tp4517
a(g4267
(S's\x08\x00\x00\x00Database'
tRp4518
I00
S'/FotoBuk/appadmin/index'
tp4519
a(g4267
(S's\x06\x00\x00\x00Errors'
tRp4520
I00
S'/admin/default/errors/FotoBuk'
tp4521
a(g4267
(S's\x05\x00\x00\x00About'
tRp4522
I00
S'/admin/default/about/FotoBuk'
tp4523
aasbasbasbasbasbasbasbag57
(g73
g59
NtRp4524
(dp4525
g62
(dp4526
sg71
g4381
sg64
(lp4527
g57
(g78
g59
NtRp4528
(dp4529
g62
(dp4530
sg71
g4524
sg64
(lp4531
g57
(g58
g59
NtRp4532
(dp4533
g62
(dp4534
g70
I2
ssg71
g4528
sg64
(lp4535
g57
(g66
g59
NtRp4536
(dp4537
g62
(dp4538
g70
I1
ssg71
Nsg64
(lp4539
g57
(g73
g59
NtRp4540
(dp4541
g62
(dp4542
sg71
g4536
sg64
(lp4543
g57
(g78
g59
NtRp4544
(dp4545
g62
(dp4546
sg71
g4540
sg64
(lp4547
g57
(g58
g59
NtRp4548
(dp4549
g62
(dp4550
g70
I1
ssg71
g4544
sg64
(lp4551
S'web2py.com'
p4552
asbasbasbag57
(g73
g59
NtRp4553
(dp4554
g62
(dp4555
sg71
g4536
sg64
(lp4556
g57
(g78
g59
NtRp4557
(dp4558
g62
(dp4559
sg71
g4553
sg64
(lp4560
g57
(g58
g59
NtRp4561
(dp4562
g62
(dp4563
g70
I1
ssg71
g4557
sg64
(lp4564
I00
asbasbasbag57
(g73
g59
NtRp4565
(dp4566
g62
(dp4567
sg71
g4536
sg64
(lp4568
g57
(g78
g59
NtRp4569
(dp4570
g62
(dp4571
sg71
g4565
sg64
(lp4572
g57
(g58
g59
NtRp4573
(dp4574
g62
(dp4575
g70
I1
ssg71
g4569
sg64
(lp4576
S'http://www.web2py.com'
p4577
asbasbasbag57
(g73
g59
NtRp4578
(dp4579
g62
(dp4580
sg71
g4536
sg64
(lp4581
g57
(g78
g59
NtRp4582
(dp4583
g62
(dp4584
sg71
g4578
sg64
(lp4585
g57
(g58
g59
NtRp4586
(dp4587
g62
(dp4588
g70
I1
ssg71
g4582
sg64
(lp4589
(lp4590
(g4267
(S's\x08\x00\x00\x00Download'
tRp4591
I00
S'http://www.web2py.com/examples/default/download'
p4592
tp4593
a(g4267
(S's\x07\x00\x00\x00Support'
tRp4594
I00
S'http://www.web2py.com/examples/default/support'
p4595
tp4596
a(g4267
(S's\x04\x00\x00\x00Demo'
tRp4597
I00
S'http://web2py.com/demo_admin'
p4598
tp4599
a(g4267
(S's\x0e\x00\x00\x00Quick Examples'
tRp4600
I00
S'http://web2py.com/examples/default/examples'
p4601
tp4602
a(g4267
(S's\x03\x00\x00\x00FAQ'
tRp4603
I00
S'http://web2py.com/AlterEgo'
p4604
tp4605
a(g4267
(S's\x06\x00\x00\x00Videos'
tRp4606
I00
S'http://www.web2py.com/examples/default/videos/'
p4607
tp4608
a(g4267
(S's\x11\x00\x00\x00Free Applications'
tRp4609
I00
S'http://web2py.com/appliances'
p4610
tp4611
a(g4267
(S's\x07\x00\x00\x00Plugins'
tRp4612
I00
S'http://web2py.com/plugins'
p4613
tp4614
a(g4267
(S's\x07\x00\x00\x00Layouts'
tRp4615
I00
S'http://web2py.com/layouts'
p4616
tp4617
a(g4267
(S's\x07\x00\x00\x00Recipes'
tRp4618
I00
S'http://web2pyslices.com/'
p4619
tp4620
a(g4267
(S's\x08\x00\x00\x00Semantic'
tRp4621
I00
S'http://web2py.com/semantic'
p4622
tp4623
aasbasbasbasbasbasbasbag57
(g73
g59
NtRp4624
(dp4625
g62
(dp4626
sg71
g4381
sg64
(lp4627
g57
(g78
g59
NtRp4628
(dp4629
g62
(dp4630
sg71
g4624
sg64
(lp4631
g57
(g58
g59
NtRp4632
(dp4633
g62
(dp4634
g70
I2
ssg71
g4628
sg64
(lp4635
g57
(g66
g59
NtRp4636
(dp4637
g62
(dp4638
g70
I1
ssg71
Nsg64
(lp4639
g57
(g73
g59
NtRp4640
(dp4641
g62
(dp4642
sg71
g4636
sg64
(lp4643
g57
(g78
g59
NtRp4644
(dp4645
g62
(dp4646
sg71
g4640
sg64
(lp4647
g57
(g58
g59
NtRp4648
(dp4649
g62
(dp4650
g70
I1
ssg71
g4644
sg64
(lp4651
g4267
(S's\r\x00\x00\x00Documentation'
tRp4652
asbasbasbag57
(g73
g59
NtRp4653
(dp4654
g62
(dp4655
sg71
g4636
sg64
(lp4656
g57
(g78
g59
NtRp4657
(dp4658
g62
(dp4659
sg71
g4653
sg64
(lp4660
g57
(g58
g59
NtRp4661
(dp4662
g62
(dp4663
g70
I1
ssg71
g4657
sg64
(lp4664
I00
asbasbasbag57
(g73
g59
NtRp4665
(dp4666
g62
(dp4667
sg71
g4636
sg64
(lp4668
g57
(g78
g59
NtRp4669
(dp4670
g62
(dp4671
sg71
g4665
sg64
(lp4672
g57
(g58
g59
NtRp4673
(dp4674
g62
(dp4675
g70
I1
ssg71
g4669
sg64
(lp4676
S'http://www.web2py.com/book'
p4677
asbasbasbag57
(g73
g59
NtRp4678
(dp4679
g62
(dp4680
sg71
g4636
sg64
(lp4681
g57
(g78
g59
NtRp4682
(dp4683
g62
(dp4684
sg71
g4678
sg64
(lp4685
g57
(g58
g59
NtRp4686
(dp4687
g62
(dp4688
g70
I1
ssg71
g4682
sg64
(lp4689
(lp4690
(g4267
(S's\x07\x00\x00\x00Preface'
tRp4691
I00
S'http://www.web2py.com/book/default/chapter/00'
p4692
tp4693
a(g4267
(S's\x0c\x00\x00\x00Introduction'
tRp4694
I00
S'http://www.web2py.com/book/default/chapter/01'
p4695
tp4696
a(g4267
(S's\x06\x00\x00\x00Python'
tRp4697
I00
S'http://www.web2py.com/book/default/chapter/02'
p4698
tp4699
a(g4267
(S's\x08\x00\x00\x00Overview'
tRp4700
I00
S'http://www.web2py.com/book/default/chapter/03'
p4701
tp4702
a(g4267
(S's\x08\x00\x00\x00The Core'
tRp4703
I00
S'http://www.web2py.com/book/default/chapter/04'
p4704
tp4705
a(g4267
(S's\t\x00\x00\x00The Views'
tRp4706
I00
S'http://www.web2py.com/book/default/chapter/05'
p4707
tp4708
a(g4267
(S's\x08\x00\x00\x00Database'
tRp4709
I00
S'http://www.web2py.com/book/default/chapter/06'
p4710
tp4711
a(g4267
(S's\x14\x00\x00\x00Forms and Validators'
tRp4712
I00
S'http://www.web2py.com/book/default/chapter/07'
p4713
tp4714
a(g4267
(S's\r\x00\x00\x00Email and SMS'
tRp4715
I00
S'http://www.web2py.com/book/default/chapter/08'
p4716
tp4717
a(g4267
(S's\x0e\x00\x00\x00Access Control'
tRp4718
I00
S'http://www.web2py.com/book/default/chapter/09'
p4719
tp4720
a(g4267
(S's\x08\x00\x00\x00Services'
tRp4721
I00
S'http://www.web2py.com/book/default/chapter/10'
p4722
tp4723
a(g4267
(S's\x0c\x00\x00\x00Ajax Recipes'
tRp4724
I00
S'http://www.web2py.com/book/default/chapter/11'
p4725
tp4726
a(g4267
(S's\x16\x00\x00\x00Components and Plugins'
tRp4727
I00
S'http://www.web2py.com/book/default/chapter/12'
p4728
tp4729
a(g4267
(S's\x12\x00\x00\x00Deployment Recipes'
tRp4730
I00
S'http://www.web2py.com/book/default/chapter/13'
p4731
tp4732
a(g4267
(S's\r\x00\x00\x00Other Recipes'
tRp4733
I00
S'http://www.web2py.com/book/default/chapter/14'
p4734
tp4735
a(g4267
(S's\r\x00\x00\x00Buy this book'
tRp4736
I00
S'http://stores.lulu.com/web2py'
p4737
tp4738
aasbasbasbasbasbasbasbag57
(g73
g59
NtRp4739
(dp4740
g62
(dp4741
sg71
g4381
sg64
(lp4742
g57
(g78
g59
NtRp4743
(dp4744
g62
(dp4745
sg71
g4739
sg64
(lp4746
g57
(g58
g59
NtRp4747
(dp4748
g62
(dp4749
g70
I2
ssg71
g4743
sg64
(lp4750
g57
(g66
g59
NtRp4751
(dp4752
g62
(dp4753
g70
I1
ssg71
Nsg64
(lp4754
g57
(g73
g59
NtRp4755
(dp4756
g62
(dp4757
sg71
g4751
sg64
(lp4758
g57
(g78
g59
NtRp4759
(dp4760
g62
(dp4761
sg71
g4755
sg64
(lp4762
g57
(g58
g59
NtRp4763
(dp4764
g62
(dp4765
g70
I1
ssg71
g4759
sg64
(lp4766
g4267
(S's\t\x00\x00\x00Community'
tRp4767
asbasbasbag57
(g73
g59
NtRp4768
(dp4769
g62
(dp4770
sg71
g4751
sg64
(lp4771
g57
(g78
g59
NtRp4772
(dp4773
g62
(dp4774
sg71
g4768
sg64
(lp4775
g57
(g58
g59
NtRp4776
(dp4777
g62
(dp4778
g70
I1
ssg71
g4772
sg64
(lp4779
I00
asbasbasbag57
(g73
g59
NtRp4780
(dp4781
g62
(dp4782
sg71
g4751
sg64
(lp4783
g57
(g78
g59
NtRp4784
(dp4785
g62
(dp4786
sg71
g4780
sg64
(lp4787
g57
(g58
g59
NtRp4788
(dp4789
g62
(dp4790
g70
I1
ssg71
g4784
sg64
(lp4791
Nasbasbasbag57
(g73
g59
NtRp4792
(dp4793
g62
(dp4794
sg71
g4751
sg64
(lp4795
g57
(g78
g59
NtRp4796
(dp4797
g62
(dp4798
sg71
g4792
sg64
(lp4799
g57
(g58
g59
NtRp4800
(dp4801
g62
(dp4802
g70
I1
ssg71
g4796
sg64
(lp4803
(lp4804
(g4267
(S's\x06\x00\x00\x00Groups'
tRp4805
I00
S'http://www.web2py.com/examples/default/usergroups'
p4806
tp4807
a(g4267
(S's\x07\x00\x00\x00Twitter'
tRp4808
I00
S'http://twitter.com/web2py'
p4809
tp4810
a(g4267
(S's\t\x00\x00\x00Live Chat'
tRp4811
I00
S'http://webchat.freenode.net/?channels=web2py'
p4812
tp4813
aasbasbasbasbasbasbasbag57
(g73
g59
NtRp4814
(dp4815
g62
(dp4816
sg71
g4381
sg64
(lp4817
g57
(g78
g59
NtRp4818
(dp4819
g62
(dp4820
sg71
g4814
sg64
(lp4821
g57
(g58
g59
NtRp4822
(dp4823
g62
(dp4824
g70
I2
ssg71
g4818
sg64
(lp4825
g57
(g66
g59
NtRp4826
(dp4827
g62
(dp4828
g70
I1
ssg71
Nsg64
(lp4829
g57
(g73
g59
NtRp4830
(dp4831
g62
(dp4832
sg71
g4826
sg64
(lp4833
g57
(g78
g59
NtRp4834
(dp4835
g62
(dp4836
sg71
g4830
sg64
(lp4837
g57
(g58
g59
NtRp4838
(dp4839
g62
(dp4840
g70
I1
ssg71
g4834
sg64
(lp4841
g4267
(S's\x07\x00\x00\x00Plugins'
tRp4842
asbasbasbag57
(g73
g59
NtRp4843
(dp4844
g62
(dp4845
sg71
g4826
sg64
(lp4846
g57
(g78
g59
NtRp4847
(dp4848
g62
(dp4849
sg71
g4843
sg64
(lp4850
g57
(g58
g59
NtRp4851
(dp4852
g62
(dp4853
g70
I1
ssg71
g4847
sg64
(lp4854
I00
asbasbasbag57
(g73
g59
NtRp4855
(dp4856
g62
(dp4857
sg71
g4826
sg64
(lp4858
g57
(g78
g59
NtRp4859
(dp4860
g62
(dp4861
sg71
g4855
sg64
(lp4862
g57
(g58
g59
NtRp4863
(dp4864
g62
(dp4865
g70
I1
ssg71
g4859
sg64
(lp4866
Nasbasbasbag57
(g73
g59
NtRp4867
(dp4868
g62
(dp4869
sg71
g4826
sg64
(lp4870
g57
(g78
g59
NtRp4871
(dp4872
g62
(dp4873
sg71
g4867
sg64
(lp4874
g57
(g58
g59
NtRp4875
(dp4876
g62
(dp4877
g70
I1
ssg71
g4871
sg64
(lp4878
(lp4879
(S'plugin_wiki'
p4880
I00
S'http://web2py.com/examples/default/download'
p4881
tp4882
a(g4267
(S's\r\x00\x00\x00Other Plugins'
tRp4883
I00
g4613
tp4884
a(g4267
(S's\x0e\x00\x00\x00Layout Plugins'
tRp4885
I00
g4616
tp4886
aasbasbasbasbasbasbasbasbasbasbasbasbasbasbasbasbasbasbasbag57
(g73
g59
NtRp4887
(dp4888
g62
(dp4889
sg71
g3701
sg64
(lp4890
g57
(g78
g59
NtRp4891
(dp4892
g62
(dp4893
g82
g83
ssg71
g4887
sg64
(lp4894
S'meta'
p4895
asbag57
(g78
g59
NtRp4896
(dp4897
g62
(dp4898
g89
g90
ssg71
g4887
sg64
(lp4899
S':'
asbag57
(g78
g59
NtRp4900
(dp4901
g62
(dp4902
sg71
g4887
sg64
(lp4903
g57
(g58
g59
NtRp4904
(dp4905
g62
(dp4906
g70
I5
ssg71
g4900
sg64
(lp4907
g57
(g66
g59
NtRp4908
(dp4909
g62
(dp4910
g70
I4
ssg71
Nsg64
(lp4911
g57
(g73
g59
NtRp4912
(dp4913
g62
(dp4914
sg71
g4908
sg64
(lp4915
g57
(g78
g59
NtRp4916
(dp4917
g62
(dp4918
g82
g83
ssg71
g4912
sg64
(lp4919
S'author'
p4920
asbag57
(g78
g59
NtRp4921
(dp4922
g62
(dp4923
g89
g90
ssg71
g4912
sg64
(lp4924
S':'
asbag57
(g78
g59
NtRp4925
(dp4926
g62
(dp4927
sg71
g4912
sg64
(lp4928
g57
(g58
g59
NtRp4929
(dp4930
g62
(dp4931
g70
I4
ssg71
g4925
sg64
(lp4932
S'Your Name <you@example.com>'
p4933
asbasbasbag57
(g73
g59
NtRp4934
(dp4935
g62
(dp4936
sg71
g4908
sg64
(lp4937
g57
(g78
g59
NtRp4938
(dp4939
g62
(dp4940
g82
g83
ssg71
g4934
sg64
(lp4941
S'description'
p4942
asbag57
(g78
g59
NtRp4943
(dp4944
g62
(dp4945
g89
g90
ssg71
g4934
sg64
(lp4946
S':'
asbag57
(g78
g59
NtRp4947
(dp4948
g62
(dp4949
sg71
g4934
sg64
(lp4950
g57
(g58
g59
NtRp4951
(dp4952
g62
(dp4953
g70
I4
ssg71
g4947
sg64
(lp4954
S'a cool new app'
p4955
asbasbasbag57
(g73
g59
NtRp4956
(dp4957
g62
(dp4958
sg71
g4908
sg64
(lp4959
g57
(g78
g59
NtRp4960
(dp4961
g62
(dp4962
g82
g83
ssg71
g4956
sg64
(lp4963
S'generator'
p4964
asbag57
(g78
g59
NtRp4965
(dp4966
g62
(dp4967
g89
g90
ssg71
g4956
sg64
(lp4968
S':'
asbag57
(g78
g59
NtRp4969
(dp4970
g62
(dp4971
sg71
g4956
sg64
(lp4972
g57
(g58
g59
NtRp4973
(dp4974
g62
(dp4975
g70
I4
ssg71
g4969
sg64
(lp4976
S'Web2py Web Framework'
p4977
asbasbasbag57
(g73
g59
NtRp4978
(dp4979
g62
(dp4980
sg71
g4908
sg64
(lp4981
g57
(g78
g59
NtRp4982
(dp4983
g62
(dp4984
g82
g83
ssg71
g4978
sg64
(lp4985
S'keywords'
p4986
asbag57
(g78
g59
NtRp4987
(dp4988
g62
(dp4989
g89
g90
ssg71
g4978
sg64
(lp4990
S':'
asbag57
(g78
g59
NtRp4991
(dp4992
g62
(dp4993
sg71
g4978
sg64
(lp4994
g57
(g58
g59
NtRp4995
(dp4996
g62
(dp4997
g70
I4
ssg71
g4991
sg64
(lp4998
S'web2py, python, framework'
p4999
asbasbasbasbasbasbasbag57
(g73
g59
NtRp5000
(dp5001
g62
(dp5002
sg71
g3701
sg64
(lp5003
g57
(g78
g59
NtRp5004
(dp5005
g62
(dp5006
g82
g83
ssg71
g5000
sg64
(lp5007
S'postprocessing'
p5008
asbag57
(g78
g59
NtRp5009
(dp5010
g62
(dp5011
g89
g90
ssg71
g5000
sg64
(lp5012
S':'
asbag57
(g78
g59
NtRp5013
(dp5014
g62
(dp5015
sg71
g5000
sg64
(lp5016
g57
(g58
g59
NtRp5017
(dp5018
g62
(dp5019
g70
I5
ssg71
g5013
sg64
(lp5020
g57
(g66
g59
NtRp5021
(dp5022
g62
(dp5023
g70
I4
ssg71
Nsg64
(lp5024
sbasbasbasbag57
(g73
g59
NtRp5025
(dp5026
g62
(dp5027
sg71
g3701
sg64
(lp5028
g57
(g78
g59
NtRp5029
(dp5030
g62
(dp5031
g82
g83
ssg71
g5025
sg64
(lp5032
S'session_file'
p5033
asbag57
(g78
g59
NtRp5034
(dp5035
g62
(dp5036
g89
g90
ssg71
g5025
sg64
(lp5037
S':'
asbag57
(g78
g59
NtRp5038
(dp5039
g62
(dp5040
sg71
g5025
sg64
(lp5041
g57
(g58
g59
NtRp5042
(dp5043
g62
(dp5044
g70
I5
ssg71
g5038
sg64
(lp5045
S"<open file '/home/piyush/web2py/applications/FotoBuk/sessions/127.0.0.1-961e4bc4-dc07-4e6c-b9f7-52a46e56ffd5', mode 'rb+' at 0xaddbb3e8>"
p5046
asbasbasbag57
(g73
g59
NtRp5047
(dp5048
g62
(dp5049
sg71
g3701
sg64
(lp5050
g57
(g78
g59
NtRp5051
(dp5052
g62
(dp5053
g82
g83
ssg71
g5047
sg64
(lp5054
S'session_filename'
p5055
asbag57
(g78
g59
NtRp5056
(dp5057
g62
(dp5058
g89
g90
ssg71
g5047
sg64
(lp5059
S':'
asbag57
(g78
g59
NtRp5060
(dp5061
g62
(dp5062
sg71
g5047
sg64
(lp5063
g57
(g58
g59
NtRp5064
(dp5065
g62
(dp5066
g70
I5
ssg71
g5060
sg64
(lp5067
S'/home/piyush/web2py/applications/FotoBuk/sessions/127.0.0.1-961e4bc4-dc07-4e6c-b9f7-52a46e56ffd5'
p5068
asbasbasbag57
(g73
g59
NtRp5069
(dp5070
g62
(dp5071
sg71
g3701
sg64
(lp5072
g57
(g78
g59
NtRp5073
(dp5074
g62
(dp5075
g82
g83
ssg71
g5069
sg64
(lp5076
S'session_id'
p5077
asbag57
(g78
g59
NtRp5078
(dp5079
g62
(dp5080
g89
g90
ssg71
g5069
sg64
(lp5081
S':'
asbag57
(g78
g59
NtRp5082
(dp5083
g62
(dp5084
sg71
g5069
sg64
(lp5085
g57
(g58
g59
NtRp5086
(dp5087
g62
(dp5088
g70
I5
ssg71
g5082
sg64
(lp5089
g475
asbasbasbag57
(g73
g59
NtRp5090
(dp5091
g62
(dp5092
sg71
g3701
sg64
(lp5093
g57
(g78
g59
NtRp5094
(dp5095
g62
(dp5096
g82
g83
ssg71
g5090
sg64
(lp5097
S'session_id_name'
p5098
asbag57
(g78
g59
NtRp5099
(dp5100
g62
(dp5101
g89
g90
ssg71
g5090
sg64
(lp5102
S':'
asbag57
(g78
g59
NtRp5103
(dp5104
g62
(dp5105
sg71
g5090
sg64
(lp5106
g57
(g58
g59
NtRp5107
(dp5108
g62
(dp5109
g70
I5
ssg71
g5103
sg64
(lp5110
g3758
asbasbasbag57
(g73
g59
NtRp5111
(dp5112
g62
(dp5113
sg71
g3701
sg64
(lp5114
g57
(g78
g59
NtRp5115
(dp5116
g62
(dp5117
g82
g83
ssg71
g5111
sg64
(lp5118
S'session_locked'
p5119
asbag57
(g78
g59
NtRp5120
(dp5121
g62
(dp5122
g89
g90
ssg71
g5111
sg64
(lp5123
S':'
asbag57
(g78
g59
NtRp5124
(dp5125
g62
(dp5126
sg71
g5111
sg64
(lp5127
g57
(g58
g59
NtRp5128
(dp5129
g62
(dp5130
g70
I5
ssg71
g5124
sg64
(lp5131
g1866
asbasbasbag57
(g73
g59
NtRp5132
(dp5133
g62
(dp5134
sg71
g3701
sg64
(lp5135
g57
(g78
g59
NtRp5136
(dp5137
g62
(dp5138
g82
g83
ssg71
g5132
sg64
(lp5139
S'session_new'
p5140
asbag57
(g78
g59
NtRp5141
(dp5142
g62
(dp5143
g89
g90
ssg71
g5132
sg64
(lp5144
S':'
asbag57
(g78
g59
NtRp5145
(dp5146
g62
(dp5147
sg71
g5132
sg64
(lp5148
g57
(g58
g59
NtRp5149
(dp5150
g62
(dp5151
g70
I5
ssg71
g5145
sg64
(lp5152
g100
asbasbasbag57
(g73
g59
NtRp5153
(dp5154
g62
(dp5155
sg71
g3701
sg64
(lp5156
g57
(g78
g59
NtRp5157
(dp5158
g62
(dp5159
g82
g83
ssg71
g5153
sg64
(lp5160
S'status'
p5161
asbag57
(g78
g59
NtRp5162
(dp5163
g62
(dp5164
g89
g90
ssg71
g5153
sg64
(lp5165
S':'
asbag57
(g78
g59
NtRp5166
(dp5167
g62
(dp5168
sg71
g5153
sg64
(lp5169
g57
(g58
g59
NtRp5170
(dp5171
g62
(dp5172
g70
I5
ssg71
g5166
sg64
(lp5173
S'200'
p5174
asbasbasbag57
(g73
g59
NtRp5175
(dp5176
g62
(dp5177
sg71
g3701
sg64
(lp5178
g57
(g78
g59
NtRp5179
(dp5180
g62
(dp5181
g82
g83
ssg71
g5175
sg64
(lp5182
S'subtitle'
p5183
asbag57
(g78
g59
NtRp5184
(dp5185
g62
(dp5186
g89
g90
ssg71
g5175
sg64
(lp5187
S':'
asbag57
(g78
g59
NtRp5188
(dp5189
g62
(dp5190
sg71
g5175
sg64
(lp5191
g57
(g58
g59
NtRp5192
(dp5193
g62
(dp5194
g70
I5
ssg71
g5188
sg64
(lp5195
g4267
(S's\r\x00\x00\x00customize me!'
tRp5196
asbasbasbag57
(g73
g59
NtRp5197
(dp5198
g62
(dp5199
sg71
g3701
sg64
(lp5200
g57
(g78
g59
NtRp5201
(dp5202
g62
(dp5203
g82
g83
ssg71
g5197
sg64
(lp5204
S'title'
p5205
asbag57
(g78
g59
NtRp5206
(dp5207
g62
(dp5208
g89
g90
ssg71
g5197
sg64
(lp5209
S':'
asbag57
(g78
g59
NtRp5210
(dp5211
g62
(dp5212
sg71
g5197
sg64
(lp5213
g57
(g58
g59
NtRp5214
(dp5215
g62
(dp5216
g70
I5
ssg71
g5210
sg64
(lp5217
S'Fotobuk'
p5218
asbasbasbag57
(g73
g59
NtRp5219
(dp5220
g62
(dp5221
sg71
g3701
sg64
(lp5222
g57
(g78
g59
NtRp5223
(dp5224
g62
(dp5225
g82
g83
ssg71
g5219
sg64
(lp5226
S'view'
p5227
asbag57
(g78
g59
NtRp5228
(dp5229
g62
(dp5230
g89
g90
ssg71
g5219
sg64
(lp5231
S':'
asbag57
(g78
g59
NtRp5232
(dp5233
g62
(dp5234
sg71
g5219
sg64
(lp5235
g57
(g58
g59
NtRp5236
(dp5237
g62
(dp5238
g70
I5
ssg71
g5232
sg64
(lp5239
S'default/insert.html'
p5240
asbasbasbasbasbsS'locals'
p5241
(dp5242
S'self'
p5243
S'<DAL sqlite://storage.sqlite>'
p5244
sS'key'
p5245
S"'images'"
p5246
sssS'traceback'
p5247
S'Traceback (most recent call last):\n  File "/home/piyush/web2py/gluon/restricted.py", line 209, in restricted\n    exec ccode in environment\n  File "/home/piyush/web2py/applications/FotoBuk/controllers/default.py", line 9, in <module>\n  File "/home/piyush/web2py/gluon/globals.py", line 185, in <lambda>\n    self._caller = lambda f: f()\n  File "/home/piyush/web2py/gluon/tools.py", line 2776, in f\n    return action(*a, **b)\n  File "/home/piyush/web2py/applications/FotoBuk/controllers/default.py", line 6, in insert\n    form=SQLFORM(db.images)\n  File "/home/piyush/web2py/gluon/dal.py", line 7099, in __getattr__\n    return ogetattr(self, key)\nAttributeError: \'DAL\' object has no attribute \'images\'\n'
p5248
s.