(dp1
S'output'
p2
S"<type 'exceptions.AttributeError'> 'Row' object has no attribute 'author'"
p3
sS'layer'
p4
S'/home/piyush/web2py/applications/FotoBuk/views/default/show.html'
p5
sS'code'
p6
S'response.write(\'<!DOCTYPE html>\\r\\n<!-- paulirish.com/2008/conditional-stylesheets-vs-css-hacks-answer-neither/ -->\\r\\n<!--[if lt IE 7]><html class="ie ie6 ie-lte9 ie-lte8 ie-lte7 no-js" lang="\', escape=False)\nresponse.write(T.accepted_language or \'en\')\nresponse.write(\'"> <![endif]-->\\r\\n<!--[if IE 7]><html class="ie ie7 ie-lte9 ie-lte8 ie-lte7 no-js" lang="\', escape=False)\nresponse.write(T.accepted_language or \'en\')\nresponse.write(\'"> <![endif]-->\\r\\n<!--[if IE 8]><html class="ie ie8 ie-lte9 ie-lte8 no-js" lang="\', escape=False)\nresponse.write(T.accepted_language or \'en\')\nresponse.write(\'"> <![endif]-->\\r\\n<!--[if IE 9]><html class="ie9 ie-lte9 no-js" lang="\', escape=False)\nresponse.write(T.accepted_language or \'en\')\nresponse.write(\'"> <![endif]-->\\r\\n<!--[if (gt IE 9)|!(IE)]><!--> <html class="no-js" lang="\', escape=False)\nresponse.write(T.accepted_language or \'en\')\nresponse.write(\'"> <!--<![endif]-->\\r\\n<head>\\r\\n  <meta charset="utf-8" />\\r\\n  <!-- www.phpied.com/conditional-comments-block-downloads/ -->\\r\\n  <!-- Always force latest IE rendering engine\\r\\n       (even in intranet) & Chrome Frame\\r\\n       Remove this if you use the .htaccess -->\\r\\n  <!--[if IE]>\\r\\n      <meta http-equiv="X-UA-Compatible" content="IE=edge\', escape=False)\nresponse.write(not request.is_local and \',chrome=1\' or \'\')\nresponse.write(\'">\\r\\n      <![endif]-->\\r\\n  \\r\\n  <title>\', escape=False)\nresponse.write(response.title or request.application)\nresponse.write(\'</title>\\r\\n  \\r\\n  <!-- http://dev.w3.org/html5/markup/meta.name.html -->\\r\\n  <meta name="application-name" content="\', escape=False)\nresponse.write(request.application)\nresponse.write(\'" />\\r\\n  \\r\\n  <!-- Speaking of Google, don\\\'t forget to set your site up:\\r\\n       http://google.com/webmasters -->\\r\\n  <meta name="google-site-verification" content="" />\\r\\n  \\r\\n  <!--  Mobile Viewport Fix\\r\\n\\tj.mp/mobileviewport & davidbcalhoun.com/2010/viewport-metatag\\r\\n\\tdevice-width: Occupy full width of the screen in its current orientation\\r\\n\\tinitial-scale = 1.0 retains dimensions instead of zooming out if page height > device height\\r\\n\\tuser-scalable = yes allows the user to zoom in -->\\r\\n  <meta name="viewport" content="width=device-width, initial-scale=1.0">\\r\\n  \\r\\n  <link rel="shortcut icon" href="\', escape=False)\nresponse.write(URL(\'static\',\'images/favicon.ico\'))\nresponse.write(\'" type="image/x-icon">\\r\\n  <link rel="apple-touch-icon" href="\', escape=False)\nresponse.write(URL(\'static\',\'images/favicon.png\'))\nresponse.write(\'">\\r\\n  \\r\\n  <!-- All JavaScript at the bottom, except for Modernizr which enables \\r\\n       HTML5 elements & feature detects -->\\r\\n  <script src="\', escape=False)\nresponse.write(URL(\'static\',\'js/modernizr.custom.js\'))\nresponse.write(\'"></script>   \\r\\n  \\r\\n  <!-- include stylesheets -->\\r\\n  \', escape=False)\nresponse.files.append(URL(\'static\',\'css/bootstrap.min.css\'))\nresponse.files.append(URL(\'static\',\'css/bootstrap-responsive.min.css\'))\nresponse.files.append(URL(\'static\',\'css/web2py.css\'))\nresponse.files.append(URL(\'static\',\'css/web2py_bootstrap.css\'))\nresponse.write(\'\\r\\n\\r\\n  \', escape=False)\nresponse.write(\'<script type="text/javascript"><!--\\n    // These variables are used by the web2py_ajax_init function in web2py_ajax.js (which is loaded below).\\n    var w2p_ajax_confirm_message = "\', escape=False)\nresponse.write(T(\'Are you sure you want to delete this object?\'))\nresponse.write(\'";\\n    var w2p_ajax_date_format = "\', escape=False)\nresponse.write(T(\'%Y-%m-%d\'))\nresponse.write(\'";\\n    var w2p_ajax_datetime_format = "\', escape=False)\nresponse.write(T(\'%Y-%m-%d %H:%M:%S\'))\nresponse.write(\'";\\n    //--></script>\\n\', escape=False)\nresponse.files.insert(0,URL(\'static\',\'js/jquery.js\'))\nresponse.files.insert(1,URL(\'static\',\'css/calendar.css\'))\nresponse.files.insert(2,URL(\'static\',\'js/calendar.js\'))\nresponse.files.insert(3,URL(\'static\',\'js/web2py.js\'))\nresponse.include_meta()\nresponse.include_files()\nresponse.write(\'\\n\', escape=False)\nresponse.write(\'\\r\\n  \\r\\n  \', escape=False)\n# using sidebars need to know what sidebar you want to use\nleft_sidebar_enabled = globals().get(\'left_sidebar_enabled\',False)\nright_sidebar_enabled = globals().get(\'right_sidebar_enabled\',False)\nmiddle_columns = {0:\'span12\',1:\'span9\',2:\'span6\'}[\n(left_sidebar_enabled and 1 or 0)+(right_sidebar_enabled and 1 or 0)]\nresponse.write(\'\\r\\n\\r\\n  <!-- uncomment here to load jquery-ui\\r\\n       <link rel="stylesheet" href="http://ajax.googleapis.com/ajax/libs/jqueryui/1.8.16/themes/base/jquery-ui.css" type="text/css" media="all" />\\r\\n       <script src="http://ajax.googleapis.com/ajax/libs/jqueryui/1.8.16/jquery-ui.min.js" type="text/javascript"></script>\\r\\n       uncomment to load jquery-ui //-->\\r\\n  <noscript><link href="\', escape=False)\nresponse.write(URL(\'static\', \'css/web2py_bootstrap_nojs.css\'))\nresponse.write(\'" rel="stylesheet" type="text/css" /></noscript>\\r\\n  \', escape=False)\nresponse.write(\'\\r\\n</head>\\r\\n\\r\\n<body>\\r\\n  <!-- Navbar ================================================== -->\\r\\n  <div class="navbar navbar-fixed-top">\\r\\n    <div class="navbar-inner">\\r\\n      <div class="container">\\r\\n\\t<!-- the next tag is necessary for bootstrap menus, do not remove -->\\r\\n\\t<a class="btn btn-navbar" data-toggle="collapse" data-target=".nav-collapse">\\r\\n          <span class="icon-bar"></span>\\r\\n          <span class="icon-bar"></span>\\r\\n          <span class="icon-bar"></span>\\r\\n        </a>\\r\\n\\t<a class="brand" href="#">web2py&trade;&nbsp;</a>\\r\\n\\t<div id="navbar">\', escape=False)\nresponse.write(\'auth\' in globals() and auth.navbar() or \'\')\nresponse.write(\'</div>\\r\\n\\t<div class="nav-collapse">\\r\\n\\t  \', escape=False)\nis_mobile=request.user_agent().is_mobile\nresponse.write(\'\\r\\n\\t  \', escape=False)\nif response.menu:\n    response.write(\'\\r\\n\\t  \', escape=False)\n    response.write(MENU(response.menu, _class=\'mobile-menu nav\' if is_mobile else \'nav\',mobile=is_mobile,li_class=\'dropdown\',ul_class=\'dropdown-menu\'))\n    response.write(\'\\r\\n\\t  \', escape=False)\n    pass\nresponse.write(\'\\r\\n\\t</div><!--/.nav-collapse -->\\r\\n      </div>\\r\\n    </div>\\r\\n  </div><!--/top navbar -->\\r\\n  \\r\\n  <div class="container">\\r\\n    <div class="flash">\', escape=False)\nresponse.write(response.flash or \'\')\nresponse.write(\'</div>\\r\\n\\r\\n    <!-- Masthead ================================================== -->\\r\\n    <header class="mastheader" id="header">\\r\\n      <div class="page-header">\\r\\n\\t<h1>\\r\\n\\t  \', escape=False)\nresponse.write(response.title or request.application)\nresponse.write(\'\\r\\n\\t  <small>\', escape=False)\nresponse.write(response.subtitle or \'\')\nresponse.write(\'</small>\\r\\n\\t</h1>\\r\\n      </div>\\r\\n    </header>\\r\\n    \\r\\n    <section id="main" class="main span12">\\r\\n      <div class="row">\\r\\n\\t\', escape=False)\nif left_sidebar_enabled:\n    response.write(\'\\r\\n\\t<div class="span3 left-sidebar">\\r\\n\\t  \', escape=False)\n    response.write(\'\\r\\n\\t  <h3>Left Sidebar</h3>\\r\\n\\t  <p></p>\\r\\n\\t  \', escape=False)\n    response.write(\'\\r\\n\\t</div>\\r\\n\\t\', escape=False)\n    pass\nresponse.write(\'\\r\\n\\t\\r\\n\\t<div class="\', escape=False)\nresponse.write(middle_columns)\nresponse.write(\'">\\r\\n\\t  \', escape=False)\nresponse.write(\'\\r\\n\\t  \', escape=False)\nresponse.write(\'\\n<h1>Image: \', escape=False)\nresponse.write(image.title)\nresponse.write(\'</h1>\\n<center>\\n<img width="200px"\\n     src="\', escape=False)\nresponse.write(URL(\'download\', args=image.file))\nresponse.write(\'" />\\n</center>\\n\', escape=False)\nif len(comments):\n    response.write(\'\\n  <h2>Comments</h2><br /><p>\\n  \', escape=False)\n    for comment in comments:\n        response.write(\'\\n    <p>\', escape=False)\n        response.write(comment.author)\n        response.write(\' says <i>\', escape=False)\n        response.write(comment.body)\n        response.write(\'</i></p>\\n  \', escape=False)\n        pass\n    response.write(\'</p>\\n\', escape=False)\nelse:\n    response.write(\'\\n  <h2>No comments posted yet</h2>\\n\', escape=False)\n    pass\nresponse.write(\'\\n<h2>Post a comment</h2>\\n\', escape=False)\nresponse.write(form)\nresponse.write(\'\\n\\n\\n\', escape=False)\nresponse.write(\'\\r\\n\\t  \', escape=False)\nresponse.write(\'\\r\\n\\t</div>\\r\\n\\t\\r\\n\\t\', escape=False)\nif right_sidebar_enabled:\n    response.write(\'\\r\\n\\t<div class="span3">\\r\\n\\t  \', escape=False)\n    response.write(\'\\r\\n\\t  <h3>Right Sidebar</h3>\\r\\n\\t  <p></p>\\r\\n\\t  \', escape=False)\n    response.write(\'\\r\\n\\t</div>    \\r\\n\\t\', escape=False)\n    pass\nresponse.write(\'\\r\\n      </div><!--/row-->\\r\\n    </section><!--/main-->\\r\\n    \\r\\n    <!-- Footer ================================================== -->\\r\\n    <footer class="footer">\\r\\n      \', escape=False)\nresponse.write(\' <!-- this is default footer -->\\r\\n      <div class="footer-content">\\r\\n\\t<div class="copyright pull-left">\', escape=False)\nresponse.write(T(\'Copyright\'))\nresponse.write(\' &#169; \', escape=False)\nresponse.write(request.now.year)\nresponse.write(\'</div>\\r\\n\\t<div id="poweredBy" class="pull-right">\\r\\n\\t  \', escape=False)\nresponse.write(T(\'Powered by\'))\nresponse.write(\'\\r\\n\\t  <a href="http://www.web2py.com/">web2py</a>\\r\\n\\t</div>\\r\\n      </div>\\r\\n      \', escape=False)\nresponse.write(\'\\r\\n    </footer>\\r\\n    \\r\\n  </div> <!-- /container -->\\r\\n  \\r\\n  <!-- The javascript =============================================\\r\\n       (Placed at the end of the document so the pages load faster) -->\\r\\n  <script>\\r\\n    // this code improves bootstrap menus and adds dropdown support\\r\\n    jQuery(function(){\\r\\n      jQuery(\\\'.nav>li>a\\\').each(function(){\\t        \\r\\n        if(jQuery(this).parent().find(\\\'ul\\\').length)\\r\\n          jQuery(this).attr({\\\'class\\\':\\\'dropdown-toggle\\\',\\\'data-toggle\\\':\\\'dropdown\\\'}).append(\\\'<b class="caret"></b>\\\');\\r\\n      });\\r\\n      jQuery(\\\'.nav li li\\\').each(function(){\\t        \\r\\n        if(jQuery(this).find(\\\'ul\\\').length)\\r\\n          jQuery(this).children(\\\'a\\\').contents().before(\\\'<i class="chevron-right"></i>\\\'); \\r\\n      });\\r\\n      if(jQuery(document).width()>=980) {\\r\\n        jQuery(\\\'ul.nav li.dropdown\\\').hover(function() {\\r\\n          jQuery(this).find(\\\'.dropdown-menu\\\').stop(true, true).delay(200).fadeIn(); \\r\\n        }, function() {\\r\\n          jQuery(this).find(\\\'.dropdown-menu\\\').stop(true, true).delay(200).fadeOut(); \\r\\n        });\\r\\n      }\\r\\n      jQuery(\\\'ul.nav li.dropdown a\\\').click(function(){window.location=jQuery(this).attr(\\\'href\\\');});\\r\\n    });\\r\\n  </script>  \\r\\n  <script src="\', escape=False)\nresponse.write(URL(\'static\',\'js/bootstrap.min.js\'))\nresponse.write(\'"></script>  \\r\\n  <!--[if lt IE 7 ]>\\r\\n      <script src="\', escape=False)\nresponse.write(URL(\'static\',\'js/dd_belatedpng.js\'))\nresponse.write(\'"></script>\\r\\n      <script> DD_belatedPNG.fix(\\\'img, .png_bg\\\'); //fix any <img> or .png_bg background-images </script>\\r\\n      <![endif]-->\\r\\n  \', escape=False)\nif response.google_analytics_id:\n    response.write(\'<script type="text/javascript"> var _gaq = _gaq || []; _gaq.push([\\\'_setAccount\\\', \\\'\', escape=False)\n    response.write(response.google_analytics_id)\n    response.write("\']); _gaq.push([\'_trackPageview\']); (function() { var ga = document.createElement(\'script\'); ga.type = \'text/javascript\'; ga.async = true; ga.src = (\'https:\' == document.location.protocol ? \'https://ssl\' : \'http://www\') + \'.google-analytics.com/ga.js\'; var s = document.getElementsByTagName(\'script\')[0]; s.parentNode.insertBefore(ga, s); })(); </script> ", escape=False)\n    pass\nresponse.write(\'\\r\\n  <script src="\', escape=False)\nresponse.write(URL(\'static\',\'js/share.js\',vars=dict(static=URL(\'static\',\'images\'))))\nresponse.write(\'"></script>  \\r\\n</body>\\r\\n</html>\\r\\n\', escape=False)'
p7
sS'snapshot'
p8
(dp9
S'exception'
p10
(dp11
S'__hash__'
p12
S"<method-wrapper '__hash__' of exceptions.AttributeError object>"
p13
sS'__setattr__'
p14
S"<method-wrapper '__setattr__' of exceptions.AttributeError object>"
p15
sS'__reduce_ex__'
p16
S'<built-in method __reduce_ex__ of exceptions.AttributeError object>'
p17
sS'__getslice__'
p18
S"<method-wrapper '__getslice__' of exceptions.AttributeError object>"
p19
sS'__getitem__'
p20
S"<method-wrapper '__getitem__' of exceptions.AttributeError object>"
p21
sS'__setstate__'
p22
S'<built-in method __setstate__ of exceptions.AttributeError object>'
p23
sS'__reduce__'
p24
S'<built-in method __reduce__ of exceptions.AttributeError object>'
p25
sS'__str__'
p26
S"<method-wrapper '__str__' of exceptions.AttributeError object>"
p27
sS'__format__'
p28
S'<built-in method __format__ of exceptions.AttributeError object>'
p29
sS'__getattribute__'
p30
S"<method-wrapper '__getattribute__' of exceptions.AttributeError object>"
p31
sS'__class__'
p32
S"<type 'exceptions.AttributeError'>"
p33
sS'__unicode__'
p34
S'<built-in method __unicode__ of exceptions.AttributeError object>'
p35
sS'__delattr__'
p36
S"<method-wrapper '__delattr__' of exceptions.AttributeError object>"
p37
sS'__subclasshook__'
p38
S'<built-in method __subclasshook__ of type object>'
p39
sS'__repr__'
p40
S"<method-wrapper '__repr__' of exceptions.AttributeError object>"
p41
sS'args'
p42
S'("\'Row\' object has no attribute \'author\'",)'
p43
sS'__dict__'
p44
S'{}'
p45
sS'__sizeof__'
p46
S'<built-in method __sizeof__ of exceptions.AttributeError object>'
p47
sS'__doc__'
p48
S"'Attribute not found.'"
p49
sS'__init__'
p50
S"<method-wrapper '__init__' of exceptions.AttributeError object>"
p51
sS'__new__'
p52
S'<built-in method __new__ of type object>'
p53
ssS'evalue'
p54
S"'Row' object has no attribute 'author'"
p55
sS'request'
p56
ccopy_reg
_reconstructor
p57
(cgluon.html
BEAUTIFY
p58
c__builtin__
object
p59
NtRp60
(dp61
S'attributes'
p62
(dp63
sS'components'
p64
(lp65
g57
(cgluon.html
TABLE
p66
g59
NtRp67
(dp68
g62
(dp69
S'level'
p70
I5
ssS'parent'
p71
Nsg64
(lp72
g57
(cgluon.html
TR
p73
g59
NtRp74
(dp75
g62
(dp76
sg71
g67
sg64
(lp77
g57
(cgluon.html
TD
p78
g59
NtRp79
(dp80
g62
(dp81
S'_style'
p82
S'font-weight:bold;vertical-align:top'
p83
ssg71
g74
sg64
(lp84
S'ajax'
p85
asbag57
(g78
g59
NtRp86
(dp87
g62
(dp88
S'_valign'
p89
S'top'
p90
ssg71
g74
sg64
(lp91
S':'
asbag57
(g78
g59
NtRp92
(dp93
g62
(dp94
sg71
g74
sg64
(lp95
g57
(g58
g59
NtRp96
(dp97
g62
(dp98
g70
I5
ssg71
g92
sg64
(lp99
S'False'
p100
asbasbasbag57
(g73
g59
NtRp101
(dp102
g62
(dp103
sg71
g67
sg64
(lp104
g57
(g78
g59
NtRp105
(dp106
g62
(dp107
g82
g83
ssg71
g101
sg64
(lp108
S'application'
p109
asbag57
(g78
g59
NtRp110
(dp111
g62
(dp112
g89
g90
ssg71
g101
sg64
(lp113
S':'
asbag57
(g78
g59
NtRp114
(dp115
g62
(dp116
sg71
g101
sg64
(lp117
g57
(g58
g59
NtRp118
(dp119
g62
(dp120
g70
I5
ssg71
g114
sg64
(lp121
S'FotoBuk'
p122
asbasbasbag57
(g73
g59
NtRp123
(dp124
g62
(dp125
sg71
g67
sg64
(lp126
g57
(g78
g59
NtRp127
(dp128
g62
(dp129
g82
g83
ssg71
g123
sg64
(lp130
g42
asbag57
(g78
g59
NtRp131
(dp132
g62
(dp133
g89
g90
ssg71
g123
sg64
(lp134
S':'
asbag57
(g78
g59
NtRp135
(dp136
g62
(dp137
sg71
g123
sg64
(lp138
g57
(g58
g59
NtRp139
(dp140
g62
(dp141
g70
I5
ssg71
g135
sg64
(lp142
g57
(g66
g59
NtRp143
(dp144
g62
(dp145
g70
I4
ssg71
Nsg64
(lp146
g57
(g73
g59
NtRp147
(dp148
g62
(dp149
sg71
g143
sg64
(lp150
g57
(g78
g59
NtRp151
(dp152
g62
(dp153
sg71
g147
sg64
(lp154
g57
(g58
g59
NtRp155
(dp156
g62
(dp157
g70
I4
ssg71
g151
sg64
(lp158
S'1'
asbasbasbasbasbasbasbag57
(g73
g59
NtRp159
(dp160
g62
(dp161
sg71
g67
sg64
(lp162
g57
(g78
g59
NtRp163
(dp164
g62
(dp165
g82
g83
ssg71
g159
sg64
(lp166
S'body'
p167
asbag57
(g78
g59
NtRp168
(dp169
g62
(dp170
g89
g90
ssg71
g159
sg64
(lp171
S':'
asbag57
(g78
g59
NtRp172
(dp173
g62
(dp174
sg71
g159
sg64
(lp175
g57
(g58
g59
NtRp176
(dp177
g62
(dp178
g70
I5
ssg71
g172
sg64
(lp179
S'<cStringIO.StringO object at 0xae9643e0>'
p180
asbasbasbag57
(g73
g59
NtRp181
(dp182
g62
(dp183
sg71
g67
sg64
(lp184
g57
(g78
g59
NtRp185
(dp186
g62
(dp187
g82
g83
ssg71
g181
sg64
(lp188
S'cid'
p189
asbag57
(g78
g59
NtRp190
(dp191
g62
(dp192
g89
g90
ssg71
g181
sg64
(lp193
S':'
asbag57
(g78
g59
NtRp194
(dp195
g62
(dp196
sg71
g181
sg64
(lp197
g57
(g58
g59
NtRp198
(dp199
g62
(dp200
g70
I5
ssg71
g194
sg64
(lp201
S'None'
p202
asbasbasbag57
(g73
g59
NtRp203
(dp204
g62
(dp205
sg71
g67
sg64
(lp206
g57
(g78
g59
NtRp207
(dp208
g62
(dp209
g82
g83
ssg71
g203
sg64
(lp210
S'client'
p211
asbag57
(g78
g59
NtRp212
(dp213
g62
(dp214
g89
g90
ssg71
g203
sg64
(lp215
S':'
asbag57
(g78
g59
NtRp216
(dp217
g62
(dp218
sg71
g203
sg64
(lp219
g57
(g58
g59
NtRp220
(dp221
g62
(dp222
g70
I5
ssg71
g216
sg64
(lp223
S'127.0.0.1'
p224
asbasbasbag57
(g73
g59
NtRp225
(dp226
g62
(dp227
sg71
g67
sg64
(lp228
g57
(g78
g59
NtRp229
(dp230
g62
(dp231
g82
g83
ssg71
g225
sg64
(lp232
S'controller'
p233
asbag57
(g78
g59
NtRp234
(dp235
g62
(dp236
g89
g90
ssg71
g225
sg64
(lp237
S':'
asbag57
(g78
g59
NtRp238
(dp239
g62
(dp240
sg71
g225
sg64
(lp241
g57
(g58
g59
NtRp242
(dp243
g62
(dp244
g70
I5
ssg71
g238
sg64
(lp245
S'default'
p246
asbasbasbag57
(g73
g59
NtRp247
(dp248
g62
(dp249
sg71
g67
sg64
(lp250
g57
(g78
g59
NtRp251
(dp252
g62
(dp253
g82
g83
ssg71
g247
sg64
(lp254
S'cookies'
p255
asbag57
(g78
g59
NtRp256
(dp257
g62
(dp258
g89
g90
ssg71
g247
sg64
(lp259
S':'
asbag57
(g78
g59
NtRp260
(dp261
g62
(dp262
sg71
g247
sg64
(lp263
g57
(g58
g59
NtRp264
(dp265
g62
(dp266
g70
I5
ssg71
g260
sg64
(lp267
g57
(g66
g59
NtRp268
(dp269
g62
(dp270
g70
I4
ssg71
Nsg64
(lp271
g57
(g73
g59
NtRp272
(dp273
g62
(dp274
sg71
g268
sg64
(lp275
g57
(g78
g59
NtRp276
(dp277
g62
(dp278
g82
g83
ssg71
g272
sg64
(lp279
S'session_id_admin'
p280
asbag57
(g78
g59
NtRp281
(dp282
g62
(dp283
g89
g90
ssg71
g272
sg64
(lp284
S':'
asbag57
(g78
g59
NtRp285
(dp286
g62
(dp287
sg71
g272
sg64
(lp288
g57
(g58
g59
NtRp289
(dp290
g62
(dp291
g70
I4
ssg71
g285
sg64
(lp292
S'127.0.0.1-f31a16a6-2f0e-474e-b0b5-7ca781ebd64d'
p293
ag57
(g66
g59
NtRp294
(dp295
g62
(dp296
g70
I3
ssg71
Nsg64
(lp297
g57
(g73
g59
NtRp298
(dp299
g62
(dp300
sg71
g294
sg64
(lp301
g57
(g78
g59
NtRp302
(dp303
g62
(dp304
g82
g83
ssg71
g298
sg64
(lp305
S'comment'
p306
asbag57
(g78
g59
NtRp307
(dp308
g62
(dp309
g89
g90
ssg71
g298
sg64
(lp310
S':'
asbag57
(g78
g59
NtRp311
(dp312
g62
(dp313
sg71
g298
sg64
(lp314
g57
(g58
g59
NtRp315
(dp316
g62
(dp317
g70
I3
ssg71
g311
sg64
(lp318
S''
asbasbasbag57
(g73
g59
NtRp319
(dp320
g62
(dp321
sg71
g294
sg64
(lp322
g57
(g78
g59
NtRp323
(dp324
g62
(dp325
g82
g83
ssg71
g319
sg64
(lp326
S'domain'
p327
asbag57
(g78
g59
NtRp328
(dp329
g62
(dp330
g89
g90
ssg71
g319
sg64
(lp331
S':'
asbag57
(g78
g59
NtRp332
(dp333
g62
(dp334
sg71
g319
sg64
(lp335
g57
(g58
g59
NtRp336
(dp337
g62
(dp338
g70
I3
ssg71
g332
sg64
(lp339
S''
asbasbasbag57
(g73
g59
NtRp340
(dp341
g62
(dp342
sg71
g294
sg64
(lp343
g57
(g78
g59
NtRp344
(dp345
g62
(dp346
g82
g83
ssg71
g340
sg64
(lp347
S'expires'
p348
asbag57
(g78
g59
NtRp349
(dp350
g62
(dp351
g89
g90
ssg71
g340
sg64
(lp352
S':'
asbag57
(g78
g59
NtRp353
(dp354
g62
(dp355
sg71
g340
sg64
(lp356
g57
(g58
g59
NtRp357
(dp358
g62
(dp359
g70
I3
ssg71
g353
sg64
(lp360
S''
asbasbasbag57
(g73
g59
NtRp361
(dp362
g62
(dp363
sg71
g294
sg64
(lp364
g57
(g78
g59
NtRp365
(dp366
g62
(dp367
g82
g83
ssg71
g361
sg64
(lp368
S'httponly'
p369
asbag57
(g78
g59
NtRp370
(dp371
g62
(dp372
g89
g90
ssg71
g361
sg64
(lp373
S':'
asbag57
(g78
g59
NtRp374
(dp375
g62
(dp376
sg71
g361
sg64
(lp377
g57
(g58
g59
NtRp378
(dp379
g62
(dp380
g70
I3
ssg71
g374
sg64
(lp381
S''
asbasbasbag57
(g73
g59
NtRp382
(dp383
g62
(dp384
sg71
g294
sg64
(lp385
g57
(g78
g59
NtRp386
(dp387
g62
(dp388
g82
g83
ssg71
g382
sg64
(lp389
S'max-age'
p390
asbag57
(g78
g59
NtRp391
(dp392
g62
(dp393
g89
g90
ssg71
g382
sg64
(lp394
S':'
asbag57
(g78
g59
NtRp395
(dp396
g62
(dp397
sg71
g382
sg64
(lp398
g57
(g58
g59
NtRp399
(dp400
g62
(dp401
g70
I3
ssg71
g395
sg64
(lp402
S''
asbasbasbag57
(g73
g59
NtRp403
(dp404
g62
(dp405
sg71
g294
sg64
(lp406
g57
(g78
g59
NtRp407
(dp408
g62
(dp409
g82
g83
ssg71
g403
sg64
(lp410
S'path'
p411
asbag57
(g78
g59
NtRp412
(dp413
g62
(dp414
g89
g90
ssg71
g403
sg64
(lp415
S':'
asbag57
(g78
g59
NtRp416
(dp417
g62
(dp418
sg71
g403
sg64
(lp419
g57
(g58
g59
NtRp420
(dp421
g62
(dp422
g70
I3
ssg71
g416
sg64
(lp423
S''
asbasbasbag57
(g73
g59
NtRp424
(dp425
g62
(dp426
sg71
g294
sg64
(lp427
g57
(g78
g59
NtRp428
(dp429
g62
(dp430
g82
g83
ssg71
g424
sg64
(lp431
S'secure'
p432
asbag57
(g78
g59
NtRp433
(dp434
g62
(dp435
g89
g90
ssg71
g424
sg64
(lp436
S':'
asbag57
(g78
g59
NtRp437
(dp438
g62
(dp439
sg71
g424
sg64
(lp440
g57
(g58
g59
NtRp441
(dp442
g62
(dp443
g70
I3
ssg71
g437
sg64
(lp444
S''
asbasbasbag57
(g73
g59
NtRp445
(dp446
g62
(dp447
sg71
g294
sg64
(lp448
g57
(g78
g59
NtRp449
(dp450
g62
(dp451
g82
g83
ssg71
g445
sg64
(lp452
S'version'
p453
asbag57
(g78
g59
NtRp454
(dp455
g62
(dp456
g89
g90
ssg71
g445
sg64
(lp457
S':'
asbag57
(g78
g59
NtRp458
(dp459
g62
(dp460
sg71
g445
sg64
(lp461
g57
(g58
g59
NtRp462
(dp463
g62
(dp464
g70
I3
ssg71
g458
sg64
(lp465
S''
asbasbasbasbasbasbasbag57
(g73
g59
NtRp466
(dp467
g62
(dp468
sg71
g268
sg64
(lp469
g57
(g78
g59
NtRp470
(dp471
g62
(dp472
g82
g83
ssg71
g466
sg64
(lp473
S'session_id_fotobuk'
p474
asbag57
(g78
g59
NtRp475
(dp476
g62
(dp477
g89
g90
ssg71
g466
sg64
(lp478
S':'
asbag57
(g78
g59
NtRp479
(dp480
g62
(dp481
sg71
g466
sg64
(lp482
g57
(g58
g59
NtRp483
(dp484
g62
(dp485
g70
I4
ssg71
g479
sg64
(lp486
S'127.0.0.1-961e4bc4-dc07-4e6c-b9f7-52a46e56ffd5'
p487
ag57
(g66
g59
NtRp488
(dp489
g62
(dp490
g70
I3
ssg71
Nsg64
(lp491
g57
(g73
g59
NtRp492
(dp493
g62
(dp494
sg71
g488
sg64
(lp495
g57
(g78
g59
NtRp496
(dp497
g62
(dp498
g82
g83
ssg71
g492
sg64
(lp499
g306
asbag57
(g78
g59
NtRp500
(dp501
g62
(dp502
g89
g90
ssg71
g492
sg64
(lp503
S':'
asbag57
(g78
g59
NtRp504
(dp505
g62
(dp506
sg71
g492
sg64
(lp507
g57
(g58
g59
NtRp508
(dp509
g62
(dp510
g70
I3
ssg71
g504
sg64
(lp511
S''
asbasbasbag57
(g73
g59
NtRp512
(dp513
g62
(dp514
sg71
g488
sg64
(lp515
g57
(g78
g59
NtRp516
(dp517
g62
(dp518
g82
g83
ssg71
g512
sg64
(lp519
g327
asbag57
(g78
g59
NtRp520
(dp521
g62
(dp522
g89
g90
ssg71
g512
sg64
(lp523
S':'
asbag57
(g78
g59
NtRp524
(dp525
g62
(dp526
sg71
g512
sg64
(lp527
g57
(g58
g59
NtRp528
(dp529
g62
(dp530
g70
I3
ssg71
g524
sg64
(lp531
S''
asbasbasbag57
(g73
g59
NtRp532
(dp533
g62
(dp534
sg71
g488
sg64
(lp535
g57
(g78
g59
NtRp536
(dp537
g62
(dp538
g82
g83
ssg71
g532
sg64
(lp539
g348
asbag57
(g78
g59
NtRp540
(dp541
g62
(dp542
g89
g90
ssg71
g532
sg64
(lp543
S':'
asbag57
(g78
g59
NtRp544
(dp545
g62
(dp546
sg71
g532
sg64
(lp547
g57
(g58
g59
NtRp548
(dp549
g62
(dp550
g70
I3
ssg71
g544
sg64
(lp551
S''
asbasbasbag57
(g73
g59
NtRp552
(dp553
g62
(dp554
sg71
g488
sg64
(lp555
g57
(g78
g59
NtRp556
(dp557
g62
(dp558
g82
g83
ssg71
g552
sg64
(lp559
g369
asbag57
(g78
g59
NtRp560
(dp561
g62
(dp562
g89
g90
ssg71
g552
sg64
(lp563
S':'
asbag57
(g78
g59
NtRp564
(dp565
g62
(dp566
sg71
g552
sg64
(lp567
g57
(g58
g59
NtRp568
(dp569
g62
(dp570
g70
I3
ssg71
g564
sg64
(lp571
S''
asbasbasbag57
(g73
g59
NtRp572
(dp573
g62
(dp574
sg71
g488
sg64
(lp575
g57
(g78
g59
NtRp576
(dp577
g62
(dp578
g82
g83
ssg71
g572
sg64
(lp579
g390
asbag57
(g78
g59
NtRp580
(dp581
g62
(dp582
g89
g90
ssg71
g572
sg64
(lp583
S':'
asbag57
(g78
g59
NtRp584
(dp585
g62
(dp586
sg71
g572
sg64
(lp587
g57
(g58
g59
NtRp588
(dp589
g62
(dp590
g70
I3
ssg71
g584
sg64
(lp591
S''
asbasbasbag57
(g73
g59
NtRp592
(dp593
g62
(dp594
sg71
g488
sg64
(lp595
g57
(g78
g59
NtRp596
(dp597
g62
(dp598
g82
g83
ssg71
g592
sg64
(lp599
g411
asbag57
(g78
g59
NtRp600
(dp601
g62
(dp602
g89
g90
ssg71
g592
sg64
(lp603
S':'
asbag57
(g78
g59
NtRp604
(dp605
g62
(dp606
sg71
g592
sg64
(lp607
g57
(g58
g59
NtRp608
(dp609
g62
(dp610
g70
I3
ssg71
g604
sg64
(lp611
S''
asbasbasbag57
(g73
g59
NtRp612
(dp613
g62
(dp614
sg71
g488
sg64
(lp615
g57
(g78
g59
NtRp616
(dp617
g62
(dp618
g82
g83
ssg71
g612
sg64
(lp619
g432
asbag57
(g78
g59
NtRp620
(dp621
g62
(dp622
g89
g90
ssg71
g612
sg64
(lp623
S':'
asbag57
(g78
g59
NtRp624
(dp625
g62
(dp626
sg71
g612
sg64
(lp627
g57
(g58
g59
NtRp628
(dp629
g62
(dp630
g70
I3
ssg71
g624
sg64
(lp631
S''
asbasbasbag57
(g73
g59
NtRp632
(dp633
g62
(dp634
sg71
g488
sg64
(lp635
g57
(g78
g59
NtRp636
(dp637
g62
(dp638
g82
g83
ssg71
g632
sg64
(lp639
g453
asbag57
(g78
g59
NtRp640
(dp641
g62
(dp642
g89
g90
ssg71
g632
sg64
(lp643
S':'
asbag57
(g78
g59
NtRp644
(dp645
g62
(dp646
sg71
g632
sg64
(lp647
g57
(g58
g59
NtRp648
(dp649
g62
(dp650
g70
I3
ssg71
g644
sg64
(lp651
S''
asbasbasbasbasbasbasbag57
(g73
g59
NtRp652
(dp653
g62
(dp654
sg71
g268
sg64
(lp655
g57
(g78
g59
NtRp656
(dp657
g62
(dp658
g82
g83
ssg71
g652
sg64
(lp659
S'session_id_ialbum'
p660
asbag57
(g78
g59
NtRp661
(dp662
g62
(dp663
g89
g90
ssg71
g652
sg64
(lp664
S':'
asbag57
(g78
g59
NtRp665
(dp666
g62
(dp667
sg71
g652
sg64
(lp668
g57
(g58
g59
NtRp669
(dp670
g62
(dp671
g70
I4
ssg71
g665
sg64
(lp672
S'127.0.0.1-8bab57f4-8655-4ca4-8b5d-11fde04576c5'
p673
ag57
(g66
g59
NtRp674
(dp675
g62
(dp676
g70
I3
ssg71
Nsg64
(lp677
g57
(g73
g59
NtRp678
(dp679
g62
(dp680
sg71
g674
sg64
(lp681
g57
(g78
g59
NtRp682
(dp683
g62
(dp684
g82
g83
ssg71
g678
sg64
(lp685
g306
asbag57
(g78
g59
NtRp686
(dp687
g62
(dp688
g89
g90
ssg71
g678
sg64
(lp689
S':'
asbag57
(g78
g59
NtRp690
(dp691
g62
(dp692
sg71
g678
sg64
(lp693
g57
(g58
g59
NtRp694
(dp695
g62
(dp696
g70
I3
ssg71
g690
sg64
(lp697
S''
asbasbasbag57
(g73
g59
NtRp698
(dp699
g62
(dp700
sg71
g674
sg64
(lp701
g57
(g78
g59
NtRp702
(dp703
g62
(dp704
g82
g83
ssg71
g698
sg64
(lp705
g327
asbag57
(g78
g59
NtRp706
(dp707
g62
(dp708
g89
g90
ssg71
g698
sg64
(lp709
S':'
asbag57
(g78
g59
NtRp710
(dp711
g62
(dp712
sg71
g698
sg64
(lp713
g57
(g58
g59
NtRp714
(dp715
g62
(dp716
g70
I3
ssg71
g710
sg64
(lp717
S''
asbasbasbag57
(g73
g59
NtRp718
(dp719
g62
(dp720
sg71
g674
sg64
(lp721
g57
(g78
g59
NtRp722
(dp723
g62
(dp724
g82
g83
ssg71
g718
sg64
(lp725
g348
asbag57
(g78
g59
NtRp726
(dp727
g62
(dp728
g89
g90
ssg71
g718
sg64
(lp729
S':'
asbag57
(g78
g59
NtRp730
(dp731
g62
(dp732
sg71
g718
sg64
(lp733
g57
(g58
g59
NtRp734
(dp735
g62
(dp736
g70
I3
ssg71
g730
sg64
(lp737
S''
asbasbasbag57
(g73
g59
NtRp738
(dp739
g62
(dp740
sg71
g674
sg64
(lp741
g57
(g78
g59
NtRp742
(dp743
g62
(dp744
g82
g83
ssg71
g738
sg64
(lp745
g369
asbag57
(g78
g59
NtRp746
(dp747
g62
(dp748
g89
g90
ssg71
g738
sg64
(lp749
S':'
asbag57
(g78
g59
NtRp750
(dp751
g62
(dp752
sg71
g738
sg64
(lp753
g57
(g58
g59
NtRp754
(dp755
g62
(dp756
g70
I3
ssg71
g750
sg64
(lp757
S''
asbasbasbag57
(g73
g59
NtRp758
(dp759
g62
(dp760
sg71
g674
sg64
(lp761
g57
(g78
g59
NtRp762
(dp763
g62
(dp764
g82
g83
ssg71
g758
sg64
(lp765
g390
asbag57
(g78
g59
NtRp766
(dp767
g62
(dp768
g89
g90
ssg71
g758
sg64
(lp769
S':'
asbag57
(g78
g59
NtRp770
(dp771
g62
(dp772
sg71
g758
sg64
(lp773
g57
(g58
g59
NtRp774
(dp775
g62
(dp776
g70
I3
ssg71
g770
sg64
(lp777
S''
asbasbasbag57
(g73
g59
NtRp778
(dp779
g62
(dp780
sg71
g674
sg64
(lp781
g57
(g78
g59
NtRp782
(dp783
g62
(dp784
g82
g83
ssg71
g778
sg64
(lp785
g411
asbag57
(g78
g59
NtRp786
(dp787
g62
(dp788
g89
g90
ssg71
g778
sg64
(lp789
S':'
asbag57
(g78
g59
NtRp790
(dp791
g62
(dp792
sg71
g778
sg64
(lp793
g57
(g58
g59
NtRp794
(dp795
g62
(dp796
g70
I3
ssg71
g790
sg64
(lp797
S''
asbasbasbag57
(g73
g59
NtRp798
(dp799
g62
(dp800
sg71
g674
sg64
(lp801
g57
(g78
g59
NtRp802
(dp803
g62
(dp804
g82
g83
ssg71
g798
sg64
(lp805
g432
asbag57
(g78
g59
NtRp806
(dp807
g62
(dp808
g89
g90
ssg71
g798
sg64
(lp809
S':'
asbag57
(g78
g59
NtRp810
(dp811
g62
(dp812
sg71
g798
sg64
(lp813
g57
(g58
g59
NtRp814
(dp815
g62
(dp816
g70
I3
ssg71
g810
sg64
(lp817
S''
asbasbasbag57
(g73
g59
NtRp818
(dp819
g62
(dp820
sg71
g674
sg64
(lp821
g57
(g78
g59
NtRp822
(dp823
g62
(dp824
g82
g83
ssg71
g818
sg64
(lp825
g453
asbag57
(g78
g59
NtRp826
(dp827
g62
(dp828
g89
g90
ssg71
g818
sg64
(lp829
S':'
asbag57
(g78
g59
NtRp830
(dp831
g62
(dp832
sg71
g818
sg64
(lp833
g57
(g58
g59
NtRp834
(dp835
g62
(dp836
g70
I3
ssg71
g830
sg64
(lp837
S''
asbasbasbasbasbasbasbag57
(g73
g59
NtRp838
(dp839
g62
(dp840
sg71
g268
sg64
(lp841
g57
(g78
g59
NtRp842
(dp843
g62
(dp844
g82
g83
ssg71
g838
sg64
(lp845
S'session_id_welcome'
p846
asbag57
(g78
g59
NtRp847
(dp848
g62
(dp849
g89
g90
ssg71
g838
sg64
(lp850
S':'
asbag57
(g78
g59
NtRp851
(dp852
g62
(dp853
sg71
g838
sg64
(lp854
g57
(g58
g59
NtRp855
(dp856
g62
(dp857
g70
I4
ssg71
g851
sg64
(lp858
S'127.0.0.1-3299e4b7-9181-4336-a2b6-d67ebc8bfe8e'
p859
ag57
(g66
g59
NtRp860
(dp861
g62
(dp862
g70
I3
ssg71
Nsg64
(lp863
g57
(g73
g59
NtRp864
(dp865
g62
(dp866
sg71
g860
sg64
(lp867
g57
(g78
g59
NtRp868
(dp869
g62
(dp870
g82
g83
ssg71
g864
sg64
(lp871
g306
asbag57
(g78
g59
NtRp872
(dp873
g62
(dp874
g89
g90
ssg71
g864
sg64
(lp875
S':'
asbag57
(g78
g59
NtRp876
(dp877
g62
(dp878
sg71
g864
sg64
(lp879
g57
(g58
g59
NtRp880
(dp881
g62
(dp882
g70
I3
ssg71
g876
sg64
(lp883
S''
asbasbasbag57
(g73
g59
NtRp884
(dp885
g62
(dp886
sg71
g860
sg64
(lp887
g57
(g78
g59
NtRp888
(dp889
g62
(dp890
g82
g83
ssg71
g884
sg64
(lp891
g327
asbag57
(g78
g59
NtRp892
(dp893
g62
(dp894
g89
g90
ssg71
g884
sg64
(lp895
S':'
asbag57
(g78
g59
NtRp896
(dp897
g62
(dp898
sg71
g884
sg64
(lp899
g57
(g58
g59
NtRp900
(dp901
g62
(dp902
g70
I3
ssg71
g896
sg64
(lp903
S''
asbasbasbag57
(g73
g59
NtRp904
(dp905
g62
(dp906
sg71
g860
sg64
(lp907
g57
(g78
g59
NtRp908
(dp909
g62
(dp910
g82
g83
ssg71
g904
sg64
(lp911
g348
asbag57
(g78
g59
NtRp912
(dp913
g62
(dp914
g89
g90
ssg71
g904
sg64
(lp915
S':'
asbag57
(g78
g59
NtRp916
(dp917
g62
(dp918
sg71
g904
sg64
(lp919
g57
(g58
g59
NtRp920
(dp921
g62
(dp922
g70
I3
ssg71
g916
sg64
(lp923
S''
asbasbasbag57
(g73
g59
NtRp924
(dp925
g62
(dp926
sg71
g860
sg64
(lp927
g57
(g78
g59
NtRp928
(dp929
g62
(dp930
g82
g83
ssg71
g924
sg64
(lp931
g369
asbag57
(g78
g59
NtRp932
(dp933
g62
(dp934
g89
g90
ssg71
g924
sg64
(lp935
S':'
asbag57
(g78
g59
NtRp936
(dp937
g62
(dp938
sg71
g924
sg64
(lp939
g57
(g58
g59
NtRp940
(dp941
g62
(dp942
g70
I3
ssg71
g936
sg64
(lp943
S''
asbasbasbag57
(g73
g59
NtRp944
(dp945
g62
(dp946
sg71
g860
sg64
(lp947
g57
(g78
g59
NtRp948
(dp949
g62
(dp950
g82
g83
ssg71
g944
sg64
(lp951
g390
asbag57
(g78
g59
NtRp952
(dp953
g62
(dp954
g89
g90
ssg71
g944
sg64
(lp955
S':'
asbag57
(g78
g59
NtRp956
(dp957
g62
(dp958
sg71
g944
sg64
(lp959
g57
(g58
g59
NtRp960
(dp961
g62
(dp962
g70
I3
ssg71
g956
sg64
(lp963
S''
asbasbasbag57
(g73
g59
NtRp964
(dp965
g62
(dp966
sg71
g860
sg64
(lp967
g57
(g78
g59
NtRp968
(dp969
g62
(dp970
g82
g83
ssg71
g964
sg64
(lp971
g411
asbag57
(g78
g59
NtRp972
(dp973
g62
(dp974
g89
g90
ssg71
g964
sg64
(lp975
S':'
asbag57
(g78
g59
NtRp976
(dp977
g62
(dp978
sg71
g964
sg64
(lp979
g57
(g58
g59
NtRp980
(dp981
g62
(dp982
g70
I3
ssg71
g976
sg64
(lp983
S''
asbasbasbag57
(g73
g59
NtRp984
(dp985
g62
(dp986
sg71
g860
sg64
(lp987
g57
(g78
g59
NtRp988
(dp989
g62
(dp990
g82
g83
ssg71
g984
sg64
(lp991
g432
asbag57
(g78
g59
NtRp992
(dp993
g62
(dp994
g89
g90
ssg71
g984
sg64
(lp995
S':'
asbag57
(g78
g59
NtRp996
(dp997
g62
(dp998
sg71
g984
sg64
(lp999
g57
(g58
g59
NtRp1000
(dp1001
g62
(dp1002
g70
I3
ssg71
g996
sg64
(lp1003
S''
asbasbasbag57
(g73
g59
NtRp1004
(dp1005
g62
(dp1006
sg71
g860
sg64
(lp1007
g57
(g78
g59
NtRp1008
(dp1009
g62
(dp1010
g82
g83
ssg71
g1004
sg64
(lp1011
g453
asbag57
(g78
g59
NtRp1012
(dp1013
g62
(dp1014
g89
g90
ssg71
g1004
sg64
(lp1015
S':'
asbag57
(g78
g59
NtRp1016
(dp1017
g62
(dp1018
sg71
g1004
sg64
(lp1019
g57
(g58
g59
NtRp1020
(dp1021
g62
(dp1022
g70
I3
ssg71
g1016
sg64
(lp1023
S''
asbasbasbasbasbasbasbasbasbasbasbag57
(g73
g59
NtRp1024
(dp1025
g62
(dp1026
sg71
g67
sg64
(lp1027
g57
(g78
g59
NtRp1028
(dp1029
g62
(dp1030
g82
g83
ssg71
g1024
sg64
(lp1031
S'env'
p1032
asbag57
(g78
g59
NtRp1033
(dp1034
g62
(dp1035
g89
g90
ssg71
g1024
sg64
(lp1036
S':'
asbag57
(g78
g59
NtRp1037
(dp1038
g62
(dp1039
sg71
g1024
sg64
(lp1040
g57
(g58
g59
NtRp1041
(dp1042
g62
(dp1043
g70
I5
ssg71
g1037
sg64
(lp1044
g57
(g66
g59
NtRp1045
(dp1046
g62
(dp1047
g70
I4
ssg71
Nsg64
(lp1048
g57
(g73
g59
NtRp1049
(dp1050
g62
(dp1051
sg71
g1045
sg64
(lp1052
g57
(g78
g59
NtRp1053
(dp1054
g62
(dp1055
g82
g83
ssg71
g1049
sg64
(lp1056
S'app_folders'
p1057
asbag57
(g78
g59
NtRp1058
(dp1059
g62
(dp1060
g89
g90
ssg71
g1049
sg64
(lp1061
S':'
asbag57
(g78
g59
NtRp1062
(dp1063
g62
(dp1064
sg71
g1049
sg64
(lp1065
g57
(g58
g59
NtRp1066
(dp1067
g62
(dp1068
g70
I4
ssg71
g1062
sg64
(lp1069
S"set(['/home/piyush/web2py/applications/FotoBuk/', '/home/piyush/web2py/applications/welcome/', '/home/piyush/web2py/applications/admin/'])"
p1070
asbasbasbag57
(g73
g59
NtRp1071
(dp1072
g62
(dp1073
sg71
g1045
sg64
(lp1074
g57
(g78
g59
NtRp1075
(dp1076
g62
(dp1077
g82
g83
ssg71
g1071
sg64
(lp1078
S'applications_parent'
p1079
asbag57
(g78
g59
NtRp1080
(dp1081
g62
(dp1082
g89
g90
ssg71
g1071
sg64
(lp1083
S':'
asbag57
(g78
g59
NtRp1084
(dp1085
g62
(dp1086
sg71
g1071
sg64
(lp1087
g57
(g58
g59
NtRp1088
(dp1089
g62
(dp1090
g70
I4
ssg71
g1084
sg64
(lp1091
S'/home/piyush/web2py'
p1092
asbasbasbag57
(g73
g59
NtRp1093
(dp1094
g62
(dp1095
sg71
g1045
sg64
(lp1096
g57
(g78
g59
NtRp1097
(dp1098
g62
(dp1099
g82
g83
ssg71
g1093
sg64
(lp1100
S'cmd_args'
p1101
asbag57
(g78
g59
NtRp1102
(dp1103
g62
(dp1104
g89
g90
ssg71
g1093
sg64
(lp1105
S':'
asbag57
(g78
g59
NtRp1106
(dp1107
g62
(dp1108
sg71
g1093
sg64
(lp1109
g57
(g58
g59
NtRp1110
(dp1111
g62
(dp1112
g70
I4
ssg71
g1106
sg64
(lp1113
g57
(g66
g59
NtRp1114
(dp1115
g62
(dp1116
g70
I3
ssg71
Nsg64
(lp1117
sbasbasbasbag57
(g73
g59
NtRp1118
(dp1119
g62
(dp1120
sg71
g1045
sg64
(lp1121
g57
(g78
g59
NtRp1122
(dp1123
g62
(dp1124
g82
g83
ssg71
g1118
sg64
(lp1125
S'cmd_options'
p1126
asbag57
(g78
g59
NtRp1127
(dp1128
g62
(dp1129
g89
g90
ssg71
g1118
sg64
(lp1130
S':'
asbag57
(g78
g59
NtRp1131
(dp1132
g62
(dp1133
sg71
g1118
sg64
(lp1134
g57
(g58
g59
NtRp1135
(dp1136
g62
(dp1137
g70
I4
ssg71
g1131
sg64
(lp1138
S"<Values at 0x8d4130c: {'verbose': False, 'ip': '127.0.0.1', 'with_scheduler': False, 'ips': ['10.1.39.167', '10.42.0.1'], 'shutdown_timeout': 5, 'taskbar': False, 'port': 8000, 'maxthreads': None, 'softcron': False, 'server_name': 'Solo', 'bpython': False, 'nogui': False, 'nocron': False, 'extcron': False, 'run_system_tests': False, 'test': None, 'folder': '/home/piyush/web2py', 'config': '', 'import_models': False, 'winservice': '', 'shell': None, 'run': '', 'log_filename': 'httpserver.log', 'debuglevel': 30, 'args': [''], 'socket_timeout': 5, 'ssl_ca_certificate': None, 'scheduler': None, 'profiler_filename': None, 'ssl_private_key': '', 'scheduler_groups': None, 'password': '<ask>', 'request_queue_size': 5, 'ssl_certificate': '', 'cronjob': False, 'numthreads': None, 'quiet': False, 'interfaces': None, 'minthreads': None, 'timeout': 10, 'plain': False, 'nobanner': False, 'pid_filename': 'httpserver.pid'}>"
p1139
asbasbasbag57
(g73
g59
NtRp1140
(dp1141
g62
(dp1142
sg71
g1045
sg64
(lp1143
g57
(g78
g59
NtRp1144
(dp1145
g62
(dp1146
g82
g83
ssg71
g1140
sg64
(lp1147
S'db_sessions'
p1148
asbag57
(g78
g59
NtRp1149
(dp1150
g62
(dp1151
g89
g90
ssg71
g1140
sg64
(lp1152
S':'
asbag57
(g78
g59
NtRp1153
(dp1154
g62
(dp1155
sg71
g1140
sg64
(lp1156
g57
(g58
g59
NtRp1157
(dp1158
g62
(dp1159
g70
I4
ssg71
g1153
sg64
(lp1160
S'set([])'
p1161
asbasbasbag57
(g73
g59
NtRp1162
(dp1163
g62
(dp1164
sg71
g1045
sg64
(lp1165
g57
(g78
g59
NtRp1166
(dp1167
g62
(dp1168
g82
g83
ssg71
g1162
sg64
(lp1169
S'debugging'
p1170
asbag57
(g78
g59
NtRp1171
(dp1172
g62
(dp1173
g89
g90
ssg71
g1162
sg64
(lp1174
S':'
asbag57
(g78
g59
NtRp1175
(dp1176
g62
(dp1177
sg71
g1162
sg64
(lp1178
g57
(g58
g59
NtRp1179
(dp1180
g62
(dp1181
g70
I4
ssg71
g1175
sg64
(lp1182
g100
asbasbasbag57
(g73
g59
NtRp1183
(dp1184
g62
(dp1185
sg71
g1045
sg64
(lp1186
g57
(g78
g59
NtRp1187
(dp1188
g62
(dp1189
g82
g83
ssg71
g1183
sg64
(lp1190
S'gluon_parent'
p1191
asbag57
(g78
g59
NtRp1192
(dp1193
g62
(dp1194
g89
g90
ssg71
g1183
sg64
(lp1195
S':'
asbag57
(g78
g59
NtRp1196
(dp1197
g62
(dp1198
sg71
g1183
sg64
(lp1199
g57
(g58
g59
NtRp1200
(dp1201
g62
(dp1202
g70
I4
ssg71
g1196
sg64
(lp1203
S'/home/piyush/web2py'
p1204
asbasbasbag57
(g73
g59
NtRp1205
(dp1206
g62
(dp1207
sg71
g1045
sg64
(lp1208
g57
(g78
g59
NtRp1209
(dp1210
g62
(dp1211
g82
g83
ssg71
g1205
sg64
(lp1212
S'http_accept'
p1213
asbag57
(g78
g59
NtRp1214
(dp1215
g62
(dp1216
g89
g90
ssg71
g1205
sg64
(lp1217
S':'
asbag57
(g78
g59
NtRp1218
(dp1219
g62
(dp1220
sg71
g1205
sg64
(lp1221
g57
(g58
g59
NtRp1222
(dp1223
g62
(dp1224
g70
I4
ssg71
g1218
sg64
(lp1225
S'text/html,application/xhtml+xml,application/xml;q=0.9,*/*;q=0.8'
p1226
asbasbasbag57
(g73
g59
NtRp1227
(dp1228
g62
(dp1229
sg71
g1045
sg64
(lp1230
g57
(g78
g59
NtRp1231
(dp1232
g62
(dp1233
g82
g83
ssg71
g1227
sg64
(lp1234
S'http_accept_encoding'
p1235
asbag57
(g78
g59
NtRp1236
(dp1237
g62
(dp1238
g89
g90
ssg71
g1227
sg64
(lp1239
S':'
asbag57
(g78
g59
NtRp1240
(dp1241
g62
(dp1242
sg71
g1227
sg64
(lp1243
g57
(g58
g59
NtRp1244
(dp1245
g62
(dp1246
g70
I4
ssg71
g1240
sg64
(lp1247
S'gzip, deflate'
p1248
asbasbasbag57
(g73
g59
NtRp1249
(dp1250
g62
(dp1251
sg71
g1045
sg64
(lp1252
g57
(g78
g59
NtRp1253
(dp1254
g62
(dp1255
g82
g83
ssg71
g1249
sg64
(lp1256
S'http_accept_language'
p1257
asbag57
(g78
g59
NtRp1258
(dp1259
g62
(dp1260
g89
g90
ssg71
g1249
sg64
(lp1261
S':'
asbag57
(g78
g59
NtRp1262
(dp1263
g62
(dp1264
sg71
g1249
sg64
(lp1265
g57
(g58
g59
NtRp1266
(dp1267
g62
(dp1268
g70
I4
ssg71
g1262
sg64
(lp1269
S'en-us,en;q=0.5'
p1270
asbasbasbag57
(g73
g59
NtRp1271
(dp1272
g62
(dp1273
sg71
g1045
sg64
(lp1274
g57
(g78
g59
NtRp1275
(dp1276
g62
(dp1277
g82
g83
ssg71
g1271
sg64
(lp1278
S'http_connection'
p1279
asbag57
(g78
g59
NtRp1280
(dp1281
g62
(dp1282
g89
g90
ssg71
g1271
sg64
(lp1283
S':'
asbag57
(g78
g59
NtRp1284
(dp1285
g62
(dp1286
sg71
g1271
sg64
(lp1287
g57
(g58
g59
NtRp1288
(dp1289
g62
(dp1290
g70
I4
ssg71
g1284
sg64
(lp1291
S'keep-alive'
p1292
asbasbasbag57
(g73
g59
NtRp1293
(dp1294
g62
(dp1295
sg71
g1045
sg64
(lp1296
g57
(g78
g59
NtRp1297
(dp1298
g62
(dp1299
g82
g83
ssg71
g1293
sg64
(lp1300
S'http_cookie'
p1301
asbag57
(g78
g59
NtRp1302
(dp1303
g62
(dp1304
g89
g90
ssg71
g1293
sg64
(lp1305
S':'
asbag57
(g78
g59
NtRp1306
(dp1307
g62
(dp1308
sg71
g1293
sg64
(lp1309
g57
(g58
g59
NtRp1310
(dp1311
g62
(dp1312
g70
I4
ssg71
g1306
sg64
(lp1313
S'session_id_welcome=127.0.0.1-3299e4b7-9181-4336-a2b6-d67ebc8bfe8e; session_id_admin=127.0.0.1-f31a16a6-2f0e-474e-b0b5-7ca781ebd64d; session_id_ialbum=127.0.0.1-8bab57f4-8655-4ca4-8b5d-11fde04576c5; session_id_fotobuk=127.0.0.1-961e4bc4-dc07-4e6c-b9f7-52a46e56ffd5'
p1314
asbasbasbag57
(g73
g59
NtRp1315
(dp1316
g62
(dp1317
sg71
g1045
sg64
(lp1318
g57
(g78
g59
NtRp1319
(dp1320
g62
(dp1321
g82
g83
ssg71
g1315
sg64
(lp1322
S'http_host'
p1323
asbag57
(g78
g59
NtRp1324
(dp1325
g62
(dp1326
g89
g90
ssg71
g1315
sg64
(lp1327
S':'
asbag57
(g78
g59
NtRp1328
(dp1329
g62
(dp1330
sg71
g1315
sg64
(lp1331
g57
(g58
g59
NtRp1332
(dp1333
g62
(dp1334
g70
I4
ssg71
g1328
sg64
(lp1335
S'localhost:8000'
p1336
asbasbasbag57
(g73
g59
NtRp1337
(dp1338
g62
(dp1339
sg71
g1045
sg64
(lp1340
g57
(g78
g59
NtRp1341
(dp1342
g62
(dp1343
g82
g83
ssg71
g1337
sg64
(lp1344
S'http_user_agent'
p1345
asbag57
(g78
g59
NtRp1346
(dp1347
g62
(dp1348
g89
g90
ssg71
g1337
sg64
(lp1349
S':'
asbag57
(g78
g59
NtRp1350
(dp1351
g62
(dp1352
sg71
g1337
sg64
(lp1353
g57
(g58
g59
NtRp1354
(dp1355
g62
(dp1356
g70
I4
ssg71
g1350
sg64
(lp1357
S'Mozilla/5.0 (X11; Linux i686; rv:11.0) Gecko/20100101 Firefox/11.0'
p1358
asbasbasbag57
(g73
g59
NtRp1359
(dp1360
g62
(dp1361
sg71
g1045
sg64
(lp1362
g57
(g78
g59
NtRp1363
(dp1364
g62
(dp1365
g82
g83
ssg71
g1359
sg64
(lp1366
S'is_jython'
p1367
asbag57
(g78
g59
NtRp1368
(dp1369
g62
(dp1370
g89
g90
ssg71
g1359
sg64
(lp1371
S':'
asbag57
(g78
g59
NtRp1372
(dp1373
g62
(dp1374
sg71
g1359
sg64
(lp1375
g57
(g58
g59
NtRp1376
(dp1377
g62
(dp1378
g70
I4
ssg71
g1372
sg64
(lp1379
g100
asbasbasbag57
(g73
g59
NtRp1380
(dp1381
g62
(dp1382
sg71
g1045
sg64
(lp1383
g57
(g78
g59
NtRp1384
(dp1385
g62
(dp1386
g82
g83
ssg71
g1380
sg64
(lp1387
S'is_pypy'
p1388
asbag57
(g78
g59
NtRp1389
(dp1390
g62
(dp1391
g89
g90
ssg71
g1380
sg64
(lp1392
S':'
asbag57
(g78
g59
NtRp1393
(dp1394
g62
(dp1395
sg71
g1380
sg64
(lp1396
g57
(g58
g59
NtRp1397
(dp1398
g62
(dp1399
g70
I4
ssg71
g1393
sg64
(lp1400
g100
asbasbasbag57
(g73
g59
NtRp1401
(dp1402
g62
(dp1403
sg71
g1045
sg64
(lp1404
g57
(g78
g59
NtRp1405
(dp1406
g62
(dp1407
g82
g83
ssg71
g1401
sg64
(lp1408
S'path_info'
p1409
asbag57
(g78
g59
NtRp1410
(dp1411
g62
(dp1412
g89
g90
ssg71
g1401
sg64
(lp1413
S':'
asbag57
(g78
g59
NtRp1414
(dp1415
g62
(dp1416
sg71
g1401
sg64
(lp1417
g57
(g58
g59
NtRp1418
(dp1419
g62
(dp1420
g70
I4
ssg71
g1414
sg64
(lp1421
S'/FotoBuk/default/show/1'
p1422
asbasbasbag57
(g73
g59
NtRp1423
(dp1424
g62
(dp1425
sg71
g1045
sg64
(lp1426
g57
(g78
g59
NtRp1427
(dp1428
g62
(dp1429
g82
g83
ssg71
g1423
sg64
(lp1430
S'query_string'
p1431
asbag57
(g78
g59
NtRp1432
(dp1433
g62
(dp1434
g89
g90
ssg71
g1423
sg64
(lp1435
S':'
asbag57
(g78
g59
NtRp1436
(dp1437
g62
(dp1438
sg71
g1423
sg64
(lp1439
g57
(g58
g59
NtRp1440
(dp1441
g62
(dp1442
g70
I4
ssg71
g1436
sg64
(lp1443
S''
asbasbasbag57
(g73
g59
NtRp1444
(dp1445
g62
(dp1446
sg71
g1045
sg64
(lp1447
g57
(g78
g59
NtRp1448
(dp1449
g62
(dp1450
g82
g83
ssg71
g1444
sg64
(lp1451
S'remote_addr'
p1452
asbag57
(g78
g59
NtRp1453
(dp1454
g62
(dp1455
g89
g90
ssg71
g1444
sg64
(lp1456
S':'
asbag57
(g78
g59
NtRp1457
(dp1458
g62
(dp1459
sg71
g1444
sg64
(lp1460
g57
(g58
g59
NtRp1461
(dp1462
g62
(dp1463
g70
I4
ssg71
g1457
sg64
(lp1464
g224
asbasbasbag57
(g73
g59
NtRp1465
(dp1466
g62
(dp1467
sg71
g1045
sg64
(lp1468
g57
(g78
g59
NtRp1469
(dp1470
g62
(dp1471
g82
g83
ssg71
g1465
sg64
(lp1472
S'remote_port'
p1473
asbag57
(g78
g59
NtRp1474
(dp1475
g62
(dp1476
g89
g90
ssg71
g1465
sg64
(lp1477
S':'
asbag57
(g78
g59
NtRp1478
(dp1479
g62
(dp1480
sg71
g1465
sg64
(lp1481
g57
(g58
g59
NtRp1482
(dp1483
g62
(dp1484
g70
I4
ssg71
g1478
sg64
(lp1485
S'48928'
p1486
asbasbasbag57
(g73
g59
NtRp1487
(dp1488
g62
(dp1489
sg71
g1045
sg64
(lp1490
g57
(g78
g59
NtRp1491
(dp1492
g62
(dp1493
g82
g83
ssg71
g1487
sg64
(lp1494
S'request_method'
p1495
asbag57
(g78
g59
NtRp1496
(dp1497
g62
(dp1498
g89
g90
ssg71
g1487
sg64
(lp1499
S':'
asbag57
(g78
g59
NtRp1500
(dp1501
g62
(dp1502
sg71
g1487
sg64
(lp1503
g57
(g58
g59
NtRp1504
(dp1505
g62
(dp1506
g70
I4
ssg71
g1500
sg64
(lp1507
S'GET'
p1508
asbasbasbag57
(g73
g59
NtRp1509
(dp1510
g62
(dp1511
sg71
g1045
sg64
(lp1512
g57
(g78
g59
NtRp1513
(dp1514
g62
(dp1515
g82
g83
ssg71
g1509
sg64
(lp1516
S'script_name'
p1517
asbag57
(g78
g59
NtRp1518
(dp1519
g62
(dp1520
g89
g90
ssg71
g1509
sg64
(lp1521
S':'
asbag57
(g78
g59
NtRp1522
(dp1523
g62
(dp1524
sg71
g1509
sg64
(lp1525
g57
(g58
g59
NtRp1526
(dp1527
g62
(dp1528
g70
I4
ssg71
g1522
sg64
(lp1529
S''
asbasbasbag57
(g73
g59
NtRp1530
(dp1531
g62
(dp1532
sg71
g1045
sg64
(lp1533
g57
(g78
g59
NtRp1534
(dp1535
g62
(dp1536
g82
g83
ssg71
g1530
sg64
(lp1537
S'server_name'
p1538
asbag57
(g78
g59
NtRp1539
(dp1540
g62
(dp1541
g89
g90
ssg71
g1530
sg64
(lp1542
S':'
asbag57
(g78
g59
NtRp1543
(dp1544
g62
(dp1545
sg71
g1530
sg64
(lp1546
g57
(g58
g59
NtRp1547
(dp1548
g62
(dp1549
g70
I4
ssg71
g1543
sg64
(lp1550
S'Solo'
p1551
asbasbasbag57
(g73
g59
NtRp1552
(dp1553
g62
(dp1554
sg71
g1045
sg64
(lp1555
g57
(g78
g59
NtRp1556
(dp1557
g62
(dp1558
g82
g83
ssg71
g1552
sg64
(lp1559
S'server_port'
p1560
asbag57
(g78
g59
NtRp1561
(dp1562
g62
(dp1563
g89
g90
ssg71
g1552
sg64
(lp1564
S':'
asbag57
(g78
g59
NtRp1565
(dp1566
g62
(dp1567
sg71
g1552
sg64
(lp1568
g57
(g58
g59
NtRp1569
(dp1570
g62
(dp1571
g70
I4
ssg71
g1565
sg64
(lp1572
S'8000'
p1573
asbasbasbag57
(g73
g59
NtRp1574
(dp1575
g62
(dp1576
sg71
g1045
sg64
(lp1577
g57
(g78
g59
NtRp1578
(dp1579
g62
(dp1580
g82
g83
ssg71
g1574
sg64
(lp1581
S'server_protocol'
p1582
asbag57
(g78
g59
NtRp1583
(dp1584
g62
(dp1585
g89
g90
ssg71
g1574
sg64
(lp1586
S':'
asbag57
(g78
g59
NtRp1587
(dp1588
g62
(dp1589
sg71
g1574
sg64
(lp1590
g57
(g58
g59
NtRp1591
(dp1592
g62
(dp1593
g70
I4
ssg71
g1587
sg64
(lp1594
S'HTTP/1.1'
p1595
asbasbasbag57
(g73
g59
NtRp1596
(dp1597
g62
(dp1598
sg71
g1045
sg64
(lp1599
g57
(g78
g59
NtRp1600
(dp1601
g62
(dp1602
g82
g83
ssg71
g1596
sg64
(lp1603
S'server_software'
p1604
asbag57
(g78
g59
NtRp1605
(dp1606
g62
(dp1607
g89
g90
ssg71
g1596
sg64
(lp1608
S':'
asbag57
(g78
g59
NtRp1609
(dp1610
g62
(dp1611
sg71
g1596
sg64
(lp1612
g57
(g58
g59
NtRp1613
(dp1614
g62
(dp1615
g70
I4
ssg71
g1609
sg64
(lp1616
S'Rocket 1.2.4'
p1617
asbasbasbag57
(g73
g59
NtRp1618
(dp1619
g62
(dp1620
sg71
g1045
sg64
(lp1621
g57
(g78
g59
NtRp1622
(dp1623
g62
(dp1624
g82
g83
ssg71
g1618
sg64
(lp1625
S'web2py_crontype'
p1626
asbag57
(g78
g59
NtRp1627
(dp1628
g62
(dp1629
g89
g90
ssg71
g1618
sg64
(lp1630
S':'
asbag57
(g78
g59
NtRp1631
(dp1632
g62
(dp1633
sg71
g1618
sg64
(lp1634
g57
(g58
g59
NtRp1635
(dp1636
g62
(dp1637
g70
I4
ssg71
g1631
sg64
(lp1638
S'hard'
p1639
asbasbasbag57
(g73
g59
NtRp1640
(dp1641
g62
(dp1642
sg71
g1045
sg64
(lp1643
g57
(g78
g59
NtRp1644
(dp1645
g62
(dp1646
g82
g83
ssg71
g1640
sg64
(lp1647
S'web2py_path'
p1648
asbag57
(g78
g59
NtRp1649
(dp1650
g62
(dp1651
g89
g90
ssg71
g1640
sg64
(lp1652
S':'
asbag57
(g78
g59
NtRp1653
(dp1654
g62
(dp1655
sg71
g1640
sg64
(lp1656
g57
(g58
g59
NtRp1657
(dp1658
g62
(dp1659
g70
I4
ssg71
g1653
sg64
(lp1660
g1092
asbasbasbag57
(g73
g59
NtRp1661
(dp1662
g62
(dp1663
sg71
g1045
sg64
(lp1664
g57
(g78
g59
NtRp1665
(dp1666
g62
(dp1667
g82
g83
ssg71
g1661
sg64
(lp1668
S'web2py_version'
p1669
asbag57
(g78
g59
NtRp1670
(dp1671
g62
(dp1672
g89
g90
ssg71
g1661
sg64
(lp1673
S':'
asbag57
(g78
g59
NtRp1674
(dp1675
g62
(dp1676
sg71
g1661
sg64
(lp1677
g57
(g58
g59
NtRp1678
(dp1679
g62
(dp1680
g70
I4
ssg71
g1674
sg64
(lp1681
g57
(g66
g59
NtRp1682
(dp1683
g62
(dp1684
g70
I3
ssg71
Nsg64
(lp1685
g57
(g73
g59
NtRp1686
(dp1687
g62
(dp1688
sg71
g1682
sg64
(lp1689
g57
(g78
g59
NtRp1690
(dp1691
g62
(dp1692
sg71
g1686
sg64
(lp1693
g57
(g58
g59
NtRp1694
(dp1695
g62
(dp1696
g70
I3
ssg71
g1690
sg64
(lp1697
S'2'
asbasbasbag57
(g73
g59
NtRp1698
(dp1699
g62
(dp1700
sg71
g1682
sg64
(lp1701
g57
(g78
g59
NtRp1702
(dp1703
g62
(dp1704
sg71
g1698
sg64
(lp1705
g57
(g58
g59
NtRp1706
(dp1707
g62
(dp1708
g70
I3
ssg71
g1702
sg64
(lp1709
S'0'
asbasbasbag57
(g73
g59
NtRp1710
(dp1711
g62
(dp1712
sg71
g1682
sg64
(lp1713
g57
(g78
g59
NtRp1714
(dp1715
g62
(dp1716
sg71
g1710
sg64
(lp1717
g57
(g58
g59
NtRp1718
(dp1719
g62
(dp1720
g70
I3
ssg71
g1714
sg64
(lp1721
S'2'
asbasbasbag57
(g73
g59
NtRp1722
(dp1723
g62
(dp1724
sg71
g1682
sg64
(lp1725
g57
(g78
g59
NtRp1726
(dp1727
g62
(dp1728
sg71
g1722
sg64
(lp1729
g57
(g58
g59
NtRp1730
(dp1731
g62
(dp1732
g70
I3
ssg71
g1726
sg64
(lp1733
S'datetime.datetime(2012, 8, 30, 4, 8, 18)'
p1734
asbasbasbag57
(g73
g59
NtRp1735
(dp1736
g62
(dp1737
sg71
g1682
sg64
(lp1738
g57
(g78
g59
NtRp1739
(dp1740
g62
(dp1741
sg71
g1735
sg64
(lp1742
g57
(g58
g59
NtRp1743
(dp1744
g62
(dp1745
g70
I3
ssg71
g1739
sg64
(lp1746
S'stable'
p1747
asbasbasbasbasbasbasbag57
(g73
g59
NtRp1748
(dp1749
g62
(dp1750
sg71
g1045
sg64
(lp1751
g57
(g78
g59
NtRp1752
(dp1753
g62
(dp1754
g82
g83
ssg71
g1748
sg64
(lp1755
S'wsgi_errors'
p1756
asbag57
(g78
g59
NtRp1757
(dp1758
g62
(dp1759
g89
g90
ssg71
g1748
sg64
(lp1760
S':'
asbag57
(g78
g59
NtRp1761
(dp1762
g62
(dp1763
sg71
g1748
sg64
(lp1764
g57
(g58
g59
NtRp1765
(dp1766
g62
(dp1767
g70
I4
ssg71
g1761
sg64
(lp1768
S"<open file '<stderr>', mode 'w' at 0xb772d0d0>"
p1769
asbasbasbag57
(g73
g59
NtRp1770
(dp1771
g62
(dp1772
sg71
g1045
sg64
(lp1773
g57
(g78
g59
NtRp1774
(dp1775
g62
(dp1776
g82
g83
ssg71
g1770
sg64
(lp1777
S'wsgi_file_wrapper'
p1778
asbag57
(g78
g59
NtRp1779
(dp1780
g62
(dp1781
g89
g90
ssg71
g1770
sg64
(lp1782
S':'
asbag57
(g78
g59
NtRp1783
(dp1784
g62
(dp1785
sg71
g1770
sg64
(lp1786
g57
(g58
g59
NtRp1787
(dp1788
g62
(dp1789
g70
I4
ssg71
g1783
sg64
(lp1790
S'<class wsgiref.util.FileWrapper at 0x8d0326c>'
p1791
asbasbasbag57
(g73
g59
NtRp1792
(dp1793
g62
(dp1794
sg71
g1045
sg64
(lp1795
g57
(g78
g59
NtRp1796
(dp1797
g62
(dp1798
g82
g83
ssg71
g1792
sg64
(lp1799
S'wsgi_input'
p1800
asbag57
(g78
g59
NtRp1801
(dp1802
g62
(dp1803
g89
g90
ssg71
g1792
sg64
(lp1804
S':'
asbag57
(g78
g59
NtRp1805
(dp1806
g62
(dp1807
sg71
g1792
sg64
(lp1808
g57
(g58
g59
NtRp1809
(dp1810
g62
(dp1811
g70
I4
ssg71
g1805
sg64
(lp1812
S'<socket._fileobject object at 0xb576256c>'
p1813
asbasbasbag57
(g73
g59
NtRp1814
(dp1815
g62
(dp1816
sg71
g1045
sg64
(lp1817
g57
(g78
g59
NtRp1818
(dp1819
g62
(dp1820
g82
g83
ssg71
g1814
sg64
(lp1821
S'wsgi_multiprocess'
p1822
asbag57
(g78
g59
NtRp1823
(dp1824
g62
(dp1825
g89
g90
ssg71
g1814
sg64
(lp1826
S':'
asbag57
(g78
g59
NtRp1827
(dp1828
g62
(dp1829
sg71
g1814
sg64
(lp1830
g57
(g58
g59
NtRp1831
(dp1832
g62
(dp1833
g70
I4
ssg71
g1827
sg64
(lp1834
g100
asbasbasbag57
(g73
g59
NtRp1835
(dp1836
g62
(dp1837
sg71
g1045
sg64
(lp1838
g57
(g78
g59
NtRp1839
(dp1840
g62
(dp1841
g82
g83
ssg71
g1835
sg64
(lp1842
S'wsgi_multithread'
p1843
asbag57
(g78
g59
NtRp1844
(dp1845
g62
(dp1846
g89
g90
ssg71
g1835
sg64
(lp1847
S':'
asbag57
(g78
g59
NtRp1848
(dp1849
g62
(dp1850
sg71
g1835
sg64
(lp1851
g57
(g58
g59
NtRp1852
(dp1853
g62
(dp1854
g70
I4
ssg71
g1848
sg64
(lp1855
S'True'
p1856
asbasbasbag57
(g73
g59
NtRp1857
(dp1858
g62
(dp1859
sg71
g1045
sg64
(lp1860
g57
(g78
g59
NtRp1861
(dp1862
g62
(dp1863
g82
g83
ssg71
g1857
sg64
(lp1864
S'wsgi_run_once'
p1865
asbag57
(g78
g59
NtRp1866
(dp1867
g62
(dp1868
g89
g90
ssg71
g1857
sg64
(lp1869
S':'
asbag57
(g78
g59
NtRp1870
(dp1871
g62
(dp1872
sg71
g1857
sg64
(lp1873
g57
(g58
g59
NtRp1874
(dp1875
g62
(dp1876
g70
I4
ssg71
g1870
sg64
(lp1877
g100
asbasbasbag57
(g73
g59
NtRp1878
(dp1879
g62
(dp1880
sg71
g1045
sg64
(lp1881
g57
(g78
g59
NtRp1882
(dp1883
g62
(dp1884
g82
g83
ssg71
g1878
sg64
(lp1885
S'wsgi_url_scheme'
p1886
asbag57
(g78
g59
NtRp1887
(dp1888
g62
(dp1889
g89
g90
ssg71
g1878
sg64
(lp1890
S':'
asbag57
(g78
g59
NtRp1891
(dp1892
g62
(dp1893
sg71
g1878
sg64
(lp1894
g57
(g58
g59
NtRp1895
(dp1896
g62
(dp1897
g70
I4
ssg71
g1891
sg64
(lp1898
S'http'
p1899
asbasbasbag57
(g73
g59
NtRp1900
(dp1901
g62
(dp1902
sg71
g1045
sg64
(lp1903
g57
(g78
g59
NtRp1904
(dp1905
g62
(dp1906
g82
g83
ssg71
g1900
sg64
(lp1907
S'wsgi_version'
p1908
asbag57
(g78
g59
NtRp1909
(dp1910
g62
(dp1911
g89
g90
ssg71
g1900
sg64
(lp1912
S':'
asbag57
(g78
g59
NtRp1913
(dp1914
g62
(dp1915
sg71
g1900
sg64
(lp1916
g57
(g58
g59
NtRp1917
(dp1918
g62
(dp1919
g70
I4
ssg71
g1913
sg64
(lp1920
g57
(g66
g59
NtRp1921
(dp1922
g62
(dp1923
g70
I3
ssg71
Nsg64
(lp1924
g57
(g73
g59
NtRp1925
(dp1926
g62
(dp1927
sg71
g1921
sg64
(lp1928
g57
(g78
g59
NtRp1929
(dp1930
g62
(dp1931
sg71
g1925
sg64
(lp1932
g57
(g58
g59
NtRp1933
(dp1934
g62
(dp1935
g70
I3
ssg71
g1929
sg64
(lp1936
S'1'
asbasbasbag57
(g73
g59
NtRp1937
(dp1938
g62
(dp1939
sg71
g1921
sg64
(lp1940
g57
(g78
g59
NtRp1941
(dp1942
g62
(dp1943
sg71
g1937
sg64
(lp1944
g57
(g58
g59
NtRp1945
(dp1946
g62
(dp1947
g70
I3
ssg71
g1941
sg64
(lp1948
S'0'
asbasbasbasbasbasbasbasbasbasbasbag57
(g73
g59
NtRp1949
(dp1950
g62
(dp1951
sg71
g67
sg64
(lp1952
g57
(g78
g59
NtRp1953
(dp1954
g62
(dp1955
g82
g83
ssg71
g1949
sg64
(lp1956
S'extension'
p1957
asbag57
(g78
g59
NtRp1958
(dp1959
g62
(dp1960
g89
g90
ssg71
g1949
sg64
(lp1961
S':'
asbag57
(g78
g59
NtRp1962
(dp1963
g62
(dp1964
sg71
g1949
sg64
(lp1965
g57
(g58
g59
NtRp1966
(dp1967
g62
(dp1968
g70
I5
ssg71
g1962
sg64
(lp1969
S'html'
p1970
asbasbasbag57
(g73
g59
NtRp1971
(dp1972
g62
(dp1973
sg71
g67
sg64
(lp1974
g57
(g78
g59
NtRp1975
(dp1976
g62
(dp1977
g82
g83
ssg71
g1971
sg64
(lp1978
S'folder'
p1979
asbag57
(g78
g59
NtRp1980
(dp1981
g62
(dp1982
g89
g90
ssg71
g1971
sg64
(lp1983
S':'
asbag57
(g78
g59
NtRp1984
(dp1985
g62
(dp1986
sg71
g1971
sg64
(lp1987
g57
(g58
g59
NtRp1988
(dp1989
g62
(dp1990
g70
I5
ssg71
g1984
sg64
(lp1991
S'/home/piyush/web2py/applications/FotoBuk/'
p1992
asbasbasbag57
(g73
g59
NtRp1993
(dp1994
g62
(dp1995
sg71
g67
sg64
(lp1996
g57
(g78
g59
NtRp1997
(dp1998
g62
(dp1999
g82
g83
ssg71
g1993
sg64
(lp2000
S'function'
p2001
asbag57
(g78
g59
NtRp2002
(dp2003
g62
(dp2004
g89
g90
ssg71
g1993
sg64
(lp2005
S':'
asbag57
(g78
g59
NtRp2006
(dp2007
g62
(dp2008
sg71
g1993
sg64
(lp2009
g57
(g58
g59
NtRp2010
(dp2011
g62
(dp2012
g70
I5
ssg71
g2006
sg64
(lp2013
S'show'
p2014
asbasbasbag57
(g73
g59
NtRp2015
(dp2016
g62
(dp2017
sg71
g67
sg64
(lp2018
g57
(g78
g59
NtRp2019
(dp2020
g62
(dp2021
g82
g83
ssg71
g2015
sg64
(lp2022
S'get_vars'
p2023
asbag57
(g78
g59
NtRp2024
(dp2025
g62
(dp2026
g89
g90
ssg71
g2015
sg64
(lp2027
S':'
asbag57
(g78
g59
NtRp2028
(dp2029
g62
(dp2030
sg71
g2015
sg64
(lp2031
g57
(g58
g59
NtRp2032
(dp2033
g62
(dp2034
g70
I5
ssg71
g2028
sg64
(lp2035
g57
(g66
g59
NtRp2036
(dp2037
g62
(dp2038
g70
I4
ssg71
Nsg64
(lp2039
sbasbasbasbag57
(g73
g59
NtRp2040
(dp2041
g62
(dp2042
sg71
g67
sg64
(lp2043
g57
(g78
g59
NtRp2044
(dp2045
g62
(dp2046
g82
g83
ssg71
g2040
sg64
(lp2047
S'global_settings'
p2048
asbag57
(g78
g59
NtRp2049
(dp2050
g62
(dp2051
g89
g90
ssg71
g2040
sg64
(lp2052
S':'
asbag57
(g78
g59
NtRp2053
(dp2054
g62
(dp2055
sg71
g2040
sg64
(lp2056
g57
(g58
g59
NtRp2057
(dp2058
g62
(dp2059
g70
I5
ssg71
g2053
sg64
(lp2060
g57
(g66
g59
NtRp2061
(dp2062
g62
(dp2063
g70
I4
ssg71
Nsg64
(lp2064
g57
(g73
g59
NtRp2065
(dp2066
g62
(dp2067
sg71
g2061
sg64
(lp2068
g57
(g78
g59
NtRp2069
(dp2070
g62
(dp2071
g82
g83
ssg71
g2065
sg64
(lp2072
g1057
asbag57
(g78
g59
NtRp2073
(dp2074
g62
(dp2075
g89
g90
ssg71
g2065
sg64
(lp2076
S':'
asbag57
(g78
g59
NtRp2077
(dp2078
g62
(dp2079
sg71
g2065
sg64
(lp2080
g57
(g58
g59
NtRp2081
(dp2082
g62
(dp2083
g70
I4
ssg71
g2077
sg64
(lp2084
S"set(['/home/piyush/web2py/applications/FotoBuk/', '/home/piyush/web2py/applications/welcome/', '/home/piyush/web2py/applications/admin/'])"
p2085
asbasbasbag57
(g73
g59
NtRp2086
(dp2087
g62
(dp2088
sg71
g2061
sg64
(lp2089
g57
(g78
g59
NtRp2090
(dp2091
g62
(dp2092
g82
g83
ssg71
g2086
sg64
(lp2093
g1079
asbag57
(g78
g59
NtRp2094
(dp2095
g62
(dp2096
g89
g90
ssg71
g2086
sg64
(lp2097
S':'
asbag57
(g78
g59
NtRp2098
(dp2099
g62
(dp2100
sg71
g2086
sg64
(lp2101
g57
(g58
g59
NtRp2102
(dp2103
g62
(dp2104
g70
I4
ssg71
g2098
sg64
(lp2105
g1092
asbasbasbag57
(g73
g59
NtRp2106
(dp2107
g62
(dp2108
sg71
g2061
sg64
(lp2109
g57
(g78
g59
NtRp2110
(dp2111
g62
(dp2112
g82
g83
ssg71
g2106
sg64
(lp2113
g1101
asbag57
(g78
g59
NtRp2114
(dp2115
g62
(dp2116
g89
g90
ssg71
g2106
sg64
(lp2117
S':'
asbag57
(g78
g59
NtRp2118
(dp2119
g62
(dp2120
sg71
g2106
sg64
(lp2121
g57
(g58
g59
NtRp2122
(dp2123
g62
(dp2124
g70
I4
ssg71
g2118
sg64
(lp2125
g57
(g66
g59
NtRp2126
(dp2127
g62
(dp2128
g70
I3
ssg71
Nsg64
(lp2129
sbasbasbasbag57
(g73
g59
NtRp2130
(dp2131
g62
(dp2132
sg71
g2061
sg64
(lp2133
g57
(g78
g59
NtRp2134
(dp2135
g62
(dp2136
g82
g83
ssg71
g2130
sg64
(lp2137
g1126
asbag57
(g78
g59
NtRp2138
(dp2139
g62
(dp2140
g89
g90
ssg71
g2130
sg64
(lp2141
S':'
asbag57
(g78
g59
NtRp2142
(dp2143
g62
(dp2144
sg71
g2130
sg64
(lp2145
g57
(g58
g59
NtRp2146
(dp2147
g62
(dp2148
g70
I4
ssg71
g2142
sg64
(lp2149
S"<Values at 0x8d4130c: {'verbose': False, 'ip': '127.0.0.1', 'with_scheduler': False, 'ips': ['10.1.39.167', '10.42.0.1'], 'shutdown_timeout': 5, 'taskbar': False, 'port': 8000, 'maxthreads': None, 'softcron': False, 'server_name': 'Solo', 'bpython': False, 'nogui': False, 'nocron': False, 'extcron': False, 'run_system_tests': False, 'test': None, 'folder': '/home/piyush/web2py', 'config': '', 'import_models': False, 'winservice': '', 'shell': None, 'run': '', 'log_filename': 'httpserver.log', 'debuglevel': 30, 'args': [''], 'socket_timeout': 5, 'ssl_ca_certificate': None, 'scheduler': None, 'profiler_filename': None, 'ssl_private_key': '', 'scheduler_groups': None, 'password': '<ask>', 'request_queue_size': 5, 'ssl_certificate': '', 'cronjob': False, 'numthreads': None, 'quiet': False, 'interfaces': None, 'minthreads': None, 'timeout': 10, 'plain': False, 'nobanner': False, 'pid_filename': 'httpserver.pid'}>"
p2150
asbasbasbag57
(g73
g59
NtRp2151
(dp2152
g62
(dp2153
sg71
g2061
sg64
(lp2154
g57
(g78
g59
NtRp2155
(dp2156
g62
(dp2157
g82
g83
ssg71
g2151
sg64
(lp2158
g1148
asbag57
(g78
g59
NtRp2159
(dp2160
g62
(dp2161
g89
g90
ssg71
g2151
sg64
(lp2162
S':'
asbag57
(g78
g59
NtRp2163
(dp2164
g62
(dp2165
sg71
g2151
sg64
(lp2166
g57
(g58
g59
NtRp2167
(dp2168
g62
(dp2169
g70
I4
ssg71
g2163
sg64
(lp2170
S'set([])'
p2171
asbasbasbag57
(g73
g59
NtRp2172
(dp2173
g62
(dp2174
sg71
g2061
sg64
(lp2175
g57
(g78
g59
NtRp2176
(dp2177
g62
(dp2178
g82
g83
ssg71
g2172
sg64
(lp2179
g1170
asbag57
(g78
g59
NtRp2180
(dp2181
g62
(dp2182
g89
g90
ssg71
g2172
sg64
(lp2183
S':'
asbag57
(g78
g59
NtRp2184
(dp2185
g62
(dp2186
sg71
g2172
sg64
(lp2187
g57
(g58
g59
NtRp2188
(dp2189
g62
(dp2190
g70
I4
ssg71
g2184
sg64
(lp2191
g100
asbasbasbag57
(g73
g59
NtRp2192
(dp2193
g62
(dp2194
sg71
g2061
sg64
(lp2195
g57
(g78
g59
NtRp2196
(dp2197
g62
(dp2198
g82
g83
ssg71
g2192
sg64
(lp2199
g1191
asbag57
(g78
g59
NtRp2200
(dp2201
g62
(dp2202
g89
g90
ssg71
g2192
sg64
(lp2203
S':'
asbag57
(g78
g59
NtRp2204
(dp2205
g62
(dp2206
sg71
g2192
sg64
(lp2207
g57
(g58
g59
NtRp2208
(dp2209
g62
(dp2210
g70
I4
ssg71
g2204
sg64
(lp2211
g1204
asbasbasbag57
(g73
g59
NtRp2212
(dp2213
g62
(dp2214
sg71
g2061
sg64
(lp2215
g57
(g78
g59
NtRp2216
(dp2217
g62
(dp2218
g82
g83
ssg71
g2212
sg64
(lp2219
g1367
asbag57
(g78
g59
NtRp2220
(dp2221
g62
(dp2222
g89
g90
ssg71
g2212
sg64
(lp2223
S':'
asbag57
(g78
g59
NtRp2224
(dp2225
g62
(dp2226
sg71
g2212
sg64
(lp2227
g57
(g58
g59
NtRp2228
(dp2229
g62
(dp2230
g70
I4
ssg71
g2224
sg64
(lp2231
g100
asbasbasbag57
(g73
g59
NtRp2232
(dp2233
g62
(dp2234
sg71
g2061
sg64
(lp2235
g57
(g78
g59
NtRp2236
(dp2237
g62
(dp2238
g82
g83
ssg71
g2232
sg64
(lp2239
g1388
asbag57
(g78
g59
NtRp2240
(dp2241
g62
(dp2242
g89
g90
ssg71
g2232
sg64
(lp2243
S':'
asbag57
(g78
g59
NtRp2244
(dp2245
g62
(dp2246
sg71
g2232
sg64
(lp2247
g57
(g58
g59
NtRp2248
(dp2249
g62
(dp2250
g70
I4
ssg71
g2244
sg64
(lp2251
g100
asbasbasbag57
(g73
g59
NtRp2252
(dp2253
g62
(dp2254
sg71
g2061
sg64
(lp2255
g57
(g78
g59
NtRp2256
(dp2257
g62
(dp2258
g82
g83
ssg71
g2252
sg64
(lp2259
g1626
asbag57
(g78
g59
NtRp2260
(dp2261
g62
(dp2262
g89
g90
ssg71
g2252
sg64
(lp2263
S':'
asbag57
(g78
g59
NtRp2264
(dp2265
g62
(dp2266
sg71
g2252
sg64
(lp2267
g57
(g58
g59
NtRp2268
(dp2269
g62
(dp2270
g70
I4
ssg71
g2264
sg64
(lp2271
g1639
asbasbasbag57
(g73
g59
NtRp2272
(dp2273
g62
(dp2274
sg71
g2061
sg64
(lp2275
g57
(g78
g59
NtRp2276
(dp2277
g62
(dp2278
g82
g83
ssg71
g2272
sg64
(lp2279
g1669
asbag57
(g78
g59
NtRp2280
(dp2281
g62
(dp2282
g89
g90
ssg71
g2272
sg64
(lp2283
S':'
asbag57
(g78
g59
NtRp2284
(dp2285
g62
(dp2286
sg71
g2272
sg64
(lp2287
g57
(g58
g59
NtRp2288
(dp2289
g62
(dp2290
g70
I4
ssg71
g2284
sg64
(lp2291
g57
(g66
g59
NtRp2292
(dp2293
g62
(dp2294
g70
I3
ssg71
Nsg64
(lp2295
g57
(g73
g59
NtRp2296
(dp2297
g62
(dp2298
sg71
g2292
sg64
(lp2299
g57
(g78
g59
NtRp2300
(dp2301
g62
(dp2302
sg71
g2296
sg64
(lp2303
g57
(g58
g59
NtRp2304
(dp2305
g62
(dp2306
g70
I3
ssg71
g2300
sg64
(lp2307
S'2'
asbasbasbag57
(g73
g59
NtRp2308
(dp2309
g62
(dp2310
sg71
g2292
sg64
(lp2311
g57
(g78
g59
NtRp2312
(dp2313
g62
(dp2314
sg71
g2308
sg64
(lp2315
g57
(g58
g59
NtRp2316
(dp2317
g62
(dp2318
g70
I3
ssg71
g2312
sg64
(lp2319
S'0'
asbasbasbag57
(g73
g59
NtRp2320
(dp2321
g62
(dp2322
sg71
g2292
sg64
(lp2323
g57
(g78
g59
NtRp2324
(dp2325
g62
(dp2326
sg71
g2320
sg64
(lp2327
g57
(g58
g59
NtRp2328
(dp2329
g62
(dp2330
g70
I3
ssg71
g2324
sg64
(lp2331
S'2'
asbasbasbag57
(g73
g59
NtRp2332
(dp2333
g62
(dp2334
sg71
g2292
sg64
(lp2335
g57
(g78
g59
NtRp2336
(dp2337
g62
(dp2338
sg71
g2332
sg64
(lp2339
g57
(g58
g59
NtRp2340
(dp2341
g62
(dp2342
g70
I3
ssg71
g2336
sg64
(lp2343
S'datetime.datetime(2012, 8, 30, 4, 8, 18)'
p2344
asbasbasbag57
(g73
g59
NtRp2345
(dp2346
g62
(dp2347
sg71
g2292
sg64
(lp2348
g57
(g78
g59
NtRp2349
(dp2350
g62
(dp2351
sg71
g2345
sg64
(lp2352
g57
(g58
g59
NtRp2353
(dp2354
g62
(dp2355
g70
I3
ssg71
g2349
sg64
(lp2356
g1747
asbasbasbasbasbasbasbasbasbasbasbag57
(g73
g59
NtRp2357
(dp2358
g62
(dp2359
sg71
g67
sg64
(lp2360
g57
(g78
g59
NtRp2361
(dp2362
g62
(dp2363
g82
g83
ssg71
g2357
sg64
(lp2364
S'is_https'
p2365
asbag57
(g78
g59
NtRp2366
(dp2367
g62
(dp2368
g89
g90
ssg71
g2357
sg64
(lp2369
S':'
asbag57
(g78
g59
NtRp2370
(dp2371
g62
(dp2372
sg71
g2357
sg64
(lp2373
g57
(g58
g59
NtRp2374
(dp2375
g62
(dp2376
g70
I5
ssg71
g2370
sg64
(lp2377
g100
asbasbasbag57
(g73
g59
NtRp2378
(dp2379
g62
(dp2380
sg71
g67
sg64
(lp2381
g57
(g78
g59
NtRp2382
(dp2383
g62
(dp2384
g82
g83
ssg71
g2378
sg64
(lp2385
S'is_local'
p2386
asbag57
(g78
g59
NtRp2387
(dp2388
g62
(dp2389
g89
g90
ssg71
g2378
sg64
(lp2390
S':'
asbag57
(g78
g59
NtRp2391
(dp2392
g62
(dp2393
sg71
g2378
sg64
(lp2394
g57
(g58
g59
NtRp2395
(dp2396
g62
(dp2397
g70
I5
ssg71
g2391
sg64
(lp2398
g1856
asbasbasbag57
(g73
g59
NtRp2399
(dp2400
g62
(dp2401
sg71
g67
sg64
(lp2402
g57
(g78
g59
NtRp2403
(dp2404
g62
(dp2405
g82
g83
ssg71
g2399
sg64
(lp2406
S'is_restful'
p2407
asbag57
(g78
g59
NtRp2408
(dp2409
g62
(dp2410
g89
g90
ssg71
g2399
sg64
(lp2411
S':'
asbag57
(g78
g59
NtRp2412
(dp2413
g62
(dp2414
sg71
g2399
sg64
(lp2415
g57
(g58
g59
NtRp2416
(dp2417
g62
(dp2418
g70
I5
ssg71
g2412
sg64
(lp2419
g100
asbasbasbag57
(g73
g59
NtRp2420
(dp2421
g62
(dp2422
sg71
g67
sg64
(lp2423
g57
(g78
g59
NtRp2424
(dp2425
g62
(dp2426
g82
g83
ssg71
g2420
sg64
(lp2427
S'now'
p2428
asbag57
(g78
g59
NtRp2429
(dp2430
g62
(dp2431
g89
g90
ssg71
g2420
sg64
(lp2432
S':'
asbag57
(g78
g59
NtRp2433
(dp2434
g62
(dp2435
sg71
g2420
sg64
(lp2436
g57
(g58
g59
NtRp2437
(dp2438
g62
(dp2439
g70
I5
ssg71
g2433
sg64
(lp2440
S'datetime.datetime(2012, 8, 31, 4, 11, 40, 706549)'
p2441
asbasbasbag57
(g73
g59
NtRp2442
(dp2443
g62
(dp2444
sg71
g67
sg64
(lp2445
g57
(g78
g59
NtRp2446
(dp2447
g62
(dp2448
g82
g83
ssg71
g2442
sg64
(lp2449
S'post_vars'
p2450
asbag57
(g78
g59
NtRp2451
(dp2452
g62
(dp2453
g89
g90
ssg71
g2442
sg64
(lp2454
S':'
asbag57
(g78
g59
NtRp2455
(dp2456
g62
(dp2457
sg71
g2442
sg64
(lp2458
g57
(g58
g59
NtRp2459
(dp2460
g62
(dp2461
g70
I5
ssg71
g2455
sg64
(lp2462
g57
(g66
g59
NtRp2463
(dp2464
g62
(dp2465
g70
I4
ssg71
Nsg64
(lp2466
sbasbasbasbag57
(g73
g59
NtRp2467
(dp2468
g62
(dp2469
sg71
g67
sg64
(lp2470
g57
(g78
g59
NtRp2471
(dp2472
g62
(dp2473
g82
g83
ssg71
g2467
sg64
(lp2474
S'raw_args'
p2475
asbag57
(g78
g59
NtRp2476
(dp2477
g62
(dp2478
g89
g90
ssg71
g2467
sg64
(lp2479
S':'
asbag57
(g78
g59
NtRp2480
(dp2481
g62
(dp2482
sg71
g2467
sg64
(lp2483
g57
(g58
g59
NtRp2484
(dp2485
g62
(dp2486
g70
I5
ssg71
g2480
sg64
(lp2487
S'1'
asbasbasbag57
(g73
g59
NtRp2488
(dp2489
g62
(dp2490
sg71
g67
sg64
(lp2491
g57
(g78
g59
NtRp2492
(dp2493
g62
(dp2494
g82
g83
ssg71
g2488
sg64
(lp2495
S'raw_extension'
p2496
asbag57
(g78
g59
NtRp2497
(dp2498
g62
(dp2499
g89
g90
ssg71
g2488
sg64
(lp2500
S':'
asbag57
(g78
g59
NtRp2501
(dp2502
g62
(dp2503
sg71
g2488
sg64
(lp2504
g57
(g58
g59
NtRp2505
(dp2506
g62
(dp2507
g70
I5
ssg71
g2501
sg64
(lp2508
S'None'
p2509
asbasbasbag57
(g73
g59
NtRp2510
(dp2511
g62
(dp2512
sg71
g67
sg64
(lp2513
g57
(g78
g59
NtRp2514
(dp2515
g62
(dp2516
g82
g83
ssg71
g2510
sg64
(lp2517
S'url'
p2518
asbag57
(g78
g59
NtRp2519
(dp2520
g62
(dp2521
g89
g90
ssg71
g2510
sg64
(lp2522
S':'
asbag57
(g78
g59
NtRp2523
(dp2524
g62
(dp2525
sg71
g2510
sg64
(lp2526
g57
(g58
g59
NtRp2527
(dp2528
g62
(dp2529
g70
I5
ssg71
g2523
sg64
(lp2530
S'/FotoBuk/default/show/1'
p2531
asbasbasbag57
(g73
g59
NtRp2532
(dp2533
g62
(dp2534
sg71
g67
sg64
(lp2535
g57
(g78
g59
NtRp2536
(dp2537
g62
(dp2538
g82
g83
ssg71
g2532
sg64
(lp2539
S'utcnow'
p2540
asbag57
(g78
g59
NtRp2541
(dp2542
g62
(dp2543
g89
g90
ssg71
g2532
sg64
(lp2544
S':'
asbag57
(g78
g59
NtRp2545
(dp2546
g62
(dp2547
sg71
g2532
sg64
(lp2548
g57
(g58
g59
NtRp2549
(dp2550
g62
(dp2551
g70
I5
ssg71
g2545
sg64
(lp2552
S'datetime.datetime(2012, 8, 30, 22, 41, 40, 706576)'
p2553
asbasbasbag57
(g73
g59
NtRp2554
(dp2555
g62
(dp2556
sg71
g67
sg64
(lp2557
g57
(g78
g59
NtRp2558
(dp2559
g62
(dp2560
g82
g83
ssg71
g2554
sg64
(lp2561
S'uuid'
p2562
asbag57
(g78
g59
NtRp2563
(dp2564
g62
(dp2565
g89
g90
ssg71
g2554
sg64
(lp2566
S':'
asbag57
(g78
g59
NtRp2567
(dp2568
g62
(dp2569
sg71
g2554
sg64
(lp2570
g57
(g58
g59
NtRp2571
(dp2572
g62
(dp2573
g70
I5
ssg71
g2567
sg64
(lp2574
S'FotoBuk/127.0.0.1.2012-08-31.04-11-40.0022f8a8-f7e4-42ae-b2d7-ffe3a60b3a52'
p2575
asbasbasbag57
(g73
g59
NtRp2576
(dp2577
g62
(dp2578
sg71
g67
sg64
(lp2579
g57
(g78
g59
NtRp2580
(dp2581
g62
(dp2582
g82
g83
ssg71
g2576
sg64
(lp2583
S'vars'
p2584
asbag57
(g78
g59
NtRp2585
(dp2586
g62
(dp2587
g89
g90
ssg71
g2576
sg64
(lp2588
S':'
asbag57
(g78
g59
NtRp2589
(dp2590
g62
(dp2591
sg71
g2576
sg64
(lp2592
g57
(g58
g59
NtRp2593
(dp2594
g62
(dp2595
g70
I5
ssg71
g2589
sg64
(lp2596
g57
(g66
g59
NtRp2597
(dp2598
g62
(dp2599
g70
I4
ssg71
Nsg64
(lp2600
sbasbasbasbag57
(g73
g59
NtRp2601
(dp2602
g62
(dp2603
sg71
g67
sg64
(lp2604
g57
(g78
g59
NtRp2605
(dp2606
g62
(dp2607
g82
g83
ssg71
g2601
sg64
(lp2608
S'wsgi'
p2609
asbag57
(g78
g59
NtRp2610
(dp2611
g62
(dp2612
g89
g90
ssg71
g2601
sg64
(lp2613
S':'
asbag57
(g78
g59
NtRp2614
(dp2615
g62
(dp2616
sg71
g2601
sg64
(lp2617
g57
(g58
g59
NtRp2618
(dp2619
g62
(dp2620
g70
I5
ssg71
g2614
sg64
(lp2621
g57
(g66
g59
NtRp2622
(dp2623
g62
(dp2624
g70
I4
ssg71
Nsg64
(lp2625
g57
(g73
g59
NtRp2626
(dp2627
g62
(dp2628
sg71
g2622
sg64
(lp2629
g57
(g78
g59
NtRp2630
(dp2631
g62
(dp2632
g82
g83
ssg71
g2626
sg64
(lp2633
S'environ'
p2634
asbag57
(g78
g59
NtRp2635
(dp2636
g62
(dp2637
g89
g90
ssg71
g2626
sg64
(lp2638
S':'
asbag57
(g78
g59
NtRp2639
(dp2640
g62
(dp2641
sg71
g2626
sg64
(lp2642
g57
(g58
g59
NtRp2643
(dp2644
g62
(dp2645
g70
I4
ssg71
g2639
sg64
(lp2646
g57
(g66
g59
NtRp2647
(dp2648
g62
(dp2649
g70
I3
ssg71
Nsg64
(lp2650
g57
(g73
g59
NtRp2651
(dp2652
g62
(dp2653
sg71
g2647
sg64
(lp2654
g57
(g78
g59
NtRp2655
(dp2656
g62
(dp2657
g82
g83
ssg71
g2651
sg64
(lp2658
S'HTTP_ACCEPT'
p2659
asbag57
(g78
g59
NtRp2660
(dp2661
g62
(dp2662
g89
g90
ssg71
g2651
sg64
(lp2663
S':'
asbag57
(g78
g59
NtRp2664
(dp2665
g62
(dp2666
sg71
g2651
sg64
(lp2667
g57
(g58
g59
NtRp2668
(dp2669
g62
(dp2670
g70
I3
ssg71
g2664
sg64
(lp2671
g1226
asbasbasbag57
(g73
g59
NtRp2672
(dp2673
g62
(dp2674
sg71
g2647
sg64
(lp2675
g57
(g78
g59
NtRp2676
(dp2677
g62
(dp2678
g82
g83
ssg71
g2672
sg64
(lp2679
S'HTTP_ACCEPT_ENCODING'
p2680
asbag57
(g78
g59
NtRp2681
(dp2682
g62
(dp2683
g89
g90
ssg71
g2672
sg64
(lp2684
S':'
asbag57
(g78
g59
NtRp2685
(dp2686
g62
(dp2687
sg71
g2672
sg64
(lp2688
g57
(g58
g59
NtRp2689
(dp2690
g62
(dp2691
g70
I3
ssg71
g2685
sg64
(lp2692
g1248
asbasbasbag57
(g73
g59
NtRp2693
(dp2694
g62
(dp2695
sg71
g2647
sg64
(lp2696
g57
(g78
g59
NtRp2697
(dp2698
g62
(dp2699
g82
g83
ssg71
g2693
sg64
(lp2700
S'HTTP_ACCEPT_LANGUAGE'
p2701
asbag57
(g78
g59
NtRp2702
(dp2703
g62
(dp2704
g89
g90
ssg71
g2693
sg64
(lp2705
S':'
asbag57
(g78
g59
NtRp2706
(dp2707
g62
(dp2708
sg71
g2693
sg64
(lp2709
g57
(g58
g59
NtRp2710
(dp2711
g62
(dp2712
g70
I3
ssg71
g2706
sg64
(lp2713
g1270
asbasbasbag57
(g73
g59
NtRp2714
(dp2715
g62
(dp2716
sg71
g2647
sg64
(lp2717
g57
(g78
g59
NtRp2718
(dp2719
g62
(dp2720
g82
g83
ssg71
g2714
sg64
(lp2721
S'HTTP_CONNECTION'
p2722
asbag57
(g78
g59
NtRp2723
(dp2724
g62
(dp2725
g89
g90
ssg71
g2714
sg64
(lp2726
S':'
asbag57
(g78
g59
NtRp2727
(dp2728
g62
(dp2729
sg71
g2714
sg64
(lp2730
g57
(g58
g59
NtRp2731
(dp2732
g62
(dp2733
g70
I3
ssg71
g2727
sg64
(lp2734
g1292
asbasbasbag57
(g73
g59
NtRp2735
(dp2736
g62
(dp2737
sg71
g2647
sg64
(lp2738
g57
(g78
g59
NtRp2739
(dp2740
g62
(dp2741
g82
g83
ssg71
g2735
sg64
(lp2742
S'HTTP_COOKIE'
p2743
asbag57
(g78
g59
NtRp2744
(dp2745
g62
(dp2746
g89
g90
ssg71
g2735
sg64
(lp2747
S':'
asbag57
(g78
g59
NtRp2748
(dp2749
g62
(dp2750
sg71
g2735
sg64
(lp2751
g57
(g58
g59
NtRp2752
(dp2753
g62
(dp2754
g70
I3
ssg71
g2748
sg64
(lp2755
g1314
asbasbasbag57
(g73
g59
NtRp2756
(dp2757
g62
(dp2758
sg71
g2647
sg64
(lp2759
g57
(g78
g59
NtRp2760
(dp2761
g62
(dp2762
g82
g83
ssg71
g2756
sg64
(lp2763
S'HTTP_HOST'
p2764
asbag57
(g78
g59
NtRp2765
(dp2766
g62
(dp2767
g89
g90
ssg71
g2756
sg64
(lp2768
S':'
asbag57
(g78
g59
NtRp2769
(dp2770
g62
(dp2771
sg71
g2756
sg64
(lp2772
g57
(g58
g59
NtRp2773
(dp2774
g62
(dp2775
g70
I3
ssg71
g2769
sg64
(lp2776
g1336
asbasbasbag57
(g73
g59
NtRp2777
(dp2778
g62
(dp2779
sg71
g2647
sg64
(lp2780
g57
(g78
g59
NtRp2781
(dp2782
g62
(dp2783
g82
g83
ssg71
g2777
sg64
(lp2784
S'HTTP_USER_AGENT'
p2785
asbag57
(g78
g59
NtRp2786
(dp2787
g62
(dp2788
g89
g90
ssg71
g2777
sg64
(lp2789
S':'
asbag57
(g78
g59
NtRp2790
(dp2791
g62
(dp2792
sg71
g2777
sg64
(lp2793
g57
(g58
g59
NtRp2794
(dp2795
g62
(dp2796
g70
I3
ssg71
g2790
sg64
(lp2797
g1358
asbasbasbag57
(g73
g59
NtRp2798
(dp2799
g62
(dp2800
sg71
g2647
sg64
(lp2801
g57
(g78
g59
NtRp2802
(dp2803
g62
(dp2804
g82
g83
ssg71
g2798
sg64
(lp2805
S'PATH_INFO'
p2806
asbag57
(g78
g59
NtRp2807
(dp2808
g62
(dp2809
g89
g90
ssg71
g2798
sg64
(lp2810
S':'
asbag57
(g78
g59
NtRp2811
(dp2812
g62
(dp2813
sg71
g2798
sg64
(lp2814
g57
(g58
g59
NtRp2815
(dp2816
g62
(dp2817
g70
I3
ssg71
g2811
sg64
(lp2818
g1422
asbasbasbag57
(g73
g59
NtRp2819
(dp2820
g62
(dp2821
sg71
g2647
sg64
(lp2822
g57
(g78
g59
NtRp2823
(dp2824
g62
(dp2825
g82
g83
ssg71
g2819
sg64
(lp2826
S'QUERY_STRING'
p2827
asbag57
(g78
g59
NtRp2828
(dp2829
g62
(dp2830
g89
g90
ssg71
g2819
sg64
(lp2831
S':'
asbag57
(g78
g59
NtRp2832
(dp2833
g62
(dp2834
sg71
g2819
sg64
(lp2835
g57
(g58
g59
NtRp2836
(dp2837
g62
(dp2838
g70
I3
ssg71
g2832
sg64
(lp2839
S''
asbasbasbag57
(g73
g59
NtRp2840
(dp2841
g62
(dp2842
sg71
g2647
sg64
(lp2843
g57
(g78
g59
NtRp2844
(dp2845
g62
(dp2846
g82
g83
ssg71
g2840
sg64
(lp2847
S'REMOTE_ADDR'
p2848
asbag57
(g78
g59
NtRp2849
(dp2850
g62
(dp2851
g89
g90
ssg71
g2840
sg64
(lp2852
S':'
asbag57
(g78
g59
NtRp2853
(dp2854
g62
(dp2855
sg71
g2840
sg64
(lp2856
g57
(g58
g59
NtRp2857
(dp2858
g62
(dp2859
g70
I3
ssg71
g2853
sg64
(lp2860
g224
asbasbasbag57
(g73
g59
NtRp2861
(dp2862
g62
(dp2863
sg71
g2647
sg64
(lp2864
g57
(g78
g59
NtRp2865
(dp2866
g62
(dp2867
g82
g83
ssg71
g2861
sg64
(lp2868
S'REMOTE_PORT'
p2869
asbag57
(g78
g59
NtRp2870
(dp2871
g62
(dp2872
g89
g90
ssg71
g2861
sg64
(lp2873
S':'
asbag57
(g78
g59
NtRp2874
(dp2875
g62
(dp2876
sg71
g2861
sg64
(lp2877
g57
(g58
g59
NtRp2878
(dp2879
g62
(dp2880
g70
I3
ssg71
g2874
sg64
(lp2881
g1486
asbasbasbag57
(g73
g59
NtRp2882
(dp2883
g62
(dp2884
sg71
g2647
sg64
(lp2885
g57
(g78
g59
NtRp2886
(dp2887
g62
(dp2888
g82
g83
ssg71
g2882
sg64
(lp2889
S'REQUEST_METHOD'
p2890
asbag57
(g78
g59
NtRp2891
(dp2892
g62
(dp2893
g89
g90
ssg71
g2882
sg64
(lp2894
S':'
asbag57
(g78
g59
NtRp2895
(dp2896
g62
(dp2897
sg71
g2882
sg64
(lp2898
g57
(g58
g59
NtRp2899
(dp2900
g62
(dp2901
g70
I3
ssg71
g2895
sg64
(lp2902
g1508
asbasbasbag57
(g73
g59
NtRp2903
(dp2904
g62
(dp2905
sg71
g2647
sg64
(lp2906
g57
(g78
g59
NtRp2907
(dp2908
g62
(dp2909
g82
g83
ssg71
g2903
sg64
(lp2910
S'SCRIPT_NAME'
p2911
asbag57
(g78
g59
NtRp2912
(dp2913
g62
(dp2914
g89
g90
ssg71
g2903
sg64
(lp2915
S':'
asbag57
(g78
g59
NtRp2916
(dp2917
g62
(dp2918
sg71
g2903
sg64
(lp2919
g57
(g58
g59
NtRp2920
(dp2921
g62
(dp2922
g70
I3
ssg71
g2916
sg64
(lp2923
S''
asbasbasbag57
(g73
g59
NtRp2924
(dp2925
g62
(dp2926
sg71
g2647
sg64
(lp2927
g57
(g78
g59
NtRp2928
(dp2929
g62
(dp2930
g82
g83
ssg71
g2924
sg64
(lp2931
S'SERVER_NAME'
p2932
asbag57
(g78
g59
NtRp2933
(dp2934
g62
(dp2935
g89
g90
ssg71
g2924
sg64
(lp2936
S':'
asbag57
(g78
g59
NtRp2937
(dp2938
g62
(dp2939
sg71
g2924
sg64
(lp2940
g57
(g58
g59
NtRp2941
(dp2942
g62
(dp2943
g70
I3
ssg71
g2937
sg64
(lp2944
g1551
asbasbasbag57
(g73
g59
NtRp2945
(dp2946
g62
(dp2947
sg71
g2647
sg64
(lp2948
g57
(g78
g59
NtRp2949
(dp2950
g62
(dp2951
g82
g83
ssg71
g2945
sg64
(lp2952
S'SERVER_PORT'
p2953
asbag57
(g78
g59
NtRp2954
(dp2955
g62
(dp2956
g89
g90
ssg71
g2945
sg64
(lp2957
S':'
asbag57
(g78
g59
NtRp2958
(dp2959
g62
(dp2960
sg71
g2945
sg64
(lp2961
g57
(g58
g59
NtRp2962
(dp2963
g62
(dp2964
g70
I3
ssg71
g2958
sg64
(lp2965
g1573
asbasbasbag57
(g73
g59
NtRp2966
(dp2967
g62
(dp2968
sg71
g2647
sg64
(lp2969
g57
(g78
g59
NtRp2970
(dp2971
g62
(dp2972
g82
g83
ssg71
g2966
sg64
(lp2973
S'SERVER_PROTOCOL'
p2974
asbag57
(g78
g59
NtRp2975
(dp2976
g62
(dp2977
g89
g90
ssg71
g2966
sg64
(lp2978
S':'
asbag57
(g78
g59
NtRp2979
(dp2980
g62
(dp2981
sg71
g2966
sg64
(lp2982
g57
(g58
g59
NtRp2983
(dp2984
g62
(dp2985
g70
I3
ssg71
g2979
sg64
(lp2986
g1595
asbasbasbag57
(g73
g59
NtRp2987
(dp2988
g62
(dp2989
sg71
g2647
sg64
(lp2990
g57
(g78
g59
NtRp2991
(dp2992
g62
(dp2993
g82
g83
ssg71
g2987
sg64
(lp2994
S'SERVER_SOFTWARE'
p2995
asbag57
(g78
g59
NtRp2996
(dp2997
g62
(dp2998
g89
g90
ssg71
g2987
sg64
(lp2999
S':'
asbag57
(g78
g59
NtRp3000
(dp3001
g62
(dp3002
sg71
g2987
sg64
(lp3003
g57
(g58
g59
NtRp3004
(dp3005
g62
(dp3006
g70
I3
ssg71
g3000
sg64
(lp3007
g1617
asbasbasbag57
(g73
g59
NtRp3008
(dp3009
g62
(dp3010
sg71
g2647
sg64
(lp3011
g57
(g78
g59
NtRp3012
(dp3013
g62
(dp3014
g82
g83
ssg71
g3008
sg64
(lp3015
S'wsgi.errors'
p3016
asbag57
(g78
g59
NtRp3017
(dp3018
g62
(dp3019
g89
g90
ssg71
g3008
sg64
(lp3020
S':'
asbag57
(g78
g59
NtRp3021
(dp3022
g62
(dp3023
sg71
g3008
sg64
(lp3024
g57
(g58
g59
NtRp3025
(dp3026
g62
(dp3027
g70
I3
ssg71
g3021
sg64
(lp3028
S"<open file '<stderr>', mode 'w' at 0xb772d0d0>"
p3029
asbasbasbag57
(g73
g59
NtRp3030
(dp3031
g62
(dp3032
sg71
g2647
sg64
(lp3033
g57
(g78
g59
NtRp3034
(dp3035
g62
(dp3036
g82
g83
ssg71
g3030
sg64
(lp3037
S'wsgi.file_wrapper'
p3038
asbag57
(g78
g59
NtRp3039
(dp3040
g62
(dp3041
g89
g90
ssg71
g3030
sg64
(lp3042
S':'
asbag57
(g78
g59
NtRp3043
(dp3044
g62
(dp3045
sg71
g3030
sg64
(lp3046
g57
(g58
g59
NtRp3047
(dp3048
g62
(dp3049
g70
I3
ssg71
g3043
sg64
(lp3050
S'<class wsgiref.util.FileWrapper at 0x8d0326c>'
p3051
asbasbasbag57
(g73
g59
NtRp3052
(dp3053
g62
(dp3054
sg71
g2647
sg64
(lp3055
g57
(g78
g59
NtRp3056
(dp3057
g62
(dp3058
g82
g83
ssg71
g3052
sg64
(lp3059
S'wsgi.input'
p3060
asbag57
(g78
g59
NtRp3061
(dp3062
g62
(dp3063
g89
g90
ssg71
g3052
sg64
(lp3064
S':'
asbag57
(g78
g59
NtRp3065
(dp3066
g62
(dp3067
sg71
g3052
sg64
(lp3068
g57
(g58
g59
NtRp3069
(dp3070
g62
(dp3071
g70
I3
ssg71
g3065
sg64
(lp3072
S'<cStringIO.StringO object at 0xae9643e0>'
p3073
asbasbasbag57
(g73
g59
NtRp3074
(dp3075
g62
(dp3076
sg71
g2647
sg64
(lp3077
g57
(g78
g59
NtRp3078
(dp3079
g62
(dp3080
g82
g83
ssg71
g3074
sg64
(lp3081
S'wsgi.multiprocess'
p3082
asbag57
(g78
g59
NtRp3083
(dp3084
g62
(dp3085
g89
g90
ssg71
g3074
sg64
(lp3086
S':'
asbag57
(g78
g59
NtRp3087
(dp3088
g62
(dp3089
sg71
g3074
sg64
(lp3090
g57
(g58
g59
NtRp3091
(dp3092
g62
(dp3093
g70
I3
ssg71
g3087
sg64
(lp3094
g100
asbasbasbag57
(g73
g59
NtRp3095
(dp3096
g62
(dp3097
sg71
g2647
sg64
(lp3098
g57
(g78
g59
NtRp3099
(dp3100
g62
(dp3101
g82
g83
ssg71
g3095
sg64
(lp3102
S'wsgi.multithread'
p3103
asbag57
(g78
g59
NtRp3104
(dp3105
g62
(dp3106
g89
g90
ssg71
g3095
sg64
(lp3107
S':'
asbag57
(g78
g59
NtRp3108
(dp3109
g62
(dp3110
sg71
g3095
sg64
(lp3111
g57
(g58
g59
NtRp3112
(dp3113
g62
(dp3114
g70
I3
ssg71
g3108
sg64
(lp3115
g1856
asbasbasbag57
(g73
g59
NtRp3116
(dp3117
g62
(dp3118
sg71
g2647
sg64
(lp3119
g57
(g78
g59
NtRp3120
(dp3121
g62
(dp3122
g82
g83
ssg71
g3116
sg64
(lp3123
S'wsgi.run_once'
p3124
asbag57
(g78
g59
NtRp3125
(dp3126
g62
(dp3127
g89
g90
ssg71
g3116
sg64
(lp3128
S':'
asbag57
(g78
g59
NtRp3129
(dp3130
g62
(dp3131
sg71
g3116
sg64
(lp3132
g57
(g58
g59
NtRp3133
(dp3134
g62
(dp3135
g70
I3
ssg71
g3129
sg64
(lp3136
g100
asbasbasbag57
(g73
g59
NtRp3137
(dp3138
g62
(dp3139
sg71
g2647
sg64
(lp3140
g57
(g78
g59
NtRp3141
(dp3142
g62
(dp3143
g82
g83
ssg71
g3137
sg64
(lp3144
S'wsgi.url_scheme'
p3145
asbag57
(g78
g59
NtRp3146
(dp3147
g62
(dp3148
g89
g90
ssg71
g3137
sg64
(lp3149
S':'
asbag57
(g78
g59
NtRp3150
(dp3151
g62
(dp3152
sg71
g3137
sg64
(lp3153
g57
(g58
g59
NtRp3154
(dp3155
g62
(dp3156
g70
I3
ssg71
g3150
sg64
(lp3157
g1899
asbasbasbag57
(g73
g59
NtRp3158
(dp3159
g62
(dp3160
sg71
g2647
sg64
(lp3161
g57
(g78
g59
NtRp3162
(dp3163
g62
(dp3164
g82
g83
ssg71
g3158
sg64
(lp3165
S'wsgi.version'
p3166
asbag57
(g78
g59
NtRp3167
(dp3168
g62
(dp3169
g89
g90
ssg71
g3158
sg64
(lp3170
S':'
asbag57
(g78
g59
NtRp3171
(dp3172
g62
(dp3173
sg71
g3158
sg64
(lp3174
g57
(g58
g59
NtRp3175
(dp3176
g62
(dp3177
g70
I3
ssg71
g3171
sg64
(lp3178
S'1'
asbasbasbasbasbasbasbasbasbasbasbasbasbsS'frames'
p3179
(lp3180
(dp3181
S'file'
p3182
S'/home/piyush/web2py/gluon/restricted.py'
p3183
sS'dump'
p3184
(dp3185
S'environment'
p3186
S"{'A': <class 'gluon.html.A'>, 'Auth': <class 'gluon.tools.Auth'>, 'B': <class 'gluon.html.B'>, 'BEAUTIFY': <class 'gluon.html.BEAUTIFY'>, 'BODY': <class 'gluon.html.BODY'>, 'BR': <class 'gluon.html.BR'>, 'BUTTON': <class 'gluon.html.BUTTON'>, 'CAT': <class 'gluon.html.CAT'>, 'CENTER': <class 'gluon.html.CENTER'>, 'CLEANUP': <class 'gluon.validators.CLEANUP'>, ...}"
p3187
sS'ccode'
p3188
S'<code object <module> at 0xb39ebb60, file "/home...cations/FotoBuk/views/default/show.html", line 1>'
p3189
ssS'lnum'
p3190
I209
sS'lines'
p3191
(dp3192
I204
S'    try:'
p3193
sI205
S'        if type(code) == types.CodeType:'
p3194
sI206
S'            ccode = code'
p3195
sI207
S'        else:'
p3196
sI208
S'            ccode = compile2(code,layer)'
p3197
sI209
S'        exec ccode in environment'
p3198
sI210
S'    except HTTP:'
p3199
sI211
S'        raise'
p3200
sI212
S'    except RestrictedError:'
p3201
sI213
S'        # do not encapsulate (obfuscate) the original RestrictedError'
p3202
ssS'call'
p3203
S'(code=r"response.write(\'<!DOCTYPE html>\\r\\n<!-- pauliris...ript>  \\r\\n</body>\\r\\n</html>\\r\\n\', escape=False)", environment={\'A\': <class \'gluon.html.A\'>, \'Auth\': <class \'gluon.tools.Auth\'>, \'B\': <class \'gluon.html.B\'>, \'BEAUTIFY\': <class \'gluon.html.BEAUTIFY\'>, \'BODY\': <class \'gluon.html.BODY\'>, \'BR\': <class \'gluon.html.BR\'>, \'BUTTON\': <class \'gluon.html.BUTTON\'>, \'CAT\': <class \'gluon.html.CAT\'>, \'CENTER\': <class \'gluon.html.CENTER\'>, \'CLEANUP\': <class \'gluon.validators.CLEANUP\'>, ...}, layer=\'/home/piyush/web2py/applications/FotoBuk/views/default/show.html\')'
p3204
sS'func'
p3205
S'restricted'
p3206
sa(dp3207
g3182
S'/home/piyush/web2py/applications/FotoBuk/views/default/show.html'
p3208
sg3184
(dp3209
sg3190
I87
sg3191
(dp3210
I96
S"response.write('\\n<h2>Post a comment</h2>\\n', escape=False)"
p3211
sI97
S'response.write(form)'
p3212
sI78
S"response.write('\\n<h1>Image: ', escape=False)"
p3213
sI79
S'response.write(image.title)'
p3214
sI80
S'response.write(\'</h1>\\n<center>\\n<img width="200px"\\n     src="\', escape=False)'
p3215
sI81
S"response.write(URL('download', args=image.file))"
p3216
sI82
S'response.write(\'" />\\n</center>\\n\', escape=False)'
p3217
sI83
S'if len(comments):'
p3218
sI84
S"    response.write('\\n  <h2>Comments</h2><br /><p>\\n  ', escape=False)"
p3219
sI85
S'    for comment in comments:'
p3220
sI86
S"        response.write('\\n    <p>', escape=False)"
p3221
sI87
S'        response.write(comment.author)'
p3222
sI88
S"        response.write(' says <i>', escape=False)"
p3223
sI89
S'        response.write(comment.body)'
p3224
sI90
S"        response.write('</i></p>\\n  ', escape=False)"
p3225
sI91
S'        pass'
p3226
sI92
S"    response.write('</p>\\n', escape=False)"
p3227
sI93
S'else:'
p3228
sI94
S"    response.write('\\n  <h2>No comments posted yet</h2>\\n', escape=False)"
p3229
sI95
S'    pass'
p3230
ssg3203
S'()'
p3231
sg3205
S'<module>'
p3232
sasS'pyver'
p3233
S'Python 2.7.2: /usr/bin/python'
p3234
sS'session'
p3235
g57
(g58
g59
NtRp3236
(dp3237
g62
(dp3238
sg64
(lp3239
g57
(g66
g59
NtRp3240
(dp3241
g62
(dp3242
g70
I5
ssg71
Nsg64
(lp3243
g57
(g73
g59
NtRp3244
(dp3245
g62
(dp3246
sg71
g3240
sg64
(lp3247
g57
(g78
g59
NtRp3248
(dp3249
g62
(dp3250
g82
g83
ssg71
g3244
sg64
(lp3251
S'auth'
p3252
asbag57
(g78
g59
NtRp3253
(dp3254
g62
(dp3255
g89
g90
ssg71
g3244
sg64
(lp3256
S':'
asbag57
(g78
g59
NtRp3257
(dp3258
g62
(dp3259
sg71
g3244
sg64
(lp3260
g57
(g58
g59
NtRp3261
(dp3262
g62
(dp3263
g70
I5
ssg71
g3257
sg64
(lp3264
g57
(g66
g59
NtRp3265
(dp3266
g62
(dp3267
g70
I4
ssg71
Nsg64
(lp3268
g57
(g73
g59
NtRp3269
(dp3270
g62
(dp3271
sg71
g3265
sg64
(lp3272
g57
(g78
g59
NtRp3273
(dp3274
g62
(dp3275
g82
g83
ssg71
g3269
sg64
(lp3276
S'expiration'
p3277
asbag57
(g78
g59
NtRp3278
(dp3279
g62
(dp3280
g89
g90
ssg71
g3269
sg64
(lp3281
S':'
asbag57
(g78
g59
NtRp3282
(dp3283
g62
(dp3284
sg71
g3269
sg64
(lp3285
g57
(g58
g59
NtRp3286
(dp3287
g62
(dp3288
g70
I4
ssg71
g3282
sg64
(lp3289
S'3600'
p3290
asbasbasbag57
(g73
g59
NtRp3291
(dp3292
g62
(dp3293
sg71
g3265
sg64
(lp3294
g57
(g78
g59
NtRp3295
(dp3296
g62
(dp3297
g82
g83
ssg71
g3291
sg64
(lp3298
S'hmac_key'
p3299
asbag57
(g78
g59
NtRp3300
(dp3301
g62
(dp3302
g89
g90
ssg71
g3291
sg64
(lp3303
S':'
asbag57
(g78
g59
NtRp3304
(dp3305
g62
(dp3306
sg71
g3291
sg64
(lp3307
g57
(g58
g59
NtRp3308
(dp3309
g62
(dp3310
g70
I4
ssg71
g3304
sg64
(lp3311
S'ea9c65d4-000b-4376-8475-e7312297b731'
p3312
asbasbasbag57
(g73
g59
NtRp3313
(dp3314
g62
(dp3315
sg71
g3265
sg64
(lp3316
g57
(g78
g59
NtRp3317
(dp3318
g62
(dp3319
g82
g83
ssg71
g3313
sg64
(lp3320
S'last_visit'
p3321
asbag57
(g78
g59
NtRp3322
(dp3323
g62
(dp3324
g89
g90
ssg71
g3313
sg64
(lp3325
S':'
asbag57
(g78
g59
NtRp3326
(dp3327
g62
(dp3328
sg71
g3313
sg64
(lp3329
g57
(g58
g59
NtRp3330
(dp3331
g62
(dp3332
g70
I4
ssg71
g3326
sg64
(lp3333
S'datetime.datetime(2012, 8, 31, 4, 7, 11, 121049)'
p3334
asbasbasbag57
(g73
g59
NtRp3335
(dp3336
g62
(dp3337
sg71
g3265
sg64
(lp3338
g57
(g78
g59
NtRp3339
(dp3340
g62
(dp3341
g82
g83
ssg71
g3335
sg64
(lp3342
S'remember'
p3343
asbag57
(g78
g59
NtRp3344
(dp3345
g62
(dp3346
g89
g90
ssg71
g3335
sg64
(lp3347
S':'
asbag57
(g78
g59
NtRp3348
(dp3349
g62
(dp3350
sg71
g3335
sg64
(lp3351
g57
(g58
g59
NtRp3352
(dp3353
g62
(dp3354
g70
I4
ssg71
g3348
sg64
(lp3355
g100
asbasbasbag57
(g73
g59
NtRp3356
(dp3357
g62
(dp3358
sg71
g3265
sg64
(lp3359
g57
(g78
g59
NtRp3360
(dp3361
g62
(dp3362
g82
g83
ssg71
g3356
sg64
(lp3363
S'user'
p3364
asbag57
(g78
g59
NtRp3365
(dp3366
g62
(dp3367
g89
g90
ssg71
g3356
sg64
(lp3368
S':'
asbag57
(g78
g59
NtRp3369
(dp3370
g62
(dp3371
sg71
g3356
sg64
(lp3372
g57
(g58
g59
NtRp3373
(dp3374
g62
(dp3375
g70
I4
ssg71
g3369
sg64
(lp3376
g57
(g66
g59
NtRp3377
(dp3378
g62
(dp3379
g70
I3
ssg71
Nsg64
(lp3380
g57
(g73
g59
NtRp3381
(dp3382
g62
(dp3383
sg71
g3377
sg64
(lp3384
g57
(g78
g59
NtRp3385
(dp3386
g62
(dp3387
g82
g83
ssg71
g3381
sg64
(lp3388
S'email'
p3389
asbag57
(g78
g59
NtRp3390
(dp3391
g62
(dp3392
g89
g90
ssg71
g3381
sg64
(lp3393
S':'
asbag57
(g78
g59
NtRp3394
(dp3395
g62
(dp3396
sg71
g3381
sg64
(lp3397
g57
(g58
g59
NtRp3398
(dp3399
g62
(dp3400
g70
I3
ssg71
g3394
sg64
(lp3401
S'piyush.bansal@students.iiit.ac.in'
p3402
asbasbasbag57
(g73
g59
NtRp3403
(dp3404
g62
(dp3405
sg71
g3377
sg64
(lp3406
g57
(g78
g59
NtRp3407
(dp3408
g62
(dp3409
g82
g83
ssg71
g3403
sg64
(lp3410
S'first_name'
p3411
asbag57
(g78
g59
NtRp3412
(dp3413
g62
(dp3414
g89
g90
ssg71
g3403
sg64
(lp3415
S':'
asbag57
(g78
g59
NtRp3416
(dp3417
g62
(dp3418
sg71
g3403
sg64
(lp3419
g57
(g58
g59
NtRp3420
(dp3421
g62
(dp3422
g70
I3
ssg71
g3416
sg64
(lp3423
S'piyush'
p3424
asbasbasbag57
(g73
g59
NtRp3425
(dp3426
g62
(dp3427
sg71
g3377
sg64
(lp3428
g57
(g78
g59
NtRp3429
(dp3430
g62
(dp3431
g82
g83
ssg71
g3425
sg64
(lp3432
S'id'
p3433
asbag57
(g78
g59
NtRp3434
(dp3435
g62
(dp3436
g89
g90
ssg71
g3425
sg64
(lp3437
S':'
asbag57
(g78
g59
NtRp3438
(dp3439
g62
(dp3440
sg71
g3425
sg64
(lp3441
g57
(g58
g59
NtRp3442
(dp3443
g62
(dp3444
g70
I3
ssg71
g3438
sg64
(lp3445
S'1'
asbasbasbag57
(g73
g59
NtRp3446
(dp3447
g62
(dp3448
sg71
g3377
sg64
(lp3449
g57
(g78
g59
NtRp3450
(dp3451
g62
(dp3452
g82
g83
ssg71
g3446
sg64
(lp3453
S'last_name'
p3454
asbag57
(g78
g59
NtRp3455
(dp3456
g62
(dp3457
g89
g90
ssg71
g3446
sg64
(lp3458
S':'
asbag57
(g78
g59
NtRp3459
(dp3460
g62
(dp3461
sg71
g3446
sg64
(lp3462
g57
(g58
g59
NtRp3463
(dp3464
g62
(dp3465
g70
I3
ssg71
g3459
sg64
(lp3466
S'bansal'
p3467
asbasbasbag57
(g73
g59
NtRp3468
(dp3469
g62
(dp3470
sg71
g3377
sg64
(lp3471
g57
(g78
g59
NtRp3472
(dp3473
g62
(dp3474
g82
g83
ssg71
g3468
sg64
(lp3475
S'password'
p3476
asbag57
(g78
g59
NtRp3477
(dp3478
g62
(dp3479
g89
g90
ssg71
g3468
sg64
(lp3480
S':'
asbag57
(g78
g59
NtRp3481
(dp3482
g62
(dp3483
sg71
g3468
sg64
(lp3484
g57
(g58
g59
NtRp3485
(dp3486
g62
(dp3487
g70
I3
ssg71
g3481
sg64
(lp3488
S'pbkdf2(1000,20,sha512)$913ba6c957a64f30$d4b59e0f074c5a6d9fd585309ed33902fece40a6'
p3489
asbasbasbag57
(g73
g59
NtRp3490
(dp3491
g62
(dp3492
sg71
g3377
sg64
(lp3493
g57
(g78
g59
NtRp3494
(dp3495
g62
(dp3496
g82
g83
ssg71
g3490
sg64
(lp3497
S'registration_id'
p3498
asbag57
(g78
g59
NtRp3499
(dp3500
g62
(dp3501
g89
g90
ssg71
g3490
sg64
(lp3502
S':'
asbag57
(g78
g59
NtRp3503
(dp3504
g62
(dp3505
sg71
g3490
sg64
(lp3506
g57
(g58
g59
NtRp3507
(dp3508
g62
(dp3509
g70
I3
ssg71
g3503
sg64
(lp3510
S''
asbasbasbag57
(g73
g59
NtRp3511
(dp3512
g62
(dp3513
sg71
g3377
sg64
(lp3514
g57
(g78
g59
NtRp3515
(dp3516
g62
(dp3517
g82
g83
ssg71
g3511
sg64
(lp3518
S'registration_key'
p3519
asbag57
(g78
g59
NtRp3520
(dp3521
g62
(dp3522
g89
g90
ssg71
g3511
sg64
(lp3523
S':'
asbag57
(g78
g59
NtRp3524
(dp3525
g62
(dp3526
sg71
g3511
sg64
(lp3527
g57
(g58
g59
NtRp3528
(dp3529
g62
(dp3530
g70
I3
ssg71
g3524
sg64
(lp3531
S''
asbasbasbag57
(g73
g59
NtRp3532
(dp3533
g62
(dp3534
sg71
g3377
sg64
(lp3535
g57
(g78
g59
NtRp3536
(dp3537
g62
(dp3538
g82
g83
ssg71
g3532
sg64
(lp3539
S'reset_password_key'
p3540
asbag57
(g78
g59
NtRp3541
(dp3542
g62
(dp3543
g89
g90
ssg71
g3532
sg64
(lp3544
S':'
asbag57
(g78
g59
NtRp3545
(dp3546
g62
(dp3547
sg71
g3532
sg64
(lp3548
g57
(g58
g59
NtRp3549
(dp3550
g62
(dp3551
g70
I3
ssg71
g3545
sg64
(lp3552
S''
asbasbasbasbasbasbasbag57
(g73
g59
NtRp3553
(dp3554
g62
(dp3555
sg71
g3265
sg64
(lp3556
g57
(g78
g59
NtRp3557
(dp3558
g62
(dp3559
g82
g83
ssg71
g3553
sg64
(lp3560
S'user_groups'
p3561
asbag57
(g78
g59
NtRp3562
(dp3563
g62
(dp3564
g89
g90
ssg71
g3553
sg64
(lp3565
S':'
asbag57
(g78
g59
NtRp3566
(dp3567
g62
(dp3568
sg71
g3553
sg64
(lp3569
g57
(g58
g59
NtRp3570
(dp3571
g62
(dp3572
g70
I4
ssg71
g3566
sg64
(lp3573
g57
(g66
g59
NtRp3574
(dp3575
g62
(dp3576
g70
I3
ssg71
Nsg64
(lp3577
g57
(g73
g59
NtRp3578
(dp3579
g62
(dp3580
sg71
g3574
sg64
(lp3581
g57
(g78
g59
NtRp3582
(dp3583
g62
(dp3584
g82
g83
ssg71
g3578
sg64
(lp3585
S'1'
asbag57
(g78
g59
NtRp3586
(dp3587
g62
(dp3588
g89
g90
ssg71
g3578
sg64
(lp3589
S':'
asbag57
(g78
g59
NtRp3590
(dp3591
g62
(dp3592
sg71
g3578
sg64
(lp3593
g57
(g58
g59
NtRp3594
(dp3595
g62
(dp3596
g70
I3
ssg71
g3590
sg64
(lp3597
S'user_1'
p3598
asbasbasbasbasbasbasbasbasbasbasbag57
(g73
g59
NtRp3599
(dp3600
g62
(dp3601
sg71
g3240
sg64
(lp3602
g57
(g78
g59
NtRp3603
(dp3604
g62
(dp3605
g82
g83
ssg71
g3599
sg64
(lp3606
S'flash'
p3607
asbag57
(g78
g59
NtRp3608
(dp3609
g62
(dp3610
g89
g90
ssg71
g3599
sg64
(lp3611
S':'
asbag57
(g78
g59
NtRp3612
(dp3613
g62
(dp3614
sg71
g3599
sg64
(lp3615
g57
(g58
g59
NtRp3616
(dp3617
g62
(dp3618
g70
I5
ssg71
g3612
sg64
(lp3619
S'None'
p3620
asbasbasbag57
(g73
g59
NtRp3621
(dp3622
g62
(dp3623
sg71
g3240
sg64
(lp3624
g57
(g78
g59
NtRp3625
(dp3626
g62
(dp3627
g82
g83
ssg71
g3621
sg64
(lp3628
S'last_orderby'
p3629
asbag57
(g78
g59
NtRp3630
(dp3631
g62
(dp3632
g89
g90
ssg71
g3621
sg64
(lp3633
S':'
asbag57
(g78
g59
NtRp3634
(dp3635
g62
(dp3636
sg71
g3621
sg64
(lp3637
g57
(g58
g59
NtRp3638
(dp3639
g62
(dp3640
g70
I5
ssg71
g3634
sg64
(lp3641
S'None'
p3642
asbasbasbag57
(g73
g59
NtRp3643
(dp3644
g62
(dp3645
sg71
g3240
sg64
(lp3646
g57
(g78
g59
NtRp3647
(dp3648
g62
(dp3649
g82
g83
ssg71
g3643
sg64
(lp3650
S'last_query'
p3651
asbag57
(g78
g59
NtRp3652
(dp3653
g62
(dp3654
g89
g90
ssg71
g3643
sg64
(lp3655
S':'
asbag57
(g78
g59
NtRp3656
(dp3657
g62
(dp3658
sg71
g3643
sg64
(lp3659
g57
(g58
g59
NtRp3660
(dp3661
g62
(dp3662
g70
I5
ssg71
g3656
sg64
(lp3663
S'db.image.id>0'
p3664
asbasbasbasbasbsS'etype'
p3665
S"<type 'exceptions.AttributeError'>"
p3666
sS'date'
p3667
S'Fri Aug 31 04:11:40 2012'
p3668
sS'response'
p3669
g57
(g58
g59
NtRp3670
(dp3671
g62
(dp3672
sg64
(lp3673
g57
(g66
g59
NtRp3674
(dp3675
g62
(dp3676
g70
I5
ssg71
Nsg64
(lp3677
g57
(g73
g59
NtRp3678
(dp3679
g62
(dp3680
sg71
g3674
sg64
(lp3681
g57
(g78
g59
NtRp3682
(dp3683
g62
(dp3684
g82
g83
ssg71
g3678
sg64
(lp3685
g167
asbag57
(g78
g59
NtRp3686
(dp3687
g62
(dp3688
g89
g90
ssg71
g3678
sg64
(lp3689
S':'
asbag57
(g78
g59
NtRp3690
(dp3691
g62
(dp3692
sg71
g3678
sg64
(lp3693
g57
(g58
g59
NtRp3694
(dp3695
g62
(dp3696
g70
I5
ssg71
g3690
sg64
(lp3697
S'<cStringIO.StringO object at 0xaf1479a0>'
p3698
asbasbasbag57
(g73
g59
NtRp3699
(dp3700
g62
(dp3701
sg71
g3674
sg64
(lp3702
g57
(g78
g59
NtRp3703
(dp3704
g62
(dp3705
g82
g83
ssg71
g3699
sg64
(lp3706
g255
asbag57
(g78
g59
NtRp3707
(dp3708
g62
(dp3709
g89
g90
ssg71
g3699
sg64
(lp3710
S':'
asbag57
(g78
g59
NtRp3711
(dp3712
g62
(dp3713
sg71
g3699
sg64
(lp3714
g57
(g58
g59
NtRp3715
(dp3716
g62
(dp3717
g70
I5
ssg71
g3711
sg64
(lp3718
g57
(g66
g59
NtRp3719
(dp3720
g62
(dp3721
g70
I4
ssg71
Nsg64
(lp3722
g57
(g73
g59
NtRp3723
(dp3724
g62
(dp3725
sg71
g3719
sg64
(lp3726
g57
(g78
g59
NtRp3727
(dp3728
g62
(dp3729
g82
g83
ssg71
g3723
sg64
(lp3730
S'session_id_fotobuk'
p3731
asbag57
(g78
g59
NtRp3732
(dp3733
g62
(dp3734
g89
g90
ssg71
g3723
sg64
(lp3735
S':'
asbag57
(g78
g59
NtRp3736
(dp3737
g62
(dp3738
sg71
g3723
sg64
(lp3739
g57
(g58
g59
NtRp3740
(dp3741
g62
(dp3742
g70
I4
ssg71
g3736
sg64
(lp3743
g487
ag57
(g66
g59
NtRp3744
(dp3745
g62
(dp3746
g70
I3
ssg71
Nsg64
(lp3747
g57
(g73
g59
NtRp3748
(dp3749
g62
(dp3750
sg71
g3744
sg64
(lp3751
g57
(g78
g59
NtRp3752
(dp3753
g62
(dp3754
g82
g83
ssg71
g3748
sg64
(lp3755
g306
asbag57
(g78
g59
NtRp3756
(dp3757
g62
(dp3758
g89
g90
ssg71
g3748
sg64
(lp3759
S':'
asbag57
(g78
g59
NtRp3760
(dp3761
g62
(dp3762
sg71
g3748
sg64
(lp3763
g57
(g58
g59
NtRp3764
(dp3765
g62
(dp3766
g70
I3
ssg71
g3760
sg64
(lp3767
S''
asbasbasbag57
(g73
g59
NtRp3768
(dp3769
g62
(dp3770
sg71
g3744
sg64
(lp3771
g57
(g78
g59
NtRp3772
(dp3773
g62
(dp3774
g82
g83
ssg71
g3768
sg64
(lp3775
g327
asbag57
(g78
g59
NtRp3776
(dp3777
g62
(dp3778
g89
g90
ssg71
g3768
sg64
(lp3779
S':'
asbag57
(g78
g59
NtRp3780
(dp3781
g62
(dp3782
sg71
g3768
sg64
(lp3783
g57
(g58
g59
NtRp3784
(dp3785
g62
(dp3786
g70
I3
ssg71
g3780
sg64
(lp3787
S''
asbasbasbag57
(g73
g59
NtRp3788
(dp3789
g62
(dp3790
sg71
g3744
sg64
(lp3791
g57
(g78
g59
NtRp3792
(dp3793
g62
(dp3794
g82
g83
ssg71
g3788
sg64
(lp3795
g348
asbag57
(g78
g59
NtRp3796
(dp3797
g62
(dp3798
g89
g90
ssg71
g3788
sg64
(lp3799
S':'
asbag57
(g78
g59
NtRp3800
(dp3801
g62
(dp3802
sg71
g3788
sg64
(lp3803
g57
(g58
g59
NtRp3804
(dp3805
g62
(dp3806
g70
I3
ssg71
g3800
sg64
(lp3807
S''
asbasbasbag57
(g73
g59
NtRp3808
(dp3809
g62
(dp3810
sg71
g3744
sg64
(lp3811
g57
(g78
g59
NtRp3812
(dp3813
g62
(dp3814
g82
g83
ssg71
g3808
sg64
(lp3815
g369
asbag57
(g78
g59
NtRp3816
(dp3817
g62
(dp3818
g89
g90
ssg71
g3808
sg64
(lp3819
S':'
asbag57
(g78
g59
NtRp3820
(dp3821
g62
(dp3822
sg71
g3808
sg64
(lp3823
g57
(g58
g59
NtRp3824
(dp3825
g62
(dp3826
g70
I3
ssg71
g3820
sg64
(lp3827
S''
asbasbasbag57
(g73
g59
NtRp3828
(dp3829
g62
(dp3830
sg71
g3744
sg64
(lp3831
g57
(g78
g59
NtRp3832
(dp3833
g62
(dp3834
g82
g83
ssg71
g3828
sg64
(lp3835
g390
asbag57
(g78
g59
NtRp3836
(dp3837
g62
(dp3838
g89
g90
ssg71
g3828
sg64
(lp3839
S':'
asbag57
(g78
g59
NtRp3840
(dp3841
g62
(dp3842
sg71
g3828
sg64
(lp3843
g57
(g58
g59
NtRp3844
(dp3845
g62
(dp3846
g70
I3
ssg71
g3840
sg64
(lp3847
S''
asbasbasbag57
(g73
g59
NtRp3848
(dp3849
g62
(dp3850
sg71
g3744
sg64
(lp3851
g57
(g78
g59
NtRp3852
(dp3853
g62
(dp3854
g82
g83
ssg71
g3848
sg64
(lp3855
g411
asbag57
(g78
g59
NtRp3856
(dp3857
g62
(dp3858
g89
g90
ssg71
g3848
sg64
(lp3859
S':'
asbag57
(g78
g59
NtRp3860
(dp3861
g62
(dp3862
sg71
g3848
sg64
(lp3863
g57
(g58
g59
NtRp3864
(dp3865
g62
(dp3866
g70
I3
ssg71
g3860
sg64
(lp3867
S'/'
asbasbasbag57
(g73
g59
NtRp3868
(dp3869
g62
(dp3870
sg71
g3744
sg64
(lp3871
g57
(g78
g59
NtRp3872
(dp3873
g62
(dp3874
g82
g83
ssg71
g3868
sg64
(lp3875
g432
asbag57
(g78
g59
NtRp3876
(dp3877
g62
(dp3878
g89
g90
ssg71
g3868
sg64
(lp3879
S':'
asbag57
(g78
g59
NtRp3880
(dp3881
g62
(dp3882
sg71
g3868
sg64
(lp3883
g57
(g58
g59
NtRp3884
(dp3885
g62
(dp3886
g70
I3
ssg71
g3880
sg64
(lp3887
S''
asbasbasbag57
(g73
g59
NtRp3888
(dp3889
g62
(dp3890
sg71
g3744
sg64
(lp3891
g57
(g78
g59
NtRp3892
(dp3893
g62
(dp3894
g82
g83
ssg71
g3888
sg64
(lp3895
g453
asbag57
(g78
g59
NtRp3896
(dp3897
g62
(dp3898
g89
g90
ssg71
g3888
sg64
(lp3899
S':'
asbag57
(g78
g59
NtRp3900
(dp3901
g62
(dp3902
sg71
g3888
sg64
(lp3903
g57
(g58
g59
NtRp3904
(dp3905
g62
(dp3906
g70
I3
ssg71
g3900
sg64
(lp3907
S''
asbasbasbasbasbasbasbasbasbasbasbag57
(g73
g59
NtRp3908
(dp3909
g62
(dp3910
sg71
g3674
sg64
(lp3911
g57
(g78
g59
NtRp3912
(dp3913
g62
(dp3914
g82
g83
ssg71
g3908
sg64
(lp3915
S'delimiters'
p3916
asbag57
(g78
g59
NtRp3917
(dp3918
g62
(dp3919
g89
g90
ssg71
g3908
sg64
(lp3920
S':'
asbag57
(g78
g59
NtRp3921
(dp3922
g62
(dp3923
sg71
g3908
sg64
(lp3924
g57
(g58
g59
NtRp3925
(dp3926
g62
(dp3927
g70
I5
ssg71
g3921
sg64
(lp3928
g57
(g66
g59
NtRp3929
(dp3930
g62
(dp3931
g70
I4
ssg71
Nsg64
(lp3932
g57
(g73
g59
NtRp3933
(dp3934
g62
(dp3935
sg71
g3929
sg64
(lp3936
g57
(g78
g59
NtRp3937
(dp3938
g62
(dp3939
sg71
g3933
sg64
(lp3940
g57
(g58
g59
NtRp3941
(dp3942
g62
(dp3943
g70
I4
ssg71
g3937
sg64
(lp3944
S'{{'
p3945
asbasbasbag57
(g73
g59
NtRp3946
(dp3947
g62
(dp3948
sg71
g3929
sg64
(lp3949
g57
(g78
g59
NtRp3950
(dp3951
g62
(dp3952
sg71
g3946
sg64
(lp3953
g57
(g58
g59
NtRp3954
(dp3955
g62
(dp3956
g70
I4
ssg71
g3950
sg64
(lp3957
S'}}'
p3958
asbasbasbasbasbasbasbag57
(g73
g59
NtRp3959
(dp3960
g62
(dp3961
sg71
g3674
sg64
(lp3962
g57
(g78
g59
NtRp3963
(dp3964
g62
(dp3965
g82
g83
ssg71
g3959
sg64
(lp3966
S'files'
p3967
asbag57
(g78
g59
NtRp3968
(dp3969
g62
(dp3970
g89
g90
ssg71
g3959
sg64
(lp3971
S':'
asbag57
(g78
g59
NtRp3972
(dp3973
g62
(dp3974
sg71
g3959
sg64
(lp3975
g57
(g58
g59
NtRp3976
(dp3977
g62
(dp3978
g70
I5
ssg71
g3972
sg64
(lp3979
g57
(g66
g59
NtRp3980
(dp3981
g62
(dp3982
g70
I4
ssg71
Nsg64
(lp3983
g57
(g73
g59
NtRp3984
(dp3985
g62
(dp3986
sg71
g3980
sg64
(lp3987
g57
(g78
g59
NtRp3988
(dp3989
g62
(dp3990
sg71
g3984
sg64
(lp3991
g57
(g58
g59
NtRp3992
(dp3993
g62
(dp3994
g70
I4
ssg71
g3988
sg64
(lp3995
S'/FotoBuk/static/js/jquery.js'
p3996
asbasbasbag57
(g73
g59
NtRp3997
(dp3998
g62
(dp3999
sg71
g3980
sg64
(lp4000
g57
(g78
g59
NtRp4001
(dp4002
g62
(dp4003
sg71
g3997
sg64
(lp4004
g57
(g58
g59
NtRp4005
(dp4006
g62
(dp4007
g70
I4
ssg71
g4001
sg64
(lp4008
S'/FotoBuk/static/css/calendar.css'
p4009
asbasbasbag57
(g73
g59
NtRp4010
(dp4011
g62
(dp4012
sg71
g3980
sg64
(lp4013
g57
(g78
g59
NtRp4014
(dp4015
g62
(dp4016
sg71
g4010
sg64
(lp4017
g57
(g58
g59
NtRp4018
(dp4019
g62
(dp4020
g70
I4
ssg71
g4014
sg64
(lp4021
S'/FotoBuk/static/js/calendar.js'
p4022
asbasbasbag57
(g73
g59
NtRp4023
(dp4024
g62
(dp4025
sg71
g3980
sg64
(lp4026
g57
(g78
g59
NtRp4027
(dp4028
g62
(dp4029
sg71
g4023
sg64
(lp4030
g57
(g58
g59
NtRp4031
(dp4032
g62
(dp4033
g70
I4
ssg71
g4027
sg64
(lp4034
S'/FotoBuk/static/js/web2py.js'
p4035
asbasbasbag57
(g73
g59
NtRp4036
(dp4037
g62
(dp4038
sg71
g3980
sg64
(lp4039
g57
(g78
g59
NtRp4040
(dp4041
g62
(dp4042
sg71
g4036
sg64
(lp4043
g57
(g58
g59
NtRp4044
(dp4045
g62
(dp4046
g70
I4
ssg71
g4040
sg64
(lp4047
S'/FotoBuk/static/css/bootstrap.min.css'
p4048
asbasbasbag57
(g73
g59
NtRp4049
(dp4050
g62
(dp4051
sg71
g3980
sg64
(lp4052
g57
(g78
g59
NtRp4053
(dp4054
g62
(dp4055
sg71
g4049
sg64
(lp4056
g57
(g58
g59
NtRp4057
(dp4058
g62
(dp4059
g70
I4
ssg71
g4053
sg64
(lp4060
S'/FotoBuk/static/css/bootstrap-responsive.min.css'
p4061
asbasbasbag57
(g73
g59
NtRp4062
(dp4063
g62
(dp4064
sg71
g3980
sg64
(lp4065
g57
(g78
g59
NtRp4066
(dp4067
g62
(dp4068
sg71
g4062
sg64
(lp4069
g57
(g58
g59
NtRp4070
(dp4071
g62
(dp4072
g70
I4
ssg71
g4066
sg64
(lp4073
S'/FotoBuk/static/css/web2py.css'
p4074
asbasbasbag57
(g73
g59
NtRp4075
(dp4076
g62
(dp4077
sg71
g3980
sg64
(lp4078
g57
(g78
g59
NtRp4079
(dp4080
g62
(dp4081
sg71
g4075
sg64
(lp4082
g57
(g58
g59
NtRp4083
(dp4084
g62
(dp4085
g70
I4
ssg71
g4079
sg64
(lp4086
S'/FotoBuk/static/css/web2py_bootstrap.css'
p4087
asbasbasbasbasbasbasbag57
(g73
g59
NtRp4088
(dp4089
g62
(dp4090
sg71
g3674
sg64
(lp4091
g57
(g78
g59
NtRp4092
(dp4093
g62
(dp4094
g82
g83
ssg71
g4088
sg64
(lp4095
S'flash'
p4096
asbag57
(g78
g59
NtRp4097
(dp4098
g62
(dp4099
g89
g90
ssg71
g4088
sg64
(lp4100
S':'
asbag57
(g78
g59
NtRp4101
(dp4102
g62
(dp4103
sg71
g4088
sg64
(lp4104
g57
(g58
g59
NtRp4105
(dp4106
g62
(dp4107
g70
I5
ssg71
g4101
sg64
(lp4108
S''
asbasbasbag57
(g73
g59
NtRp4109
(dp4110
g62
(dp4111
sg71
g3674
sg64
(lp4112
g57
(g78
g59
NtRp4113
(dp4114
g62
(dp4115
g82
g83
ssg71
g4109
sg64
(lp4116
S'generic_patterns'
p4117
asbag57
(g78
g59
NtRp4118
(dp4119
g62
(dp4120
g89
g90
ssg71
g4109
sg64
(lp4121
S':'
asbag57
(g78
g59
NtRp4122
(dp4123
g62
(dp4124
sg71
g4109
sg64
(lp4125
g57
(g58
g59
NtRp4126
(dp4127
g62
(dp4128
g70
I5
ssg71
g4122
sg64
(lp4129
g57
(g66
g59
NtRp4130
(dp4131
g62
(dp4132
g70
I4
ssg71
Nsg64
(lp4133
sbasbasbasbag57
(g73
g59
NtRp4134
(dp4135
g62
(dp4136
sg71
g3674
sg64
(lp4137
g57
(g78
g59
NtRp4138
(dp4139
g62
(dp4140
g82
g83
ssg71
g4134
sg64
(lp4141
S'google_analytics_id'
p4142
asbag57
(g78
g59
NtRp4143
(dp4144
g62
(dp4145
g89
g90
ssg71
g4134
sg64
(lp4146
S':'
asbag57
(g78
g59
NtRp4147
(dp4148
g62
(dp4149
sg71
g4134
sg64
(lp4150
g57
(g58
g59
NtRp4151
(dp4152
g62
(dp4153
g70
I5
ssg71
g4147
sg64
(lp4154
S'None'
p4155
asbasbasbag57
(g73
g59
NtRp4156
(dp4157
g62
(dp4158
sg71
g3674
sg64
(lp4159
g57
(g78
g59
NtRp4160
(dp4161
g62
(dp4162
g82
g83
ssg71
g4156
sg64
(lp4163
S'headers'
p4164
asbag57
(g78
g59
NtRp4165
(dp4166
g62
(dp4167
g89
g90
ssg71
g4156
sg64
(lp4168
S':'
asbag57
(g78
g59
NtRp4169
(dp4170
g62
(dp4171
sg71
g4156
sg64
(lp4172
g57
(g58
g59
NtRp4173
(dp4174
g62
(dp4175
g70
I5
ssg71
g4169
sg64
(lp4176
g57
(g66
g59
NtRp4177
(dp4178
g62
(dp4179
g70
I4
ssg71
Nsg64
(lp4180
g57
(g73
g59
NtRp4181
(dp4182
g62
(dp4183
sg71
g4177
sg64
(lp4184
g57
(g78
g59
NtRp4185
(dp4186
g62
(dp4187
g82
g83
ssg71
g4181
sg64
(lp4188
S'Cache-Control'
p4189
asbag57
(g78
g59
NtRp4190
(dp4191
g62
(dp4192
g89
g90
ssg71
g4181
sg64
(lp4193
S':'
asbag57
(g78
g59
NtRp4194
(dp4195
g62
(dp4196
sg71
g4181
sg64
(lp4197
g57
(g58
g59
NtRp4198
(dp4199
g62
(dp4200
g70
I4
ssg71
g4194
sg64
(lp4201
S'no-store, no-cache, must-revalidate, post-check=0, pre-check=0'
p4202
asbasbasbag57
(g73
g59
NtRp4203
(dp4204
g62
(dp4205
sg71
g4177
sg64
(lp4206
g57
(g78
g59
NtRp4207
(dp4208
g62
(dp4209
g82
g83
ssg71
g4203
sg64
(lp4210
S'Content-Type'
p4211
asbag57
(g78
g59
NtRp4212
(dp4213
g62
(dp4214
g89
g90
ssg71
g4203
sg64
(lp4215
S':'
asbag57
(g78
g59
NtRp4216
(dp4217
g62
(dp4218
sg71
g4203
sg64
(lp4219
g57
(g58
g59
NtRp4220
(dp4221
g62
(dp4222
g70
I4
ssg71
g4216
sg64
(lp4223
S'text/html; charset=utf-8'
p4224
asbasbasbag57
(g73
g59
NtRp4225
(dp4226
g62
(dp4227
sg71
g4177
sg64
(lp4228
g57
(g78
g59
NtRp4229
(dp4230
g62
(dp4231
g82
g83
ssg71
g4225
sg64
(lp4232
S'Expires'
p4233
asbag57
(g78
g59
NtRp4234
(dp4235
g62
(dp4236
g89
g90
ssg71
g4225
sg64
(lp4237
S':'
asbag57
(g78
g59
NtRp4238
(dp4239
g62
(dp4240
sg71
g4225
sg64
(lp4241
g57
(g58
g59
NtRp4242
(dp4243
g62
(dp4244
g70
I4
ssg71
g4238
sg64
(lp4245
S'Thu, 30 Aug 2012 22:41:40 GMT'
p4246
asbasbasbag57
(g73
g59
NtRp4247
(dp4248
g62
(dp4249
sg71
g4177
sg64
(lp4250
g57
(g78
g59
NtRp4251
(dp4252
g62
(dp4253
g82
g83
ssg71
g4247
sg64
(lp4254
S'Pragma'
p4255
asbag57
(g78
g59
NtRp4256
(dp4257
g62
(dp4258
g89
g90
ssg71
g4247
sg64
(lp4259
S':'
asbag57
(g78
g59
NtRp4260
(dp4261
g62
(dp4262
sg71
g4247
sg64
(lp4263
g57
(g58
g59
NtRp4264
(dp4265
g62
(dp4266
g70
I4
ssg71
g4260
sg64
(lp4267
S'no-cache'
p4268
asbasbasbag57
(g73
g59
NtRp4269
(dp4270
g62
(dp4271
sg71
g4177
sg64
(lp4272
g57
(g78
g59
NtRp4273
(dp4274
g62
(dp4275
g82
g83
ssg71
g4269
sg64
(lp4276
S'X-Powered-By'
p4277
asbag57
(g78
g59
NtRp4278
(dp4279
g62
(dp4280
g89
g90
ssg71
g4269
sg64
(lp4281
S':'
asbag57
(g78
g59
NtRp4282
(dp4283
g62
(dp4284
sg71
g4269
sg64
(lp4285
g57
(g58
g59
NtRp4286
(dp4287
g62
(dp4288
g70
I4
ssg71
g4282
sg64
(lp4289
S'web2py'
p4290
asbasbasbasbasbasbasbag57
(g73
g59
NtRp4291
(dp4292
g62
(dp4293
sg71
g3674
sg64
(lp4294
g57
(g78
g59
NtRp4295
(dp4296
g62
(dp4297
g82
g83
ssg71
g4291
sg64
(lp4298
S'menu'
p4299
asbag57
(g78
g59
NtRp4300
(dp4301
g62
(dp4302
g89
g90
ssg71
g4291
sg64
(lp4303
S':'
asbag57
(g78
g59
NtRp4304
(dp4305
g62
(dp4306
sg71
g4291
sg64
(lp4307
g57
(g58
g59
NtRp4308
(dp4309
g62
(dp4310
g70
I5
ssg71
g4304
sg64
(lp4311
g57
(g66
g59
NtRp4312
(dp4313
g62
(dp4314
g70
I4
ssg71
Nsg64
(lp4315
g57
(g73
g59
NtRp4316
(dp4317
g62
(dp4318
sg71
g4312
sg64
(lp4319
g57
(g78
g59
NtRp4320
(dp4321
g62
(dp4322
sg71
g4316
sg64
(lp4323
g57
(g58
g59
NtRp4324
(dp4325
g62
(dp4326
g70
I4
ssg71
g4320
sg64
(lp4327
g57
(g66
g59
NtRp4328
(dp4329
g62
(dp4330
g70
I3
ssg71
Nsg64
(lp4331
g57
(g73
g59
NtRp4332
(dp4333
g62
(dp4334
sg71
g4328
sg64
(lp4335
g57
(g78
g59
NtRp4336
(dp4337
g62
(dp4338
sg71
g4332
sg64
(lp4339
g57
(g58
g59
NtRp4340
(dp4341
g62
(dp4342
g70
I3
ssg71
g4336
sg64
(lp4343
cgluon.languages
lazyT_unpickle
p4344
(S's\x04\x00\x00\x00Home'
tRp4345
asbasbasbag57
(g73
g59
NtRp4346
(dp4347
g62
(dp4348
sg71
g4328
sg64
(lp4349
g57
(g78
g59
NtRp4350
(dp4351
g62
(dp4352
sg71
g4346
sg64
(lp4353
g57
(g58
g59
NtRp4354
(dp4355
g62
(dp4356
g70
I3
ssg71
g4350
sg64
(lp4357
g100
asbasbasbag57
(g73
g59
NtRp4358
(dp4359
g62
(dp4360
sg71
g4328
sg64
(lp4361
g57
(g78
g59
NtRp4362
(dp4363
g62
(dp4364
sg71
g4358
sg64
(lp4365
g57
(g58
g59
NtRp4366
(dp4367
g62
(dp4368
g70
I3
ssg71
g4362
sg64
(lp4369
S'/FotoBuk/default/index'
p4370
asbasbasbag57
(g73
g59
NtRp4371
(dp4372
g62
(dp4373
sg71
g4328
sg64
(lp4374
g57
(g78
g59
NtRp4375
(dp4376
g62
(dp4377
sg71
g4371
sg64
(lp4378
g57
(g58
g59
NtRp4379
(dp4380
g62
(dp4381
g70
I3
ssg71
g4375
sg64
(lp4382
g57
(g66
g59
NtRp4383
(dp4384
g62
(dp4385
g70
I2
ssg71
Nsg64
(lp4386
sbasbasbasbasbasbasbasbag57
(g73
g59
NtRp4387
(dp4388
g62
(dp4389
sg71
g4312
sg64
(lp4390
g57
(g78
g59
NtRp4391
(dp4392
g62
(dp4393
sg71
g4387
sg64
(lp4394
g57
(g58
g59
NtRp4395
(dp4396
g62
(dp4397
g70
I4
ssg71
g4391
sg64
(lp4398
g57
(g66
g59
NtRp4399
(dp4400
g62
(dp4401
g70
I3
ssg71
Nsg64
(lp4402
g57
(g73
g59
NtRp4403
(dp4404
g62
(dp4405
sg71
g4399
sg64
(lp4406
g57
(g78
g59
NtRp4407
(dp4408
g62
(dp4409
sg71
g4403
sg64
(lp4410
g57
(g58
g59
NtRp4411
(dp4412
g62
(dp4413
g70
I3
ssg71
g4407
sg64
(lp4414
g57
(cgluon.html
SPAN
p4415
g59
NtRp4416
(dp4417
g62
(dp4418
g82
S'color:yellow'
p4419
ssg71
g57
(cgluon.html
A
p4420
g59
NtRp4421
(dp4422
g62
(dp4423
S'_href'
p4424
S'http://web2py.com'
p4425
ssg71
g57
(cgluon.html
LI
p4426
g59
NtRp4427
(dp4428
g62
(dp4429
S'_class'
p4430
S'dropdown'
p4431
ssg71
g57
(cgluon.html
UL
p4432
g59
NtRp4433
(dp4434
g62
(dp4435
S'li_class'
p4436
g4431
sS'mobile'
p4437
I00
sg4430
S'nav'
p4438
sS'ul_class'
p4439
S'dropdown-menu'
p4440
sS'li_active'
p4441
S'web2py-menu-active'
p4442
ssg71
Nsg64
(lp4443
g57
(g4426
g59
NtRp4444
(dp4445
g62
(dp4446
sg71
g4433
sg64
(lp4447
g57
(g4420
g59
NtRp4448
(dp4449
g62
(dp4450
g4424
g4370
ssg71
g4444
sg64
(lp4451
g4345
asbasbag4427
asbsg64
(lp4452
g4421
ag57
(g4432
g59
NtRp4453
(dp4454
g62
(dp4455
g4430
g4440
ssg71
g4427
sg64
(lp4456
g57
(g4426
g59
NtRp4457
(dp4458
g62
(dp4459
sg71
g4453
sg64
(lp4460
g57
(g4420
g59
NtRp4461
(dp4462
g62
(dp4463
g4424
S'/admin/default/site'
p4464
ssg71
g4457
sg64
(lp4465
g4344
(S's\x08\x00\x00\x00My Sites'
tRp4466
asbasbag57
(g4426
g59
NtRp4467
(dp4468
g62
(dp4469
g4430
g4431
ssg71
g4453
sg64
(lp4470
g57
(g4420
g59
NtRp4471
(dp4472
g62
(dp4473
g4424
S'/admin/default/design/FotoBuk'
p4474
ssg71
g4467
sg64
(lp4475
g4344
(S's\x08\x00\x00\x00This App'
tRp4476
asbag57
(g4432
g59
NtRp4477
(dp4478
g62
(dp4479
g4430
g4440
ssg71
g4467
sg64
(lp4480
g57
(g4426
g59
NtRp4481
(dp4482
g62
(dp4483
sg71
g4477
sg64
(lp4484
g57
(g4420
g59
NtRp4485
(dp4486
g62
(dp4487
g4424
S'/admin/default/edit/FotoBuk/controllers/default.py'
p4488
ssg71
g4481
sg64
(lp4489
g4344
(S's\n\x00\x00\x00Controller'
tRp4490
asbasbag57
(g4426
g59
NtRp4491
(dp4492
g62
(dp4493
sg71
g4477
sg64
(lp4494
g57
(g4420
g59
NtRp4495
(dp4496
g62
(dp4497
g4424
S'/admin/default/edit/FotoBuk/views/default/show.html'
p4498
ssg71
g4491
sg64
(lp4499
g4344
(S's\x04\x00\x00\x00View'
tRp4500
asbasbag57
(g4426
g59
NtRp4501
(dp4502
g62
(dp4503
sg71
g4477
sg64
(lp4504
g57
(g4420
g59
NtRp4505
(dp4506
g62
(dp4507
g4424
S'/admin/default/edit/FotoBuk/views/layout.html'
p4508
ssg71
g4501
sg64
(lp4509
g4344
(S's\x06\x00\x00\x00Layout'
tRp4510
asbasbag57
(g4426
g59
NtRp4511
(dp4512
g62
(dp4513
sg71
g4477
sg64
(lp4514
g57
(g4420
g59
NtRp4515
(dp4516
g62
(dp4517
g4424
S'/admin/default/edit/FotoBuk/static/css/web2py.css'
p4518
ssg71
g4511
sg64
(lp4519
g4344
(S's\n\x00\x00\x00Stylesheet'
tRp4520
asbasbag57
(g4426
g59
NtRp4521
(dp4522
g62
(dp4523
sg71
g4477
sg64
(lp4524
g57
(g4420
g59
NtRp4525
(dp4526
g62
(dp4527
g4424
S'/admin/default/edit/FotoBuk/models/db.py'
p4528
ssg71
g4521
sg64
(lp4529
g4344
(S's\x08\x00\x00\x00DB Model'
tRp4530
asbasbag57
(g4426
g59
NtRp4531
(dp4532
g62
(dp4533
sg71
g4477
sg64
(lp4534
g57
(g4420
g59
NtRp4535
(dp4536
g62
(dp4537
g4424
S'/admin/default/edit/FotoBuk/models/menu.py'
p4538
ssg71
g4531
sg64
(lp4539
g4344
(S's\n\x00\x00\x00Menu Model'
tRp4540
asbasbag57
(g4426
g59
NtRp4541
(dp4542
g62
(dp4543
sg71
g4477
sg64
(lp4544
g57
(g4420
g59
NtRp4545
(dp4546
g62
(dp4547
g4424
S'/FotoBuk/appadmin/index'
p4548
ssg71
g4541
sg64
(lp4549
g4344
(S's\x08\x00\x00\x00Database'
tRp4550
asbasbag57
(g4426
g59
NtRp4551
(dp4552
g62
(dp4553
sg71
g4477
sg64
(lp4554
g57
(g4420
g59
NtRp4555
(dp4556
g62
(dp4557
g4424
S'/admin/default/errors/FotoBuk'
p4558
ssg71
g4551
sg64
(lp4559
g4344
(S's\x06\x00\x00\x00Errors'
tRp4560
asbasbag57
(g4426
g59
NtRp4561
(dp4562
g62
(dp4563
sg71
g4477
sg64
(lp4564
g57
(g4420
g59
NtRp4565
(dp4566
g62
(dp4567
g4424
S'/admin/default/about/FotoBuk'
p4568
ssg71
g4561
sg64
(lp4569
g4344
(S's\x05\x00\x00\x00About'
tRp4570
asbasbasbasbag57
(g4426
g59
NtRp4571
(dp4572
g62
(dp4573
g4430
g4431
ssg71
g4453
sg64
(lp4574
g57
(g4420
g59
NtRp4575
(dp4576
g62
(dp4577
g4424
S'http://www.web2py.com'
p4578
ssg71
g4571
sg64
(lp4579
S'web2py.com'
p4580
asbag57
(g4432
g59
NtRp4581
(dp4582
g62
(dp4583
g4430
g4440
ssg71
g4571
sg64
(lp4584
g57
(g4426
g59
NtRp4585
(dp4586
g62
(dp4587
sg71
g4581
sg64
(lp4588
g57
(g4420
g59
NtRp4589
(dp4590
g62
(dp4591
g4424
S'http://www.web2py.com/examples/default/download'
p4592
ssg71
g4585
sg64
(lp4593
g4344
(S's\x08\x00\x00\x00Download'
tRp4594
asbasbag57
(g4426
g59
NtRp4595
(dp4596
g62
(dp4597
sg71
g4581
sg64
(lp4598
g57
(g4420
g59
NtRp4599
(dp4600
g62
(dp4601
g4424
S'http://www.web2py.com/examples/default/support'
p4602
ssg71
g4595
sg64
(lp4603
g4344
(S's\x07\x00\x00\x00Support'
tRp4604
asbasbag57
(g4426
g59
NtRp4605
(dp4606
g62
(dp4607
sg71
g4581
sg64
(lp4608
g57
(g4420
g59
NtRp4609
(dp4610
g62
(dp4611
g4424
S'http://web2py.com/demo_admin'
p4612
ssg71
g4605
sg64
(lp4613
g4344
(S's\x04\x00\x00\x00Demo'
tRp4614
asbasbag57
(g4426
g59
NtRp4615
(dp4616
g62
(dp4617
sg71
g4581
sg64
(lp4618
g57
(g4420
g59
NtRp4619
(dp4620
g62
(dp4621
g4424
S'http://web2py.com/examples/default/examples'
p4622
ssg71
g4615
sg64
(lp4623
g4344
(S's\x0e\x00\x00\x00Quick Examples'
tRp4624
asbasbag57
(g4426
g59
NtRp4625
(dp4626
g62
(dp4627
sg71
g4581
sg64
(lp4628
g57
(g4420
g59
NtRp4629
(dp4630
g62
(dp4631
g4424
S'http://web2py.com/AlterEgo'
p4632
ssg71
g4625
sg64
(lp4633
g4344
(S's\x03\x00\x00\x00FAQ'
tRp4634
asbasbag57
(g4426
g59
NtRp4635
(dp4636
g62
(dp4637
sg71
g4581
sg64
(lp4638
g57
(g4420
g59
NtRp4639
(dp4640
g62
(dp4641
g4424
S'http://www.web2py.com/examples/default/videos/'
p4642
ssg71
g4635
sg64
(lp4643
g4344
(S's\x06\x00\x00\x00Videos'
tRp4644
asbasbag57
(g4426
g59
NtRp4645
(dp4646
g62
(dp4647
sg71
g4581
sg64
(lp4648
g57
(g4420
g59
NtRp4649
(dp4650
g62
(dp4651
g4424
S'http://web2py.com/appliances'
p4652
ssg71
g4645
sg64
(lp4653
g4344
(S's\x11\x00\x00\x00Free Applications'
tRp4654
asbasbag57
(g4426
g59
NtRp4655
(dp4656
g62
(dp4657
sg71
g4581
sg64
(lp4658
g57
(g4420
g59
NtRp4659
(dp4660
g62
(dp4661
g4424
S'http://web2py.com/plugins'
p4662
ssg71
g4655
sg64
(lp4663
g4344
(S's\x07\x00\x00\x00Plugins'
tRp4664
asbasbag57
(g4426
g59
NtRp4665
(dp4666
g62
(dp4667
sg71
g4581
sg64
(lp4668
g57
(g4420
g59
NtRp4669
(dp4670
g62
(dp4671
g4424
S'http://web2py.com/layouts'
p4672
ssg71
g4665
sg64
(lp4673
g4344
(S's\x07\x00\x00\x00Layouts'
tRp4674
asbasbag57
(g4426
g59
NtRp4675
(dp4676
g62
(dp4677
sg71
g4581
sg64
(lp4678
g57
(g4420
g59
NtRp4679
(dp4680
g62
(dp4681
g4424
S'http://web2pyslices.com/'
p4682
ssg71
g4675
sg64
(lp4683
g4344
(S's\x07\x00\x00\x00Recipes'
tRp4684
asbasbag57
(g4426
g59
NtRp4685
(dp4686
g62
(dp4687
sg71
g4581
sg64
(lp4688
g57
(g4420
g59
NtRp4689
(dp4690
g62
(dp4691
g4424
S'http://web2py.com/semantic'
p4692
ssg71
g4685
sg64
(lp4693
g4344
(S's\x08\x00\x00\x00Semantic'
tRp4694
asbasbasbasbag57
(g4426
g59
NtRp4695
(dp4696
g62
(dp4697
g4430
g4431
ssg71
g4453
sg64
(lp4698
g57
(g4420
g59
NtRp4699
(dp4700
g62
(dp4701
g4424
S'http://www.web2py.com/book'
p4702
ssg71
g4695
sg64
(lp4703
g4344
(S's\r\x00\x00\x00Documentation'
tRp4704
asbag57
(g4432
g59
NtRp4705
(dp4706
g62
(dp4707
g4430
g4440
ssg71
g4695
sg64
(lp4708
g57
(g4426
g59
NtRp4709
(dp4710
g62
(dp4711
sg71
g4705
sg64
(lp4712
g57
(g4420
g59
NtRp4713
(dp4714
g62
(dp4715
g4424
S'http://www.web2py.com/book/default/chapter/00'
p4716
ssg71
g4709
sg64
(lp4717
g4344
(S's\x07\x00\x00\x00Preface'
tRp4718
asbasbag57
(g4426
g59
NtRp4719
(dp4720
g62
(dp4721
sg71
g4705
sg64
(lp4722
g57
(g4420
g59
NtRp4723
(dp4724
g62
(dp4725
g4424
S'http://www.web2py.com/book/default/chapter/01'
p4726
ssg71
g4719
sg64
(lp4727
g4344
(S's\x0c\x00\x00\x00Introduction'
tRp4728
asbasbag57
(g4426
g59
NtRp4729
(dp4730
g62
(dp4731
sg71
g4705
sg64
(lp4732
g57
(g4420
g59
NtRp4733
(dp4734
g62
(dp4735
g4424
S'http://www.web2py.com/book/default/chapter/02'
p4736
ssg71
g4729
sg64
(lp4737
g4344
(S's\x06\x00\x00\x00Python'
tRp4738
asbasbag57
(g4426
g59
NtRp4739
(dp4740
g62
(dp4741
sg71
g4705
sg64
(lp4742
g57
(g4420
g59
NtRp4743
(dp4744
g62
(dp4745
g4424
S'http://www.web2py.com/book/default/chapter/03'
p4746
ssg71
g4739
sg64
(lp4747
g4344
(S's\x08\x00\x00\x00Overview'
tRp4748
asbasbag57
(g4426
g59
NtRp4749
(dp4750
g62
(dp4751
sg71
g4705
sg64
(lp4752
g57
(g4420
g59
NtRp4753
(dp4754
g62
(dp4755
g4424
S'http://www.web2py.com/book/default/chapter/04'
p4756
ssg71
g4749
sg64
(lp4757
g4344
(S's\x08\x00\x00\x00The Core'
tRp4758
asbasbag57
(g4426
g59
NtRp4759
(dp4760
g62
(dp4761
sg71
g4705
sg64
(lp4762
g57
(g4420
g59
NtRp4763
(dp4764
g62
(dp4765
g4424
S'http://www.web2py.com/book/default/chapter/05'
p4766
ssg71
g4759
sg64
(lp4767
g4344
(S's\t\x00\x00\x00The Views'
tRp4768
asbasbag57
(g4426
g59
NtRp4769
(dp4770
g62
(dp4771
sg71
g4705
sg64
(lp4772
g57
(g4420
g59
NtRp4773
(dp4774
g62
(dp4775
g4424
S'http://www.web2py.com/book/default/chapter/06'
p4776
ssg71
g4769
sg64
(lp4777
g4344
(S's\x08\x00\x00\x00Database'
tRp4778
asbasbag57
(g4426
g59
NtRp4779
(dp4780
g62
(dp4781
sg71
g4705
sg64
(lp4782
g57
(g4420
g59
NtRp4783
(dp4784
g62
(dp4785
g4424
S'http://www.web2py.com/book/default/chapter/07'
p4786
ssg71
g4779
sg64
(lp4787
g4344
(S's\x14\x00\x00\x00Forms and Validators'
tRp4788
asbasbag57
(g4426
g59
NtRp4789
(dp4790
g62
(dp4791
sg71
g4705
sg64
(lp4792
g57
(g4420
g59
NtRp4793
(dp4794
g62
(dp4795
g4424
S'http://www.web2py.com/book/default/chapter/08'
p4796
ssg71
g4789
sg64
(lp4797
g4344
(S's\r\x00\x00\x00Email and SMS'
tRp4798
asbasbag57
(g4426
g59
NtRp4799
(dp4800
g62
(dp4801
sg71
g4705
sg64
(lp4802
g57
(g4420
g59
NtRp4803
(dp4804
g62
(dp4805
g4424
S'http://www.web2py.com/book/default/chapter/09'
p4806
ssg71
g4799
sg64
(lp4807
g4344
(S's\x0e\x00\x00\x00Access Control'
tRp4808
asbasbag57
(g4426
g59
NtRp4809
(dp4810
g62
(dp4811
sg71
g4705
sg64
(lp4812
g57
(g4420
g59
NtRp4813
(dp4814
g62
(dp4815
g4424
S'http://www.web2py.com/book/default/chapter/10'
p4816
ssg71
g4809
sg64
(lp4817
g4344
(S's\x08\x00\x00\x00Services'
tRp4818
asbasbag57
(g4426
g59
NtRp4819
(dp4820
g62
(dp4821
sg71
g4705
sg64
(lp4822
g57
(g4420
g59
NtRp4823
(dp4824
g62
(dp4825
g4424
S'http://www.web2py.com/book/default/chapter/11'
p4826
ssg71
g4819
sg64
(lp4827
g4344
(S's\x0c\x00\x00\x00Ajax Recipes'
tRp4828
asbasbag57
(g4426
g59
NtRp4829
(dp4830
g62
(dp4831
sg71
g4705
sg64
(lp4832
g57
(g4420
g59
NtRp4833
(dp4834
g62
(dp4835
g4424
S'http://www.web2py.com/book/default/chapter/12'
p4836
ssg71
g4829
sg64
(lp4837
g4344
(S's\x16\x00\x00\x00Components and Plugins'
tRp4838
asbasbag57
(g4426
g59
NtRp4839
(dp4840
g62
(dp4841
sg71
g4705
sg64
(lp4842
g57
(g4420
g59
NtRp4843
(dp4844
g62
(dp4845
g4424
S'http://www.web2py.com/book/default/chapter/13'
p4846
ssg71
g4839
sg64
(lp4847
g4344
(S's\x12\x00\x00\x00Deployment Recipes'
tRp4848
asbasbag57
(g4426
g59
NtRp4849
(dp4850
g62
(dp4851
sg71
g4705
sg64
(lp4852
g57
(g4420
g59
NtRp4853
(dp4854
g62
(dp4855
g4424
S'http://www.web2py.com/book/default/chapter/14'
p4856
ssg71
g4849
sg64
(lp4857
g4344
(S's\r\x00\x00\x00Other Recipes'
tRp4858
asbasbag57
(g4426
g59
NtRp4859
(dp4860
g62
(dp4861
sg71
g4705
sg64
(lp4862
g57
(g4420
g59
NtRp4863
(dp4864
g62
(dp4865
g4424
S'http://stores.lulu.com/web2py'
p4866
ssg71
g4859
sg64
(lp4867
g4344
(S's\r\x00\x00\x00Buy this book'
tRp4868
asbasbasbasbag57
(g4426
g59
NtRp4869
(dp4870
g62
(dp4871
g4430
g4431
ssg71
g4453
sg64
(lp4872
g57
(g4420
g59
NtRp4873
(dp4874
g62
(dp4875
S'_onclick'
p4876
S'javascript:void(0);return false;'
p4877
sg4424
S'#'
ssg71
g4869
sg64
(lp4878
g4344
(S's\t\x00\x00\x00Community'
tRp4879
asbag57
(g4432
g59
NtRp4880
(dp4881
g62
(dp4882
g4430
g4440
ssg71
g4869
sg64
(lp4883
g57
(g4426
g59
NtRp4884
(dp4885
g62
(dp4886
sg71
g4880
sg64
(lp4887
g57
(g4420
g59
NtRp4888
(dp4889
g62
(dp4890
g4424
S'http://www.web2py.com/examples/default/usergroups'
p4891
ssg71
g4884
sg64
(lp4892
g4344
(S's\x06\x00\x00\x00Groups'
tRp4893
asbasbag57
(g4426
g59
NtRp4894
(dp4895
g62
(dp4896
sg71
g4880
sg64
(lp4897
g57
(g4420
g59
NtRp4898
(dp4899
g62
(dp4900
g4424
S'http://twitter.com/web2py'
p4901
ssg71
g4894
sg64
(lp4902
g4344
(S's\x07\x00\x00\x00Twitter'
tRp4903
asbasbag57
(g4426
g59
NtRp4904
(dp4905
g62
(dp4906
sg71
g4880
sg64
(lp4907
g57
(g4420
g59
NtRp4908
(dp4909
g62
(dp4910
g4424
S'http://webchat.freenode.net/?channels=web2py'
p4911
ssg71
g4904
sg64
(lp4912
g4344
(S's\t\x00\x00\x00Live Chat'
tRp4913
asbasbasbasbag57
(g4426
g59
NtRp4914
(dp4915
g62
(dp4916
g4430
g4431
ssg71
g4453
sg64
(lp4917
g57
(g4420
g59
NtRp4918
(dp4919
g62
(dp4920
g4876
g4877
sg4424
S'#'
ssg71
g4914
sg64
(lp4921
g4344
(S's\x07\x00\x00\x00Plugins'
tRp4922
asbag57
(g4432
g59
NtRp4923
(dp4924
g62
(dp4925
g4430
g4440
ssg71
g4914
sg64
(lp4926
g57
(g4426
g59
NtRp4927
(dp4928
g62
(dp4929
sg71
g4923
sg64
(lp4930
g57
(g4420
g59
NtRp4931
(dp4932
g62
(dp4933
g4424
S'http://web2py.com/examples/default/download'
p4934
ssg71
g4927
sg64
(lp4935
S'plugin_wiki'
p4936
asbasbag57
(g4426
g59
NtRp4937
(dp4938
g62
(dp4939
sg71
g4923
sg64
(lp4940
g57
(g4420
g59
NtRp4941
(dp4942
g62
(dp4943
g4424
g4662
ssg71
g4937
sg64
(lp4944
g4344
(S's\r\x00\x00\x00Other Plugins'
tRp4945
asbasbag57
(g4426
g59
NtRp4946
(dp4947
g62
(dp4948
sg71
g4923
sg64
(lp4949
g57
(g4420
g59
NtRp4950
(dp4951
g62
(dp4952
g4424
g4672
ssg71
g4946
sg64
(lp4953
g4344
(S's\x0e\x00\x00\x00Layout Plugins'
tRp4954
asbasbasbasbasbasbsg64
(lp4955
g4416
asbsg64
(lp4956
g4290
asbasbasbasbag57
(g73
g59
NtRp4957
(dp4958
g62
(dp4959
sg71
g4399
sg64
(lp4960
g57
(g78
g59
NtRp4961
(dp4962
g62
(dp4963
sg71
g4957
sg64
(lp4964
g57
(g58
g59
NtRp4965
(dp4966
g62
(dp4967
g70
I3
ssg71
g4961
sg64
(lp4968
g100
asbasbasbag57
(g73
g59
NtRp4969
(dp4970
g62
(dp4971
sg71
g4399
sg64
(lp4972
g57
(g78
g59
NtRp4973
(dp4974
g62
(dp4975
sg71
g4969
sg64
(lp4976
g57
(g58
g59
NtRp4977
(dp4978
g62
(dp4979
g70
I3
ssg71
g4973
sg64
(lp4980
g4425
asbasbasbag57
(g73
g59
NtRp4981
(dp4982
g62
(dp4983
sg71
g4399
sg64
(lp4984
g57
(g78
g59
NtRp4985
(dp4986
g62
(dp4987
sg71
g4981
sg64
(lp4988
g57
(g58
g59
NtRp4989
(dp4990
g62
(dp4991
g70
I3
ssg71
g4985
sg64
(lp4992
g57
(g66
g59
NtRp4993
(dp4994
g62
(dp4995
g70
I2
ssg71
Nsg64
(lp4996
g57
(g73
g59
NtRp4997
(dp4998
g62
(dp4999
sg71
g4993
sg64
(lp5000
g57
(g78
g59
NtRp5001
(dp5002
g62
(dp5003
sg71
g4997
sg64
(lp5004
g57
(g58
g59
NtRp5005
(dp5006
g62
(dp5007
g70
I2
ssg71
g5001
sg64
(lp5008
g57
(g66
g59
NtRp5009
(dp5010
g62
(dp5011
g70
I1
ssg71
Nsg64
(lp5012
g57
(g73
g59
NtRp5013
(dp5014
g62
(dp5015
sg71
g5009
sg64
(lp5016
g57
(g78
g59
NtRp5017
(dp5018
g62
(dp5019
sg71
g5013
sg64
(lp5020
g57
(g58
g59
NtRp5021
(dp5022
g62
(dp5023
g70
I1
ssg71
g5017
sg64
(lp5024
g4466
asbasbasbag57
(g73
g59
NtRp5025
(dp5026
g62
(dp5027
sg71
g5009
sg64
(lp5028
g57
(g78
g59
NtRp5029
(dp5030
g62
(dp5031
sg71
g5025
sg64
(lp5032
g57
(g58
g59
NtRp5033
(dp5034
g62
(dp5035
g70
I1
ssg71
g5029
sg64
(lp5036
I00
asbasbasbag57
(g73
g59
NtRp5037
(dp5038
g62
(dp5039
sg71
g5009
sg64
(lp5040
g57
(g78
g59
NtRp5041
(dp5042
g62
(dp5043
sg71
g5037
sg64
(lp5044
g57
(g58
g59
NtRp5045
(dp5046
g62
(dp5047
g70
I1
ssg71
g5041
sg64
(lp5048
g4464
asbasbasbasbasbasbasbag57
(g73
g59
NtRp5049
(dp5050
g62
(dp5051
sg71
g4993
sg64
(lp5052
g57
(g78
g59
NtRp5053
(dp5054
g62
(dp5055
sg71
g5049
sg64
(lp5056
g57
(g58
g59
NtRp5057
(dp5058
g62
(dp5059
g70
I2
ssg71
g5053
sg64
(lp5060
g57
(g66
g59
NtRp5061
(dp5062
g62
(dp5063
g70
I1
ssg71
Nsg64
(lp5064
g57
(g73
g59
NtRp5065
(dp5066
g62
(dp5067
sg71
g5061
sg64
(lp5068
g57
(g78
g59
NtRp5069
(dp5070
g62
(dp5071
sg71
g5065
sg64
(lp5072
g57
(g58
g59
NtRp5073
(dp5074
g62
(dp5075
g70
I1
ssg71
g5069
sg64
(lp5076
g4476
asbasbasbag57
(g73
g59
NtRp5077
(dp5078
g62
(dp5079
sg71
g5061
sg64
(lp5080
g57
(g78
g59
NtRp5081
(dp5082
g62
(dp5083
sg71
g5077
sg64
(lp5084
g57
(g58
g59
NtRp5085
(dp5086
g62
(dp5087
g70
I1
ssg71
g5081
sg64
(lp5088
I00
asbasbasbag57
(g73
g59
NtRp5089
(dp5090
g62
(dp5091
sg71
g5061
sg64
(lp5092
g57
(g78
g59
NtRp5093
(dp5094
g62
(dp5095
sg71
g5089
sg64
(lp5096
g57
(g58
g59
NtRp5097
(dp5098
g62
(dp5099
g70
I1
ssg71
g5093
sg64
(lp5100
g4474
asbasbasbag57
(g73
g59
NtRp5101
(dp5102
g62
(dp5103
sg71
g5061
sg64
(lp5104
g57
(g78
g59
NtRp5105
(dp5106
g62
(dp5107
sg71
g5101
sg64
(lp5108
g57
(g58
g59
NtRp5109
(dp5110
g62
(dp5111
g70
I1
ssg71
g5105
sg64
(lp5112
(lp5113
(g4490
I00
g4488
tp5114
a(g4500
I00
g4498
tp5115
a(g4510
I00
g4508
tp5116
a(g4520
I00
g4518
tp5117
a(g4530
I00
g4528
tp5118
a(g4540
I00
g4538
tp5119
a(g4550
I00
g4548
tp5120
a(g4560
I00
g4558
tp5121
a(g4570
I00
g4568
tp5122
aasbasbasbasbasbasbasbag57
(g73
g59
NtRp5123
(dp5124
g62
(dp5125
sg71
g4993
sg64
(lp5126
g57
(g78
g59
NtRp5127
(dp5128
g62
(dp5129
sg71
g5123
sg64
(lp5130
g57
(g58
g59
NtRp5131
(dp5132
g62
(dp5133
g70
I2
ssg71
g5127
sg64
(lp5134
g57
(g66
g59
NtRp5135
(dp5136
g62
(dp5137
g70
I1
ssg71
Nsg64
(lp5138
g57
(g73
g59
NtRp5139
(dp5140
g62
(dp5141
sg71
g5135
sg64
(lp5142
g57
(g78
g59
NtRp5143
(dp5144
g62
(dp5145
sg71
g5139
sg64
(lp5146
g57
(g58
g59
NtRp5147
(dp5148
g62
(dp5149
g70
I1
ssg71
g5143
sg64
(lp5150
g4580
asbasbasbag57
(g73
g59
NtRp5151
(dp5152
g62
(dp5153
sg71
g5135
sg64
(lp5154
g57
(g78
g59
NtRp5155
(dp5156
g62
(dp5157
sg71
g5151
sg64
(lp5158
g57
(g58
g59
NtRp5159
(dp5160
g62
(dp5161
g70
I1
ssg71
g5155
sg64
(lp5162
I00
asbasbasbag57
(g73
g59
NtRp5163
(dp5164
g62
(dp5165
sg71
g5135
sg64
(lp5166
g57
(g78
g59
NtRp5167
(dp5168
g62
(dp5169
sg71
g5163
sg64
(lp5170
g57
(g58
g59
NtRp5171
(dp5172
g62
(dp5173
g70
I1
ssg71
g5167
sg64
(lp5174
g4578
asbasbasbag57
(g73
g59
NtRp5175
(dp5176
g62
(dp5177
sg71
g5135
sg64
(lp5178
g57
(g78
g59
NtRp5179
(dp5180
g62
(dp5181
sg71
g5175
sg64
(lp5182
g57
(g58
g59
NtRp5183
(dp5184
g62
(dp5185
g70
I1
ssg71
g5179
sg64
(lp5186
(lp5187
(g4594
I00
g4592
tp5188
a(g4604
I00
g4602
tp5189
a(g4614
I00
g4612
tp5190
a(g4624
I00
g4622
tp5191
a(g4634
I00
g4632
tp5192
a(g4644
I00
g4642
tp5193
a(g4654
I00
g4652
tp5194
a(g4664
I00
g4662
tp5195
a(g4674
I00
g4672
tp5196
a(g4684
I00
g4682
tp5197
a(g4694
I00
g4692
tp5198
aasbasbasbasbasbasbasbag57
(g73
g59
NtRp5199
(dp5200
g62
(dp5201
sg71
g4993
sg64
(lp5202
g57
(g78
g59
NtRp5203
(dp5204
g62
(dp5205
sg71
g5199
sg64
(lp5206
g57
(g58
g59
NtRp5207
(dp5208
g62
(dp5209
g70
I2
ssg71
g5203
sg64
(lp5210
g57
(g66
g59
NtRp5211
(dp5212
g62
(dp5213
g70
I1
ssg71
Nsg64
(lp5214
g57
(g73
g59
NtRp5215
(dp5216
g62
(dp5217
sg71
g5211
sg64
(lp5218
g57
(g78
g59
NtRp5219
(dp5220
g62
(dp5221
sg71
g5215
sg64
(lp5222
g57
(g58
g59
NtRp5223
(dp5224
g62
(dp5225
g70
I1
ssg71
g5219
sg64
(lp5226
g4704
asbasbasbag57
(g73
g59
NtRp5227
(dp5228
g62
(dp5229
sg71
g5211
sg64
(lp5230
g57
(g78
g59
NtRp5231
(dp5232
g62
(dp5233
sg71
g5227
sg64
(lp5234
g57
(g58
g59
NtRp5235
(dp5236
g62
(dp5237
g70
I1
ssg71
g5231
sg64
(lp5238
I00
asbasbasbag57
(g73
g59
NtRp5239
(dp5240
g62
(dp5241
sg71
g5211
sg64
(lp5242
g57
(g78
g59
NtRp5243
(dp5244
g62
(dp5245
sg71
g5239
sg64
(lp5246
g57
(g58
g59
NtRp5247
(dp5248
g62
(dp5249
g70
I1
ssg71
g5243
sg64
(lp5250
g4702
asbasbasbag57
(g73
g59
NtRp5251
(dp5252
g62
(dp5253
sg71
g5211
sg64
(lp5254
g57
(g78
g59
NtRp5255
(dp5256
g62
(dp5257
sg71
g5251
sg64
(lp5258
g57
(g58
g59
NtRp5259
(dp5260
g62
(dp5261
g70
I1
ssg71
g5255
sg64
(lp5262
(lp5263
(g4718
I00
g4716
tp5264
a(g4728
I00
g4726
tp5265
a(g4738
I00
g4736
tp5266
a(g4748
I00
g4746
tp5267
a(g4758
I00
g4756
tp5268
a(g4768
I00
g4766
tp5269
a(g4778
I00
g4776
tp5270
a(g4788
I00
g4786
tp5271
a(g4798
I00
g4796
tp5272
a(g4808
I00
g4806
tp5273
a(g4818
I00
g4816
tp5274
a(g4828
I00
g4826
tp5275
a(g4838
I00
g4836
tp5276
a(g4848
I00
g4846
tp5277
a(g4858
I00
g4856
tp5278
a(g4868
I00
g4866
tp5279
aasbasbasbasbasbasbasbag57
(g73
g59
NtRp5280
(dp5281
g62
(dp5282
sg71
g4993
sg64
(lp5283
g57
(g78
g59
NtRp5284
(dp5285
g62
(dp5286
sg71
g5280
sg64
(lp5287
g57
(g58
g59
NtRp5288
(dp5289
g62
(dp5290
g70
I2
ssg71
g5284
sg64
(lp5291
g57
(g66
g59
NtRp5292
(dp5293
g62
(dp5294
g70
I1
ssg71
Nsg64
(lp5295
g57
(g73
g59
NtRp5296
(dp5297
g62
(dp5298
sg71
g5292
sg64
(lp5299
g57
(g78
g59
NtRp5300
(dp5301
g62
(dp5302
sg71
g5296
sg64
(lp5303
g57
(g58
g59
NtRp5304
(dp5305
g62
(dp5306
g70
I1
ssg71
g5300
sg64
(lp5307
g4879
asbasbasbag57
(g73
g59
NtRp5308
(dp5309
g62
(dp5310
sg71
g5292
sg64
(lp5311
g57
(g78
g59
NtRp5312
(dp5313
g62
(dp5314
sg71
g5308
sg64
(lp5315
g57
(g58
g59
NtRp5316
(dp5317
g62
(dp5318
g70
I1
ssg71
g5312
sg64
(lp5319
I00
asbasbasbag57
(g73
g59
NtRp5320
(dp5321
g62
(dp5322
sg71
g5292
sg64
(lp5323
g57
(g78
g59
NtRp5324
(dp5325
g62
(dp5326
sg71
g5320
sg64
(lp5327
g57
(g58
g59
NtRp5328
(dp5329
g62
(dp5330
g70
I1
ssg71
g5324
sg64
(lp5331
Nasbasbasbag57
(g73
g59
NtRp5332
(dp5333
g62
(dp5334
sg71
g5292
sg64
(lp5335
g57
(g78
g59
NtRp5336
(dp5337
g62
(dp5338
sg71
g5332
sg64
(lp5339
g57
(g58
g59
NtRp5340
(dp5341
g62
(dp5342
g70
I1
ssg71
g5336
sg64
(lp5343
(lp5344
(g4893
I00
g4891
tp5345
a(g4903
I00
g4901
tp5346
a(g4913
I00
g4911
tp5347
aasbasbasbasbasbasbasbag57
(g73
g59
NtRp5348
(dp5349
g62
(dp5350
sg71
g4993
sg64
(lp5351
g57
(g78
g59
NtRp5352
(dp5353
g62
(dp5354
sg71
g5348
sg64
(lp5355
g57
(g58
g59
NtRp5356
(dp5357
g62
(dp5358
g70
I2
ssg71
g5352
sg64
(lp5359
g57
(g66
g59
NtRp5360
(dp5361
g62
(dp5362
g70
I1
ssg71
Nsg64
(lp5363
g57
(g73
g59
NtRp5364
(dp5365
g62
(dp5366
sg71
g5360
sg64
(lp5367
g57
(g78
g59
NtRp5368
(dp5369
g62
(dp5370
sg71
g5364
sg64
(lp5371
g57
(g58
g59
NtRp5372
(dp5373
g62
(dp5374
g70
I1
ssg71
g5368
sg64
(lp5375
g4922
asbasbasbag57
(g73
g59
NtRp5376
(dp5377
g62
(dp5378
sg71
g5360
sg64
(lp5379
g57
(g78
g59
NtRp5380
(dp5381
g62
(dp5382
sg71
g5376
sg64
(lp5383
g57
(g58
g59
NtRp5384
(dp5385
g62
(dp5386
g70
I1
ssg71
g5380
sg64
(lp5387
I00
asbasbasbag57
(g73
g59
NtRp5388
(dp5389
g62
(dp5390
sg71
g5360
sg64
(lp5391
g57
(g78
g59
NtRp5392
(dp5393
g62
(dp5394
sg71
g5388
sg64
(lp5395
g57
(g58
g59
NtRp5396
(dp5397
g62
(dp5398
g70
I1
ssg71
g5392
sg64
(lp5399
Nasbasbasbag57
(g73
g59
NtRp5400
(dp5401
g62
(dp5402
sg71
g5360
sg64
(lp5403
g57
(g78
g59
NtRp5404
(dp5405
g62
(dp5406
sg71
g5400
sg64
(lp5407
g57
(g58
g59
NtRp5408
(dp5409
g62
(dp5410
g70
I1
ssg71
g5404
sg64
(lp5411
(lp5412
(g4936
I00
g4934
tp5413
a(g4945
I00
g4662
tp5414
a(g4954
I00
g4672
tp5415
aasbasbasbasbasbasbasbasbasbasbasbasbasbasbasbasbasbasbasbag57
(g73
g59
NtRp5416
(dp5417
g62
(dp5418
sg71
g3674
sg64
(lp5419
g57
(g78
g59
NtRp5420
(dp5421
g62
(dp5422
g82
g83
ssg71
g5416
sg64
(lp5423
S'meta'
p5424
asbag57
(g78
g59
NtRp5425
(dp5426
g62
(dp5427
g89
g90
ssg71
g5416
sg64
(lp5428
S':'
asbag57
(g78
g59
NtRp5429
(dp5430
g62
(dp5431
sg71
g5416
sg64
(lp5432
g57
(g58
g59
NtRp5433
(dp5434
g62
(dp5435
g70
I5
ssg71
g5429
sg64
(lp5436
g57
(g66
g59
NtRp5437
(dp5438
g62
(dp5439
g70
I4
ssg71
Nsg64
(lp5440
g57
(g73
g59
NtRp5441
(dp5442
g62
(dp5443
sg71
g5437
sg64
(lp5444
g57
(g78
g59
NtRp5445
(dp5446
g62
(dp5447
g82
g83
ssg71
g5441
sg64
(lp5448
S'author'
p5449
asbag57
(g78
g59
NtRp5450
(dp5451
g62
(dp5452
g89
g90
ssg71
g5441
sg64
(lp5453
S':'
asbag57
(g78
g59
NtRp5454
(dp5455
g62
(dp5456
sg71
g5441
sg64
(lp5457
g57
(g58
g59
NtRp5458
(dp5459
g62
(dp5460
g70
I4
ssg71
g5454
sg64
(lp5461
S'Your Name <you@example.com>'
p5462
asbasbasbag57
(g73
g59
NtRp5463
(dp5464
g62
(dp5465
sg71
g5437
sg64
(lp5466
g57
(g78
g59
NtRp5467
(dp5468
g62
(dp5469
g82
g83
ssg71
g5463
sg64
(lp5470
S'description'
p5471
asbag57
(g78
g59
NtRp5472
(dp5473
g62
(dp5474
g89
g90
ssg71
g5463
sg64
(lp5475
S':'
asbag57
(g78
g59
NtRp5476
(dp5477
g62
(dp5478
sg71
g5463
sg64
(lp5479
g57
(g58
g59
NtRp5480
(dp5481
g62
(dp5482
g70
I4
ssg71
g5476
sg64
(lp5483
S'a cool new app'
p5484
asbasbasbag57
(g73
g59
NtRp5485
(dp5486
g62
(dp5487
sg71
g5437
sg64
(lp5488
g57
(g78
g59
NtRp5489
(dp5490
g62
(dp5491
g82
g83
ssg71
g5485
sg64
(lp5492
S'generator'
p5493
asbag57
(g78
g59
NtRp5494
(dp5495
g62
(dp5496
g89
g90
ssg71
g5485
sg64
(lp5497
S':'
asbag57
(g78
g59
NtRp5498
(dp5499
g62
(dp5500
sg71
g5485
sg64
(lp5501
g57
(g58
g59
NtRp5502
(dp5503
g62
(dp5504
g70
I4
ssg71
g5498
sg64
(lp5505
S'Web2py Web Framework'
p5506
asbasbasbag57
(g73
g59
NtRp5507
(dp5508
g62
(dp5509
sg71
g5437
sg64
(lp5510
g57
(g78
g59
NtRp5511
(dp5512
g62
(dp5513
g82
g83
ssg71
g5507
sg64
(lp5514
S'keywords'
p5515
asbag57
(g78
g59
NtRp5516
(dp5517
g62
(dp5518
g89
g90
ssg71
g5507
sg64
(lp5519
S':'
asbag57
(g78
g59
NtRp5520
(dp5521
g62
(dp5522
sg71
g5507
sg64
(lp5523
g57
(g58
g59
NtRp5524
(dp5525
g62
(dp5526
g70
I4
ssg71
g5520
sg64
(lp5527
S'web2py, python, framework'
p5528
asbasbasbasbasbasbasbag57
(g73
g59
NtRp5529
(dp5530
g62
(dp5531
sg71
g3674
sg64
(lp5532
g57
(g78
g59
NtRp5533
(dp5534
g62
(dp5535
g82
g83
ssg71
g5529
sg64
(lp5536
S'postprocessing'
p5537
asbag57
(g78
g59
NtRp5538
(dp5539
g62
(dp5540
g89
g90
ssg71
g5529
sg64
(lp5541
S':'
asbag57
(g78
g59
NtRp5542
(dp5543
g62
(dp5544
sg71
g5529
sg64
(lp5545
g57
(g58
g59
NtRp5546
(dp5547
g62
(dp5548
g70
I5
ssg71
g5542
sg64
(lp5549
g57
(g66
g59
NtRp5550
(dp5551
g62
(dp5552
g70
I4
ssg71
Nsg64
(lp5553
sbasbasbasbag57
(g73
g59
NtRp5554
(dp5555
g62
(dp5556
sg71
g3674
sg64
(lp5557
g57
(g78
g59
NtRp5558
(dp5559
g62
(dp5560
g82
g83
ssg71
g5554
sg64
(lp5561
S'session_file'
p5562
asbag57
(g78
g59
NtRp5563
(dp5564
g62
(dp5565
g89
g90
ssg71
g5554
sg64
(lp5566
S':'
asbag57
(g78
g59
NtRp5567
(dp5568
g62
(dp5569
sg71
g5554
sg64
(lp5570
g57
(g58
g59
NtRp5571
(dp5572
g62
(dp5573
g70
I5
ssg71
g5567
sg64
(lp5574
S"<open file '/home/piyush/web2py/applications/FotoBuk/sessions/127.0.0.1-961e4bc4-dc07-4e6c-b9f7-52a46e56ffd5', mode 'rb+' at 0xb398f338>"
p5575
asbasbasbag57
(g73
g59
NtRp5576
(dp5577
g62
(dp5578
sg71
g3674
sg64
(lp5579
g57
(g78
g59
NtRp5580
(dp5581
g62
(dp5582
g82
g83
ssg71
g5576
sg64
(lp5583
S'session_filename'
p5584
asbag57
(g78
g59
NtRp5585
(dp5586
g62
(dp5587
g89
g90
ssg71
g5576
sg64
(lp5588
S':'
asbag57
(g78
g59
NtRp5589
(dp5590
g62
(dp5591
sg71
g5576
sg64
(lp5592
g57
(g58
g59
NtRp5593
(dp5594
g62
(dp5595
g70
I5
ssg71
g5589
sg64
(lp5596
S'/home/piyush/web2py/applications/FotoBuk/sessions/127.0.0.1-961e4bc4-dc07-4e6c-b9f7-52a46e56ffd5'
p5597
asbasbasbag57
(g73
g59
NtRp5598
(dp5599
g62
(dp5600
sg71
g3674
sg64
(lp5601
g57
(g78
g59
NtRp5602
(dp5603
g62
(dp5604
g82
g83
ssg71
g5598
sg64
(lp5605
S'session_id'
p5606
asbag57
(g78
g59
NtRp5607
(dp5608
g62
(dp5609
g89
g90
ssg71
g5598
sg64
(lp5610
S':'
asbag57
(g78
g59
NtRp5611
(dp5612
g62
(dp5613
sg71
g5598
sg64
(lp5614
g57
(g58
g59
NtRp5615
(dp5616
g62
(dp5617
g70
I5
ssg71
g5611
sg64
(lp5618
g487
asbasbasbag57
(g73
g59
NtRp5619
(dp5620
g62
(dp5621
sg71
g3674
sg64
(lp5622
g57
(g78
g59
NtRp5623
(dp5624
g62
(dp5625
g82
g83
ssg71
g5619
sg64
(lp5626
S'session_id_name'
p5627
asbag57
(g78
g59
NtRp5628
(dp5629
g62
(dp5630
g89
g90
ssg71
g5619
sg64
(lp5631
S':'
asbag57
(g78
g59
NtRp5632
(dp5633
g62
(dp5634
sg71
g5619
sg64
(lp5635
g57
(g58
g59
NtRp5636
(dp5637
g62
(dp5638
g70
I5
ssg71
g5632
sg64
(lp5639
g3731
asbasbasbag57
(g73
g59
NtRp5640
(dp5641
g62
(dp5642
sg71
g3674
sg64
(lp5643
g57
(g78
g59
NtRp5644
(dp5645
g62
(dp5646
g82
g83
ssg71
g5640
sg64
(lp5647
S'session_locked'
p5648
asbag57
(g78
g59
NtRp5649
(dp5650
g62
(dp5651
g89
g90
ssg71
g5640
sg64
(lp5652
S':'
asbag57
(g78
g59
NtRp5653
(dp5654
g62
(dp5655
sg71
g5640
sg64
(lp5656
g57
(g58
g59
NtRp5657
(dp5658
g62
(dp5659
g70
I5
ssg71
g5653
sg64
(lp5660
g1856
asbasbasbag57
(g73
g59
NtRp5661
(dp5662
g62
(dp5663
sg71
g3674
sg64
(lp5664
g57
(g78
g59
NtRp5665
(dp5666
g62
(dp5667
g82
g83
ssg71
g5661
sg64
(lp5668
S'session_new'
p5669
asbag57
(g78
g59
NtRp5670
(dp5671
g62
(dp5672
g89
g90
ssg71
g5661
sg64
(lp5673
S':'
asbag57
(g78
g59
NtRp5674
(dp5675
g62
(dp5676
sg71
g5661
sg64
(lp5677
g57
(g58
g59
NtRp5678
(dp5679
g62
(dp5680
g70
I5
ssg71
g5674
sg64
(lp5681
g100
asbasbasbag57
(g73
g59
NtRp5682
(dp5683
g62
(dp5684
sg71
g3674
sg64
(lp5685
g57
(g78
g59
NtRp5686
(dp5687
g62
(dp5688
g82
g83
ssg71
g5682
sg64
(lp5689
S'status'
p5690
asbag57
(g78
g59
NtRp5691
(dp5692
g62
(dp5693
g89
g90
ssg71
g5682
sg64
(lp5694
S':'
asbag57
(g78
g59
NtRp5695
(dp5696
g62
(dp5697
sg71
g5682
sg64
(lp5698
g57
(g58
g59
NtRp5699
(dp5700
g62
(dp5701
g70
I5
ssg71
g5695
sg64
(lp5702
S'200'
p5703
asbasbasbag57
(g73
g59
NtRp5704
(dp5705
g62
(dp5706
sg71
g3674
sg64
(lp5707
g57
(g78
g59
NtRp5708
(dp5709
g62
(dp5710
g82
g83
ssg71
g5704
sg64
(lp5711
S'subtitle'
p5712
asbag57
(g78
g59
NtRp5713
(dp5714
g62
(dp5715
g89
g90
ssg71
g5704
sg64
(lp5716
S':'
asbag57
(g78
g59
NtRp5717
(dp5718
g62
(dp5719
sg71
g5704
sg64
(lp5720
g57
(g58
g59
NtRp5721
(dp5722
g62
(dp5723
g70
I5
ssg71
g5717
sg64
(lp5724
g4344
(S's\r\x00\x00\x00customize me!'
tRp5725
asbasbasbag57
(g73
g59
NtRp5726
(dp5727
g62
(dp5728
sg71
g3674
sg64
(lp5729
g57
(g78
g59
NtRp5730
(dp5731
g62
(dp5732
g82
g83
ssg71
g5726
sg64
(lp5733
S'title'
p5734
asbag57
(g78
g59
NtRp5735
(dp5736
g62
(dp5737
g89
g90
ssg71
g5726
sg64
(lp5738
S':'
asbag57
(g78
g59
NtRp5739
(dp5740
g62
(dp5741
sg71
g5726
sg64
(lp5742
g57
(g58
g59
NtRp5743
(dp5744
g62
(dp5745
g70
I5
ssg71
g5739
sg64
(lp5746
S'Fotobuk'
p5747
asbasbasbag57
(g73
g59
NtRp5748
(dp5749
g62
(dp5750
sg71
g3674
sg64
(lp5751
g57
(g78
g59
NtRp5752
(dp5753
g62
(dp5754
g82
g83
ssg71
g5748
sg64
(lp5755
S'view'
p5756
asbag57
(g78
g59
NtRp5757
(dp5758
g62
(dp5759
g89
g90
ssg71
g5748
sg64
(lp5760
S':'
asbag57
(g78
g59
NtRp5761
(dp5762
g62
(dp5763
sg71
g5748
sg64
(lp5764
g57
(g58
g59
NtRp5765
(dp5766
g62
(dp5767
g70
I5
ssg71
g5761
sg64
(lp5768
S'default/show.html'
p5769
asbasbasbasbasbsS'locals'
p5770
(dp5771
S'OBJECT'
p5772
S"<class 'gluon.html.OBJECT'>"
p5773
sS'SQLDB'
p5774
S"<class 'gluon.dal.DAL'>"
p5775
sg3235
S"<Storage {'_formkey[comment/create]': '601d7ee2-...login]': 'c82fc4e9-2191-4d05-baf2-68c4601679d6'}>"
p5776
sS'LINK'
p5777
S"<class 'gluon.html.LINK'>"
p5778
sS'Auth'
p5779
S"<class 'gluon.tools.Auth'>"
p5780
sS'BR'
p5781
S"<class 'gluon.html.BR'>"
p5782
sS'local_import'
p5783
S'<function <lambda>>'
p5784
sS'OPTGROUP'
p5785
S"<class 'gluon.html.OPTGROUP'>"
p5786
sS'__package__'
p5787
S'None'
p5788
sS'PRE'
p5789
S"<class 'gluon.html.PRE'>"
p5790
sS'IS_INT_IN_RANGE'
p5791
S"<class 'gluon.validators.IS_INT_IN_RANGE'>"
p5792
sS'left_sidebar_enabled'
p5793
g100
sS'IS_LOWER'
p5794
S"<class 'gluon.validators.IS_LOWER'>"
p5795
sS'IS_STRONG'
p5796
S"<class 'gluon.validators.IS_STRONG'>"
p5797
sS'cache'
p5798
S'<gluon.cache.Cache object>'
p5799
sS'IS_IN_DB'
p5800
S"<class 'gluon.validators.IS_IN_DB'>"
p5801
sS'TAG'
p5802
S'<gluon.html.__TAG__ object>'
p5803
sS'SQLField'
p5804
S"<class 'gluon.dal.Field'>"
p5805
sS'BODY'
p5806
S"<class 'gluon.html.BODY'>"
p5807
sS'IS_DATE_IN_RANGE'
p5808
S"<class 'gluon.validators.IS_DATE_IN_RANGE'>"
p5809
sS'TH'
p5810
S"<class 'gluon.html.TH'>"
p5811
sS'URL'
p5812
S'<function URL>'
p5813
sS'__file__'
p5814
S"'/home/piyush/web2py/applications/FotoBuk/views/default/show.html'"
p5815
sS'db'
p5816
S'<DAL sqlite://storage.sqlite>'
p5817
sS'auth'
p5818
S'<gluon.tools.Auth object>'
p5819
sS'P'
S"<class 'gluon.html.P'>"
p5820
sS'TFOOT'
p5821
S"<class 'gluon.html.TFOOT'>"
p5822
sS'XHTML'
p5823
S"<class 'gluon.html.XHTML'>"
p5824
sS'ON'
p5825
g1856
sS'OL'
p5826
S"<class 'gluon.html.OL'>"
p5827
sS'TEXTAREA'
p5828
S"<class 'gluon.html.TEXTAREA'>"
p5829
sS'MENU'
p5830
S"<class 'gluon.html.MENU'>"
p5831
sS'LOAD'
p5832
S'<function LOAD>'
p5833
sS'CODE'
p5834
S"<class 'gluon.html.CODE'>"
p5835
sS'HTTP'
p5836
S"<class 'gluon.http.HTTP'>"
p5837
sS'HR'
p5838
S"<class 'gluon.html.HR'>"
p5839
sS'IS_DATETIME'
p5840
S"<class 'gluon.validators.IS_DATETIME'>"
p5841
sS'HEAD'
p5842
S"<class 'gluon.html.HEAD'>"
p5843
sS'LABEL'
p5844
S"<class 'gluon.html.LABEL'>"
p5845
sS'CLEANUP'
p5846
S"<class 'gluon.validators.CLEANUP'>"
p5847
sS'SELECT'
p5848
S"<class 'gluon.html.SELECT'>"
p5849
sS'CENTER'
p5850
S"<class 'gluon.html.CENTER'>"
p5851
sS'Crud'
p5852
S"<class 'gluon.tools.Crud'>"
p5853
sS'comments'
p5854
S'<Rows (1)>'
p5855
sS'__builtins__'
p5856
S"{'ArithmeticError': <type 'exceptions.ArithmeticError'>, 'AssertionError': <type 'exceptions.AssertionError'>, 'AttributeError': <type 'exceptions.AttributeError'>, 'BaseException': <type 'exceptions.BaseException'>, 'BufferError': <type 'exceptions.BufferError'>, 'BytesWarning': <type 'exceptions.BytesWarning'>, 'DeprecationWarning': <type 'exceptions.DeprecationWarning'>, 'EOFError': <type 'exceptions.EOFError'>, 'Ellipsis': Ellipsis, 'EnvironmentError': <type 'exceptions.EnvironmentError'>, ...}"
p5857
sS'HTML'
p5858
S"<class 'gluon.html.HTML'>"
p5859
sS'SQLFORM'
p5860
S"<class 'gluon.sqlhtml.SQLFORM'>"
p5861
sS'EM'
p5862
S"<class 'gluon.html.EM'>"
p5863
sS'redirect'
p5864
S'<function redirect>'
p5865
sS'FIELDSET'
p5866
S"<class 'gluon.html.FIELDSET'>"
p5867
sS'IS_EQUAL_TO'
p5868
S"<class 'gluon.validators.IS_EQUAL_TO'>"
p5869
sS'embed64'
p5870
S'<function embed64>'
p5871
sS'IS_LIST_OF'
p5872
S"<class 'gluon.validators.IS_LIST_OF'>"
p5873
sS'__name__'
p5874
S"'__restricted__'"
p5875
sS'EMBED'
p5876
S"<class 'gluon.html.EMBED'>"
p5877
sS'_'
S'<function _>'
p5878
sS'FORM'
p5879
S"<class 'gluon.html.FORM'>"
p5880
sS'H2'
p5881
S"<class 'gluon.html.H2'>"
p5882
sS'H3'
p5883
S"<class 'gluon.html.H3'>"
p5884
sS'BUTTON'
p5885
S"<class 'gluon.html.BUTTON'>"
p5886
sS'H1'
p5887
S"<class 'gluon.html.H1'>"
p5888
sS'H6'
p5889
S"<class 'gluon.html.H6'>"
p5890
sS'H4'
p5891
S"<class 'gluon.html.H4'>"
p5892
sS'H5'
p5893
S"<class 'gluon.html.H5'>"
p5894
sS'UL'
p5895
S"<class 'gluon.html.UL'>"
p5896
sS'IS_UPPER'
p5897
S"<class 'gluon.validators.IS_UPPER'>"
p5898
sS'xmlescape'
p5899
S'<function xmlescape>'
p5900
sS'IS_TIME'
p5901
S"<class 'gluon.validators.IS_TIME'>"
p5902
sg306
S"<Row {'comment': <Row {'body': 'basnal', 'author...gluon.dal.RecordDeleter object at 0xb2f4e72c>}>}>"
p5903
sS'OPTION'
p5904
S"<class 'gluon.html.OPTION'>"
p5905
sS'TITLE'
p5906
S"<class 'gluon.html.TITLE'>"
p5907
sS'CRYPT'
p5908
S"<class 'gluon.validators.CRYPT'>"
p5909
sS'image'
p5910
S"<Row {'comment': <Set (comment.image_id = 1)>, '...: <gluon.dal.RecordDeleter object at 0x8d57f4c>}>"
p5911
sS'IS_EMPTY_OR'
p5912
S"<class 'gluon.validators.IS_EMPTY_OR'>"
p5913
sS'MARKMIN'
p5914
S"<class 'gluon.html.MARKMIN'>"
p5915
sS'INPUT'
p5916
S"<class 'gluon.html.INPUT'>"
p5917
sS'STRONG'
p5918
S"<class 'gluon.html.STRONG'>"
p5919
sS'COL'
p5920
S"<class 'gluon.html.COL'>"
p5921
sS'SCRIPT'
p5922
S"<class 'gluon.html.SCRIPT'>"
p5923
sS'is_mobile'
p5924
g100
sS'TABLE'
p5925
S"<class 'gluon.html.TABLE'>"
p5926
sS'IS_IPV4'
p5927
S"<class 'gluon.validators.IS_IPV4'>"
p5928
sS'IS_LENGTH'
p5929
S"<class 'gluon.validators.IS_LENGTH'>"
p5930
sS'XML'
p5931
S"<class 'gluon.html.XML'>"
p5932
sS'B'
S"<class 'gluon.html.B'>"
p5933
sS'form'
p5934
S'<gluon.sqlhtml.SQLFORM object>'
p5935
sS'SQLTABLE'
p5936
S"<class 'gluon.sqlhtml.SQLTABLE'>"
p5937
sS'IS_MATCH'
p5938
S"<class 'gluon.validators.IS_MATCH'>"
p5939
sS'IS_ALPHANUMERIC'
p5940
S"<class 'gluon.validators.IS_ALPHANUMERIC'>"
p5941
sS'SPAN'
p5942
S"<class 'gluon.html.SPAN'>"
p5943
sS'IS_SLUG'
p5944
S"<class 'gluon.validators.IS_SLUG'>"
p5945
sS'BEAUTIFY'
p5946
S"<class 'gluon.html.BEAUTIFY'>"
p5947
sS'META'
p5948
S"<class 'gluon.html.META'>"
p5949
sS'IS_DATE'
p5950
S"<class 'gluon.validators.IS_DATE'>"
p5951
sS'IS_EMAIL'
p5952
S"<class 'gluon.validators.IS_EMAIL'>"
p5953
sS'IS_NOT_EMPTY'
p5954
S"<class 'gluon.validators.IS_NOT_EMPTY'>"
p5955
sg56
S"<Storage {'function': 'show', 'body': <cStringIO...plications/FotoBuk/', 'post_vars': <Storage {}>}>"
p5956
sS'TBODY'
p5957
S"<class 'gluon.html.TBODY'>"
p5958
sS'CAT'
p5959
S"<class 'gluon.html.CAT'>"
p5960
sS'Field'
p5961
S"<class 'gluon.dal.Field'>"
p5962
sS'middle_columns'
p5963
S"'span12'"
p5964
sS'DIV'
p5965
S"<class 'gluon.html.DIV'>"
p5966
sS'LEGEND'
p5967
S"<class 'gluon.html.LEGEND'>"
p5968
sS'IMG'
p5969
S"<class 'gluon.html.IMG'>"
p5970
sS'COLGROUP'
p5971
S"<class 'gluon.html.COLGROUP'>"
p5972
sS'DAL'
p5973
S"<class 'gluon.dal.DAL'>"
p5974
sS'TT'
p5975
S"<class 'gluon.html.TT'>"
p5976
sS'TR'
p5977
S"<class 'gluon.html.TR'>"
p5978
sS'LI'
p5979
S"<class 'gluon.html.LI'>"
p5980
sS'right_sidebar_enabled'
p5981
g100
sS'IFRAME'
p5982
S"<class 'gluon.html.IFRAME'>"
p5983
sS'TD'
p5984
S"<class 'gluon.html.TD'>"
p5985
sS'IS_URL'
p5986
S"<class 'gluon.validators.IS_URL'>"
p5987
sS'A'
S"<class 'gluon.html.A'>"
p5988
sS'STYLE'
p5989
S"<class 'gluon.html.STYLE'>"
p5990
sS'IS_DATETIME_IN_RANGE'
p5991
S"<class 'gluon.validators.IS_DATETIME_IN_RANGE'>"
p5992
sS'IS_IMAGE'
p5993
S"<class 'gluon.validators.IS_IMAGE'>"
p5994
sS'I'
S"<class 'gluon.html.I'>"
p5995
sS'crud'
p5996
S'<gluon.tools.Crud object>'
p5997
sS'IS_NOT_IN_DB'
p5998
S"<class 'gluon.validators.IS_NOT_IN_DB'>"
p5999
sg3669
S"<Storage {'body': <cStringIO.StringO object at 0...da> at 0xb39e4d4c>, 'view': 'default/show.html'}>"
p6000
sS'THEAD'
p6001
S"<class 'gluon.html.THEAD'>"
p6002
sS'IS_NULL_OR'
p6003
S"<class 'gluon.validators.IS_EMPTY_OR'>"
p6004
sS'IS_FLOAT_IN_RANGE'
p6005
S"<class 'gluon.validators.IS_FLOAT_IN_RANGE'>"
p6006
sS'IS_EXPR'
p6007
S"<class 'gluon.validators.IS_EXPR'>"
p6008
sS'T'
S'<gluon.languages.translator object>'
p6009
sS'IS_IN_SET'
p6010
S"<class 'gluon.validators.IS_IN_SET'>"
p6011
sS'IS_UPLOAD_FILENAME'
p6012
S"<class 'gluon.validators.IS_UPLOAD_FILENAME'>"
p6013
sS'IS_DECIMAL_IN_RANGE'
p6014
S"<class 'gluon.validators.IS_DECIMAL_IN_RANGE'>"
p6015
sssS'traceback'
p6016
S'Traceback (most recent call last):\n  File "/home/piyush/web2py/gluon/restricted.py", line 209, in restricted\n    exec ccode in environment\n  File "/home/piyush/web2py/applications/FotoBuk/views/default/show.html", line 87, in <module>\nAttributeError: \'Row\' object has no attribute \'author\'\n'
p6017
s.